	.text
	.file	"bzlib.c"
	.globl	BZ2_bz__AssertH__fail   # -- Begin function BZ2_bz__AssertH__fail
	.p2align	4, 0x90
	.type	BZ2_bz__AssertH__fail,@function
BZ2_bz__AssertH__fail:                  # @BZ2_bz__AssertH__fail
	.cfi_startproc
# %bb.0:                                # %entry
	pushq	%rbp
	.cfi_def_cfa_offset 16
	.cfi_offset %rbp, -16
	movq	%rsp, %rbp
	.cfi_def_cfa_register %rbp
	pushq	%r14
	pushq	%rbx
	subq	$16, %rsp
	.cfi_offset %rbx, -32
	.cfi_offset %r14, -24
	movl	%edi, -20(%rbp)
	movq	stderr, %rbx
	movl	-20(%rbp), %r14d
	callq	BZ2_bzlibVersion
	movq	%rbx, %rdi
	movabsq	$.L.str, %rsi
	movl	%r14d, %edx
	movq	%rax, %rcx
	movb	$0, %al
	callq	fprintf
	cmpl	$1007, -20(%rbp)        # imm = 0x3EF
	jne	.LBB0_2
# %bb.1:                                # %if.then
	movq	stderr, %rdi
	movabsq	$.L.str.1, %rsi
	movb	$0, %al
	callq	fprintf
.LBB0_2:                                # %if.end
	movl	$3, %edi
	callq	exit
.Lfunc_end0:
	.size	BZ2_bz__AssertH__fail, .Lfunc_end0-BZ2_bz__AssertH__fail
	.cfi_endproc
                                        # -- End function
	.globl	BZ2_bzlibVersion        # -- Begin function BZ2_bzlibVersion
	.p2align	4, 0x90
	.type	BZ2_bzlibVersion,@function
BZ2_bzlibVersion:                       # @BZ2_bzlibVersion
	.cfi_startproc
# %bb.0:                                # %entry
	pushq	%rbp
	.cfi_def_cfa_offset 16
	.cfi_offset %rbp, -16
	movq	%rsp, %rbp
	.cfi_def_cfa_register %rbp
	movabsq	$.L.str.5, %rax
	popq	%rbp
	.cfi_def_cfa %rsp, 8
	retq
.Lfunc_end1:
	.size	BZ2_bzlibVersion, .Lfunc_end1-BZ2_bzlibVersion
	.cfi_endproc
                                        # -- End function
	.globl	BZ2_bzCompressInit      # -- Begin function BZ2_bzCompressInit
	.p2align	4, 0x90
	.type	BZ2_bzCompressInit,@function
BZ2_bzCompressInit:                     # @BZ2_bzCompressInit
	.cfi_startproc
# %bb.0:                                # %rand_bb
	pushq	%rbp
	.cfi_def_cfa_offset 16
	.cfi_offset %rbp, -16
	movq	%rsp, %rbp
	.cfi_def_cfa_register %rbp
	pushq	%r15
	pushq	%r14
	pushq	%r12
	pushq	%rbx
	.cfi_offset %rbx, -48
	.cfi_offset %r12, -40
	.cfi_offset %r14, -32
	.cfi_offset %r15, -24
	movl	%ecx, %r14d
	movl	%edx, %r15d
	movl	%esi, %r12d
	movq	%rdi, %rbx
	callq	get_urand
	cmpl	$0, %eax
	jne	.LBB2_5
# %bb.1:                                # %func_BZ2_bzCompressInit.92
	movq	%rbx, %rdi
	movl	%r12d, %esi
	movl	%r15d, %edx
	movl	%r14d, %ecx
	callq	BZ2_bzCompressInit.92
	popq	%rbx
	popq	%r12
	popq	%r14
	popq	%r15
	popq	%rbp
	.cfi_def_cfa %rsp, 8
	retq
.LBB2_2:                                # %func_BZ2_bzCompressInit.113
	.cfi_def_cfa %rbp, 16
	movq	%rbx, %rdi
	movl	%r12d, %esi
	movl	%r15d, %edx
	movl	%r14d, %ecx
	callq	BZ2_bzCompressInit.113
	popq	%rbx
	popq	%r12
	popq	%r14
	popq	%r15
	popq	%rbp
	.cfi_def_cfa %rsp, 8
	retq
.LBB2_3:                                # %func_BZ2_bzCompressInit.118
	.cfi_def_cfa %rbp, 16
	movq	%rbx, %rdi
	movl	%r12d, %esi
	movl	%r15d, %edx
	movl	%r14d, %ecx
	callq	BZ2_bzCompressInit.118
	popq	%rbx
	popq	%r12
	popq	%r14
	popq	%r15
	popq	%rbp
	.cfi_def_cfa %rsp, 8
	retq
.LBB2_4:                                # %func_BZ2_bzCompressInit.122
	.cfi_def_cfa %rbp, 16
	movq	%rbx, %rdi
	movl	%r12d, %esi
	movl	%r15d, %edx
	movl	%r14d, %ecx
	callq	BZ2_bzCompressInit.122
	popq	%rbx
	popq	%r12
	popq	%r14
	popq	%r15
	popq	%rbp
	.cfi_def_cfa %rsp, 8
	retq
.LBB2_5:                                # %ctrl0
	.cfi_def_cfa %rbp, 16
	cmpl	$1, %eax
	je	.LBB2_2
# %bb.6:                                # %ctrl1
	cmpl	$2, %eax
	je	.LBB2_3
	jmp	.LBB2_4
.Lfunc_end2:
	.size	BZ2_bzCompressInit, .Lfunc_end2-BZ2_bzCompressInit
	.cfi_endproc
                                        # -- End function
	.p2align	4, 0x90         # -- Begin function bz_config_ok
	.type	bz_config_ok,@function
bz_config_ok:                           # @bz_config_ok
	.cfi_startproc
# %bb.0:                                # %entry
	pushq	%rbp
	.cfi_def_cfa_offset 16
	.cfi_offset %rbp, -16
	movq	%rsp, %rbp
	.cfi_def_cfa_register %rbp
	movl	$1, %eax
	popq	%rbp
	.cfi_def_cfa %rsp, 8
	retq
.Lfunc_end3:
	.size	bz_config_ok, .Lfunc_end3-bz_config_ok
	.cfi_endproc
                                        # -- End function
	.p2align	4, 0x90         # -- Begin function default_bzalloc
	.type	default_bzalloc,@function
default_bzalloc:                        # @default_bzalloc
	.cfi_startproc
# %bb.0:                                # %rand_bb
	pushq	%rbp
	.cfi_def_cfa_offset 16
	.cfi_offset %rbp, -16
	movq	%rsp, %rbp
	.cfi_def_cfa_register %rbp
	pushq	%r15
	pushq	%r14
	pushq	%rbx
	pushq	%rax
	.cfi_offset %rbx, -40
	.cfi_offset %r14, -32
	.cfi_offset %r15, -24
	movl	%edx, %r14d
	movl	%esi, %r15d
	movq	%rdi, %rbx
	callq	get_urand
	cmpl	$0, %eax
	jne	.LBB4_5
# %bb.1:                                # %func_default_bzalloc.15
	movq	%rbx, %rdi
	movl	%r15d, %esi
	movl	%r14d, %edx
	callq	default_bzalloc.15
	addq	$8, %rsp
	popq	%rbx
	popq	%r14
	popq	%r15
	popq	%rbp
	.cfi_def_cfa %rsp, 8
	retq
.LBB4_2:                                # %func_default_bzalloc.74
	.cfi_def_cfa %rbp, 16
	movq	%rbx, %rdi
	movl	%r15d, %esi
	movl	%r14d, %edx
	callq	default_bzalloc.74
	addq	$8, %rsp
	popq	%rbx
	popq	%r14
	popq	%r15
	popq	%rbp
	.cfi_def_cfa %rsp, 8
	retq
.LBB4_3:                                # %func_default_bzalloc.98
	.cfi_def_cfa %rbp, 16
	movq	%rbx, %rdi
	movl	%r15d, %esi
	movl	%r14d, %edx
	callq	default_bzalloc.98
	addq	$8, %rsp
	popq	%rbx
	popq	%r14
	popq	%r15
	popq	%rbp
	.cfi_def_cfa %rsp, 8
	retq
.LBB4_4:                                # %func_default_bzalloc.102
	.cfi_def_cfa %rbp, 16
	movq	%rbx, %rdi
	movl	%r15d, %esi
	movl	%r14d, %edx
	callq	default_bzalloc.102
	addq	$8, %rsp
	popq	%rbx
	popq	%r14
	popq	%r15
	popq	%rbp
	.cfi_def_cfa %rsp, 8
	retq
.LBB4_5:                                # %ctrl0
	.cfi_def_cfa %rbp, 16
	cmpl	$1, %eax
	je	.LBB4_2
# %bb.6:                                # %ctrl1
	cmpl	$2, %eax
	je	.LBB4_3
	jmp	.LBB4_4
.Lfunc_end4:
	.size	default_bzalloc, .Lfunc_end4-default_bzalloc
	.cfi_endproc
                                        # -- End function
	.p2align	4, 0x90         # -- Begin function default_bzfree
	.type	default_bzfree,@function
default_bzfree:                         # @default_bzfree
	.cfi_startproc
# %bb.0:                                # %rand_bb
	pushq	%rbp
	.cfi_def_cfa_offset 16
	.cfi_offset %rbp, -16
	movq	%rsp, %rbp
	.cfi_def_cfa_register %rbp
	pushq	%r14
	pushq	%rbx
	.cfi_offset %rbx, -32
	.cfi_offset %r14, -24
	movq	%rsi, %r14
	movq	%rdi, %rbx
	callq	get_urand
	cmpl	$0, %eax
	jne	.LBB5_2
# %bb.1:                                # %func_default_bzfree.23
	movq	%rbx, %rdi
	movq	%r14, %rsi
	callq	default_bzfree.23
	popq	%rbx
	popq	%r14
	popq	%rbp
	.cfi_def_cfa %rsp, 8
	retq
.LBB5_2:                                # %func_default_bzfree.35
	.cfi_def_cfa %rbp, 16
	movq	%rbx, %rdi
	movq	%r14, %rsi
	callq	default_bzfree.35
	popq	%rbx
	popq	%r14
	popq	%rbp
	.cfi_def_cfa %rsp, 8
	retq
.Lfunc_end5:
	.size	default_bzfree, .Lfunc_end5-default_bzfree
	.cfi_endproc
                                        # -- End function
	.p2align	4, 0x90         # -- Begin function init_RL
	.type	init_RL,@function
init_RL:                                # @init_RL
	.cfi_startproc
# %bb.0:                                # %entry
	pushq	%rbp
	.cfi_def_cfa_offset 16
	.cfi_offset %rbp, -16
	movq	%rsp, %rbp
	.cfi_def_cfa_register %rbp
	movq	%rdi, -8(%rbp)
	movq	-8(%rbp), %rax
	movl	$256, 92(%rax)          # imm = 0x100
	movq	-8(%rbp), %rax
	movl	$0, 96(%rax)
	popq	%rbp
	.cfi_def_cfa %rsp, 8
	retq
.Lfunc_end6:
	.size	init_RL, .Lfunc_end6-init_RL
	.cfi_endproc
                                        # -- End function
	.p2align	4, 0x90         # -- Begin function prepare_new_block
	.type	prepare_new_block,@function
prepare_new_block:                      # @prepare_new_block
	.cfi_startproc
# %bb.0:                                # %rand_bb
	pushq	%rbp
	.cfi_def_cfa_offset 16
	.cfi_offset %rbp, -16
	movq	%rsp, %rbp
	.cfi_def_cfa_register %rbp
	pushq	%rbx
	pushq	%rax
	.cfi_offset %rbx, -24
	movq	%rdi, %rbx
	callq	get_urand
	cmpl	$0, %eax
	jne	.LBB7_2
# %bb.1:                                # %func_prepare_new_block.12
	movq	%rbx, %rdi
	callq	prepare_new_block.12
	addq	$8, %rsp
	popq	%rbx
	popq	%rbp
	.cfi_def_cfa %rsp, 8
	retq
.LBB7_2:                                # %func_prepare_new_block.57
	.cfi_def_cfa %rbp, 16
	movq	%rbx, %rdi
	callq	prepare_new_block.57
	addq	$8, %rsp
	popq	%rbx
	popq	%rbp
	.cfi_def_cfa %rsp, 8
	retq
.Lfunc_end7:
	.size	prepare_new_block, .Lfunc_end7-prepare_new_block
	.cfi_endproc
                                        # -- End function
	.globl	BZ2_bzCompress          # -- Begin function BZ2_bzCompress
	.p2align	4, 0x90
	.type	BZ2_bzCompress,@function
BZ2_bzCompress:                         # @BZ2_bzCompress
	.cfi_startproc
# %bb.0:                                # %rand_bb
	pushq	%rbp
	.cfi_def_cfa_offset 16
	.cfi_offset %rbp, -16
	movq	%rsp, %rbp
	.cfi_def_cfa_register %rbp
	pushq	%r14
	pushq	%rbx
	.cfi_offset %rbx, -32
	.cfi_offset %r14, -24
	movl	%esi, %r14d
	movq	%rdi, %rbx
	callq	get_urand
	cmpl	$0, %eax
	jne	.LBB8_5
# %bb.1:                                # %func_BZ2_bzCompress.33
	movq	%rbx, %rdi
	movl	%r14d, %esi
	callq	BZ2_bzCompress.33
	popq	%rbx
	popq	%r14
	popq	%rbp
	.cfi_def_cfa %rsp, 8
	retq
.LBB8_2:                                # %func_BZ2_bzCompress.36
	.cfi_def_cfa %rbp, 16
	movq	%rbx, %rdi
	movl	%r14d, %esi
	callq	BZ2_bzCompress.36
	popq	%rbx
	popq	%r14
	popq	%rbp
	.cfi_def_cfa %rsp, 8
	retq
.LBB8_3:                                # %func_BZ2_bzCompress.100
	.cfi_def_cfa %rbp, 16
	movq	%rbx, %rdi
	movl	%r14d, %esi
	callq	BZ2_bzCompress.100
	popq	%rbx
	popq	%r14
	popq	%rbp
	.cfi_def_cfa %rsp, 8
	retq
.LBB8_4:                                # %func_BZ2_bzCompress.108
	.cfi_def_cfa %rbp, 16
	movq	%rbx, %rdi
	movl	%r14d, %esi
	callq	BZ2_bzCompress.108
	popq	%rbx
	popq	%r14
	popq	%rbp
	.cfi_def_cfa %rsp, 8
	retq
.LBB8_5:                                # %ctrl0
	.cfi_def_cfa %rbp, 16
	cmpl	$1, %eax
	je	.LBB8_2
# %bb.6:                                # %ctrl1
	cmpl	$2, %eax
	je	.LBB8_3
	jmp	.LBB8_4
.Lfunc_end8:
	.size	BZ2_bzCompress, .Lfunc_end8-BZ2_bzCompress
	.cfi_endproc
                                        # -- End function
	.p2align	4, 0x90         # -- Begin function handle_compress
	.type	handle_compress,@function
handle_compress:                        # @handle_compress
	.cfi_startproc
# %bb.0:                                # %rand_bb
	pushq	%rbp
	.cfi_def_cfa_offset 16
	.cfi_offset %rbp, -16
	movq	%rsp, %rbp
	.cfi_def_cfa_register %rbp
	pushq	%rbx
	pushq	%rax
	.cfi_offset %rbx, -24
	movq	%rdi, %rbx
	callq	get_urand
	cmpl	$0, %eax
	jne	.LBB9_5
# %bb.1:                                # %func_handle_compress.3
	movq	%rbx, %rdi
	callq	handle_compress.3
	movzbl	%al, %eax
	addq	$8, %rsp
	popq	%rbx
	popq	%rbp
	.cfi_def_cfa %rsp, 8
	retq
.LBB9_2:                                # %func_handle_compress.27
	.cfi_def_cfa %rbp, 16
	movq	%rbx, %rdi
	callq	handle_compress.27
	movzbl	%al, %eax
	addq	$8, %rsp
	popq	%rbx
	popq	%rbp
	.cfi_def_cfa %rsp, 8
	retq
.LBB9_3:                                # %func_handle_compress.67
	.cfi_def_cfa %rbp, 16
	movq	%rbx, %rdi
	callq	handle_compress.67
	movzbl	%al, %eax
	addq	$8, %rsp
	popq	%rbx
	popq	%rbp
	.cfi_def_cfa %rsp, 8
	retq
.LBB9_4:                                # %func_handle_compress.73
	.cfi_def_cfa %rbp, 16
	movq	%rbx, %rdi
	callq	handle_compress.73
	movzbl	%al, %eax
	addq	$8, %rsp
	popq	%rbx
	popq	%rbp
	.cfi_def_cfa %rsp, 8
	retq
.LBB9_5:                                # %ctrl0
	.cfi_def_cfa %rbp, 16
	cmpl	$1, %eax
	je	.LBB9_2
# %bb.6:                                # %ctrl1
	cmpl	$2, %eax
	je	.LBB9_3
	jmp	.LBB9_4
.Lfunc_end9:
	.size	handle_compress, .Lfunc_end9-handle_compress
	.cfi_endproc
                                        # -- End function
	.p2align	4, 0x90         # -- Begin function isempty_RL
	.type	isempty_RL,@function
isempty_RL:                             # @isempty_RL
	.cfi_startproc
# %bb.0:                                # %rand_bb
	pushq	%rbp
	.cfi_def_cfa_offset 16
	.cfi_offset %rbp, -16
	movq	%rsp, %rbp
	.cfi_def_cfa_register %rbp
	pushq	%rbx
	pushq	%rax
	.cfi_offset %rbx, -24
	movq	%rdi, %rbx
	callq	get_urand
	cmpl	$0, %eax
	jne	.LBB10_2
# %bb.1:                                # %func_isempty_RL.82
	movq	%rbx, %rdi
	callq	isempty_RL.82
	movzbl	%al, %eax
	addq	$8, %rsp
	popq	%rbx
	popq	%rbp
	.cfi_def_cfa %rsp, 8
	retq
.LBB10_2:                               # %func_isempty_RL.85
	.cfi_def_cfa %rbp, 16
	movq	%rbx, %rdi
	callq	isempty_RL.85
	movzbl	%al, %eax
	addq	$8, %rsp
	popq	%rbx
	popq	%rbp
	.cfi_def_cfa %rsp, 8
	retq
.Lfunc_end10:
	.size	isempty_RL, .Lfunc_end10-isempty_RL
	.cfi_endproc
                                        # -- End function
	.globl	BZ2_bzCompressEnd       # -- Begin function BZ2_bzCompressEnd
	.p2align	4, 0x90
	.type	BZ2_bzCompressEnd,@function
BZ2_bzCompressEnd:                      # @BZ2_bzCompressEnd
	.cfi_startproc
# %bb.0:                                # %rand_bb
	pushq	%rbp
	.cfi_def_cfa_offset 16
	.cfi_offset %rbp, -16
	movq	%rsp, %rbp
	.cfi_def_cfa_register %rbp
	pushq	%rbx
	pushq	%rax
	.cfi_offset %rbx, -24
	movq	%rdi, %rbx
	callq	get_urand
	cmpl	$0, %eax
	jne	.LBB11_5
# %bb.1:                                # %func_BZ2_bzCompressEnd.56
	movq	%rbx, %rdi
	callq	BZ2_bzCompressEnd.56
	addq	$8, %rsp
	popq	%rbx
	popq	%rbp
	.cfi_def_cfa %rsp, 8
	retq
.LBB11_2:                               # %func_BZ2_bzCompressEnd.81
	.cfi_def_cfa %rbp, 16
	movq	%rbx, %rdi
	callq	BZ2_bzCompressEnd.81
	addq	$8, %rsp
	popq	%rbx
	popq	%rbp
	.cfi_def_cfa %rsp, 8
	retq
.LBB11_3:                               # %func_BZ2_bzCompressEnd.99
	.cfi_def_cfa %rbp, 16
	movq	%rbx, %rdi
	callq	BZ2_bzCompressEnd.99
	addq	$8, %rsp
	popq	%rbx
	popq	%rbp
	.cfi_def_cfa %rsp, 8
	retq
.LBB11_4:                               # %func_BZ2_bzCompressEnd.103
	.cfi_def_cfa %rbp, 16
	movq	%rbx, %rdi
	callq	BZ2_bzCompressEnd.103
	addq	$8, %rsp
	popq	%rbx
	popq	%rbp
	.cfi_def_cfa %rsp, 8
	retq
.LBB11_5:                               # %ctrl0
	.cfi_def_cfa %rbp, 16
	cmpl	$1, %eax
	je	.LBB11_2
# %bb.6:                                # %ctrl1
	cmpl	$2, %eax
	je	.LBB11_3
	jmp	.LBB11_4
.Lfunc_end11:
	.size	BZ2_bzCompressEnd, .Lfunc_end11-BZ2_bzCompressEnd
	.cfi_endproc
                                        # -- End function
	.globl	BZ2_bzDecompressInit    # -- Begin function BZ2_bzDecompressInit
	.p2align	4, 0x90
	.type	BZ2_bzDecompressInit,@function
BZ2_bzDecompressInit:                   # @BZ2_bzDecompressInit
	.cfi_startproc
# %bb.0:                                # %rand_bb
	pushq	%rbp
	.cfi_def_cfa_offset 16
	.cfi_offset %rbp, -16
	movq	%rsp, %rbp
	.cfi_def_cfa_register %rbp
	pushq	%r15
	pushq	%r14
	pushq	%rbx
	pushq	%rax
	.cfi_offset %rbx, -40
	.cfi_offset %r14, -32
	.cfi_offset %r15, -24
	movl	%edx, %r14d
	movl	%esi, %r15d
	movq	%rdi, %rbx
	callq	get_urand
	cmpl	$0, %eax
	jne	.LBB12_5
# %bb.1:                                # %func_BZ2_bzDecompressInit.38
	movq	%rbx, %rdi
	movl	%r15d, %esi
	movl	%r14d, %edx
	callq	BZ2_bzDecompressInit.38
	addq	$8, %rsp
	popq	%rbx
	popq	%r14
	popq	%r15
	popq	%rbp
	.cfi_def_cfa %rsp, 8
	retq
.LBB12_2:                               # %func_BZ2_bzDecompressInit.45
	.cfi_def_cfa %rbp, 16
	movq	%rbx, %rdi
	movl	%r15d, %esi
	movl	%r14d, %edx
	callq	BZ2_bzDecompressInit.45
	addq	$8, %rsp
	popq	%rbx
	popq	%r14
	popq	%r15
	popq	%rbp
	.cfi_def_cfa %rsp, 8
	retq
.LBB12_3:                               # %func_BZ2_bzDecompressInit.58
	.cfi_def_cfa %rbp, 16
	movq	%rbx, %rdi
	movl	%r15d, %esi
	movl	%r14d, %edx
	callq	BZ2_bzDecompressInit.58
	addq	$8, %rsp
	popq	%rbx
	popq	%r14
	popq	%r15
	popq	%rbp
	.cfi_def_cfa %rsp, 8
	retq
.LBB12_4:                               # %func_BZ2_bzDecompressInit.68
	.cfi_def_cfa %rbp, 16
	movq	%rbx, %rdi
	movl	%r15d, %esi
	movl	%r14d, %edx
	callq	BZ2_bzDecompressInit.68
	addq	$8, %rsp
	popq	%rbx
	popq	%r14
	popq	%r15
	popq	%rbp
	.cfi_def_cfa %rsp, 8
	retq
.LBB12_5:                               # %ctrl0
	.cfi_def_cfa %rbp, 16
	cmpl	$1, %eax
	je	.LBB12_2
# %bb.6:                                # %ctrl1
	cmpl	$2, %eax
	je	.LBB12_3
	jmp	.LBB12_4
.Lfunc_end12:
	.size	BZ2_bzDecompressInit, .Lfunc_end12-BZ2_bzDecompressInit
	.cfi_endproc
                                        # -- End function
	.globl	BZ2_indexIntoF          # -- Begin function BZ2_indexIntoF
	.p2align	4, 0x90
	.type	BZ2_indexIntoF,@function
BZ2_indexIntoF:                         # @BZ2_indexIntoF
	.cfi_startproc
# %bb.0:                                # %rand_bb
	pushq	%rbp
	.cfi_def_cfa_offset 16
	.cfi_offset %rbp, -16
	movq	%rsp, %rbp
	.cfi_def_cfa_register %rbp
	pushq	%r14
	pushq	%rbx
	.cfi_offset %rbx, -32
	.cfi_offset %r14, -24
	movq	%rsi, %r14
	movl	%edi, %ebx
	callq	get_urand
	cmpl	$0, %eax
	jne	.LBB13_5
# %bb.1:                                # %func_BZ2_indexIntoF.51
	movl	%ebx, %edi
	movq	%r14, %rsi
	callq	BZ2_indexIntoF.51
	popq	%rbx
	popq	%r14
	popq	%rbp
	.cfi_def_cfa %rsp, 8
	retq
.LBB13_2:                               # %func_BZ2_indexIntoF.66
	.cfi_def_cfa %rbp, 16
	movl	%ebx, %edi
	movq	%r14, %rsi
	callq	BZ2_indexIntoF.66
	popq	%rbx
	popq	%r14
	popq	%rbp
	.cfi_def_cfa %rsp, 8
	retq
.LBB13_3:                               # %func_BZ2_indexIntoF.80
	.cfi_def_cfa %rbp, 16
	movl	%ebx, %edi
	movq	%r14, %rsi
	callq	BZ2_indexIntoF.80
	popq	%rbx
	popq	%r14
	popq	%rbp
	.cfi_def_cfa %rsp, 8
	retq
.LBB13_4:                               # %func_BZ2_indexIntoF.95
	.cfi_def_cfa %rbp, 16
	movl	%ebx, %edi
	movq	%r14, %rsi
	callq	BZ2_indexIntoF.95
	popq	%rbx
	popq	%r14
	popq	%rbp
	.cfi_def_cfa %rsp, 8
	retq
.LBB13_5:                               # %ctrl0
	.cfi_def_cfa %rbp, 16
	cmpl	$1, %eax
	je	.LBB13_2
# %bb.6:                                # %ctrl1
	cmpl	$2, %eax
	je	.LBB13_3
	jmp	.LBB13_4
.Lfunc_end13:
	.size	BZ2_indexIntoF, .Lfunc_end13-BZ2_indexIntoF
	.cfi_endproc
                                        # -- End function
	.globl	BZ2_bzDecompress        # -- Begin function BZ2_bzDecompress
	.p2align	4, 0x90
	.type	BZ2_bzDecompress,@function
BZ2_bzDecompress:                       # @BZ2_bzDecompress
	.cfi_startproc
# %bb.0:                                # %rand_bb
	pushq	%rbp
	.cfi_def_cfa_offset 16
	.cfi_offset %rbp, -16
	movq	%rsp, %rbp
	.cfi_def_cfa_register %rbp
	pushq	%rbx
	pushq	%rax
	.cfi_offset %rbx, -24
	movq	%rdi, %rbx
	callq	get_urand
	cmpl	$0, %eax
	jne	.LBB14_5
# %bb.1:                                # %func_BZ2_bzDecompress.48
	movq	%rbx, %rdi
	callq	BZ2_bzDecompress.48
	addq	$8, %rsp
	popq	%rbx
	popq	%rbp
	.cfi_def_cfa %rsp, 8
	retq
.LBB14_2:                               # %func_BZ2_bzDecompress.49
	.cfi_def_cfa %rbp, 16
	movq	%rbx, %rdi
	callq	BZ2_bzDecompress.49
	addq	$8, %rsp
	popq	%rbx
	popq	%rbp
	.cfi_def_cfa %rsp, 8
	retq
.LBB14_3:                               # %func_BZ2_bzDecompress.60
	.cfi_def_cfa %rbp, 16
	movq	%rbx, %rdi
	callq	BZ2_bzDecompress.60
	addq	$8, %rsp
	popq	%rbx
	popq	%rbp
	.cfi_def_cfa %rsp, 8
	retq
.LBB14_4:                               # %func_BZ2_bzDecompress.69
	.cfi_def_cfa %rbp, 16
	movq	%rbx, %rdi
	callq	BZ2_bzDecompress.69
	addq	$8, %rsp
	popq	%rbx
	popq	%rbp
	.cfi_def_cfa %rsp, 8
	retq
.LBB14_5:                               # %ctrl0
	.cfi_def_cfa %rbp, 16
	cmpl	$1, %eax
	je	.LBB14_2
# %bb.6:                                # %ctrl1
	cmpl	$2, %eax
	je	.LBB14_3
	jmp	.LBB14_4
.Lfunc_end14:
	.size	BZ2_bzDecompress, .Lfunc_end14-BZ2_bzDecompress
	.cfi_endproc
                                        # -- End function
	.p2align	4, 0x90         # -- Begin function unRLE_obuf_to_output_SMALL
	.type	unRLE_obuf_to_output_SMALL,@function
unRLE_obuf_to_output_SMALL:             # @unRLE_obuf_to_output_SMALL
	.cfi_startproc
# %bb.0:                                # %rand_bb
	pushq	%rbp
	.cfi_def_cfa_offset 16
	.cfi_offset %rbp, -16
	movq	%rsp, %rbp
	.cfi_def_cfa_register %rbp
	pushq	%rbx
	pushq	%rax
	.cfi_offset %rbx, -24
	movq	%rdi, %rbx
	callq	get_urand
	cmpl	$0, %eax
	jne	.LBB15_5
# %bb.1:                                # %func_unRLE_obuf_to_output_SMALL.109
	movq	%rbx, %rdi
	callq	unRLE_obuf_to_output_SMALL.109
	movzbl	%al, %eax
	addq	$8, %rsp
	popq	%rbx
	popq	%rbp
	.cfi_def_cfa %rsp, 8
	retq
.LBB15_2:                               # %func_unRLE_obuf_to_output_SMALL.121
	.cfi_def_cfa %rbp, 16
	movq	%rbx, %rdi
	callq	unRLE_obuf_to_output_SMALL.121
	movzbl	%al, %eax
	addq	$8, %rsp
	popq	%rbx
	popq	%rbp
	.cfi_def_cfa %rsp, 8
	retq
.LBB15_3:                               # %func_unRLE_obuf_to_output_SMALL.123
	.cfi_def_cfa %rbp, 16
	movq	%rbx, %rdi
	callq	unRLE_obuf_to_output_SMALL.123
	movzbl	%al, %eax
	addq	$8, %rsp
	popq	%rbx
	popq	%rbp
	.cfi_def_cfa %rsp, 8
	retq
.LBB15_4:                               # %func_unRLE_obuf_to_output_SMALL.126
	.cfi_def_cfa %rbp, 16
	movq	%rbx, %rdi
	callq	unRLE_obuf_to_output_SMALL.126
	movzbl	%al, %eax
	addq	$8, %rsp
	popq	%rbx
	popq	%rbp
	.cfi_def_cfa %rsp, 8
	retq
.LBB15_5:                               # %ctrl0
	.cfi_def_cfa %rbp, 16
	cmpl	$1, %eax
	je	.LBB15_2
# %bb.6:                                # %ctrl1
	cmpl	$2, %eax
	je	.LBB15_3
	jmp	.LBB15_4
.Lfunc_end15:
	.size	unRLE_obuf_to_output_SMALL, .Lfunc_end15-unRLE_obuf_to_output_SMALL
	.cfi_endproc
                                        # -- End function
	.p2align	4, 0x90         # -- Begin function unRLE_obuf_to_output_FAST
	.type	unRLE_obuf_to_output_FAST,@function
unRLE_obuf_to_output_FAST:              # @unRLE_obuf_to_output_FAST
	.cfi_startproc
# %bb.0:                                # %rand_bb
	pushq	%rbp
	.cfi_def_cfa_offset 16
	.cfi_offset %rbp, -16
	movq	%rsp, %rbp
	.cfi_def_cfa_register %rbp
	pushq	%rbx
	pushq	%rax
	.cfi_offset %rbx, -24
	movq	%rdi, %rbx
	callq	get_urand
	cmpl	$0, %eax
	jne	.LBB16_5
# %bb.1:                                # %func_unRLE_obuf_to_output_FAST.18
	movq	%rbx, %rdi
	callq	unRLE_obuf_to_output_FAST.18
	movzbl	%al, %eax
	addq	$8, %rsp
	popq	%rbx
	popq	%rbp
	.cfi_def_cfa %rsp, 8
	retq
.LBB16_2:                               # %func_unRLE_obuf_to_output_FAST.25
	.cfi_def_cfa %rbp, 16
	movq	%rbx, %rdi
	callq	unRLE_obuf_to_output_FAST.25
	movzbl	%al, %eax
	addq	$8, %rsp
	popq	%rbx
	popq	%rbp
	.cfi_def_cfa %rsp, 8
	retq
.LBB16_3:                               # %func_unRLE_obuf_to_output_FAST.44
	.cfi_def_cfa %rbp, 16
	movq	%rbx, %rdi
	callq	unRLE_obuf_to_output_FAST.44
	movzbl	%al, %eax
	addq	$8, %rsp
	popq	%rbx
	popq	%rbp
	.cfi_def_cfa %rsp, 8
	retq
.LBB16_4:                               # %func_unRLE_obuf_to_output_FAST.62
	.cfi_def_cfa %rbp, 16
	movq	%rbx, %rdi
	callq	unRLE_obuf_to_output_FAST.62
	movzbl	%al, %eax
	addq	$8, %rsp
	popq	%rbx
	popq	%rbp
	.cfi_def_cfa %rsp, 8
	retq
.LBB16_5:                               # %ctrl0
	.cfi_def_cfa %rbp, 16
	cmpl	$1, %eax
	je	.LBB16_2
# %bb.6:                                # %ctrl1
	cmpl	$2, %eax
	je	.LBB16_3
	jmp	.LBB16_4
.Lfunc_end16:
	.size	unRLE_obuf_to_output_FAST, .Lfunc_end16-unRLE_obuf_to_output_FAST
	.cfi_endproc
                                        # -- End function
	.globl	BZ2_bzDecompressEnd     # -- Begin function BZ2_bzDecompressEnd
	.p2align	4, 0x90
	.type	BZ2_bzDecompressEnd,@function
BZ2_bzDecompressEnd:                    # @BZ2_bzDecompressEnd
	.cfi_startproc
# %bb.0:                                # %rand_bb
	pushq	%rbp
	.cfi_def_cfa_offset 16
	.cfi_offset %rbp, -16
	movq	%rsp, %rbp
	.cfi_def_cfa_register %rbp
	pushq	%rbx
	pushq	%rax
	.cfi_offset %rbx, -24
	movq	%rdi, %rbx
	callq	get_urand
	cmpl	$0, %eax
	jne	.LBB17_5
# %bb.1:                                # %func_BZ2_bzDecompressEnd.31
	movq	%rbx, %rdi
	callq	BZ2_bzDecompressEnd.31
	addq	$8, %rsp
	popq	%rbx
	popq	%rbp
	.cfi_def_cfa %rsp, 8
	retq
.LBB17_2:                               # %func_BZ2_bzDecompressEnd.91
	.cfi_def_cfa %rbp, 16
	movq	%rbx, %rdi
	callq	BZ2_bzDecompressEnd.91
	addq	$8, %rsp
	popq	%rbx
	popq	%rbp
	.cfi_def_cfa %rsp, 8
	retq
.LBB17_3:                               # %func_BZ2_bzDecompressEnd.115
	.cfi_def_cfa %rbp, 16
	movq	%rbx, %rdi
	callq	BZ2_bzDecompressEnd.115
	addq	$8, %rsp
	popq	%rbx
	popq	%rbp
	.cfi_def_cfa %rsp, 8
	retq
.LBB17_4:                               # %func_BZ2_bzDecompressEnd.117
	.cfi_def_cfa %rbp, 16
	movq	%rbx, %rdi
	callq	BZ2_bzDecompressEnd.117
	addq	$8, %rsp
	popq	%rbx
	popq	%rbp
	.cfi_def_cfa %rsp, 8
	retq
.LBB17_5:                               # %ctrl0
	.cfi_def_cfa %rbp, 16
	cmpl	$1, %eax
	je	.LBB17_2
# %bb.6:                                # %ctrl1
	cmpl	$2, %eax
	je	.LBB17_3
	jmp	.LBB17_4
.Lfunc_end17:
	.size	BZ2_bzDecompressEnd, .Lfunc_end17-BZ2_bzDecompressEnd
	.cfi_endproc
                                        # -- End function
	.globl	BZ2_bzWriteOpen         # -- Begin function BZ2_bzWriteOpen
	.p2align	4, 0x90
	.type	BZ2_bzWriteOpen,@function
BZ2_bzWriteOpen:                        # @BZ2_bzWriteOpen
	.cfi_startproc
# %bb.0:                                # %rand_bb
	pushq	%rbp
	.cfi_def_cfa_offset 16
	.cfi_offset %rbp, -16
	movq	%rsp, %rbp
	.cfi_def_cfa_register %rbp
	pushq	%r15
	pushq	%r14
	pushq	%r13
	pushq	%r12
	pushq	%rbx
	pushq	%rax
	.cfi_offset %rbx, -56
	.cfi_offset %r12, -48
	.cfi_offset %r13, -40
	.cfi_offset %r14, -32
	.cfi_offset %r15, -24
	movl	%r8d, %r14d
	movl	%ecx, %r15d
	movl	%edx, %r12d
	movq	%rsi, %r13
	movq	%rdi, %rbx
	callq	get_urand
	cmpl	$0, %eax
	jne	.LBB18_5
# %bb.1:                                # %func_BZ2_bzWriteOpen.1
	movq	%rbx, %rdi
	movq	%r13, %rsi
	movl	%r12d, %edx
	movl	%r15d, %ecx
	movl	%r14d, %r8d
	callq	BZ2_bzWriteOpen.1
	addq	$8, %rsp
	popq	%rbx
	popq	%r12
	popq	%r13
	popq	%r14
	popq	%r15
	popq	%rbp
	.cfi_def_cfa %rsp, 8
	retq
.LBB18_2:                               # %func_BZ2_bzWriteOpen.42
	.cfi_def_cfa %rbp, 16
	movq	%rbx, %rdi
	movq	%r13, %rsi
	movl	%r12d, %edx
	movl	%r15d, %ecx
	movl	%r14d, %r8d
	callq	BZ2_bzWriteOpen.42
	addq	$8, %rsp
	popq	%rbx
	popq	%r12
	popq	%r13
	popq	%r14
	popq	%r15
	popq	%rbp
	.cfi_def_cfa %rsp, 8
	retq
.LBB18_3:                               # %func_BZ2_bzWriteOpen.96
	.cfi_def_cfa %rbp, 16
	movq	%rbx, %rdi
	movq	%r13, %rsi
	movl	%r12d, %edx
	movl	%r15d, %ecx
	movl	%r14d, %r8d
	callq	BZ2_bzWriteOpen.96
	addq	$8, %rsp
	popq	%rbx
	popq	%r12
	popq	%r13
	popq	%r14
	popq	%r15
	popq	%rbp
	.cfi_def_cfa %rsp, 8
	retq
.LBB18_4:                               # %func_BZ2_bzWriteOpen.105
	.cfi_def_cfa %rbp, 16
	movq	%rbx, %rdi
	movq	%r13, %rsi
	movl	%r12d, %edx
	movl	%r15d, %ecx
	movl	%r14d, %r8d
	callq	BZ2_bzWriteOpen.105
	addq	$8, %rsp
	popq	%rbx
	popq	%r12
	popq	%r13
	popq	%r14
	popq	%r15
	popq	%rbp
	.cfi_def_cfa %rsp, 8
	retq
.LBB18_5:                               # %ctrl0
	.cfi_def_cfa %rbp, 16
	cmpl	$1, %eax
	je	.LBB18_2
# %bb.6:                                # %ctrl1
	cmpl	$2, %eax
	je	.LBB18_3
	jmp	.LBB18_4
.Lfunc_end18:
	.size	BZ2_bzWriteOpen, .Lfunc_end18-BZ2_bzWriteOpen
	.cfi_endproc
                                        # -- End function
	.globl	BZ2_bzWrite             # -- Begin function BZ2_bzWrite
	.p2align	4, 0x90
	.type	BZ2_bzWrite,@function
BZ2_bzWrite:                            # @BZ2_bzWrite
	.cfi_startproc
# %bb.0:                                # %rand_bb
	pushq	%rbp
	.cfi_def_cfa_offset 16
	.cfi_offset %rbp, -16
	movq	%rsp, %rbp
	.cfi_def_cfa_register %rbp
	pushq	%r15
	pushq	%r14
	pushq	%r12
	pushq	%rbx
	.cfi_offset %rbx, -48
	.cfi_offset %r12, -40
	.cfi_offset %r14, -32
	.cfi_offset %r15, -24
	movl	%ecx, %r14d
	movq	%rdx, %r15
	movq	%rsi, %r12
	movq	%rdi, %rbx
	callq	get_urand
	cmpl	$0, %eax
	jne	.LBB19_5
# %bb.1:                                # %func_BZ2_bzWrite.24
	movq	%rbx, %rdi
	movq	%r12, %rsi
	movq	%r15, %rdx
	movl	%r14d, %ecx
	callq	BZ2_bzWrite.24
	popq	%rbx
	popq	%r12
	popq	%r14
	popq	%r15
	popq	%rbp
	.cfi_def_cfa %rsp, 8
	retq
.LBB19_2:                               # %func_BZ2_bzWrite.29
	.cfi_def_cfa %rbp, 16
	movq	%rbx, %rdi
	movq	%r12, %rsi
	movq	%r15, %rdx
	movl	%r14d, %ecx
	callq	BZ2_bzWrite.29
	popq	%rbx
	popq	%r12
	popq	%r14
	popq	%r15
	popq	%rbp
	.cfi_def_cfa %rsp, 8
	retq
.LBB19_3:                               # %func_BZ2_bzWrite.39
	.cfi_def_cfa %rbp, 16
	movq	%rbx, %rdi
	movq	%r12, %rsi
	movq	%r15, %rdx
	movl	%r14d, %ecx
	callq	BZ2_bzWrite.39
	popq	%rbx
	popq	%r12
	popq	%r14
	popq	%r15
	popq	%rbp
	.cfi_def_cfa %rsp, 8
	retq
.LBB19_4:                               # %func_BZ2_bzWrite.61
	.cfi_def_cfa %rbp, 16
	movq	%rbx, %rdi
	movq	%r12, %rsi
	movq	%r15, %rdx
	movl	%r14d, %ecx
	callq	BZ2_bzWrite.61
	popq	%rbx
	popq	%r12
	popq	%r14
	popq	%r15
	popq	%rbp
	.cfi_def_cfa %rsp, 8
	retq
.LBB19_5:                               # %ctrl0
	.cfi_def_cfa %rbp, 16
	cmpl	$1, %eax
	je	.LBB19_2
# %bb.6:                                # %ctrl1
	cmpl	$2, %eax
	je	.LBB19_3
	jmp	.LBB19_4
.Lfunc_end19:
	.size	BZ2_bzWrite, .Lfunc_end19-BZ2_bzWrite
	.cfi_endproc
                                        # -- End function
	.globl	BZ2_bzWriteClose        # -- Begin function BZ2_bzWriteClose
	.p2align	4, 0x90
	.type	BZ2_bzWriteClose,@function
BZ2_bzWriteClose:                       # @BZ2_bzWriteClose
	.cfi_startproc
# %bb.0:                                # %rand_bb
	pushq	%rbp
	.cfi_def_cfa_offset 16
	.cfi_offset %rbp, -16
	movq	%rsp, %rbp
	.cfi_def_cfa_register %rbp
	pushq	%r15
	pushq	%r14
	pushq	%r13
	pushq	%r12
	pushq	%rbx
	pushq	%rax
	.cfi_offset %rbx, -56
	.cfi_offset %r12, -48
	.cfi_offset %r13, -40
	.cfi_offset %r14, -32
	.cfi_offset %r15, -24
	movq	%r8, %r14
	movq	%rcx, %r15
	movl	%edx, %r12d
	movq	%rsi, %r13
	movq	%rdi, %rbx
	callq	get_urand
	cmpl	$0, %eax
	jne	.LBB20_5
# %bb.1:                                # %func_BZ2_bzWriteClose.40
	movq	%rbx, %rdi
	movq	%r13, %rsi
	movl	%r12d, %edx
	movq	%r15, %rcx
	movq	%r14, %r8
	callq	BZ2_bzWriteClose.40
	addq	$8, %rsp
	popq	%rbx
	popq	%r12
	popq	%r13
	popq	%r14
	popq	%r15
	popq	%rbp
	.cfi_def_cfa %rsp, 8
	retq
.LBB20_2:                               # %func_BZ2_bzWriteClose.77
	.cfi_def_cfa %rbp, 16
	movq	%rbx, %rdi
	movq	%r13, %rsi
	movl	%r12d, %edx
	movq	%r15, %rcx
	movq	%r14, %r8
	callq	BZ2_bzWriteClose.77
	addq	$8, %rsp
	popq	%rbx
	popq	%r12
	popq	%r13
	popq	%r14
	popq	%r15
	popq	%rbp
	.cfi_def_cfa %rsp, 8
	retq
.LBB20_3:                               # %func_BZ2_bzWriteClose.87
	.cfi_def_cfa %rbp, 16
	movq	%rbx, %rdi
	movq	%r13, %rsi
	movl	%r12d, %edx
	movq	%r15, %rcx
	movq	%r14, %r8
	callq	BZ2_bzWriteClose.87
	addq	$8, %rsp
	popq	%rbx
	popq	%r12
	popq	%r13
	popq	%r14
	popq	%r15
	popq	%rbp
	.cfi_def_cfa %rsp, 8
	retq
.LBB20_4:                               # %func_BZ2_bzWriteClose.127
	.cfi_def_cfa %rbp, 16
	movq	%rbx, %rdi
	movq	%r13, %rsi
	movl	%r12d, %edx
	movq	%r15, %rcx
	movq	%r14, %r8
	callq	BZ2_bzWriteClose.127
	addq	$8, %rsp
	popq	%rbx
	popq	%r12
	popq	%r13
	popq	%r14
	popq	%r15
	popq	%rbp
	.cfi_def_cfa %rsp, 8
	retq
.LBB20_5:                               # %ctrl0
	.cfi_def_cfa %rbp, 16
	cmpl	$1, %eax
	je	.LBB20_2
# %bb.6:                                # %ctrl1
	cmpl	$2, %eax
	je	.LBB20_3
	jmp	.LBB20_4
.Lfunc_end20:
	.size	BZ2_bzWriteClose, .Lfunc_end20-BZ2_bzWriteClose
	.cfi_endproc
                                        # -- End function
	.globl	BZ2_bzWriteClose64      # -- Begin function BZ2_bzWriteClose64
	.p2align	4, 0x90
	.type	BZ2_bzWriteClose64,@function
BZ2_bzWriteClose64:                     # @BZ2_bzWriteClose64
	.cfi_startproc
# %bb.0:                                # %rand_bb
	pushq	%rbp
	.cfi_def_cfa_offset 16
	.cfi_offset %rbp, -16
	movq	%rsp, %rbp
	.cfi_def_cfa_register %rbp
	pushq	%r15
	pushq	%r14
	pushq	%r13
	pushq	%r12
	pushq	%rbx
	subq	$24, %rsp
	.cfi_offset %rbx, -56
	.cfi_offset %r12, -48
	.cfi_offset %r13, -40
	.cfi_offset %r14, -32
	.cfi_offset %r15, -24
	movq	%r9, -48(%rbp)          # 8-byte Spill
	movq	%r8, %r12
	movq	%rcx, %r13
	movl	%edx, %ebx
	movq	%rsi, %r14
	movq	%rdi, %r15
	callq	get_urand
	cmpl	$0, %eax
	jne	.LBB21_5
# %bb.1:                                # %func_BZ2_bzWriteClose64.21
	movq	%r15, %rdi
	movq	%r14, %rsi
	movl	%ebx, %edx
	movq	%r13, %rcx
	movq	%r12, %r8
	movq	-48(%rbp), %r9          # 8-byte Reload
	movq	16(%rbp), %rax
	movq	%rax, (%rsp)
	callq	BZ2_bzWriteClose64.21
	addq	$24, %rsp
	popq	%rbx
	popq	%r12
	popq	%r13
	popq	%r14
	popq	%r15
	popq	%rbp
	.cfi_def_cfa %rsp, 8
	retq
.LBB21_2:                               # %func_BZ2_bzWriteClose64.86
	.cfi_def_cfa %rbp, 16
	movq	%r15, %rdi
	movq	%r14, %rsi
	movl	%ebx, %edx
	movq	%r13, %rcx
	movq	%r12, %r8
	movq	%r10, (%rsp)
	callq	BZ2_bzWriteClose64.86
	addq	$24, %rsp
	popq	%rbx
	popq	%r12
	popq	%r13
	popq	%r14
	popq	%r15
	popq	%rbp
	.cfi_def_cfa %rsp, 8
	retq
.LBB21_3:                               # %func_BZ2_bzWriteClose64.119
	.cfi_def_cfa %rbp, 16
	movq	%rax, (%rsp)
	callq	BZ2_bzWriteClose64.119
	addq	$24, %rsp
	popq	%rbx
	popq	%r12
	popq	%r13
	popq	%r14
	popq	%r15
	popq	%rbp
	.cfi_def_cfa %rsp, 8
	retq
.LBB21_4:                               # %func_BZ2_bzWriteClose64.124
	.cfi_def_cfa %rbp, 16
	movq	%rax, (%rsp)
	callq	BZ2_bzWriteClose64.124
	addq	$24, %rsp
	popq	%rbx
	popq	%r12
	popq	%r13
	popq	%r14
	popq	%r15
	popq	%rbp
	.cfi_def_cfa %rsp, 8
	retq
.LBB21_5:                               # %ctrl0
	.cfi_def_cfa %rbp, 16
	movq	16(%rbp), %r10
	movq	-48(%rbp), %r9          # 8-byte Reload
	cmpl	$1, %eax
	je	.LBB21_2
# %bb.6:                                # %ctrl1
	cmpl	$2, %eax
	movq	%r10, %rax
	movq	%r12, %r8
	movq	%r13, %rcx
	movl	%ebx, %edx
	movq	%r14, %rsi
	movq	%r15, %rdi
	je	.LBB21_3
	jmp	.LBB21_4
.Lfunc_end21:
	.size	BZ2_bzWriteClose64, .Lfunc_end21-BZ2_bzWriteClose64
	.cfi_endproc
                                        # -- End function
	.globl	BZ2_bzReadOpen          # -- Begin function BZ2_bzReadOpen
	.p2align	4, 0x90
	.type	BZ2_bzReadOpen,@function
BZ2_bzReadOpen:                         # @BZ2_bzReadOpen
	.cfi_startproc
# %bb.0:                                # %rand_bb
	pushq	%rbp
	.cfi_def_cfa_offset 16
	.cfi_offset %rbp, -16
	movq	%rsp, %rbp
	.cfi_def_cfa_register %rbp
	pushq	%r15
	pushq	%r14
	pushq	%r13
	pushq	%r12
	pushq	%rbx
	pushq	%rax
	.cfi_offset %rbx, -56
	.cfi_offset %r12, -48
	.cfi_offset %r13, -40
	.cfi_offset %r14, -32
	.cfi_offset %r15, -24
	movl	%r9d, -44(%rbp)         # 4-byte Spill
	movq	%r8, %r12
	movl	%ecx, %r13d
	movl	%edx, %ebx
	movq	%rsi, %r14
	movq	%rdi, %r15
	callq	get_urand
	cmpl	$0, %eax
	jne	.LBB22_5
# %bb.1:                                # %func_BZ2_bzReadOpen.22
	movq	%r15, %rdi
	movq	%r14, %rsi
	movl	%ebx, %edx
	movl	%r13d, %ecx
	movq	%r12, %r8
	movl	-44(%rbp), %r9d         # 4-byte Reload
	callq	BZ2_bzReadOpen.22
	addq	$8, %rsp
	popq	%rbx
	popq	%r12
	popq	%r13
	popq	%r14
	popq	%r15
	popq	%rbp
	.cfi_def_cfa %rsp, 8
	retq
.LBB22_2:                               # %func_BZ2_bzReadOpen.30
	.cfi_def_cfa %rbp, 16
	movq	%r15, %rdi
	movq	%r14, %rsi
	movl	%ebx, %edx
	movl	%r13d, %ecx
	movq	%r12, %r8
	callq	BZ2_bzReadOpen.30
	addq	$8, %rsp
	popq	%rbx
	popq	%r12
	popq	%r13
	popq	%r14
	popq	%r15
	popq	%rbp
	.cfi_def_cfa %rsp, 8
	retq
.LBB22_3:                               # %func_BZ2_bzReadOpen.34
	.cfi_def_cfa %rbp, 16
	callq	BZ2_bzReadOpen.34
	addq	$8, %rsp
	popq	%rbx
	popq	%r12
	popq	%r13
	popq	%r14
	popq	%r15
	popq	%rbp
	.cfi_def_cfa %rsp, 8
	retq
.LBB22_4:                               # %func_BZ2_bzReadOpen.93
	.cfi_def_cfa %rbp, 16
	callq	BZ2_bzReadOpen.93
	addq	$8, %rsp
	popq	%rbx
	popq	%r12
	popq	%r13
	popq	%r14
	popq	%r15
	popq	%rbp
	.cfi_def_cfa %rsp, 8
	retq
.LBB22_5:                               # %ctrl0
	.cfi_def_cfa %rbp, 16
	movl	-44(%rbp), %r9d         # 4-byte Reload
	cmpl	$1, %eax
	je	.LBB22_2
# %bb.6:                                # %ctrl1
	cmpl	$2, %eax
	movq	%r12, %r8
	movl	%r13d, %ecx
	movl	%ebx, %edx
	movq	%r14, %rsi
	movq	%r15, %rdi
	je	.LBB22_3
	jmp	.LBB22_4
.Lfunc_end22:
	.size	BZ2_bzReadOpen, .Lfunc_end22-BZ2_bzReadOpen
	.cfi_endproc
                                        # -- End function
	.globl	BZ2_bzReadClose         # -- Begin function BZ2_bzReadClose
	.p2align	4, 0x90
	.type	BZ2_bzReadClose,@function
BZ2_bzReadClose:                        # @BZ2_bzReadClose
	.cfi_startproc
# %bb.0:                                # %rand_bb
	pushq	%rbp
	.cfi_def_cfa_offset 16
	.cfi_offset %rbp, -16
	movq	%rsp, %rbp
	.cfi_def_cfa_register %rbp
	pushq	%r14
	pushq	%rbx
	.cfi_offset %rbx, -32
	.cfi_offset %r14, -24
	movq	%rsi, %r14
	movq	%rdi, %rbx
	callq	get_urand
	cmpl	$0, %eax
	jne	.LBB23_5
# %bb.1:                                # %func_BZ2_bzReadClose.41
	movq	%rbx, %rdi
	movq	%r14, %rsi
	callq	BZ2_bzReadClose.41
	popq	%rbx
	popq	%r14
	popq	%rbp
	.cfi_def_cfa %rsp, 8
	retq
.LBB23_2:                               # %func_BZ2_bzReadClose.47
	.cfi_def_cfa %rbp, 16
	movq	%rbx, %rdi
	movq	%r14, %rsi
	callq	BZ2_bzReadClose.47
	popq	%rbx
	popq	%r14
	popq	%rbp
	.cfi_def_cfa %rsp, 8
	retq
.LBB23_3:                               # %func_BZ2_bzReadClose.70
	.cfi_def_cfa %rbp, 16
	movq	%rbx, %rdi
	movq	%r14, %rsi
	callq	BZ2_bzReadClose.70
	popq	%rbx
	popq	%r14
	popq	%rbp
	.cfi_def_cfa %rsp, 8
	retq
.LBB23_4:                               # %func_BZ2_bzReadClose.79
	.cfi_def_cfa %rbp, 16
	movq	%rbx, %rdi
	movq	%r14, %rsi
	callq	BZ2_bzReadClose.79
	popq	%rbx
	popq	%r14
	popq	%rbp
	.cfi_def_cfa %rsp, 8
	retq
.LBB23_5:                               # %ctrl0
	.cfi_def_cfa %rbp, 16
	cmpl	$1, %eax
	je	.LBB23_2
# %bb.6:                                # %ctrl1
	cmpl	$2, %eax
	je	.LBB23_3
	jmp	.LBB23_4
.Lfunc_end23:
	.size	BZ2_bzReadClose, .Lfunc_end23-BZ2_bzReadClose
	.cfi_endproc
                                        # -- End function
	.globl	BZ2_bzRead              # -- Begin function BZ2_bzRead
	.p2align	4, 0x90
	.type	BZ2_bzRead,@function
BZ2_bzRead:                             # @BZ2_bzRead
	.cfi_startproc
# %bb.0:                                # %rand_bb
	pushq	%rbp
	.cfi_def_cfa_offset 16
	.cfi_offset %rbp, -16
	movq	%rsp, %rbp
	.cfi_def_cfa_register %rbp
	pushq	%r15
	pushq	%r14
	pushq	%r12
	pushq	%rbx
	.cfi_offset %rbx, -48
	.cfi_offset %r12, -40
	.cfi_offset %r14, -32
	.cfi_offset %r15, -24
	movl	%ecx, %r14d
	movq	%rdx, %r15
	movq	%rsi, %r12
	movq	%rdi, %rbx
	callq	get_urand
	cmpl	$0, %eax
	jne	.LBB24_5
# %bb.1:                                # %func_BZ2_bzRead.54
	movq	%rbx, %rdi
	movq	%r12, %rsi
	movq	%r15, %rdx
	movl	%r14d, %ecx
	callq	BZ2_bzRead.54
	popq	%rbx
	popq	%r12
	popq	%r14
	popq	%r15
	popq	%rbp
	.cfi_def_cfa %rsp, 8
	retq
.LBB24_2:                               # %func_BZ2_bzRead.59
	.cfi_def_cfa %rbp, 16
	movq	%rbx, %rdi
	movq	%r12, %rsi
	movq	%r15, %rdx
	movl	%r14d, %ecx
	callq	BZ2_bzRead.59
	popq	%rbx
	popq	%r12
	popq	%r14
	popq	%r15
	popq	%rbp
	.cfi_def_cfa %rsp, 8
	retq
.LBB24_3:                               # %func_BZ2_bzRead.110
	.cfi_def_cfa %rbp, 16
	movq	%rbx, %rdi
	movq	%r12, %rsi
	movq	%r15, %rdx
	movl	%r14d, %ecx
	callq	BZ2_bzRead.110
	popq	%rbx
	popq	%r12
	popq	%r14
	popq	%r15
	popq	%rbp
	.cfi_def_cfa %rsp, 8
	retq
.LBB24_4:                               # %func_BZ2_bzRead.120
	.cfi_def_cfa %rbp, 16
	movq	%rbx, %rdi
	movq	%r12, %rsi
	movq	%r15, %rdx
	movl	%r14d, %ecx
	callq	BZ2_bzRead.120
	popq	%rbx
	popq	%r12
	popq	%r14
	popq	%r15
	popq	%rbp
	.cfi_def_cfa %rsp, 8
	retq
.LBB24_5:                               # %ctrl0
	.cfi_def_cfa %rbp, 16
	cmpl	$1, %eax
	je	.LBB24_2
# %bb.6:                                # %ctrl1
	cmpl	$2, %eax
	je	.LBB24_3
	jmp	.LBB24_4
.Lfunc_end24:
	.size	BZ2_bzRead, .Lfunc_end24-BZ2_bzRead
	.cfi_endproc
                                        # -- End function
	.p2align	4, 0x90         # -- Begin function myfeof
	.type	myfeof,@function
myfeof:                                 # @myfeof
	.cfi_startproc
# %bb.0:                                # %rand_bb
	pushq	%rbp
	.cfi_def_cfa_offset 16
	.cfi_offset %rbp, -16
	movq	%rsp, %rbp
	.cfi_def_cfa_register %rbp
	pushq	%rbx
	pushq	%rax
	.cfi_offset %rbx, -24
	movq	%rdi, %rbx
	callq	get_urand
	cmpl	$0, %eax
	jne	.LBB25_5
# %bb.1:                                # %func_myfeof.2
	movq	%rbx, %rdi
	callq	myfeof.2
	movzbl	%al, %eax
	addq	$8, %rsp
	popq	%rbx
	popq	%rbp
	.cfi_def_cfa %rsp, 8
	retq
.LBB25_2:                               # %func_myfeof.9
	.cfi_def_cfa %rbp, 16
	movq	%rbx, %rdi
	callq	myfeof.9
	movzbl	%al, %eax
	addq	$8, %rsp
	popq	%rbx
	popq	%rbp
	.cfi_def_cfa %rsp, 8
	retq
.LBB25_3:                               # %func_myfeof.65
	.cfi_def_cfa %rbp, 16
	movq	%rbx, %rdi
	callq	myfeof.65
	movzbl	%al, %eax
	addq	$8, %rsp
	popq	%rbx
	popq	%rbp
	.cfi_def_cfa %rsp, 8
	retq
.LBB25_4:                               # %func_myfeof.76
	.cfi_def_cfa %rbp, 16
	movq	%rbx, %rdi
	callq	myfeof.76
	movzbl	%al, %eax
	addq	$8, %rsp
	popq	%rbx
	popq	%rbp
	.cfi_def_cfa %rsp, 8
	retq
.LBB25_5:                               # %ctrl0
	.cfi_def_cfa %rbp, 16
	cmpl	$1, %eax
	je	.LBB25_2
# %bb.6:                                # %ctrl1
	cmpl	$2, %eax
	je	.LBB25_3
	jmp	.LBB25_4
.Lfunc_end25:
	.size	myfeof, .Lfunc_end25-myfeof
	.cfi_endproc
                                        # -- End function
	.globl	BZ2_bzReadGetUnused     # -- Begin function BZ2_bzReadGetUnused
	.p2align	4, 0x90
	.type	BZ2_bzReadGetUnused,@function
BZ2_bzReadGetUnused:                    # @BZ2_bzReadGetUnused
	.cfi_startproc
# %bb.0:                                # %rand_bb
	pushq	%rbp
	.cfi_def_cfa_offset 16
	.cfi_offset %rbp, -16
	movq	%rsp, %rbp
	.cfi_def_cfa_register %rbp
	pushq	%r15
	pushq	%r14
	pushq	%r12
	pushq	%rbx
	.cfi_offset %rbx, -48
	.cfi_offset %r12, -40
	.cfi_offset %r14, -32
	.cfi_offset %r15, -24
	movq	%rcx, %r14
	movq	%rdx, %r15
	movq	%rsi, %r12
	movq	%rdi, %rbx
	callq	get_urand
	cmpl	$0, %eax
	jne	.LBB26_5
# %bb.1:                                # %func_BZ2_bzReadGetUnused.11
	movq	%rbx, %rdi
	movq	%r12, %rsi
	movq	%r15, %rdx
	movq	%r14, %rcx
	callq	BZ2_bzReadGetUnused.11
	popq	%rbx
	popq	%r12
	popq	%r14
	popq	%r15
	popq	%rbp
	.cfi_def_cfa %rsp, 8
	retq
.LBB26_2:                               # %func_BZ2_bzReadGetUnused.64
	.cfi_def_cfa %rbp, 16
	movq	%rbx, %rdi
	movq	%r12, %rsi
	movq	%r15, %rdx
	movq	%r14, %rcx
	callq	BZ2_bzReadGetUnused.64
	popq	%rbx
	popq	%r12
	popq	%r14
	popq	%r15
	popq	%rbp
	.cfi_def_cfa %rsp, 8
	retq
.LBB26_3:                               # %func_BZ2_bzReadGetUnused.84
	.cfi_def_cfa %rbp, 16
	movq	%rbx, %rdi
	movq	%r12, %rsi
	movq	%r15, %rdx
	movq	%r14, %rcx
	callq	BZ2_bzReadGetUnused.84
	popq	%rbx
	popq	%r12
	popq	%r14
	popq	%r15
	popq	%rbp
	.cfi_def_cfa %rsp, 8
	retq
.LBB26_4:                               # %func_BZ2_bzReadGetUnused.112
	.cfi_def_cfa %rbp, 16
	movq	%rbx, %rdi
	movq	%r12, %rsi
	movq	%r15, %rdx
	movq	%r14, %rcx
	callq	BZ2_bzReadGetUnused.112
	popq	%rbx
	popq	%r12
	popq	%r14
	popq	%r15
	popq	%rbp
	.cfi_def_cfa %rsp, 8
	retq
.LBB26_5:                               # %ctrl0
	.cfi_def_cfa %rbp, 16
	cmpl	$1, %eax
	je	.LBB26_2
# %bb.6:                                # %ctrl1
	cmpl	$2, %eax
	je	.LBB26_3
	jmp	.LBB26_4
.Lfunc_end26:
	.size	BZ2_bzReadGetUnused, .Lfunc_end26-BZ2_bzReadGetUnused
	.cfi_endproc
                                        # -- End function
	.globl	BZ2_bzBuffToBuffCompress # -- Begin function BZ2_bzBuffToBuffCompress
	.p2align	4, 0x90
	.type	BZ2_bzBuffToBuffCompress,@function
BZ2_bzBuffToBuffCompress:               # @BZ2_bzBuffToBuffCompress
	.cfi_startproc
# %bb.0:                                # %rand_bb
	pushq	%rbp
	.cfi_def_cfa_offset 16
	.cfi_offset %rbp, -16
	movq	%rsp, %rbp
	.cfi_def_cfa_register %rbp
	pushq	%r15
	pushq	%r14
	pushq	%r13
	pushq	%r12
	pushq	%rbx
	subq	$24, %rsp
	.cfi_offset %rbx, -56
	.cfi_offset %r12, -48
	.cfi_offset %r13, -40
	.cfi_offset %r14, -32
	.cfi_offset %r15, -24
	movl	%r9d, -44(%rbp)         # 4-byte Spill
	movl	%r8d, %r12d
	movl	%ecx, %r13d
	movq	%rdx, %rbx
	movq	%rsi, %r14
	movq	%rdi, %r15
	callq	get_urand
	cmpl	$0, %eax
	jne	.LBB27_5
# %bb.1:                                # %func_BZ2_bzBuffToBuffCompress.5
	movq	%r15, %rdi
	movq	%r14, %rsi
	movq	%rbx, %rdx
	movl	%r13d, %ecx
	movl	%r12d, %r8d
	movl	-44(%rbp), %r9d         # 4-byte Reload
	movl	16(%rbp), %eax
	movl	%eax, (%rsp)
	callq	BZ2_bzBuffToBuffCompress.5
	addq	$24, %rsp
	popq	%rbx
	popq	%r12
	popq	%r13
	popq	%r14
	popq	%r15
	popq	%rbp
	.cfi_def_cfa %rsp, 8
	retq
.LBB27_2:                               # %func_BZ2_bzBuffToBuffCompress.26
	.cfi_def_cfa %rbp, 16
	movq	%r15, %rdi
	movq	%r14, %rsi
	movq	%rbx, %rdx
	movl	%r13d, %ecx
	movl	%r12d, %r8d
	movl	%r10d, (%rsp)
	callq	BZ2_bzBuffToBuffCompress.26
	addq	$24, %rsp
	popq	%rbx
	popq	%r12
	popq	%r13
	popq	%r14
	popq	%r15
	popq	%rbp
	.cfi_def_cfa %rsp, 8
	retq
.LBB27_3:                               # %func_BZ2_bzBuffToBuffCompress.53
	.cfi_def_cfa %rbp, 16
	movl	%eax, (%rsp)
	callq	BZ2_bzBuffToBuffCompress.53
	addq	$24, %rsp
	popq	%rbx
	popq	%r12
	popq	%r13
	popq	%r14
	popq	%r15
	popq	%rbp
	.cfi_def_cfa %rsp, 8
	retq
.LBB27_4:                               # %func_BZ2_bzBuffToBuffCompress.55
	.cfi_def_cfa %rbp, 16
	movl	%eax, (%rsp)
	callq	BZ2_bzBuffToBuffCompress.55
	addq	$24, %rsp
	popq	%rbx
	popq	%r12
	popq	%r13
	popq	%r14
	popq	%r15
	popq	%rbp
	.cfi_def_cfa %rsp, 8
	retq
.LBB27_5:                               # %ctrl0
	.cfi_def_cfa %rbp, 16
	movl	16(%rbp), %r10d
	movl	-44(%rbp), %r9d         # 4-byte Reload
	cmpl	$1, %eax
	je	.LBB27_2
# %bb.6:                                # %ctrl1
	cmpl	$2, %eax
	movl	%r10d, %eax
	movl	%r12d, %r8d
	movl	%r13d, %ecx
	movq	%rbx, %rdx
	movq	%r14, %rsi
	movq	%r15, %rdi
	je	.LBB27_3
	jmp	.LBB27_4
.Lfunc_end27:
	.size	BZ2_bzBuffToBuffCompress, .Lfunc_end27-BZ2_bzBuffToBuffCompress
	.cfi_endproc
                                        # -- End function
	.globl	BZ2_bzBuffToBuffDecompress # -- Begin function BZ2_bzBuffToBuffDecompress
	.p2align	4, 0x90
	.type	BZ2_bzBuffToBuffDecompress,@function
BZ2_bzBuffToBuffDecompress:             # @BZ2_bzBuffToBuffDecompress
	.cfi_startproc
# %bb.0:                                # %rand_bb
	pushq	%rbp
	.cfi_def_cfa_offset 16
	.cfi_offset %rbp, -16
	movq	%rsp, %rbp
	.cfi_def_cfa_register %rbp
	pushq	%r15
	pushq	%r14
	pushq	%r13
	pushq	%r12
	pushq	%rbx
	pushq	%rax
	.cfi_offset %rbx, -56
	.cfi_offset %r12, -48
	.cfi_offset %r13, -40
	.cfi_offset %r14, -32
	.cfi_offset %r15, -24
	movl	%r9d, -44(%rbp)         # 4-byte Spill
	movl	%r8d, %r12d
	movl	%ecx, %r13d
	movq	%rdx, %rbx
	movq	%rsi, %r14
	movq	%rdi, %r15
	callq	get_urand
	cmpl	$0, %eax
	jne	.LBB28_5
# %bb.1:                                # %func_BZ2_bzBuffToBuffDecompress.78
	movq	%r15, %rdi
	movq	%r14, %rsi
	movq	%rbx, %rdx
	movl	%r13d, %ecx
	movl	%r12d, %r8d
	movl	-44(%rbp), %r9d         # 4-byte Reload
	callq	BZ2_bzBuffToBuffDecompress.78
	addq	$8, %rsp
	popq	%rbx
	popq	%r12
	popq	%r13
	popq	%r14
	popq	%r15
	popq	%rbp
	.cfi_def_cfa %rsp, 8
	retq
.LBB28_2:                               # %func_BZ2_bzBuffToBuffDecompress.88
	.cfi_def_cfa %rbp, 16
	movq	%r15, %rdi
	movq	%r14, %rsi
	movq	%rbx, %rdx
	movl	%r13d, %ecx
	movl	%r12d, %r8d
	callq	BZ2_bzBuffToBuffDecompress.88
	addq	$8, %rsp
	popq	%rbx
	popq	%r12
	popq	%r13
	popq	%r14
	popq	%r15
	popq	%rbp
	.cfi_def_cfa %rsp, 8
	retq
.LBB28_3:                               # %func_BZ2_bzBuffToBuffDecompress.89
	.cfi_def_cfa %rbp, 16
	callq	BZ2_bzBuffToBuffDecompress.89
	addq	$8, %rsp
	popq	%rbx
	popq	%r12
	popq	%r13
	popq	%r14
	popq	%r15
	popq	%rbp
	.cfi_def_cfa %rsp, 8
	retq
.LBB28_4:                               # %func_BZ2_bzBuffToBuffDecompress.101
	.cfi_def_cfa %rbp, 16
	callq	BZ2_bzBuffToBuffDecompress.101
	addq	$8, %rsp
	popq	%rbx
	popq	%r12
	popq	%r13
	popq	%r14
	popq	%r15
	popq	%rbp
	.cfi_def_cfa %rsp, 8
	retq
.LBB28_5:                               # %ctrl0
	.cfi_def_cfa %rbp, 16
	movl	-44(%rbp), %r9d         # 4-byte Reload
	cmpl	$1, %eax
	je	.LBB28_2
# %bb.6:                                # %ctrl1
	cmpl	$2, %eax
	movl	%r12d, %r8d
	movl	%r13d, %ecx
	movq	%rbx, %rdx
	movq	%r14, %rsi
	movq	%r15, %rdi
	je	.LBB28_3
	jmp	.LBB28_4
.Lfunc_end28:
	.size	BZ2_bzBuffToBuffDecompress, .Lfunc_end28-BZ2_bzBuffToBuffDecompress
	.cfi_endproc
                                        # -- End function
	.globl	BZ2_bzopen              # -- Begin function BZ2_bzopen
	.p2align	4, 0x90
	.type	BZ2_bzopen,@function
BZ2_bzopen:                             # @BZ2_bzopen
	.cfi_startproc
# %bb.0:                                # %rand_bb
	pushq	%rbp
	.cfi_def_cfa_offset 16
	.cfi_offset %rbp, -16
	movq	%rsp, %rbp
	.cfi_def_cfa_register %rbp
	pushq	%r14
	pushq	%rbx
	.cfi_offset %rbx, -32
	.cfi_offset %r14, -24
	movq	%rsi, %r14
	movq	%rdi, %rbx
	callq	get_urand
	cmpl	$0, %eax
	jne	.LBB29_2
# %bb.1:                                # %func_BZ2_bzopen.17
	movq	%rbx, %rdi
	movq	%r14, %rsi
	callq	BZ2_bzopen.17
	popq	%rbx
	popq	%r14
	popq	%rbp
	.cfi_def_cfa %rsp, 8
	retq
.LBB29_2:                               # %func_BZ2_bzopen.52
	.cfi_def_cfa %rbp, 16
	movq	%rbx, %rdi
	movq	%r14, %rsi
	callq	BZ2_bzopen.52
	popq	%rbx
	popq	%r14
	popq	%rbp
	.cfi_def_cfa %rsp, 8
	retq
.Lfunc_end29:
	.size	BZ2_bzopen, .Lfunc_end29-BZ2_bzopen
	.cfi_endproc
                                        # -- End function
	.p2align	4, 0x90         # -- Begin function bzopen_or_bzdopen
	.type	bzopen_or_bzdopen,@function
bzopen_or_bzdopen:                      # @bzopen_or_bzdopen
	.cfi_startproc
# %bb.0:                                # %rand_bb
	pushq	%rbp
	.cfi_def_cfa_offset 16
	.cfi_offset %rbp, -16
	movq	%rsp, %rbp
	.cfi_def_cfa_register %rbp
	pushq	%r15
	pushq	%r14
	pushq	%r12
	pushq	%rbx
	.cfi_offset %rbx, -48
	.cfi_offset %r12, -40
	.cfi_offset %r14, -32
	.cfi_offset %r15, -24
	movl	%ecx, %r14d
	movq	%rdx, %r15
	movl	%esi, %r12d
	movq	%rdi, %rbx
	callq	get_urand
	cmpl	$0, %eax
	jne	.LBB30_5
# %bb.1:                                # %func_bzopen_or_bzdopen.97
	movq	%rbx, %rdi
	movl	%r12d, %esi
	movq	%r15, %rdx
	movl	%r14d, %ecx
	callq	bzopen_or_bzdopen.97
	popq	%rbx
	popq	%r12
	popq	%r14
	popq	%r15
	popq	%rbp
	.cfi_def_cfa %rsp, 8
	retq
.LBB30_2:                               # %func_bzopen_or_bzdopen.106
	.cfi_def_cfa %rbp, 16
	movq	%rbx, %rdi
	movl	%r12d, %esi
	movq	%r15, %rdx
	movl	%r14d, %ecx
	callq	bzopen_or_bzdopen.106
	popq	%rbx
	popq	%r12
	popq	%r14
	popq	%r15
	popq	%rbp
	.cfi_def_cfa %rsp, 8
	retq
.LBB30_3:                               # %func_bzopen_or_bzdopen.111
	.cfi_def_cfa %rbp, 16
	movq	%rbx, %rdi
	movl	%r12d, %esi
	movq	%r15, %rdx
	movl	%r14d, %ecx
	callq	bzopen_or_bzdopen.111
	popq	%rbx
	popq	%r12
	popq	%r14
	popq	%r15
	popq	%rbp
	.cfi_def_cfa %rsp, 8
	retq
.LBB30_4:                               # %func_bzopen_or_bzdopen.116
	.cfi_def_cfa %rbp, 16
	movq	%rbx, %rdi
	movl	%r12d, %esi
	movq	%r15, %rdx
	movl	%r14d, %ecx
	callq	bzopen_or_bzdopen.116
	popq	%rbx
	popq	%r12
	popq	%r14
	popq	%r15
	popq	%rbp
	.cfi_def_cfa %rsp, 8
	retq
.LBB30_5:                               # %ctrl0
	.cfi_def_cfa %rbp, 16
	cmpl	$1, %eax
	je	.LBB30_2
# %bb.6:                                # %ctrl1
	cmpl	$2, %eax
	je	.LBB30_3
	jmp	.LBB30_4
.Lfunc_end30:
	.size	bzopen_or_bzdopen, .Lfunc_end30-bzopen_or_bzdopen
	.cfi_endproc
                                        # -- End function
	.globl	BZ2_bzdopen             # -- Begin function BZ2_bzdopen
	.p2align	4, 0x90
	.type	BZ2_bzdopen,@function
BZ2_bzdopen:                            # @BZ2_bzdopen
	.cfi_startproc
# %bb.0:                                # %rand_bb
	pushq	%rbp
	.cfi_def_cfa_offset 16
	.cfi_offset %rbp, -16
	movq	%rsp, %rbp
	.cfi_def_cfa_register %rbp
	pushq	%r14
	pushq	%rbx
	.cfi_offset %rbx, -32
	.cfi_offset %r14, -24
	movq	%rsi, %r14
	movl	%edi, %ebx
	callq	get_urand
	cmpl	$0, %eax
	jne	.LBB31_2
# %bb.1:                                # %func_BZ2_bzdopen.13
	movl	%ebx, %edi
	movq	%r14, %rsi
	callq	BZ2_bzdopen.13
	popq	%rbx
	popq	%r14
	popq	%rbp
	.cfi_def_cfa %rsp, 8
	retq
.LBB31_2:                               # %func_BZ2_bzdopen.28
	.cfi_def_cfa %rbp, 16
	movl	%ebx, %edi
	movq	%r14, %rsi
	callq	BZ2_bzdopen.28
	popq	%rbx
	popq	%r14
	popq	%rbp
	.cfi_def_cfa %rsp, 8
	retq
.Lfunc_end31:
	.size	BZ2_bzdopen, .Lfunc_end31-BZ2_bzdopen
	.cfi_endproc
                                        # -- End function
	.globl	BZ2_bzread              # -- Begin function BZ2_bzread
	.p2align	4, 0x90
	.type	BZ2_bzread,@function
BZ2_bzread:                             # @BZ2_bzread
	.cfi_startproc
# %bb.0:                                # %rand_bb
	pushq	%rbp
	.cfi_def_cfa_offset 16
	.cfi_offset %rbp, -16
	movq	%rsp, %rbp
	.cfi_def_cfa_register %rbp
	pushq	%r15
	pushq	%r14
	pushq	%rbx
	pushq	%rax
	.cfi_offset %rbx, -40
	.cfi_offset %r14, -32
	.cfi_offset %r15, -24
	movl	%edx, %r14d
	movq	%rsi, %r15
	movq	%rdi, %rbx
	callq	get_urand
	cmpl	$0, %eax
	jne	.LBB32_5
# %bb.1:                                # %func_BZ2_bzread.75
	movq	%rbx, %rdi
	movq	%r15, %rsi
	movl	%r14d, %edx
	callq	BZ2_bzread.75
	addq	$8, %rsp
	popq	%rbx
	popq	%r14
	popq	%r15
	popq	%rbp
	.cfi_def_cfa %rsp, 8
	retq
.LBB32_2:                               # %func_BZ2_bzread.104
	.cfi_def_cfa %rbp, 16
	movq	%rbx, %rdi
	movq	%r15, %rsi
	movl	%r14d, %edx
	callq	BZ2_bzread.104
	addq	$8, %rsp
	popq	%rbx
	popq	%r14
	popq	%r15
	popq	%rbp
	.cfi_def_cfa %rsp, 8
	retq
.LBB32_3:                               # %func_BZ2_bzread.125
	.cfi_def_cfa %rbp, 16
	movq	%rbx, %rdi
	movq	%r15, %rsi
	movl	%r14d, %edx
	callq	BZ2_bzread.125
	addq	$8, %rsp
	popq	%rbx
	popq	%r14
	popq	%r15
	popq	%rbp
	.cfi_def_cfa %rsp, 8
	retq
.LBB32_4:                               # %func_BZ2_bzread.128
	.cfi_def_cfa %rbp, 16
	movq	%rbx, %rdi
	movq	%r15, %rsi
	movl	%r14d, %edx
	callq	BZ2_bzread.128
	addq	$8, %rsp
	popq	%rbx
	popq	%r14
	popq	%r15
	popq	%rbp
	.cfi_def_cfa %rsp, 8
	retq
.LBB32_5:                               # %ctrl0
	.cfi_def_cfa %rbp, 16
	cmpl	$1, %eax
	je	.LBB32_2
# %bb.6:                                # %ctrl1
	cmpl	$2, %eax
	je	.LBB32_3
	jmp	.LBB32_4
.Lfunc_end32:
	.size	BZ2_bzread, .Lfunc_end32-BZ2_bzread
	.cfi_endproc
                                        # -- End function
	.globl	BZ2_bzwrite             # -- Begin function BZ2_bzwrite
	.p2align	4, 0x90
	.type	BZ2_bzwrite,@function
BZ2_bzwrite:                            # @BZ2_bzwrite
	.cfi_startproc
# %bb.0:                                # %rand_bb
	pushq	%rbp
	.cfi_def_cfa_offset 16
	.cfi_offset %rbp, -16
	movq	%rsp, %rbp
	.cfi_def_cfa_register %rbp
	pushq	%r15
	pushq	%r14
	pushq	%rbx
	pushq	%rax
	.cfi_offset %rbx, -40
	.cfi_offset %r14, -32
	.cfi_offset %r15, -24
	movl	%edx, %r14d
	movq	%rsi, %r15
	movq	%rdi, %rbx
	callq	get_urand
	cmpl	$0, %eax
	jne	.LBB33_5
# %bb.1:                                # %func_BZ2_bzwrite.7
	movq	%rbx, %rdi
	movq	%r15, %rsi
	movl	%r14d, %edx
	callq	BZ2_bzwrite.7
	addq	$8, %rsp
	popq	%rbx
	popq	%r14
	popq	%r15
	popq	%rbp
	.cfi_def_cfa %rsp, 8
	retq
.LBB33_2:                               # %func_BZ2_bzwrite.14
	.cfi_def_cfa %rbp, 16
	movq	%rbx, %rdi
	movq	%r15, %rsi
	movl	%r14d, %edx
	callq	BZ2_bzwrite.14
	addq	$8, %rsp
	popq	%rbx
	popq	%r14
	popq	%r15
	popq	%rbp
	.cfi_def_cfa %rsp, 8
	retq
.LBB33_3:                               # %func_BZ2_bzwrite.32
	.cfi_def_cfa %rbp, 16
	movq	%rbx, %rdi
	movq	%r15, %rsi
	movl	%r14d, %edx
	callq	BZ2_bzwrite.32
	addq	$8, %rsp
	popq	%rbx
	popq	%r14
	popq	%r15
	popq	%rbp
	.cfi_def_cfa %rsp, 8
	retq
.LBB33_4:                               # %func_BZ2_bzwrite.63
	.cfi_def_cfa %rbp, 16
	movq	%rbx, %rdi
	movq	%r15, %rsi
	movl	%r14d, %edx
	callq	BZ2_bzwrite.63
	addq	$8, %rsp
	popq	%rbx
	popq	%r14
	popq	%r15
	popq	%rbp
	.cfi_def_cfa %rsp, 8
	retq
.LBB33_5:                               # %ctrl0
	.cfi_def_cfa %rbp, 16
	cmpl	$1, %eax
	je	.LBB33_2
# %bb.6:                                # %ctrl1
	cmpl	$2, %eax
	je	.LBB33_3
	jmp	.LBB33_4
.Lfunc_end33:
	.size	BZ2_bzwrite, .Lfunc_end33-BZ2_bzwrite
	.cfi_endproc
                                        # -- End function
	.globl	BZ2_bzflush             # -- Begin function BZ2_bzflush
	.p2align	4, 0x90
	.type	BZ2_bzflush,@function
BZ2_bzflush:                            # @BZ2_bzflush
	.cfi_startproc
# %bb.0:                                # %entry
	pushq	%rbp
	.cfi_def_cfa_offset 16
	.cfi_offset %rbp, -16
	movq	%rsp, %rbp
	.cfi_def_cfa_register %rbp
	movq	%rdi, -8(%rbp)
	xorl	%eax, %eax
	popq	%rbp
	.cfi_def_cfa %rsp, 8
	retq
.Lfunc_end34:
	.size	BZ2_bzflush, .Lfunc_end34-BZ2_bzflush
	.cfi_endproc
                                        # -- End function
	.globl	BZ2_bzclose             # -- Begin function BZ2_bzclose
	.p2align	4, 0x90
	.type	BZ2_bzclose,@function
BZ2_bzclose:                            # @BZ2_bzclose
	.cfi_startproc
# %bb.0:                                # %rand_bb
	pushq	%rbp
	.cfi_def_cfa_offset 16
	.cfi_offset %rbp, -16
	movq	%rsp, %rbp
	.cfi_def_cfa_register %rbp
	pushq	%rbx
	pushq	%rax
	.cfi_offset %rbx, -24
	movq	%rdi, %rbx
	callq	get_urand
	cmpl	$0, %eax
	jne	.LBB35_5
# %bb.1:                                # %func_BZ2_bzclose.16
	movq	%rbx, %rdi
	callq	BZ2_bzclose.16
	addq	$8, %rsp
	popq	%rbx
	popq	%rbp
	.cfi_def_cfa %rsp, 8
	retq
.LBB35_2:                               # %func_BZ2_bzclose.37
	.cfi_def_cfa %rbp, 16
	movq	%rbx, %rdi
	callq	BZ2_bzclose.37
	addq	$8, %rsp
	popq	%rbx
	popq	%rbp
	.cfi_def_cfa %rsp, 8
	retq
.LBB35_3:                               # %func_BZ2_bzclose.50
	.cfi_def_cfa %rbp, 16
	movq	%rbx, %rdi
	callq	BZ2_bzclose.50
	addq	$8, %rsp
	popq	%rbx
	popq	%rbp
	.cfi_def_cfa %rsp, 8
	retq
.LBB35_4:                               # %func_BZ2_bzclose.114
	.cfi_def_cfa %rbp, 16
	movq	%rbx, %rdi
	callq	BZ2_bzclose.114
	addq	$8, %rsp
	popq	%rbx
	popq	%rbp
	.cfi_def_cfa %rsp, 8
	retq
.LBB35_5:                               # %ctrl0
	.cfi_def_cfa %rbp, 16
	cmpl	$1, %eax
	je	.LBB35_2
# %bb.6:                                # %ctrl1
	cmpl	$2, %eax
	je	.LBB35_3
	jmp	.LBB35_4
.Lfunc_end35:
	.size	BZ2_bzclose, .Lfunc_end35-BZ2_bzclose
	.cfi_endproc
                                        # -- End function
	.globl	BZ2_bzerror             # -- Begin function BZ2_bzerror
	.p2align	4, 0x90
	.type	BZ2_bzerror,@function
BZ2_bzerror:                            # @BZ2_bzerror
	.cfi_startproc
# %bb.0:                                # %rand_bb
	pushq	%rbp
	.cfi_def_cfa_offset 16
	.cfi_offset %rbp, -16
	movq	%rsp, %rbp
	.cfi_def_cfa_register %rbp
	pushq	%r14
	pushq	%rbx
	.cfi_offset %rbx, -32
	.cfi_offset %r14, -24
	movq	%rsi, %r14
	movq	%rdi, %rbx
	callq	get_urand
	cmpl	$0, %eax
	jne	.LBB36_5
# %bb.1:                                # %func_BZ2_bzerror.4
	movq	%rbx, %rdi
	movq	%r14, %rsi
	callq	BZ2_bzerror.4
	popq	%rbx
	popq	%r14
	popq	%rbp
	.cfi_def_cfa %rsp, 8
	retq
.LBB36_2:                               # %func_BZ2_bzerror.43
	.cfi_def_cfa %rbp, 16
	movq	%rbx, %rdi
	movq	%r14, %rsi
	callq	BZ2_bzerror.43
	popq	%rbx
	popq	%r14
	popq	%rbp
	.cfi_def_cfa %rsp, 8
	retq
.LBB36_3:                               # %func_BZ2_bzerror.90
	.cfi_def_cfa %rbp, 16
	movq	%rbx, %rdi
	movq	%r14, %rsi
	callq	BZ2_bzerror.90
	popq	%rbx
	popq	%r14
	popq	%rbp
	.cfi_def_cfa %rsp, 8
	retq
.LBB36_4:                               # %func_BZ2_bzerror.94
	.cfi_def_cfa %rbp, 16
	movq	%rbx, %rdi
	movq	%r14, %rsi
	callq	BZ2_bzerror.94
	popq	%rbx
	popq	%r14
	popq	%rbp
	.cfi_def_cfa %rsp, 8
	retq
.LBB36_5:                               # %ctrl0
	.cfi_def_cfa %rbp, 16
	cmpl	$1, %eax
	je	.LBB36_2
# %bb.6:                                # %ctrl1
	cmpl	$2, %eax
	je	.LBB36_3
	jmp	.LBB36_4
.Lfunc_end36:
	.size	BZ2_bzerror, .Lfunc_end36-BZ2_bzerror
	.cfi_endproc
                                        # -- End function
	.p2align	4, 0x90         # -- Begin function copy_output_until_stop
	.type	copy_output_until_stop,@function
copy_output_until_stop:                 # @copy_output_until_stop
	.cfi_startproc
# %bb.0:                                # %rand_bb
	pushq	%rbp
	.cfi_def_cfa_offset 16
	.cfi_offset %rbp, -16
	movq	%rsp, %rbp
	.cfi_def_cfa_register %rbp
	pushq	%rbx
	pushq	%rax
	.cfi_offset %rbx, -24
	movq	%rdi, %rbx
	callq	get_urand
	cmpl	$0, %eax
	jne	.LBB37_2
# %bb.1:                                # %func_copy_output_until_stop.71
	movq	%rbx, %rdi
	callq	copy_output_until_stop.71
	movzbl	%al, %eax
	addq	$8, %rsp
	popq	%rbx
	popq	%rbp
	.cfi_def_cfa %rsp, 8
	retq
.LBB37_2:                               # %func_copy_output_until_stop.107
	.cfi_def_cfa %rbp, 16
	movq	%rbx, %rdi
	callq	copy_output_until_stop.107
	movzbl	%al, %eax
	addq	$8, %rsp
	popq	%rbx
	popq	%rbp
	.cfi_def_cfa %rsp, 8
	retq
.Lfunc_end37:
	.size	copy_output_until_stop, .Lfunc_end37-copy_output_until_stop
	.cfi_endproc
                                        # -- End function
	.p2align	4, 0x90         # -- Begin function copy_input_until_stop
	.type	copy_input_until_stop,@function
copy_input_until_stop:                  # @copy_input_until_stop
	.cfi_startproc
# %bb.0:                                # %rand_bb
	pushq	%rbp
	.cfi_def_cfa_offset 16
	.cfi_offset %rbp, -16
	movq	%rsp, %rbp
	.cfi_def_cfa_register %rbp
	pushq	%rbx
	pushq	%rax
	.cfi_offset %rbx, -24
	movq	%rdi, %rbx
	callq	get_urand
	cmpl	$0, %eax
	jne	.LBB38_5
# %bb.1:                                # %func_copy_input_until_stop.8
	movq	%rbx, %rdi
	callq	copy_input_until_stop.8
	movzbl	%al, %eax
	addq	$8, %rsp
	popq	%rbx
	popq	%rbp
	.cfi_def_cfa %rsp, 8
	retq
.LBB38_2:                               # %func_copy_input_until_stop.20
	.cfi_def_cfa %rbp, 16
	movq	%rbx, %rdi
	callq	copy_input_until_stop.20
	movzbl	%al, %eax
	addq	$8, %rsp
	popq	%rbx
	popq	%rbp
	.cfi_def_cfa %rsp, 8
	retq
.LBB38_3:                               # %func_copy_input_until_stop.46
	.cfi_def_cfa %rbp, 16
	movq	%rbx, %rdi
	callq	copy_input_until_stop.46
	movzbl	%al, %eax
	addq	$8, %rsp
	popq	%rbx
	popq	%rbp
	.cfi_def_cfa %rsp, 8
	retq
.LBB38_4:                               # %func_copy_input_until_stop.72
	.cfi_def_cfa %rbp, 16
	movq	%rbx, %rdi
	callq	copy_input_until_stop.72
	movzbl	%al, %eax
	addq	$8, %rsp
	popq	%rbx
	popq	%rbp
	.cfi_def_cfa %rsp, 8
	retq
.LBB38_5:                               # %ctrl0
	.cfi_def_cfa %rbp, 16
	cmpl	$1, %eax
	je	.LBB38_2
# %bb.6:                                # %ctrl1
	cmpl	$2, %eax
	je	.LBB38_3
	jmp	.LBB38_4
.Lfunc_end38:
	.size	copy_input_until_stop, .Lfunc_end38-copy_input_until_stop
	.cfi_endproc
                                        # -- End function
	.p2align	4, 0x90         # -- Begin function flush_RL
	.type	flush_RL,@function
flush_RL:                               # @flush_RL
	.cfi_startproc
# %bb.0:                                # %entry
	pushq	%rbp
	.cfi_def_cfa_offset 16
	.cfi_offset %rbp, -16
	movq	%rsp, %rbp
	.cfi_def_cfa_register %rbp
	subq	$16, %rsp
	movq	%rdi, -8(%rbp)
	movq	-8(%rbp), %rax
	cmpl	$256, 92(%rax)          # imm = 0x100
	jae	.LBB39_2
# %bb.1:                                # %if.then
	movq	-8(%rbp), %rdi
	callq	add_pair_to_block
.LBB39_2:                               # %if.end
	movq	-8(%rbp), %rdi
	callq	init_RL
	addq	$16, %rsp
	popq	%rbp
	.cfi_def_cfa %rsp, 8
	retq
.Lfunc_end39:
	.size	flush_RL, .Lfunc_end39-flush_RL
	.cfi_endproc
                                        # -- End function
	.p2align	4, 0x90         # -- Begin function add_pair_to_block
	.type	add_pair_to_block,@function
add_pair_to_block:                      # @add_pair_to_block
	.cfi_startproc
# %bb.0:                                # %rand_bb
	pushq	%rbp
	.cfi_def_cfa_offset 16
	.cfi_offset %rbp, -16
	movq	%rsp, %rbp
	.cfi_def_cfa_register %rbp
	pushq	%rbx
	pushq	%rax
	.cfi_offset %rbx, -24
	movq	%rdi, %rbx
	callq	get_urand
	cmpl	$0, %eax
	jne	.LBB40_5
# %bb.1:                                # %func_add_pair_to_block.6
	movq	%rbx, %rdi
	callq	add_pair_to_block.6
	addq	$8, %rsp
	popq	%rbx
	popq	%rbp
	.cfi_def_cfa %rsp, 8
	retq
.LBB40_2:                               # %func_add_pair_to_block.10
	.cfi_def_cfa %rbp, 16
	movq	%rbx, %rdi
	callq	add_pair_to_block.10
	addq	$8, %rsp
	popq	%rbx
	popq	%rbp
	.cfi_def_cfa %rsp, 8
	retq
.LBB40_3:                               # %func_add_pair_to_block.19
	.cfi_def_cfa %rbp, 16
	movq	%rbx, %rdi
	callq	add_pair_to_block.19
	addq	$8, %rsp
	popq	%rbx
	popq	%rbp
	.cfi_def_cfa %rsp, 8
	retq
.LBB40_4:                               # %func_add_pair_to_block.83
	.cfi_def_cfa %rbp, 16
	movq	%rbx, %rdi
	callq	add_pair_to_block.83
	addq	$8, %rsp
	popq	%rbx
	popq	%rbp
	.cfi_def_cfa %rsp, 8
	retq
.LBB40_5:                               # %ctrl0
	.cfi_def_cfa %rbp, 16
	cmpl	$1, %eax
	je	.LBB40_2
# %bb.6:                                # %ctrl1
	cmpl	$2, %eax
	je	.LBB40_3
	jmp	.LBB40_4
.Lfunc_end40:
	.size	add_pair_to_block, .Lfunc_end40-add_pair_to_block
	.cfi_endproc
                                        # -- End function
	.globl	BZ2_bzWriteOpen.1       # -- Begin function BZ2_bzWriteOpen.1
	.p2align	4, 0x90
	.type	BZ2_bzWriteOpen.1,@function
BZ2_bzWriteOpen.1:                      # @BZ2_bzWriteOpen.1
	.cfi_startproc
# %bb.0:                                # %entry
	pushq	%rbp
	.cfi_def_cfa_offset 16
	.cfi_offset %rbp, -16
	movq	%rsp, %rbp
	.cfi_def_cfa_register %rbp
	pushq	%rbx
	subq	$56, %rsp
	.cfi_offset %rbx, -24
	movl	$1836637801, -60(%rbp)  # imm = 0x6D78DE69
	movq	%rdi, -24(%rbp)
	movq	%rsi, -56(%rbp)
	movl	%edx, -32(%rbp)
	movl	%ecx, -40(%rbp)
	movl	%r8d, -28(%rbp)
	movq	$0, -16(%rbp)
	cmpq	$0, -24(%rbp)
	je	.LBB41_2
# %bb.1:                                # %if.then
	movq	-24(%rbp), %rax
	movl	$0, (%rax)
.LBB41_2:                               # %if.end
	cmpq	$0, -16(%rbp)
	je	.LBB41_4
# %bb.3:                                # %if.then2
	movq	-16(%rbp), %rax
	movl	$0, 5096(%rax)
.LBB41_4:                               # %if.end3
	cmpq	$0, -56(%rbp)
	je	.LBB41_11
# %bb.5:                                # %lor.lhs.false
	cmpl	$1, -32(%rbp)
	jl	.LBB41_11
# %bb.6:                                # %lor.lhs.false6
	cmpl	$9, -32(%rbp)
	jg	.LBB41_11
# %bb.7:                                # %lor.lhs.false8
	cmpl	$0, -28(%rbp)
	jl	.LBB41_11
# %bb.8:                                # %lor.lhs.false10
	cmpl	$250, -28(%rbp)
	jg	.LBB41_11
# %bb.9:                                # %lor.lhs.false12
	cmpl	$0, -40(%rbp)
	jl	.LBB41_11
# %bb.10:                               # %lor.lhs.false14
	cmpl	$4, -40(%rbp)
	jle	.LBB41_16
.LBB41_11:                              # %if.then16
	cmpq	$0, -24(%rbp)
	je	.LBB41_13
# %bb.12:                               # %if.then18
	movq	-24(%rbp), %rax
	movl	$-2, (%rax)
.LBB41_13:                              # %if.end19
	cmpq	$0, -16(%rbp)
	je	.LBB41_15
# %bb.14:                               # %if.then21
	movq	-16(%rbp), %rax
	movl	$-2, 5096(%rax)
.LBB41_15:                              # %if.end23
	movq	$0, -48(%rbp)
	jmp	.LBB41_41
.LBB41_16:                              # %if.end24
	movq	-56(%rbp), %rdi
	callq	ferror
	cmpl	$0, %eax
	je	.LBB41_22
# %bb.17:                               # %if.then25
	cmpq	$0, -24(%rbp)
	je	.LBB41_19
# %bb.18:                               # %if.then27
	movq	-24(%rbp), %rax
	movl	$-6, (%rax)
.LBB41_19:                              # %if.end28
	cmpq	$0, -16(%rbp)
	je	.LBB41_21
# %bb.20:                               # %if.then30
	movq	-16(%rbp), %rax
	movl	$-6, 5096(%rax)
.LBB41_21:                              # %if.end32
	movq	$0, -48(%rbp)
	jmp	.LBB41_41
.LBB41_22:                              # %if.end33
	movl	$5104, %edi             # imm = 0x13F0
	callq	malloc
	movq	%rax, -16(%rbp)
	cmpq	$0, -16(%rbp)
	jne	.LBB41_28
# %bb.23:                               # %if.then36
	cmpq	$0, -24(%rbp)
	je	.LBB41_25
# %bb.24:                               # %if.then38
	movq	-24(%rbp), %rax
	movl	$-3, (%rax)
.LBB41_25:                              # %if.end39
	cmpq	$0, -16(%rbp)
	je	.LBB41_27
# %bb.26:                               # %if.then41
	movq	-16(%rbp), %rax
	movl	$-3, 5096(%rax)
.LBB41_27:                              # %if.end43
	movq	$0, -48(%rbp)
	jmp	.LBB41_41
.LBB41_28:                              # %if.end44
	cmpq	$0, -24(%rbp)
	je	.LBB41_30
# %bb.29:                               # %if.then46
	movq	-24(%rbp), %rax
	movl	$0, (%rax)
.LBB41_30:                              # %if.end47
	cmpq	$0, -16(%rbp)
	je	.LBB41_32
# %bb.31:                               # %if.then49
	movq	-16(%rbp), %rax
	movl	$0, 5096(%rax)
.LBB41_32:                              # %if.end51
	movq	-16(%rbp), %rax
	movb	$0, 5100(%rax)
	movq	-16(%rbp), %rax
	movl	$0, 5008(%rax)
	movq	-56(%rbp), %rax
	movq	-16(%rbp), %rcx
	movq	%rax, (%rcx)
	movq	-16(%rbp), %rax
	movb	$1, 5012(%rax)
	movq	-16(%rbp), %rax
	movq	$0, 5072(%rax)
	movq	-16(%rbp), %rax
	movq	$0, 5080(%rax)
	movq	-16(%rbp), %rax
	movq	$0, 5088(%rax)
	cmpl	$0, -28(%rbp)
	jne	.LBB41_34
# %bb.33:                               # %if.then55
	movl	$30, -28(%rbp)
.LBB41_34:                              # %if.end56
	movq	-16(%rbp), %rdi
	addq	$5016, %rdi             # imm = 0x1398
	movl	-32(%rbp), %esi
	movl	-40(%rbp), %edx
	movl	-28(%rbp), %ecx
	callq	BZ2_bzCompressInit
	movl	%eax, -36(%rbp)
	cmpl	$0, -36(%rbp)
	je	.LBB41_40
# %bb.35:                               # %if.then60
	cmpq	$0, -24(%rbp)
	je	.LBB41_37
# %bb.36:                               # %if.then62
	movl	-36(%rbp), %eax
	movq	-24(%rbp), %rcx
	movl	%eax, (%rcx)
.LBB41_37:                              # %if.end63
	cmpq	$0, -16(%rbp)
	je	.LBB41_39
# %bb.38:                               # %if.then65
	movl	-36(%rbp), %eax
	movq	-16(%rbp), %rcx
	movl	%eax, 5096(%rcx)
.LBB41_39:                              # %if.end67
	movq	-16(%rbp), %rdi
	callq	free
	movq	$0, -48(%rbp)
	jmp	.LBB41_41
.LBB41_40:                              # %if.end68
	movq	-16(%rbp), %rax
	movl	$0, 5024(%rax)
	movq	-16(%rbp), %rax
	movb	$1, 5100(%rax)
	movq	-16(%rbp), %rax
	movq	%rax, -48(%rbp)
.LBB41_41:                              # %return
	movq	-48(%rbp), %rbx
	cmpl	$1836637801, -60(%rbp)  # imm = 0x6D78DE69
	jne	.LBB41_43
.LBB41_42:
	movq	%rbx, %rax
	addq	$56, %rsp
	popq	%rbx
	popq	%rbp
	.cfi_def_cfa %rsp, 8
	retq
.LBB41_43:                              # %func_exit
	.cfi_def_cfa %rbp, 16
	callq	detect_breach
	jmp	.LBB41_42
.Lfunc_end41:
	.size	BZ2_bzWriteOpen.1, .Lfunc_end41-BZ2_bzWriteOpen.1
	.cfi_endproc
                                        # -- End function
	.p2align	4, 0x90         # -- Begin function myfeof.2
	.type	myfeof.2,@function
myfeof.2:                               # @myfeof.2
	.cfi_startproc
# %bb.0:                                # %entry
	pushq	%rbp
	.cfi_def_cfa_offset 16
	.cfi_offset %rbp, -16
	movq	%rsp, %rbp
	.cfi_def_cfa_register %rbp
	pushq	%rbx
	subq	$24, %rsp
	.cfi_offset %rbx, -24
	movl	$1251211459, -20(%rbp)  # imm = 0x4A93F8C3
	movq	%rdi, -32(%rbp)
	movq	-32(%rbp), %rdi
	callq	fgetc
	movl	%eax, -16(%rbp)
	cmpl	$-1, -16(%rbp)
	jne	.LBB42_2
# %bb.1:                                # %if.then
	movb	$1, -9(%rbp)
	jmp	.LBB42_3
.LBB42_2:                               # %if.end
	movl	-16(%rbp), %edi
	movq	-32(%rbp), %rsi
	callq	ungetc
	movb	$0, -9(%rbp)
.LBB42_3:                               # %return
	movb	-9(%rbp), %bl
	cmpl	$1251211459, -20(%rbp)  # imm = 0x4A93F8C3
	jne	.LBB42_5
.LBB42_4:
	movzbl	%bl, %eax
	addq	$24, %rsp
	popq	%rbx
	popq	%rbp
	.cfi_def_cfa %rsp, 8
	retq
.LBB42_5:                               # %func_exit
	.cfi_def_cfa %rbp, 16
	callq	detect_breach
	jmp	.LBB42_4
.Lfunc_end42:
	.size	myfeof.2, .Lfunc_end42-myfeof.2
	.cfi_endproc
                                        # -- End function
	.p2align	4, 0x90         # -- Begin function handle_compress.3
	.type	handle_compress.3,@function
handle_compress.3:                      # @handle_compress.3
	.cfi_startproc
# %bb.0:                                # %entry
	pushq	%rbp
	.cfi_def_cfa_offset 16
	.cfi_offset %rbp, -16
	movq	%rsp, %rbp
	.cfi_def_cfa_register %rbp
	pushq	%rbx
	subq	$40, %rsp
	.cfi_offset %rbx, -24
	movl	$1107167658, -28(%rbp)  # imm = 0x41FE09AA
	movq	%rdi, -40(%rbp)
	movb	$0, -10(%rbp)
	movb	$0, -9(%rbp)
	movq	-40(%rbp), %rax
	movq	48(%rax), %rax
	movq	%rax, -24(%rbp)
.LBB43_1:                               # %while.body
                                        # =>This Inner Loop Header: Depth=1
	movq	-24(%rbp), %rax
	cmpl	$1, 12(%rax)
	jne	.LBB43_13
# %bb.2:                                # %if.then
                                        #   in Loop: Header=BB43_1 Depth=1
	movq	-24(%rbp), %rdi
	callq	copy_output_until_stop
	movzbl	%al, %eax
	movzbl	-9(%rbp), %ecx
	orl	%eax, %ecx
	movb	%cl, -9(%rbp)
	movq	-24(%rbp), %rax
	movl	120(%rax), %eax
	movq	-24(%rbp), %rcx
	cmpl	116(%rcx), %eax
	jge	.LBB43_4
# %bb.3:                                # %if.then6
	jmp	.LBB43_25
.LBB43_4:                               # %if.end
                                        #   in Loop: Header=BB43_1 Depth=1
	movq	-24(%rbp), %rax
	cmpl	$4, 8(%rax)
	jne	.LBB43_8
# %bb.5:                                # %land.lhs.true
                                        #   in Loop: Header=BB43_1 Depth=1
	movq	-24(%rbp), %rax
	cmpl	$0, 16(%rax)
	jne	.LBB43_8
# %bb.6:                                # %land.lhs.true11
                                        #   in Loop: Header=BB43_1 Depth=1
	movq	-24(%rbp), %rdi
	callq	isempty_RL
	movzbl	%al, %eax
	cmpl	$0, %eax
	je	.LBB43_8
# %bb.7:                                # %if.then14
	jmp	.LBB43_25
.LBB43_8:                               # %if.end15
                                        #   in Loop: Header=BB43_1 Depth=1
	movq	-24(%rbp), %rdi
	callq	prepare_new_block
	movq	-24(%rbp), %rax
	movl	$2, 12(%rax)
	movq	-24(%rbp), %rax
	cmpl	$3, 8(%rax)
	jne	.LBB43_12
# %bb.9:                                # %land.lhs.true20
                                        #   in Loop: Header=BB43_1 Depth=1
	movq	-24(%rbp), %rax
	cmpl	$0, 16(%rax)
	jne	.LBB43_12
# %bb.10:                               # %land.lhs.true24
                                        #   in Loop: Header=BB43_1 Depth=1
	movq	-24(%rbp), %rdi
	callq	isempty_RL
	movzbl	%al, %eax
	cmpl	$0, %eax
	je	.LBB43_12
# %bb.11:                               # %if.then28
	jmp	.LBB43_25
.LBB43_12:                              # %if.end29
                                        #   in Loop: Header=BB43_1 Depth=1
	jmp	.LBB43_13
.LBB43_13:                              # %if.end30
                                        #   in Loop: Header=BB43_1 Depth=1
	movq	-24(%rbp), %rax
	cmpl	$2, 12(%rax)
	jne	.LBB43_24
# %bb.14:                               # %if.then34
                                        #   in Loop: Header=BB43_1 Depth=1
	movq	-24(%rbp), %rdi
	callq	copy_input_until_stop
	movzbl	%al, %eax
	movzbl	-10(%rbp), %ecx
	orl	%eax, %ecx
	movb	%cl, -10(%rbp)
	movq	-24(%rbp), %rax
	cmpl	$2, 8(%rax)
	je	.LBB43_17
# %bb.15:                               # %land.lhs.true43
                                        #   in Loop: Header=BB43_1 Depth=1
	movq	-24(%rbp), %rax
	cmpl	$0, 16(%rax)
	jne	.LBB43_17
# %bb.16:                               # %if.then47
                                        #   in Loop: Header=BB43_1 Depth=1
	movq	-24(%rbp), %rdi
	callq	flush_RL
	movq	-24(%rbp), %rdi
	movq	-24(%rbp), %rax
	cmpl	$4, 8(%rax)
	sete	%al
	andb	$1, %al
	movzbl	%al, %eax
	movzbl	%al, %esi
	callq	BZ2_compressBlock
	movq	-24(%rbp), %rax
	movl	$1, 12(%rax)
	jmp	.LBB43_23
.LBB43_17:                              # %if.else
                                        #   in Loop: Header=BB43_1 Depth=1
	movq	-24(%rbp), %rax
	movl	108(%rax), %eax
	movq	-24(%rbp), %rcx
	cmpl	112(%rcx), %eax
	jl	.LBB43_19
# %bb.18:                               # %if.then55
                                        #   in Loop: Header=BB43_1 Depth=1
	movq	-24(%rbp), %rdi
	xorl	%esi, %esi
	callq	BZ2_compressBlock
	movq	-24(%rbp), %rax
	movl	$1, 12(%rax)
	jmp	.LBB43_22
.LBB43_19:                              # %if.else57
                                        #   in Loop: Header=BB43_1 Depth=1
	movq	-24(%rbp), %rax
	movq	(%rax), %rax
	cmpl	$0, 8(%rax)
	jne	.LBB43_21
# %bb.20:                               # %if.then61
	jmp	.LBB43_25
.LBB43_21:                              # %if.end62
                                        #   in Loop: Header=BB43_1 Depth=1
	jmp	.LBB43_22
.LBB43_22:                              # %if.end63
                                        #   in Loop: Header=BB43_1 Depth=1
	jmp	.LBB43_23
.LBB43_23:                              # %if.end64
                                        #   in Loop: Header=BB43_1 Depth=1
	jmp	.LBB43_24
.LBB43_24:                              # %if.end65
                                        #   in Loop: Header=BB43_1 Depth=1
	jmp	.LBB43_1
.LBB43_25:                              # %while.end
	movzbl	-10(%rbp), %eax
	cmpl	$0, %eax
	movb	$1, %al
	jne	.LBB43_27
# %bb.26:                               # %lor.rhs
	movzbl	-9(%rbp), %eax
	cmpl	$0, %eax
	setne	%al
.LBB43_27:                              # %lor.end
	andb	$1, %al
	movzbl	%al, %ebx
	cmpl	$1107167658, -28(%rbp)  # imm = 0x41FE09AA
	jne	.LBB43_29
.LBB43_28:
	movzbl	%bl, %eax
	addq	$40, %rsp
	popq	%rbx
	popq	%rbp
	.cfi_def_cfa %rsp, 8
	retq
.LBB43_29:                              # %func_exit
	.cfi_def_cfa %rbp, 16
	callq	detect_breach
	jmp	.LBB43_28
.Lfunc_end43:
	.size	handle_compress.3, .Lfunc_end43-handle_compress.3
	.cfi_endproc
                                        # -- End function
	.globl	BZ2_bzerror.4           # -- Begin function BZ2_bzerror.4
	.p2align	4, 0x90
	.type	BZ2_bzerror.4,@function
BZ2_bzerror.4:                          # @BZ2_bzerror.4
	.cfi_startproc
# %bb.0:                                # %entry
	pushq	%rbp
	.cfi_def_cfa_offset 16
	.cfi_offset %rbp, -16
	movq	%rsp, %rbp
	.cfi_def_cfa_register %rbp
	pushq	%rbx
	subq	$24, %rsp
	.cfi_offset %rbx, -24
	movl	$1570406565, -16(%rbp)  # imm = 0x5D9A80A5
	movq	%rdi, -32(%rbp)
	movq	%rsi, -24(%rbp)
	movq	-32(%rbp), %rax
	movl	5096(%rax), %eax
	movl	%eax, -12(%rbp)
	cmpl	$0, -12(%rbp)
	jle	.LBB44_2
# %bb.1:                                # %if.then
	movl	$0, -12(%rbp)
.LBB44_2:                               # %if.end
	movl	-12(%rbp), %eax
	movq	-24(%rbp), %rcx
	movl	%eax, (%rcx)
	imull	$-1, -12(%rbp), %eax
	cltq
	movq	bzerrorstrings(,%rax,8), %rbx
	cmpl	$1570406565, -16(%rbp)  # imm = 0x5D9A80A5
	jne	.LBB44_4
.LBB44_3:
	movq	%rbx, %rax
	addq	$24, %rsp
	popq	%rbx
	popq	%rbp
	.cfi_def_cfa %rsp, 8
	retq
.LBB44_4:                               # %func_exit
	.cfi_def_cfa %rbp, 16
	callq	detect_breach
	jmp	.LBB44_3
.Lfunc_end44:
	.size	BZ2_bzerror.4, .Lfunc_end44-BZ2_bzerror.4
	.cfi_endproc
                                        # -- End function
	.globl	BZ2_bzBuffToBuffCompress.5 # -- Begin function BZ2_bzBuffToBuffCompress.5
	.p2align	4, 0x90
	.type	BZ2_bzBuffToBuffCompress.5,@function
BZ2_bzBuffToBuffCompress.5:             # @BZ2_bzBuffToBuffCompress.5
	.cfi_startproc
# %bb.0:                                # %entry
	pushq	%rbp
	.cfi_def_cfa_offset 16
	.cfi_offset %rbp, -16
	movq	%rsp, %rbp
	.cfi_def_cfa_register %rbp
	pushq	%rbx
	subq	$136, %rsp
	.cfi_offset %rbx, -24
	movl	16(%rbp), %eax
	movl	$1918913352, -40(%rbp)  # imm = 0x72604B48
	movq	%rdi, -56(%rbp)
	movq	%rsi, -32(%rbp)
	movq	%rdx, -48(%rbp)
	movl	%ecx, -36(%rbp)
	movl	%r8d, -20(%rbp)
	movl	%r9d, -24(%rbp)
	cmpq	$0, -56(%rbp)
	je	.LBB45_9
# %bb.1:                                # %lor.lhs.false
	cmpq	$0, -32(%rbp)
	je	.LBB45_9
# %bb.2:                                # %lor.lhs.false2
	cmpq	$0, -48(%rbp)
	je	.LBB45_9
# %bb.3:                                # %lor.lhs.false4
	cmpl	$1, -20(%rbp)
	jl	.LBB45_9
# %bb.4:                                # %lor.lhs.false6
	cmpl	$9, -20(%rbp)
	jg	.LBB45_9
# %bb.5:                                # %lor.lhs.false8
	cmpl	$0, -24(%rbp)
	jl	.LBB45_9
# %bb.6:                                # %lor.lhs.false10
	cmpl	$4, -24(%rbp)
	jg	.LBB45_9
# %bb.7:                                # %lor.lhs.false12
	cmpl	$0, 16(%rbp)
	jl	.LBB45_9
# %bb.8:                                # %lor.lhs.false14
	cmpl	$250, 16(%rbp)
	jle	.LBB45_10
.LBB45_9:                               # %if.then
	movl	$-2, -16(%rbp)
	jmp	.LBB45_21
.LBB45_10:                              # %if.end
	cmpl	$0, 16(%rbp)
	jne	.LBB45_12
# %bb.11:                               # %if.then17
	movl	$30, 16(%rbp)
.LBB45_12:                              # %if.end18
	movq	$0, -80(%rbp)
	movq	$0, -72(%rbp)
	movq	$0, -64(%rbp)
	movl	-20(%rbp), %esi
	movl	-24(%rbp), %edx
	movl	16(%rbp), %ecx
	leaq	-136(%rbp), %rdi
	callq	BZ2_bzCompressInit
	movl	%eax, -12(%rbp)
	cmpl	$0, -12(%rbp)
	je	.LBB45_14
# %bb.13:                               # %if.then20
	movl	-12(%rbp), %eax
	movl	%eax, -16(%rbp)
	jmp	.LBB45_21
.LBB45_14:                              # %if.end21
	movq	-48(%rbp), %rax
	movq	%rax, -136(%rbp)
	movq	-56(%rbp), %rax
	movq	%rax, -112(%rbp)
	movl	-36(%rbp), %eax
	movl	%eax, -128(%rbp)
	movq	-32(%rbp), %rax
	movl	(%rax), %eax
	movl	%eax, -104(%rbp)
	leaq	-136(%rbp), %rdi
	movl	$2, %esi
	callq	BZ2_bzCompress
	movl	%eax, -12(%rbp)
	cmpl	$3, -12(%rbp)
	jne	.LBB45_16
# %bb.15:                               # %if.then24
	jmp	.LBB45_19
.LBB45_16:                              # %if.end25
	cmpl	$4, -12(%rbp)
	je	.LBB45_18
# %bb.17:                               # %if.then27
	jmp	.LBB45_20
.LBB45_18:                              # %if.end28
	movl	-104(%rbp), %eax
	movq	-32(%rbp), %rcx
	movl	(%rcx), %edx
	subl	%eax, %edx
	movl	%edx, (%rcx)
	leaq	-136(%rbp), %rdi
	callq	BZ2_bzCompressEnd
	movl	$0, -16(%rbp)
	jmp	.LBB45_21
.LBB45_19:                              # %output_overflow
	leaq	-136(%rbp), %rdi
	callq	BZ2_bzCompressEnd
	movl	$-8, -16(%rbp)
	jmp	.LBB45_21
.LBB45_20:                              # %errhandler
	leaq	-136(%rbp), %rdi
	callq	BZ2_bzCompressEnd
	movl	-12(%rbp), %eax
	movl	%eax, -16(%rbp)
.LBB45_21:                              # %return
	movl	-16(%rbp), %ebx
	cmpl	$1918913352, -40(%rbp)  # imm = 0x72604B48
	jne	.LBB45_23
.LBB45_22:
	movl	%ebx, %eax
	addq	$136, %rsp
	popq	%rbx
	popq	%rbp
	.cfi_def_cfa %rsp, 8
	retq
.LBB45_23:                              # %func_exit
	.cfi_def_cfa %rbp, 16
	callq	detect_breach
	jmp	.LBB45_22
.Lfunc_end45:
	.size	BZ2_bzBuffToBuffCompress.5, .Lfunc_end45-BZ2_bzBuffToBuffCompress.5
	.cfi_endproc
                                        # -- End function
	.p2align	4, 0x90         # -- Begin function add_pair_to_block.6
	.type	add_pair_to_block.6,@function
add_pair_to_block.6:                    # @add_pair_to_block.6
	.cfi_startproc
# %bb.0:                                # %entry
	pushq	%rbp
	.cfi_def_cfa_offset 16
	.cfi_offset %rbp, -16
	movq	%rsp, %rbp
	.cfi_def_cfa_register %rbp
	subq	$32, %rsp
	movl	$1511291491, -24(%rbp)  # imm = 0x5A147A63
	movq	%rdi, -16(%rbp)
	movq	-16(%rbp), %rax
	movl	92(%rax), %eax
	movb	%al, -1(%rbp)
	movl	$0, -20(%rbp)
.LBB46_1:                               # %for.cond
                                        # =>This Inner Loop Header: Depth=1
	movl	-20(%rbp), %eax
	movq	-16(%rbp), %rcx
	cmpl	96(%rcx), %eax
	jge	.LBB46_4
# %bb.2:                                # %for.body
                                        #   in Loop: Header=BB46_1 Depth=1
	movq	-16(%rbp), %rax
	movl	648(%rax), %eax
	shll	$8, %eax
	movq	-16(%rbp), %rcx
	movl	648(%rcx), %ecx
	shrl	$24, %ecx
	movzbl	-1(%rbp), %edx
	xorl	%edx, %ecx
	movl	%ecx, %ecx
	xorl	BZ2_crc32Table(,%rcx,4), %eax
	movq	-16(%rbp), %rcx
	movl	%eax, 648(%rcx)
# %bb.3:                                # %for.inc
                                        #   in Loop: Header=BB46_1 Depth=1
	movl	-20(%rbp), %eax
	addl	$1, %eax
	movl	%eax, -20(%rbp)
	jmp	.LBB46_1
.LBB46_4:                               # %for.end
	movq	-16(%rbp), %rax
	movl	92(%rax), %ecx
	movb	$1, 128(%rax,%rcx)
	movq	-16(%rbp), %rax
	movl	96(%rax), %eax
	movl	%eax, %ecx
	subl	$1, %ecx
	je	.LBB46_7
	jmp	.LBB46_5
.LBB46_5:                               # %for.end
	movl	%eax, %ecx
	subl	$2, %ecx
	je	.LBB46_8
	jmp	.LBB46_6
.LBB46_6:                               # %for.end
	subl	$3, %eax
	je	.LBB46_9
	jmp	.LBB46_10
.LBB46_7:                               # %sw.bb
	movb	-1(%rbp), %al
	movq	-16(%rbp), %rcx
	movq	64(%rcx), %rcx
	movq	-16(%rbp), %rdx
	movslq	108(%rdx), %rdx
	movb	%al, (%rcx,%rdx)
	movq	-16(%rbp), %rax
	movl	108(%rax), %ecx
	addl	$1, %ecx
	movl	%ecx, 108(%rax)
	jmp	.LBB46_11
.LBB46_8:                               # %sw.bb14
	movb	-1(%rbp), %al
	movq	-16(%rbp), %rcx
	movq	64(%rcx), %rcx
	movq	-16(%rbp), %rdx
	movslq	108(%rdx), %rdx
	movb	%al, (%rcx,%rdx)
	movq	-16(%rbp), %rax
	movl	108(%rax), %ecx
	addl	$1, %ecx
	movl	%ecx, 108(%rax)
	movb	-1(%rbp), %al
	movq	-16(%rbp), %rcx
	movq	64(%rcx), %rcx
	movq	-16(%rbp), %rdx
	movslq	108(%rdx), %rdx
	movb	%al, (%rcx,%rdx)
	movq	-16(%rbp), %rax
	movl	108(%rax), %ecx
	addl	$1, %ecx
	movl	%ecx, 108(%rax)
	jmp	.LBB46_11
.LBB46_9:                               # %sw.bb27
	movb	-1(%rbp), %al
	movq	-16(%rbp), %rcx
	movq	64(%rcx), %rcx
	movq	-16(%rbp), %rdx
	movslq	108(%rdx), %rdx
	movb	%al, (%rcx,%rdx)
	movq	-16(%rbp), %rax
	movl	108(%rax), %ecx
	addl	$1, %ecx
	movl	%ecx, 108(%rax)
	movb	-1(%rbp), %al
	movq	-16(%rbp), %rcx
	movq	64(%rcx), %rcx
	movq	-16(%rbp), %rdx
	movslq	108(%rdx), %rdx
	movb	%al, (%rcx,%rdx)
	movq	-16(%rbp), %rax
	movl	108(%rax), %ecx
	addl	$1, %ecx
	movl	%ecx, 108(%rax)
	movb	-1(%rbp), %al
	movq	-16(%rbp), %rcx
	movq	64(%rcx), %rcx
	movq	-16(%rbp), %rdx
	movslq	108(%rdx), %rdx
	movb	%al, (%rcx,%rdx)
	movq	-16(%rbp), %rax
	movl	108(%rax), %ecx
	addl	$1, %ecx
	movl	%ecx, 108(%rax)
	jmp	.LBB46_11
.LBB46_10:                              # %sw.default
	movq	-16(%rbp), %rax
	movq	-16(%rbp), %rcx
	movl	96(%rcx), %ecx
	subl	$4, %ecx
	movslq	%ecx, %rcx
	movb	$1, 128(%rax,%rcx)
	movb	-1(%rbp), %al
	movq	-16(%rbp), %rcx
	movq	64(%rcx), %rcx
	movq	-16(%rbp), %rdx
	movslq	108(%rdx), %rdx
	movb	%al, (%rcx,%rdx)
	movq	-16(%rbp), %rax
	movl	108(%rax), %ecx
	addl	$1, %ecx
	movl	%ecx, 108(%rax)
	movb	-1(%rbp), %al
	movq	-16(%rbp), %rcx
	movq	64(%rcx), %rcx
	movq	-16(%rbp), %rdx
	movslq	108(%rdx), %rdx
	movb	%al, (%rcx,%rdx)
	movq	-16(%rbp), %rax
	movl	108(%rax), %ecx
	addl	$1, %ecx
	movl	%ecx, 108(%rax)
	movb	-1(%rbp), %al
	movq	-16(%rbp), %rcx
	movq	64(%rcx), %rcx
	movq	-16(%rbp), %rdx
	movslq	108(%rdx), %rdx
	movb	%al, (%rcx,%rdx)
	movq	-16(%rbp), %rax
	movl	108(%rax), %ecx
	addl	$1, %ecx
	movl	%ecx, 108(%rax)
	movb	-1(%rbp), %al
	movq	-16(%rbp), %rcx
	movq	64(%rcx), %rcx
	movq	-16(%rbp), %rdx
	movslq	108(%rdx), %rdx
	movb	%al, (%rcx,%rdx)
	movq	-16(%rbp), %rax
	movl	108(%rax), %ecx
	addl	$1, %ecx
	movl	%ecx, 108(%rax)
	movq	-16(%rbp), %rax
	movl	96(%rax), %eax
	subl	$4, %eax
	movq	-16(%rbp), %rcx
	movq	64(%rcx), %rcx
	movq	-16(%rbp), %rdx
	movslq	108(%rdx), %rdx
	movb	%al, (%rcx,%rdx)
	movq	-16(%rbp), %rax
	movl	108(%rax), %ecx
	addl	$1, %ecx
	movl	%ecx, 108(%rax)
.LBB46_11:                              # %sw.epilog
	cmpl	$1511291491, -24(%rbp)  # imm = 0x5A147A63
	jne	.LBB46_13
.LBB46_12:
	addq	$32, %rsp
	popq	%rbp
	.cfi_def_cfa %rsp, 8
	retq
.LBB46_13:                              # %func_exit
	.cfi_def_cfa %rbp, 16
	callq	detect_breach
	jmp	.LBB46_12
.Lfunc_end46:
	.size	add_pair_to_block.6, .Lfunc_end46-add_pair_to_block.6
	.cfi_endproc
                                        # -- End function
	.globl	BZ2_bzwrite.7           # -- Begin function BZ2_bzwrite.7
	.p2align	4, 0x90
	.type	BZ2_bzwrite.7,@function
BZ2_bzwrite.7:                          # @BZ2_bzwrite.7
	.cfi_startproc
# %bb.0:                                # %entry
	pushq	%rbp
	.cfi_def_cfa_offset 16
	.cfi_offset %rbp, -16
	movq	%rsp, %rbp
	.cfi_def_cfa_register %rbp
	pushq	%rbx
	subq	$40, %rsp
	.cfi_offset %rbx, -24
	movl	$474047143, -24(%rbp)   # imm = 0x1C4162A7
	movq	%rdi, -32(%rbp)
	movq	%rsi, -40(%rbp)
	movl	%edx, -12(%rbp)
	movq	-32(%rbp), %rsi
	movq	-40(%rbp), %rdx
	movl	-12(%rbp), %ecx
	leaq	-20(%rbp), %rdi
	callq	BZ2_bzWrite
	cmpl	$0, -20(%rbp)
	jne	.LBB47_2
# %bb.1:                                # %if.then
	movl	-12(%rbp), %eax
	movl	%eax, -16(%rbp)
	jmp	.LBB47_3
.LBB47_2:                               # %if.else
	movl	$-1, -16(%rbp)
.LBB47_3:                               # %return
	movl	-16(%rbp), %ebx
	cmpl	$474047143, -24(%rbp)   # imm = 0x1C4162A7
	jne	.LBB47_5
.LBB47_4:
	movl	%ebx, %eax
	addq	$40, %rsp
	popq	%rbx
	popq	%rbp
	.cfi_def_cfa %rsp, 8
	retq
.LBB47_5:                               # %func_exit
	.cfi_def_cfa %rbp, 16
	callq	detect_breach
	jmp	.LBB47_4
.Lfunc_end47:
	.size	BZ2_bzwrite.7, .Lfunc_end47-BZ2_bzwrite.7
	.cfi_endproc
                                        # -- End function
	.p2align	4, 0x90         # -- Begin function copy_input_until_stop.8
	.type	copy_input_until_stop.8,@function
copy_input_until_stop.8:                # @copy_input_until_stop.8
	.cfi_startproc
# %bb.0:                                # %entry
	pushq	%rbp
	.cfi_def_cfa_offset 16
	.cfi_offset %rbp, -16
	movq	%rsp, %rbp
	.cfi_def_cfa_register %rbp
	pushq	%rbx
	subq	$24, %rsp
	.cfi_offset %rbx, -24
	movl	$8515830, -32(%rbp)     # imm = 0x81F0F6
	movq	%rdi, -16(%rbp)
	movb	$0, -17(%rbp)
	movq	-16(%rbp), %rax
	cmpl	$2, 8(%rax)
	jne	.LBB48_20
# %bb.1:                                # %if.then
	jmp	.LBB48_2
.LBB48_2:                               # %while.body
                                        # =>This Inner Loop Header: Depth=1
	movq	-16(%rbp), %rax
	movl	108(%rax), %eax
	movq	-16(%rbp), %rcx
	cmpl	112(%rcx), %eax
	jl	.LBB48_4
# %bb.3:                                # %if.then2
	jmp	.LBB48_19
.LBB48_4:                               # %if.end
                                        #   in Loop: Header=BB48_2 Depth=1
	movq	-16(%rbp), %rax
	movq	(%rax), %rax
	cmpl	$0, 8(%rax)
	jne	.LBB48_6
# %bb.5:                                # %if.then4
	jmp	.LBB48_19
.LBB48_6:                               # %if.end5
                                        #   in Loop: Header=BB48_2 Depth=1
	movb	$1, -17(%rbp)
	movq	-16(%rbp), %rax
	movq	(%rax), %rax
	movq	(%rax), %rax
	movzbl	(%rax), %eax
	movl	%eax, -28(%rbp)
	movl	-28(%rbp), %eax
	movq	-16(%rbp), %rcx
	cmpl	92(%rcx), %eax
	je	.LBB48_9
# %bb.7:                                # %land.lhs.true
                                        #   in Loop: Header=BB48_2 Depth=1
	movq	-16(%rbp), %rax
	cmpl	$1, 96(%rax)
	jne	.LBB48_9
# %bb.8:                                # %if.then11
                                        #   in Loop: Header=BB48_2 Depth=1
	movq	-16(%rbp), %rax
	movl	92(%rax), %eax
	movb	%al, -19(%rbp)
	movq	-16(%rbp), %rax
	movl	648(%rax), %eax
	shll	$8, %eax
	movq	-16(%rbp), %rcx
	movl	648(%rcx), %ecx
	shrl	$24, %ecx
	movzbl	-19(%rbp), %edx
	xorl	%edx, %ecx
	movl	%ecx, %ecx
	xorl	BZ2_crc32Table(,%rcx,4), %eax
	movq	-16(%rbp), %rcx
	movl	%eax, 648(%rcx)
	movq	-16(%rbp), %rax
	movq	-16(%rbp), %rcx
	movl	92(%rcx), %ecx
	movb	$1, 128(%rax,%rcx)
	movb	-19(%rbp), %al
	movq	-16(%rbp), %rcx
	movq	64(%rcx), %rcx
	movq	-16(%rbp), %rdx
	movslq	108(%rdx), %rdx
	movb	%al, (%rcx,%rdx)
	movq	-16(%rbp), %rax
	movl	108(%rax), %ecx
	addl	$1, %ecx
	movl	%ecx, 108(%rax)
	movl	-28(%rbp), %eax
	movq	-16(%rbp), %rcx
	movl	%eax, 92(%rcx)
	jmp	.LBB48_16
.LBB48_9:                               # %if.else
                                        #   in Loop: Header=BB48_2 Depth=1
	movl	-28(%rbp), %eax
	movq	-16(%rbp), %rcx
	cmpl	92(%rcx), %eax
	jne	.LBB48_11
# %bb.10:                               # %lor.lhs.false
                                        #   in Loop: Header=BB48_2 Depth=1
	movq	-16(%rbp), %rax
	cmpl	$255, 96(%rax)
	jne	.LBB48_14
.LBB48_11:                              # %if.then32
                                        #   in Loop: Header=BB48_2 Depth=1
	movq	-16(%rbp), %rax
	cmpl	$256, 92(%rax)          # imm = 0x100
	jae	.LBB48_13
# %bb.12:                               # %if.then36
                                        #   in Loop: Header=BB48_2 Depth=1
	movq	-16(%rbp), %rdi
	callq	add_pair_to_block
.LBB48_13:                              # %if.end37
                                        #   in Loop: Header=BB48_2 Depth=1
	movl	-28(%rbp), %eax
	movq	-16(%rbp), %rcx
	movl	%eax, 92(%rcx)
	movq	-16(%rbp), %rax
	movl	$1, 96(%rax)
	jmp	.LBB48_15
.LBB48_14:                              # %if.else40
                                        #   in Loop: Header=BB48_2 Depth=1
	movq	-16(%rbp), %rax
	movl	96(%rax), %ecx
	addl	$1, %ecx
	movl	%ecx, 96(%rax)
.LBB48_15:                              # %if.end43
                                        #   in Loop: Header=BB48_2 Depth=1
	jmp	.LBB48_16
.LBB48_16:                              # %if.end44
                                        #   in Loop: Header=BB48_2 Depth=1
	movq	-16(%rbp), %rax
	movq	(%rax), %rax
	movq	(%rax), %rcx
	addq	$1, %rcx
	movq	%rcx, (%rax)
	movq	-16(%rbp), %rax
	movq	(%rax), %rax
	movl	8(%rax), %ecx
	addl	$-1, %ecx
	movl	%ecx, 8(%rax)
	movq	-16(%rbp), %rax
	movq	(%rax), %rax
	movl	12(%rax), %ecx
	addl	$1, %ecx
	movl	%ecx, 12(%rax)
	movq	-16(%rbp), %rax
	movq	(%rax), %rax
	cmpl	$0, 12(%rax)
	jne	.LBB48_18
# %bb.17:                               # %if.then55
                                        #   in Loop: Header=BB48_2 Depth=1
	movq	-16(%rbp), %rax
	movq	(%rax), %rax
	movl	16(%rax), %ecx
	addl	$1, %ecx
	movl	%ecx, 16(%rax)
.LBB48_18:                              # %if.end58
                                        #   in Loop: Header=BB48_2 Depth=1
	jmp	.LBB48_2
.LBB48_19:                              # %while.end
	jmp	.LBB48_41
.LBB48_20:                              # %if.else59
	jmp	.LBB48_21
.LBB48_21:                              # %while.body60
                                        # =>This Inner Loop Header: Depth=1
	movq	-16(%rbp), %rax
	movl	108(%rax), %eax
	movq	-16(%rbp), %rcx
	cmpl	112(%rcx), %eax
	jl	.LBB48_23
# %bb.22:                               # %if.then65
	jmp	.LBB48_40
.LBB48_23:                              # %if.end66
                                        #   in Loop: Header=BB48_21 Depth=1
	movq	-16(%rbp), %rax
	movq	(%rax), %rax
	cmpl	$0, 8(%rax)
	jne	.LBB48_25
# %bb.24:                               # %if.then71
	jmp	.LBB48_40
.LBB48_25:                              # %if.end72
                                        #   in Loop: Header=BB48_21 Depth=1
	movq	-16(%rbp), %rax
	cmpl	$0, 16(%rax)
	jne	.LBB48_27
# %bb.26:                               # %if.then75
	jmp	.LBB48_40
.LBB48_27:                              # %if.end76
                                        #   in Loop: Header=BB48_21 Depth=1
	movb	$1, -17(%rbp)
	movq	-16(%rbp), %rax
	movq	(%rax), %rax
	movq	(%rax), %rax
	movzbl	(%rax), %eax
	movl	%eax, -24(%rbp)
	movl	-24(%rbp), %eax
	movq	-16(%rbp), %rcx
	cmpl	92(%rcx), %eax
	je	.LBB48_30
# %bb.28:                               # %land.lhs.true84
                                        #   in Loop: Header=BB48_21 Depth=1
	movq	-16(%rbp), %rax
	cmpl	$1, 96(%rax)
	jne	.LBB48_30
# %bb.29:                               # %if.then88
                                        #   in Loop: Header=BB48_21 Depth=1
	movq	-16(%rbp), %rax
	movl	92(%rax), %eax
	movb	%al, -18(%rbp)
	movq	-16(%rbp), %rax
	movl	648(%rax), %eax
	shll	$8, %eax
	movq	-16(%rbp), %rcx
	movl	648(%rcx), %ecx
	shrl	$24, %ecx
	movzbl	-18(%rbp), %edx
	xorl	%edx, %ecx
	movl	%ecx, %ecx
	xorl	BZ2_crc32Table(,%rcx,4), %eax
	movq	-16(%rbp), %rcx
	movl	%eax, 648(%rcx)
	movq	-16(%rbp), %rax
	movq	-16(%rbp), %rcx
	movl	92(%rcx), %ecx
	movb	$1, 128(%rax,%rcx)
	movb	-18(%rbp), %al
	movq	-16(%rbp), %rcx
	movq	64(%rcx), %rcx
	movq	-16(%rbp), %rdx
	movslq	108(%rdx), %rdx
	movb	%al, (%rcx,%rdx)
	movq	-16(%rbp), %rax
	movl	108(%rax), %ecx
	addl	$1, %ecx
	movl	%ecx, 108(%rax)
	movl	-24(%rbp), %eax
	movq	-16(%rbp), %rcx
	movl	%eax, 92(%rcx)
	jmp	.LBB48_37
.LBB48_30:                              # %if.else113
                                        #   in Loop: Header=BB48_21 Depth=1
	movl	-24(%rbp), %eax
	movq	-16(%rbp), %rcx
	cmpl	92(%rcx), %eax
	jne	.LBB48_32
# %bb.31:                               # %lor.lhs.false117
                                        #   in Loop: Header=BB48_21 Depth=1
	movq	-16(%rbp), %rax
	cmpl	$255, 96(%rax)
	jne	.LBB48_35
.LBB48_32:                              # %if.then121
                                        #   in Loop: Header=BB48_21 Depth=1
	movq	-16(%rbp), %rax
	cmpl	$256, 92(%rax)          # imm = 0x100
	jae	.LBB48_34
# %bb.33:                               # %if.then125
                                        #   in Loop: Header=BB48_21 Depth=1
	movq	-16(%rbp), %rdi
	callq	add_pair_to_block
.LBB48_34:                              # %if.end126
                                        #   in Loop: Header=BB48_21 Depth=1
	movl	-24(%rbp), %eax
	movq	-16(%rbp), %rcx
	movl	%eax, 92(%rcx)
	movq	-16(%rbp), %rax
	movl	$1, 96(%rax)
	jmp	.LBB48_36
.LBB48_35:                              # %if.else129
                                        #   in Loop: Header=BB48_21 Depth=1
	movq	-16(%rbp), %rax
	movl	96(%rax), %ecx
	addl	$1, %ecx
	movl	%ecx, 96(%rax)
.LBB48_36:                              # %if.end132
                                        #   in Loop: Header=BB48_21 Depth=1
	jmp	.LBB48_37
.LBB48_37:                              # %if.end133
                                        #   in Loop: Header=BB48_21 Depth=1
	movq	-16(%rbp), %rax
	movq	(%rax), %rax
	movq	(%rax), %rcx
	addq	$1, %rcx
	movq	%rcx, (%rax)
	movq	-16(%rbp), %rax
	movq	(%rax), %rax
	movl	8(%rax), %ecx
	addl	$-1, %ecx
	movl	%ecx, 8(%rax)
	movq	-16(%rbp), %rax
	movq	(%rax), %rax
	movl	12(%rax), %ecx
	addl	$1, %ecx
	movl	%ecx, 12(%rax)
	movq	-16(%rbp), %rax
	movq	(%rax), %rax
	cmpl	$0, 12(%rax)
	jne	.LBB48_39
# %bb.38:                               # %if.then147
                                        #   in Loop: Header=BB48_21 Depth=1
	movq	-16(%rbp), %rax
	movq	(%rax), %rax
	movl	16(%rax), %ecx
	addl	$1, %ecx
	movl	%ecx, 16(%rax)
.LBB48_39:                              # %if.end151
                                        #   in Loop: Header=BB48_21 Depth=1
	movq	-16(%rbp), %rax
	movl	16(%rax), %ecx
	addl	$-1, %ecx
	movl	%ecx, 16(%rax)
	jmp	.LBB48_21
.LBB48_40:                              # %while.end154
	jmp	.LBB48_41
.LBB48_41:                              # %if.end155
	movb	-17(%rbp), %bl
	cmpl	$8515830, -32(%rbp)     # imm = 0x81F0F6
	jne	.LBB48_43
.LBB48_42:
	movzbl	%bl, %eax
	addq	$24, %rsp
	popq	%rbx
	popq	%rbp
	.cfi_def_cfa %rsp, 8
	retq
.LBB48_43:                              # %func_exit
	.cfi_def_cfa %rbp, 16
	callq	detect_breach
	jmp	.LBB48_42
.Lfunc_end48:
	.size	copy_input_until_stop.8, .Lfunc_end48-copy_input_until_stop.8
	.cfi_endproc
                                        # -- End function
	.p2align	4, 0x90         # -- Begin function myfeof.9
	.type	myfeof.9,@function
myfeof.9:                               # @myfeof.9
	.cfi_startproc
# %bb.0:                                # %entry
	pushq	%rbp
	.cfi_def_cfa_offset 16
	.cfi_offset %rbp, -16
	movq	%rsp, %rbp
	.cfi_def_cfa_register %rbp
	pushq	%rbx
	subq	$24, %rsp
	.cfi_offset %rbx, -24
	movl	$1362350900, -20(%rbp)  # imm = 0x5133D334
	movq	%rdi, -32(%rbp)
	movq	-32(%rbp), %rdi
	callq	fgetc
	movl	%eax, -16(%rbp)
	cmpl	$-1, -16(%rbp)
	jne	.LBB49_2
# %bb.1:                                # %if.then
	movb	$1, -9(%rbp)
	jmp	.LBB49_3
.LBB49_2:                               # %if.end
	movl	-16(%rbp), %edi
	movq	-32(%rbp), %rsi
	callq	ungetc
	movb	$0, -9(%rbp)
.LBB49_3:                               # %return
	movb	-9(%rbp), %bl
	cmpl	$1362350900, -20(%rbp)  # imm = 0x5133D334
	jne	.LBB49_5
.LBB49_4:
	movzbl	%bl, %eax
	addq	$24, %rsp
	popq	%rbx
	popq	%rbp
	.cfi_def_cfa %rsp, 8
	retq
.LBB49_5:                               # %func_exit
	.cfi_def_cfa %rbp, 16
	callq	detect_breach
	jmp	.LBB49_4
.Lfunc_end49:
	.size	myfeof.9, .Lfunc_end49-myfeof.9
	.cfi_endproc
                                        # -- End function
	.p2align	4, 0x90         # -- Begin function add_pair_to_block.10
	.type	add_pair_to_block.10,@function
add_pair_to_block.10:                   # @add_pair_to_block.10
	.cfi_startproc
# %bb.0:                                # %entry
	pushq	%rbp
	.cfi_def_cfa_offset 16
	.cfi_offset %rbp, -16
	movq	%rsp, %rbp
	.cfi_def_cfa_register %rbp
	subq	$32, %rsp
	movl	$496320329, -24(%rbp)   # imm = 0x1D953F49
	movq	%rdi, -16(%rbp)
	movq	-16(%rbp), %rax
	movl	92(%rax), %eax
	movb	%al, -1(%rbp)
	movl	$0, -20(%rbp)
.LBB50_1:                               # %for.cond
                                        # =>This Inner Loop Header: Depth=1
	movl	-20(%rbp), %eax
	movq	-16(%rbp), %rcx
	cmpl	96(%rcx), %eax
	jge	.LBB50_4
# %bb.2:                                # %for.body
                                        #   in Loop: Header=BB50_1 Depth=1
	movq	-16(%rbp), %rax
	movl	648(%rax), %eax
	shll	$8, %eax
	movq	-16(%rbp), %rcx
	movl	648(%rcx), %ecx
	shrl	$24, %ecx
	movzbl	-1(%rbp), %edx
	xorl	%edx, %ecx
	movl	%ecx, %ecx
	xorl	BZ2_crc32Table(,%rcx,4), %eax
	movq	-16(%rbp), %rcx
	movl	%eax, 648(%rcx)
# %bb.3:                                # %for.inc
                                        #   in Loop: Header=BB50_1 Depth=1
	movl	-20(%rbp), %eax
	addl	$1, %eax
	movl	%eax, -20(%rbp)
	jmp	.LBB50_1
.LBB50_4:                               # %for.end
	movq	-16(%rbp), %rax
	movl	92(%rax), %ecx
	movb	$1, 128(%rax,%rcx)
	movq	-16(%rbp), %rax
	movl	96(%rax), %eax
	movl	%eax, %ecx
	subl	$1, %ecx
	je	.LBB50_7
	jmp	.LBB50_5
.LBB50_5:                               # %for.end
	movl	%eax, %ecx
	subl	$2, %ecx
	je	.LBB50_8
	jmp	.LBB50_6
.LBB50_6:                               # %for.end
	subl	$3, %eax
	je	.LBB50_9
	jmp	.LBB50_10
.LBB50_7:                               # %sw.bb
	movb	-1(%rbp), %al
	movq	-16(%rbp), %rcx
	movq	64(%rcx), %rcx
	movq	-16(%rbp), %rdx
	movslq	108(%rdx), %rdx
	movb	%al, (%rcx,%rdx)
	movq	-16(%rbp), %rax
	movl	108(%rax), %ecx
	addl	$1, %ecx
	movl	%ecx, 108(%rax)
	jmp	.LBB50_11
.LBB50_8:                               # %sw.bb14
	movb	-1(%rbp), %al
	movq	-16(%rbp), %rcx
	movq	64(%rcx), %rcx
	movq	-16(%rbp), %rdx
	movslq	108(%rdx), %rdx
	movb	%al, (%rcx,%rdx)
	movq	-16(%rbp), %rax
	movl	108(%rax), %ecx
	addl	$1, %ecx
	movl	%ecx, 108(%rax)
	movb	-1(%rbp), %al
	movq	-16(%rbp), %rcx
	movq	64(%rcx), %rcx
	movq	-16(%rbp), %rdx
	movslq	108(%rdx), %rdx
	movb	%al, (%rcx,%rdx)
	movq	-16(%rbp), %rax
	movl	108(%rax), %ecx
	addl	$1, %ecx
	movl	%ecx, 108(%rax)
	jmp	.LBB50_11
.LBB50_9:                               # %sw.bb27
	movb	-1(%rbp), %al
	movq	-16(%rbp), %rcx
	movq	64(%rcx), %rcx
	movq	-16(%rbp), %rdx
	movslq	108(%rdx), %rdx
	movb	%al, (%rcx,%rdx)
	movq	-16(%rbp), %rax
	movl	108(%rax), %ecx
	addl	$1, %ecx
	movl	%ecx, 108(%rax)
	movb	-1(%rbp), %al
	movq	-16(%rbp), %rcx
	movq	64(%rcx), %rcx
	movq	-16(%rbp), %rdx
	movslq	108(%rdx), %rdx
	movb	%al, (%rcx,%rdx)
	movq	-16(%rbp), %rax
	movl	108(%rax), %ecx
	addl	$1, %ecx
	movl	%ecx, 108(%rax)
	movb	-1(%rbp), %al
	movq	-16(%rbp), %rcx
	movq	64(%rcx), %rcx
	movq	-16(%rbp), %rdx
	movslq	108(%rdx), %rdx
	movb	%al, (%rcx,%rdx)
	movq	-16(%rbp), %rax
	movl	108(%rax), %ecx
	addl	$1, %ecx
	movl	%ecx, 108(%rax)
	jmp	.LBB50_11
.LBB50_10:                              # %sw.default
	movq	-16(%rbp), %rax
	movq	-16(%rbp), %rcx
	movl	96(%rcx), %ecx
	subl	$4, %ecx
	movslq	%ecx, %rcx
	movb	$1, 128(%rax,%rcx)
	movb	-1(%rbp), %al
	movq	-16(%rbp), %rcx
	movq	64(%rcx), %rcx
	movq	-16(%rbp), %rdx
	movslq	108(%rdx), %rdx
	movb	%al, (%rcx,%rdx)
	movq	-16(%rbp), %rax
	movl	108(%rax), %ecx
	addl	$1, %ecx
	movl	%ecx, 108(%rax)
	movb	-1(%rbp), %al
	movq	-16(%rbp), %rcx
	movq	64(%rcx), %rcx
	movq	-16(%rbp), %rdx
	movslq	108(%rdx), %rdx
	movb	%al, (%rcx,%rdx)
	movq	-16(%rbp), %rax
	movl	108(%rax), %ecx
	addl	$1, %ecx
	movl	%ecx, 108(%rax)
	movb	-1(%rbp), %al
	movq	-16(%rbp), %rcx
	movq	64(%rcx), %rcx
	movq	-16(%rbp), %rdx
	movslq	108(%rdx), %rdx
	movb	%al, (%rcx,%rdx)
	movq	-16(%rbp), %rax
	movl	108(%rax), %ecx
	addl	$1, %ecx
	movl	%ecx, 108(%rax)
	movb	-1(%rbp), %al
	movq	-16(%rbp), %rcx
	movq	64(%rcx), %rcx
	movq	-16(%rbp), %rdx
	movslq	108(%rdx), %rdx
	movb	%al, (%rcx,%rdx)
	movq	-16(%rbp), %rax
	movl	108(%rax), %ecx
	addl	$1, %ecx
	movl	%ecx, 108(%rax)
	movq	-16(%rbp), %rax
	movl	96(%rax), %eax
	subl	$4, %eax
	movq	-16(%rbp), %rcx
	movq	64(%rcx), %rcx
	movq	-16(%rbp), %rdx
	movslq	108(%rdx), %rdx
	movb	%al, (%rcx,%rdx)
	movq	-16(%rbp), %rax
	movl	108(%rax), %ecx
	addl	$1, %ecx
	movl	%ecx, 108(%rax)
.LBB50_11:                              # %sw.epilog
	cmpl	$496320329, -24(%rbp)   # imm = 0x1D953F49
	jne	.LBB50_13
.LBB50_12:
	addq	$32, %rsp
	popq	%rbp
	.cfi_def_cfa %rsp, 8
	retq
.LBB50_13:                              # %func_exit
	.cfi_def_cfa %rbp, 16
	callq	detect_breach
	jmp	.LBB50_12
.Lfunc_end50:
	.size	add_pair_to_block.10, .Lfunc_end50-add_pair_to_block.10
	.cfi_endproc
                                        # -- End function
	.globl	BZ2_bzReadGetUnused.11  # -- Begin function BZ2_bzReadGetUnused.11
	.p2align	4, 0x90
	.type	BZ2_bzReadGetUnused.11,@function
BZ2_bzReadGetUnused.11:                 # @BZ2_bzReadGetUnused.11
	.cfi_startproc
# %bb.0:                                # %entry
	pushq	%rbp
	.cfi_def_cfa_offset 16
	.cfi_offset %rbp, -16
	movq	%rsp, %rbp
	.cfi_def_cfa_register %rbp
	subq	$48, %rsp
	movl	$71435443, -20(%rbp)    # imm = 0x44204B3
	movq	%rdi, -16(%rbp)
	movq	%rsi, -48(%rbp)
	movq	%rdx, -32(%rbp)
	movq	%rcx, -40(%rbp)
	movq	-48(%rbp), %rax
	movq	%rax, -8(%rbp)
	cmpq	$0, -8(%rbp)
	jne	.LBB51_6
# %bb.1:                                # %if.then
	cmpq	$0, -16(%rbp)
	je	.LBB51_3
# %bb.2:                                # %if.then2
	movq	-16(%rbp), %rax
	movl	$-2, (%rax)
.LBB51_3:                               # %if.end
	cmpq	$0, -8(%rbp)
	je	.LBB51_5
# %bb.4:                                # %if.then4
	movq	-8(%rbp), %rax
	movl	$-2, 5096(%rax)
.LBB51_5:                               # %if.end5
	jmp	.LBB51_24
.LBB51_6:                               # %if.end6
	movq	-8(%rbp), %rax
	cmpl	$4, 5096(%rax)
	je	.LBB51_12
# %bb.7:                                # %if.then9
	cmpq	$0, -16(%rbp)
	je	.LBB51_9
# %bb.8:                                # %if.then11
	movq	-16(%rbp), %rax
	movl	$-1, (%rax)
.LBB51_9:                               # %if.end12
	cmpq	$0, -8(%rbp)
	je	.LBB51_11
# %bb.10:                               # %if.then14
	movq	-8(%rbp), %rax
	movl	$-1, 5096(%rax)
.LBB51_11:                              # %if.end16
	jmp	.LBB51_24
.LBB51_12:                              # %if.end17
	cmpq	$0, -32(%rbp)
	je	.LBB51_14
# %bb.13:                               # %lor.lhs.false
	cmpq	$0, -40(%rbp)
	jne	.LBB51_19
.LBB51_14:                              # %if.then20
	cmpq	$0, -16(%rbp)
	je	.LBB51_16
# %bb.15:                               # %if.then22
	movq	-16(%rbp), %rax
	movl	$-2, (%rax)
.LBB51_16:                              # %if.end23
	cmpq	$0, -8(%rbp)
	je	.LBB51_18
# %bb.17:                               # %if.then25
	movq	-8(%rbp), %rax
	movl	$-2, 5096(%rax)
.LBB51_18:                              # %if.end27
	jmp	.LBB51_24
.LBB51_19:                              # %if.end28
	cmpq	$0, -16(%rbp)
	je	.LBB51_21
# %bb.20:                               # %if.then30
	movq	-16(%rbp), %rax
	movl	$0, (%rax)
.LBB51_21:                              # %if.end31
	cmpq	$0, -8(%rbp)
	je	.LBB51_23
# %bb.22:                               # %if.then33
	movq	-8(%rbp), %rax
	movl	$0, 5096(%rax)
.LBB51_23:                              # %if.end35
	movq	-8(%rbp), %rax
	movl	5024(%rax), %eax
	movq	-40(%rbp), %rcx
	movl	%eax, (%rcx)
	movq	-8(%rbp), %rax
	movq	5016(%rax), %rax
	movq	-32(%rbp), %rcx
	movq	%rax, (%rcx)
.LBB51_24:                              # %return
	cmpl	$71435443, -20(%rbp)    # imm = 0x44204B3
	jne	.LBB51_26
.LBB51_25:
	addq	$48, %rsp
	popq	%rbp
	.cfi_def_cfa %rsp, 8
	retq
.LBB51_26:                              # %func_exit
	.cfi_def_cfa %rbp, 16
	callq	detect_breach
	jmp	.LBB51_25
.Lfunc_end51:
	.size	BZ2_bzReadGetUnused.11, .Lfunc_end51-BZ2_bzReadGetUnused.11
	.cfi_endproc
                                        # -- End function
	.p2align	4, 0x90         # -- Begin function prepare_new_block.12
	.type	prepare_new_block.12,@function
prepare_new_block.12:                   # @prepare_new_block.12
	.cfi_startproc
# %bb.0:                                # %entry
	pushq	%rbp
	.cfi_def_cfa_offset 16
	.cfi_offset %rbp, -16
	movq	%rsp, %rbp
	.cfi_def_cfa_register %rbp
	subq	$32, %rsp
	movl	$145165319, -20(%rbp)   # imm = 0x8A70C07
	movq	%rdi, -16(%rbp)
	movq	-16(%rbp), %rax
	movl	$0, 108(%rax)
	movq	-16(%rbp), %rax
	movl	$0, 116(%rax)
	movq	-16(%rbp), %rax
	movl	$0, 120(%rax)
	movq	-16(%rbp), %rax
	movl	$-1, 648(%rax)
	movl	$0, -4(%rbp)
.LBB52_1:                               # %for.cond
                                        # =>This Inner Loop Header: Depth=1
	cmpl	$256, -4(%rbp)          # imm = 0x100
	jge	.LBB52_4
# %bb.2:                                # %for.body
                                        #   in Loop: Header=BB52_1 Depth=1
	movq	-16(%rbp), %rax
	movslq	-4(%rbp), %rcx
	movb	$0, 128(%rax,%rcx)
# %bb.3:                                # %for.inc
                                        #   in Loop: Header=BB52_1 Depth=1
	movl	-4(%rbp), %eax
	addl	$1, %eax
	movl	%eax, -4(%rbp)
	jmp	.LBB52_1
.LBB52_4:                               # %for.end
	movq	-16(%rbp), %rax
	movl	660(%rax), %ecx
	addl	$1, %ecx
	movl	%ecx, 660(%rax)
	cmpl	$145165319, -20(%rbp)   # imm = 0x8A70C07
	jne	.LBB52_6
.LBB52_5:
	addq	$32, %rsp
	popq	%rbp
	.cfi_def_cfa %rsp, 8
	retq
.LBB52_6:                               # %func_exit
	.cfi_def_cfa %rbp, 16
	callq	detect_breach
	jmp	.LBB52_5
.Lfunc_end52:
	.size	prepare_new_block.12, .Lfunc_end52-prepare_new_block.12
	.cfi_endproc
                                        # -- End function
	.globl	BZ2_bzdopen.13          # -- Begin function BZ2_bzdopen.13
	.p2align	4, 0x90
	.type	BZ2_bzdopen.13,@function
BZ2_bzdopen.13:                         # @BZ2_bzdopen.13
	.cfi_startproc
# %bb.0:                                # %entry
	pushq	%rbp
	.cfi_def_cfa_offset 16
	.cfi_offset %rbp, -16
	movq	%rsp, %rbp
	.cfi_def_cfa_register %rbp
	pushq	%rbx
	subq	$24, %rsp
	.cfi_offset %rbx, -24
	movl	$1628276445, -16(%rbp)  # imm = 0x610D86DD
	movl	%edi, -12(%rbp)
	movq	%rsi, -24(%rbp)
	movl	-12(%rbp), %esi
	movq	-24(%rbp), %rdx
	xorl	%edi, %edi
	movl	$1, %ecx
	callq	bzopen_or_bzdopen
	movq	%rax, %rbx
	cmpl	$1628276445, -16(%rbp)  # imm = 0x610D86DD
	jne	.LBB53_2
.LBB53_1:
	movq	%rbx, %rax
	addq	$24, %rsp
	popq	%rbx
	popq	%rbp
	.cfi_def_cfa %rsp, 8
	retq
.LBB53_2:                               # %func_exit
	.cfi_def_cfa %rbp, 16
	callq	detect_breach
	jmp	.LBB53_1
.Lfunc_end53:
	.size	BZ2_bzdopen.13, .Lfunc_end53-BZ2_bzdopen.13
	.cfi_endproc
                                        # -- End function
	.globl	BZ2_bzwrite.14          # -- Begin function BZ2_bzwrite.14
	.p2align	4, 0x90
	.type	BZ2_bzwrite.14,@function
BZ2_bzwrite.14:                         # @BZ2_bzwrite.14
	.cfi_startproc
# %bb.0:                                # %entry
	pushq	%rbp
	.cfi_def_cfa_offset 16
	.cfi_offset %rbp, -16
	movq	%rsp, %rbp
	.cfi_def_cfa_register %rbp
	pushq	%rbx
	subq	$40, %rsp
	.cfi_offset %rbx, -24
	movl	$1580200184, -24(%rbp)  # imm = 0x5E2FF0F8
	movq	%rdi, -32(%rbp)
	movq	%rsi, -40(%rbp)
	movl	%edx, -12(%rbp)
	movq	-32(%rbp), %rsi
	movq	-40(%rbp), %rdx
	movl	-12(%rbp), %ecx
	leaq	-20(%rbp), %rdi
	callq	BZ2_bzWrite
	cmpl	$0, -20(%rbp)
	jne	.LBB54_2
# %bb.1:                                # %if.then
	movl	-12(%rbp), %eax
	movl	%eax, -16(%rbp)
	jmp	.LBB54_3
.LBB54_2:                               # %if.else
	movl	$-1, -16(%rbp)
.LBB54_3:                               # %return
	movl	-16(%rbp), %ebx
	cmpl	$1580200184, -24(%rbp)  # imm = 0x5E2FF0F8
	jne	.LBB54_5
.LBB54_4:
	movl	%ebx, %eax
	addq	$40, %rsp
	popq	%rbx
	popq	%rbp
	.cfi_def_cfa %rsp, 8
	retq
.LBB54_5:                               # %func_exit
	.cfi_def_cfa %rbp, 16
	callq	detect_breach
	jmp	.LBB54_4
.Lfunc_end54:
	.size	BZ2_bzwrite.14, .Lfunc_end54-BZ2_bzwrite.14
	.cfi_endproc
                                        # -- End function
	.p2align	4, 0x90         # -- Begin function default_bzalloc.15
	.type	default_bzalloc.15,@function
default_bzalloc.15:                     # @default_bzalloc.15
	.cfi_startproc
# %bb.0:                                # %entry
	pushq	%rbp
	.cfi_def_cfa_offset 16
	.cfi_offset %rbp, -16
	movq	%rsp, %rbp
	.cfi_def_cfa_register %rbp
	pushq	%rbx
	subq	$40, %rsp
	.cfi_offset %rbx, -24
	movl	$1106174122, -20(%rbp)  # imm = 0x41EEE0AA
	movq	%rdi, -40(%rbp)
	movl	%esi, -12(%rbp)
	movl	%edx, -16(%rbp)
	movl	-12(%rbp), %eax
	imull	-16(%rbp), %eax
	movslq	%eax, %rdi
	callq	malloc
	movq	%rax, -32(%rbp)
	movq	-32(%rbp), %rbx
	cmpl	$1106174122, -20(%rbp)  # imm = 0x41EEE0AA
	jne	.LBB55_2
.LBB55_1:
	movq	%rbx, %rax
	addq	$40, %rsp
	popq	%rbx
	popq	%rbp
	.cfi_def_cfa %rsp, 8
	retq
.LBB55_2:                               # %func_exit
	.cfi_def_cfa %rbp, 16
	callq	detect_breach
	jmp	.LBB55_1
.Lfunc_end55:
	.size	default_bzalloc.15, .Lfunc_end55-default_bzalloc.15
	.cfi_endproc
                                        # -- End function
	.globl	BZ2_bzclose.16          # -- Begin function BZ2_bzclose.16
	.p2align	4, 0x90
	.type	BZ2_bzclose.16,@function
BZ2_bzclose.16:                         # @BZ2_bzclose.16
	.cfi_startproc
# %bb.0:                                # %entry
	pushq	%rbp
	.cfi_def_cfa_offset 16
	.cfi_offset %rbp, -16
	movq	%rsp, %rbp
	.cfi_def_cfa_register %rbp
	subq	$32, %rsp
	movl	$565576676, -28(%rbp)   # imm = 0x21B603E4
	movq	%rdi, -8(%rbp)
	movq	-8(%rbp), %rax
	movq	(%rax), %rax
	movq	%rax, -24(%rbp)
	cmpq	$0, -8(%rbp)
	jne	.LBB56_2
# %bb.1:                                # %if.then
	jmp	.LBB56_10
.LBB56_2:                               # %if.end
	movq	-8(%rbp), %rax
	cmpb	$0, 5012(%rax)
	je	.LBB56_6
# %bb.3:                                # %if.then1
	movq	-8(%rbp), %rsi
	leaq	-12(%rbp), %rdi
	xorl	%edx, %edx
	xorl	%ecx, %ecx
	xorl	%r8d, %r8d
	callq	BZ2_bzWriteClose
	cmpl	$0, -12(%rbp)
	je	.LBB56_5
# %bb.4:                                # %if.then3
	movq	-8(%rbp), %rsi
	xorl	%edi, %edi
	movl	$1, %edx
	xorl	%ecx, %ecx
	xorl	%r8d, %r8d
	callq	BZ2_bzWriteClose
.LBB56_5:                               # %if.end4
	jmp	.LBB56_7
.LBB56_6:                               # %if.else
	movq	-8(%rbp), %rsi
	leaq	-12(%rbp), %rdi
	callq	BZ2_bzReadClose
.LBB56_7:                               # %if.end5
	movq	-24(%rbp), %rax
	cmpq	stdin, %rax
	je	.LBB56_10
# %bb.8:                                # %land.lhs.true
	movq	-24(%rbp), %rax
	cmpq	stdout, %rax
	je	.LBB56_10
# %bb.9:                                # %if.then8
	movq	-24(%rbp), %rdi
	callq	fclose
.LBB56_10:                              # %if.end9
	cmpl	$565576676, -28(%rbp)   # imm = 0x21B603E4
	jne	.LBB56_12
.LBB56_11:
	addq	$32, %rsp
	popq	%rbp
	.cfi_def_cfa %rsp, 8
	retq
.LBB56_12:                              # %func_exit
	.cfi_def_cfa %rbp, 16
	callq	detect_breach
	jmp	.LBB56_11
.Lfunc_end56:
	.size	BZ2_bzclose.16, .Lfunc_end56-BZ2_bzclose.16
	.cfi_endproc
                                        # -- End function
	.globl	BZ2_bzopen.17           # -- Begin function BZ2_bzopen.17
	.p2align	4, 0x90
	.type	BZ2_bzopen.17,@function
BZ2_bzopen.17:                          # @BZ2_bzopen.17
	.cfi_startproc
# %bb.0:                                # %entry
	pushq	%rbp
	.cfi_def_cfa_offset 16
	.cfi_offset %rbp, -16
	movq	%rsp, %rbp
	.cfi_def_cfa_register %rbp
	pushq	%rbx
	subq	$24, %rsp
	.cfi_offset %rbx, -24
	movl	$230923112, -12(%rbp)   # imm = 0xDC39B68
	movq	%rdi, -24(%rbp)
	movq	%rsi, -32(%rbp)
	movq	-24(%rbp), %rdi
	movq	-32(%rbp), %rdx
	movl	$4294967295, %esi       # imm = 0xFFFFFFFF
	xorl	%ecx, %ecx
	callq	bzopen_or_bzdopen
	movq	%rax, %rbx
	cmpl	$230923112, -12(%rbp)   # imm = 0xDC39B68
	jne	.LBB57_2
.LBB57_1:
	movq	%rbx, %rax
	addq	$24, %rsp
	popq	%rbx
	popq	%rbp
	.cfi_def_cfa %rsp, 8
	retq
.LBB57_2:                               # %func_exit
	.cfi_def_cfa %rbp, 16
	callq	detect_breach
	jmp	.LBB57_1
.Lfunc_end57:
	.size	BZ2_bzopen.17, .Lfunc_end57-BZ2_bzopen.17
	.cfi_endproc
                                        # -- End function
	.p2align	4, 0x90         # -- Begin function unRLE_obuf_to_output_FAST.18
	.type	unRLE_obuf_to_output_FAST.18,@function
unRLE_obuf_to_output_FAST.18:           # @unRLE_obuf_to_output_FAST.18
	.cfi_startproc
# %bb.0:                                # %entry
	pushq	%rbp
	.cfi_def_cfa_offset 16
	.cfi_offset %rbp, -16
	movq	%rsp, %rbp
	.cfi_def_cfa_register %rbp
	pushq	%rbx
	subq	$88, %rsp
	.cfi_offset %rbx, -24
	movl	$1443542417, -88(%rbp)  # imm = 0x560AB591
	movq	%rdi, -24(%rbp)
	movq	-24(%rbp), %rax
	cmpb	$0, 20(%rax)
	je	.LBB58_48
# %bb.1:                                # %if.then
	jmp	.LBB58_2
.LBB58_2:                               # %while.body
                                        # =>This Loop Header: Depth=1
                                        #     Child Loop BB58_3 Depth 2
	jmp	.LBB58_3
.LBB58_3:                               # %while.body2
                                        #   Parent Loop BB58_2 Depth=1
                                        # =>  This Inner Loop Header: Depth=2
	movq	-24(%rbp), %rax
	movq	(%rax), %rax
	cmpl	$0, 32(%rax)
	jne	.LBB58_5
# %bb.4:                                # %if.then3
	movb	$0, -33(%rbp)
	jmp	.LBB58_82
.LBB58_5:                               # %if.end
                                        #   in Loop: Header=BB58_3 Depth=2
	movq	-24(%rbp), %rax
	cmpl	$0, 16(%rax)
	jne	.LBB58_7
# %bb.6:                                # %if.then5
                                        #   in Loop: Header=BB58_2 Depth=1
	jmp	.LBB58_10
.LBB58_7:                               # %if.end6
                                        #   in Loop: Header=BB58_3 Depth=2
	movq	-24(%rbp), %rax
	movb	12(%rax), %al
	movq	-24(%rbp), %rcx
	movq	(%rcx), %rcx
	movq	24(%rcx), %rcx
	movb	%al, (%rcx)
	movq	-24(%rbp), %rax
	movl	3184(%rax), %eax
	shll	$8, %eax
	movq	-24(%rbp), %rcx
	movl	3184(%rcx), %ecx
	shrl	$24, %ecx
	movq	-24(%rbp), %rdx
	movzbl	12(%rdx), %edx
	xorl	%edx, %ecx
	movl	%ecx, %ecx
	xorl	BZ2_crc32Table(,%rcx,4), %eax
	movq	-24(%rbp), %rcx
	movl	%eax, 3184(%rcx)
	movq	-24(%rbp), %rax
	movl	16(%rax), %ecx
	addl	$-1, %ecx
	movl	%ecx, 16(%rax)
	movq	-24(%rbp), %rax
	movq	(%rax), %rax
	movq	24(%rax), %rcx
	addq	$1, %rcx
	movq	%rcx, 24(%rax)
	movq	-24(%rbp), %rax
	movq	(%rax), %rax
	movl	32(%rax), %ecx
	addl	$-1, %ecx
	movl	%ecx, 32(%rax)
	movq	-24(%rbp), %rax
	movq	(%rax), %rax
	movl	36(%rax), %ecx
	addl	$1, %ecx
	movl	%ecx, 36(%rax)
	movq	-24(%rbp), %rax
	movq	(%rax), %rax
	cmpl	$0, 36(%rax)
	jne	.LBB58_9
# %bb.8:                                # %if.then23
                                        #   in Loop: Header=BB58_3 Depth=2
	movq	-24(%rbp), %rax
	movq	(%rax), %rax
	movl	40(%rax), %ecx
	addl	$1, %ecx
	movl	%ecx, 40(%rax)
.LBB58_9:                               # %if.end26
                                        #   in Loop: Header=BB58_3 Depth=2
	jmp	.LBB58_3
.LBB58_10:                              # %while.end
                                        #   in Loop: Header=BB58_2 Depth=1
	movq	-24(%rbp), %rax
	movl	1092(%rax), %eax
	movq	-24(%rbp), %rcx
	movl	64080(%rcx), %ecx
	addl	$1, %ecx
	cmpl	%ecx, %eax
	jne	.LBB58_12
# %bb.11:                               # %if.then29
	movb	$0, -33(%rbp)
	jmp	.LBB58_82
.LBB58_12:                              # %if.end30
                                        #   in Loop: Header=BB58_2 Depth=1
	movq	-24(%rbp), %rax
	movl	1092(%rax), %eax
	movq	-24(%rbp), %rcx
	movl	64080(%rcx), %ecx
	addl	$1, %ecx
	cmpl	%ecx, %eax
	jle	.LBB58_14
# %bb.13:                               # %if.then36
	movb	$1, -33(%rbp)
	jmp	.LBB58_82
.LBB58_14:                              # %if.end37
                                        #   in Loop: Header=BB58_2 Depth=1
	movq	-24(%rbp), %rax
	movl	$1, 16(%rax)
	movq	-24(%rbp), %rax
	movl	64(%rax), %eax
	movq	-24(%rbp), %rcx
	movb	%al, 12(%rcx)
	movq	-24(%rbp), %rax
	movq	3152(%rax), %rax
	movq	-24(%rbp), %rcx
	movl	60(%rcx), %ecx
	movl	(%rax,%rcx,4), %eax
	movq	-24(%rbp), %rcx
	movl	%eax, 60(%rcx)
	movq	-24(%rbp), %rax
	movl	60(%rax), %eax
	andl	$255, %eax
	movb	%al, -9(%rbp)
	movq	-24(%rbp), %rax
	movl	60(%rax), %ecx
	shrl	$8, %ecx
	movl	%ecx, 60(%rax)
	movq	-24(%rbp), %rax
	cmpl	$0, 24(%rax)
	jne	.LBB58_18
# %bb.15:                               # %if.then50
                                        #   in Loop: Header=BB58_2 Depth=1
	movq	-24(%rbp), %rax
	movslq	28(%rax), %rax
	movl	BZ2_rNums(,%rax,4), %eax
	movq	-24(%rbp), %rcx
	movl	%eax, 24(%rcx)
	movq	-24(%rbp), %rax
	movl	28(%rax), %ecx
	addl	$1, %ecx
	movl	%ecx, 28(%rax)
	movq	-24(%rbp), %rax
	cmpl	$512, 28(%rax)          # imm = 0x200
	jne	.LBB58_17
# %bb.16:                               # %if.then59
                                        #   in Loop: Header=BB58_2 Depth=1
	movq	-24(%rbp), %rax
	movl	$0, 28(%rax)
.LBB58_17:                              # %if.end61
                                        #   in Loop: Header=BB58_2 Depth=1
	jmp	.LBB58_18
.LBB58_18:                              # %if.end62
                                        #   in Loop: Header=BB58_2 Depth=1
	xorl	%eax, %eax
	movq	-24(%rbp), %rcx
	movl	24(%rcx), %edx
	addl	$-1, %edx
	movl	%edx, 24(%rcx)
	movq	-24(%rbp), %rcx
	movl	24(%rcx), %ecx
	cmpl	$1, %ecx
	movl	$1, %ecx
	cmovel	%ecx, %eax
	movzbl	-9(%rbp), %ecx
	xorl	%eax, %ecx
	movb	%cl, -9(%rbp)
	movq	-24(%rbp), %rax
	movl	1092(%rax), %ecx
	addl	$1, %ecx
	movl	%ecx, 1092(%rax)
	movq	-24(%rbp), %rax
	movl	1092(%rax), %eax
	movq	-24(%rbp), %rcx
	movl	64080(%rcx), %ecx
	addl	$1, %ecx
	cmpl	%ecx, %eax
	jne	.LBB58_21
# %bb.19:                               # %if.then78
                                        #   in Loop: Header=BB58_2 Depth=1
	jmp	.LBB58_20
.LBB58_20:                              # %while.body.backedge
                                        #   in Loop: Header=BB58_2 Depth=1
	jmp	.LBB58_2
.LBB58_21:                              # %if.end79
                                        #   in Loop: Header=BB58_2 Depth=1
	movzbl	-9(%rbp), %eax
	movq	-24(%rbp), %rcx
	cmpl	64(%rcx), %eax
	je	.LBB58_23
# %bb.22:                               # %if.then84
                                        #   in Loop: Header=BB58_2 Depth=1
	movzbl	-9(%rbp), %eax
	movq	-24(%rbp), %rcx
	movl	%eax, 64(%rcx)
	jmp	.LBB58_20
.LBB58_23:                              # %if.end87
                                        #   in Loop: Header=BB58_2 Depth=1
	movq	-24(%rbp), %rax
	movl	$2, 16(%rax)
	movq	-24(%rbp), %rax
	movq	3152(%rax), %rax
	movq	-24(%rbp), %rcx
	movl	60(%rcx), %ecx
	movl	(%rax,%rcx,4), %eax
	movq	-24(%rbp), %rcx
	movl	%eax, 60(%rcx)
	movq	-24(%rbp), %rax
	movl	60(%rax), %eax
	andl	$255, %eax
	movb	%al, -9(%rbp)
	movq	-24(%rbp), %rax
	movl	60(%rax), %ecx
	shrl	$8, %ecx
	movl	%ecx, 60(%rax)
	movq	-24(%rbp), %rax
	cmpl	$0, 24(%rax)
	jne	.LBB58_27
# %bb.24:                               # %if.then102
                                        #   in Loop: Header=BB58_2 Depth=1
	movq	-24(%rbp), %rax
	movslq	28(%rax), %rax
	movl	BZ2_rNums(,%rax,4), %eax
	movq	-24(%rbp), %rcx
	movl	%eax, 24(%rcx)
	movq	-24(%rbp), %rax
	movl	28(%rax), %ecx
	addl	$1, %ecx
	movl	%ecx, 28(%rax)
	movq	-24(%rbp), %rax
	cmpl	$512, 28(%rax)          # imm = 0x200
	jne	.LBB58_26
# %bb.25:                               # %if.then112
                                        #   in Loop: Header=BB58_2 Depth=1
	movq	-24(%rbp), %rax
	movl	$0, 28(%rax)
.LBB58_26:                              # %if.end114
                                        #   in Loop: Header=BB58_2 Depth=1
	jmp	.LBB58_27
.LBB58_27:                              # %if.end115
                                        #   in Loop: Header=BB58_2 Depth=1
	xorl	%eax, %eax
	movq	-24(%rbp), %rcx
	movl	24(%rcx), %edx
	addl	$-1, %edx
	movl	%edx, 24(%rcx)
	movq	-24(%rbp), %rcx
	movl	24(%rcx), %ecx
	cmpl	$1, %ecx
	movl	$1, %ecx
	cmovel	%ecx, %eax
	movzbl	-9(%rbp), %ecx
	xorl	%eax, %ecx
	movb	%cl, -9(%rbp)
	movq	-24(%rbp), %rax
	movl	1092(%rax), %ecx
	addl	$1, %ecx
	movl	%ecx, 1092(%rax)
	movq	-24(%rbp), %rax
	movl	1092(%rax), %eax
	movq	-24(%rbp), %rcx
	movl	64080(%rcx), %ecx
	addl	$1, %ecx
	cmpl	%ecx, %eax
	jne	.LBB58_29
# %bb.28:                               # %if.then132
                                        #   in Loop: Header=BB58_2 Depth=1
	jmp	.LBB58_20
.LBB58_29:                              # %if.end133
                                        #   in Loop: Header=BB58_2 Depth=1
	movzbl	-9(%rbp), %eax
	movq	-24(%rbp), %rcx
	cmpl	64(%rcx), %eax
	je	.LBB58_31
# %bb.30:                               # %if.then138
                                        #   in Loop: Header=BB58_2 Depth=1
	movzbl	-9(%rbp), %eax
	movq	-24(%rbp), %rcx
	movl	%eax, 64(%rcx)
	jmp	.LBB58_20
.LBB58_31:                              # %if.end141
                                        #   in Loop: Header=BB58_2 Depth=1
	movq	-24(%rbp), %rax
	movl	$3, 16(%rax)
	movq	-24(%rbp), %rax
	movq	3152(%rax), %rax
	movq	-24(%rbp), %rcx
	movl	60(%rcx), %ecx
	movl	(%rax,%rcx,4), %eax
	movq	-24(%rbp), %rcx
	movl	%eax, 60(%rcx)
	movq	-24(%rbp), %rax
	movl	60(%rax), %eax
	andl	$255, %eax
	movb	%al, -9(%rbp)
	movq	-24(%rbp), %rax
	movl	60(%rax), %ecx
	shrl	$8, %ecx
	movl	%ecx, 60(%rax)
	movq	-24(%rbp), %rax
	cmpl	$0, 24(%rax)
	jne	.LBB58_35
# %bb.32:                               # %if.then156
                                        #   in Loop: Header=BB58_2 Depth=1
	movq	-24(%rbp), %rax
	movslq	28(%rax), %rax
	movl	BZ2_rNums(,%rax,4), %eax
	movq	-24(%rbp), %rcx
	movl	%eax, 24(%rcx)
	movq	-24(%rbp), %rax
	movl	28(%rax), %ecx
	addl	$1, %ecx
	movl	%ecx, 28(%rax)
	movq	-24(%rbp), %rax
	cmpl	$512, 28(%rax)          # imm = 0x200
	jne	.LBB58_34
# %bb.33:                               # %if.then166
                                        #   in Loop: Header=BB58_2 Depth=1
	movq	-24(%rbp), %rax
	movl	$0, 28(%rax)
.LBB58_34:                              # %if.end168
                                        #   in Loop: Header=BB58_2 Depth=1
	jmp	.LBB58_35
.LBB58_35:                              # %if.end169
                                        #   in Loop: Header=BB58_2 Depth=1
	xorl	%eax, %eax
	movq	-24(%rbp), %rcx
	movl	24(%rcx), %edx
	addl	$-1, %edx
	movl	%edx, 24(%rcx)
	movq	-24(%rbp), %rcx
	movl	24(%rcx), %ecx
	cmpl	$1, %ecx
	movl	$1, %ecx
	cmovel	%ecx, %eax
	movzbl	-9(%rbp), %ecx
	xorl	%eax, %ecx
	movb	%cl, -9(%rbp)
	movq	-24(%rbp), %rax
	movl	1092(%rax), %ecx
	addl	$1, %ecx
	movl	%ecx, 1092(%rax)
	movq	-24(%rbp), %rax
	movl	1092(%rax), %eax
	movq	-24(%rbp), %rcx
	movl	64080(%rcx), %ecx
	addl	$1, %ecx
	cmpl	%ecx, %eax
	jne	.LBB58_37
# %bb.36:                               # %if.then186
                                        #   in Loop: Header=BB58_2 Depth=1
	jmp	.LBB58_20
.LBB58_37:                              # %if.end187
                                        #   in Loop: Header=BB58_2 Depth=1
	movzbl	-9(%rbp), %eax
	movq	-24(%rbp), %rcx
	cmpl	64(%rcx), %eax
	je	.LBB58_39
# %bb.38:                               # %if.then192
                                        #   in Loop: Header=BB58_2 Depth=1
	movzbl	-9(%rbp), %eax
	movq	-24(%rbp), %rcx
	movl	%eax, 64(%rcx)
	jmp	.LBB58_20
.LBB58_39:                              # %if.end195
                                        #   in Loop: Header=BB58_2 Depth=1
	movq	-24(%rbp), %rax
	movq	3152(%rax), %rax
	movq	-24(%rbp), %rcx
	movl	60(%rcx), %ecx
	movl	(%rax,%rcx,4), %eax
	movq	-24(%rbp), %rcx
	movl	%eax, 60(%rcx)
	movq	-24(%rbp), %rax
	movl	60(%rax), %eax
	andl	$255, %eax
	movb	%al, -9(%rbp)
	movq	-24(%rbp), %rax
	movl	60(%rax), %ecx
	shrl	$8, %ecx
	movl	%ecx, 60(%rax)
	movq	-24(%rbp), %rax
	cmpl	$0, 24(%rax)
	jne	.LBB58_43
# %bb.40:                               # %if.then209
                                        #   in Loop: Header=BB58_2 Depth=1
	movq	-24(%rbp), %rax
	movslq	28(%rax), %rax
	movl	BZ2_rNums(,%rax,4), %eax
	movq	-24(%rbp), %rcx
	movl	%eax, 24(%rcx)
	movq	-24(%rbp), %rax
	movl	28(%rax), %ecx
	addl	$1, %ecx
	movl	%ecx, 28(%rax)
	movq	-24(%rbp), %rax
	cmpl	$512, 28(%rax)          # imm = 0x200
	jne	.LBB58_42
# %bb.41:                               # %if.then219
                                        #   in Loop: Header=BB58_2 Depth=1
	movq	-24(%rbp), %rax
	movl	$0, 28(%rax)
.LBB58_42:                              # %if.end221
                                        #   in Loop: Header=BB58_2 Depth=1
	jmp	.LBB58_43
.LBB58_43:                              # %if.end222
                                        #   in Loop: Header=BB58_2 Depth=1
	xorl	%eax, %eax
	movq	-24(%rbp), %rcx
	movl	24(%rcx), %edx
	addl	$-1, %edx
	movl	%edx, 24(%rcx)
	movq	-24(%rbp), %rcx
	movl	24(%rcx), %ecx
	cmpl	$1, %ecx
	movl	$1, %ecx
	cmovel	%ecx, %eax
	movzbl	-9(%rbp), %ecx
	xorl	%eax, %ecx
	movb	%cl, -9(%rbp)
	movq	-24(%rbp), %rax
	movl	1092(%rax), %ecx
	addl	$1, %ecx
	movl	%ecx, 1092(%rax)
	movzbl	-9(%rbp), %eax
	addl	$4, %eax
	movq	-24(%rbp), %rcx
	movl	%eax, 16(%rcx)
	movq	-24(%rbp), %rax
	movq	3152(%rax), %rax
	movq	-24(%rbp), %rcx
	movl	60(%rcx), %ecx
	movl	(%rax,%rcx,4), %eax
	movq	-24(%rbp), %rcx
	movl	%eax, 60(%rcx)
	movq	-24(%rbp), %rax
	movl	60(%rax), %eax
	andl	$255, %eax
	movzbl	%al, %eax
	movq	-24(%rbp), %rcx
	movl	%eax, 64(%rcx)
	movq	-24(%rbp), %rax
	movl	60(%rax), %ecx
	shrl	$8, %ecx
	movl	%ecx, 60(%rax)
	movq	-24(%rbp), %rax
	cmpl	$0, 24(%rax)
	jne	.LBB58_47
# %bb.44:                               # %if.then252
                                        #   in Loop: Header=BB58_2 Depth=1
	movq	-24(%rbp), %rax
	movslq	28(%rax), %rax
	movl	BZ2_rNums(,%rax,4), %eax
	movq	-24(%rbp), %rcx
	movl	%eax, 24(%rcx)
	movq	-24(%rbp), %rax
	movl	28(%rax), %ecx
	addl	$1, %ecx
	movl	%ecx, 28(%rax)
	movq	-24(%rbp), %rax
	cmpl	$512, 28(%rax)          # imm = 0x200
	jne	.LBB58_46
# %bb.45:                               # %if.then262
                                        #   in Loop: Header=BB58_2 Depth=1
	movq	-24(%rbp), %rax
	movl	$0, 28(%rax)
.LBB58_46:                              # %if.end264
                                        #   in Loop: Header=BB58_2 Depth=1
	jmp	.LBB58_47
.LBB58_47:                              # %if.end265
                                        #   in Loop: Header=BB58_2 Depth=1
	xorl	%eax, %eax
	movq	-24(%rbp), %rcx
	movl	24(%rcx), %edx
	addl	$-1, %edx
	movl	%edx, 24(%rcx)
	movq	-24(%rbp), %rcx
	movl	24(%rcx), %ecx
	cmpl	$1, %ecx
	movl	$1, %ecx
	cmovel	%ecx, %eax
	movq	-24(%rbp), %rcx
	xorl	64(%rcx), %eax
	movl	%eax, 64(%rcx)
	movq	-24(%rbp), %rax
	movl	1092(%rax), %ecx
	addl	$1, %ecx
	movl	%ecx, 1092(%rax)
	jmp	.LBB58_20
.LBB58_48:                              # %if.else
	movq	-24(%rbp), %rax
	movl	3184(%rax), %eax
	movl	%eax, -56(%rbp)
	movq	-24(%rbp), %rax
	movb	12(%rax), %al
	movb	%al, -25(%rbp)
	movq	-24(%rbp), %rax
	movl	16(%rax), %eax
	movl	%eax, -44(%rbp)
	movq	-24(%rbp), %rax
	movl	1092(%rax), %eax
	movl	%eax, -40(%rbp)
	movq	-24(%rbp), %rax
	movl	64(%rax), %eax
	movl	%eax, -52(%rbp)
	movq	-24(%rbp), %rax
	movq	3152(%rax), %rax
	movq	%rax, -80(%rbp)
	movq	-24(%rbp), %rax
	movl	60(%rax), %eax
	movl	%eax, -32(%rbp)
	movq	-24(%rbp), %rax
	movq	(%rax), %rax
	movq	24(%rax), %rax
	movq	%rax, -72(%rbp)
	movq	-24(%rbp), %rax
	movq	(%rax), %rax
	movl	32(%rax), %eax
	movl	%eax, -48(%rbp)
	movl	-48(%rbp), %eax
	movl	%eax, -84(%rbp)
	movq	-24(%rbp), %rax
	movl	64080(%rax), %eax
	addl	$1, %eax
	movl	%eax, -60(%rbp)
.LBB58_49:                              # %while.body289
                                        # =>This Loop Header: Depth=1
                                        #     Child Loop BB58_51 Depth 2
	cmpl	$0, -44(%rbp)
	jle	.LBB58_60
# %bb.50:                               # %if.then292
                                        #   in Loop: Header=BB58_49 Depth=1
	jmp	.LBB58_51
.LBB58_51:                              # %while.body294
                                        #   Parent Loop BB58_49 Depth=1
                                        # =>  This Inner Loop Header: Depth=2
	cmpl	$0, -48(%rbp)
	jne	.LBB58_53
# %bb.52:                               # %if.then297
	jmp	.LBB58_78
.LBB58_53:                              # %if.end298
                                        #   in Loop: Header=BB58_51 Depth=2
	cmpl	$1, -44(%rbp)
	jne	.LBB58_55
# %bb.54:                               # %if.then301
                                        #   in Loop: Header=BB58_49 Depth=1
	jmp	.LBB58_56
.LBB58_55:                              # %if.end302
                                        #   in Loop: Header=BB58_51 Depth=2
	movb	-25(%rbp), %al
	movq	-72(%rbp), %rcx
	movb	%al, (%rcx)
	movl	-56(%rbp), %eax
	shll	$8, %eax
	movl	-56(%rbp), %ecx
	shrl	$24, %ecx
	movzbl	-25(%rbp), %edx
	xorl	%edx, %ecx
	movl	%ecx, %ecx
	xorl	BZ2_crc32Table(,%rcx,4), %eax
	movl	%eax, -56(%rbp)
	movl	-44(%rbp), %eax
	addl	$-1, %eax
	movl	%eax, -44(%rbp)
	movq	-72(%rbp), %rax
	addq	$1, %rax
	movq	%rax, -72(%rbp)
	movl	-48(%rbp), %eax
	addl	$-1, %eax
	movl	%eax, -48(%rbp)
	jmp	.LBB58_51
.LBB58_56:                              # %while.end313
                                        #   in Loop: Header=BB58_49 Depth=1
	jmp	.LBB58_57
.LBB58_57:                              # %s_state_out_len_eq_one
                                        #   in Loop: Header=BB58_49 Depth=1
	cmpl	$0, -48(%rbp)
	jne	.LBB58_59
# %bb.58:                               # %if.then316
	movl	$1, -44(%rbp)
	jmp	.LBB58_78
.LBB58_59:                              # %if.end317
                                        #   in Loop: Header=BB58_49 Depth=1
	movb	-25(%rbp), %al
	movq	-72(%rbp), %rcx
	movb	%al, (%rcx)
	movl	-56(%rbp), %eax
	shll	$8, %eax
	movl	-56(%rbp), %ecx
	shrl	$24, %ecx
	movzbl	-25(%rbp), %edx
	xorl	%edx, %ecx
	movl	%ecx, %ecx
	xorl	BZ2_crc32Table(,%rcx,4), %eax
	movl	%eax, -56(%rbp)
	movq	-72(%rbp), %rax
	addq	$1, %rax
	movq	%rax, -72(%rbp)
	movl	-48(%rbp), %eax
	addl	$-1, %eax
	movl	%eax, -48(%rbp)
.LBB58_60:                              # %if.end327
                                        #   in Loop: Header=BB58_49 Depth=1
	movl	-40(%rbp), %eax
	cmpl	-60(%rbp), %eax
	jle	.LBB58_62
# %bb.61:                               # %if.then330
	movb	$1, -33(%rbp)
	jmp	.LBB58_82
.LBB58_62:                              # %if.end331
                                        #   in Loop: Header=BB58_49 Depth=1
	movl	-40(%rbp), %eax
	cmpl	-60(%rbp), %eax
	jne	.LBB58_64
# %bb.63:                               # %if.then334
	movl	$0, -44(%rbp)
	jmp	.LBB58_78
.LBB58_64:                              # %if.end335
                                        #   in Loop: Header=BB58_49 Depth=1
	movl	-52(%rbp), %eax
	movb	%al, -25(%rbp)
	movq	-80(%rbp), %rax
	movl	-32(%rbp), %ecx
	movl	(%rax,%rcx,4), %eax
	movl	%eax, -32(%rbp)
	movl	-32(%rbp), %eax
	andl	$255, %eax
	movb	%al, -9(%rbp)
	movl	-32(%rbp), %eax
	shrl	$8, %eax
	movl	%eax, -32(%rbp)
	movl	-40(%rbp), %eax
	addl	$1, %eax
	movl	%eax, -40(%rbp)
	movzbl	-9(%rbp), %eax
	cmpl	-52(%rbp), %eax
	je	.LBB58_66
# %bb.65:                               # %if.then346
                                        #   in Loop: Header=BB58_49 Depth=1
	movzbl	-9(%rbp), %eax
	movl	%eax, -52(%rbp)
	jmp	.LBB58_57
.LBB58_66:                              # %if.end348
                                        #   in Loop: Header=BB58_49 Depth=1
	movl	-40(%rbp), %eax
	cmpl	-60(%rbp), %eax
	jne	.LBB58_68
# %bb.67:                               # %if.then351
                                        #   in Loop: Header=BB58_49 Depth=1
	jmp	.LBB58_57
.LBB58_68:                              # %if.end352
                                        #   in Loop: Header=BB58_49 Depth=1
	movl	$2, -44(%rbp)
	movq	-80(%rbp), %rax
	movl	-32(%rbp), %ecx
	movl	(%rax,%rcx,4), %eax
	movl	%eax, -32(%rbp)
	movl	-32(%rbp), %eax
	andl	$255, %eax
	movb	%al, -9(%rbp)
	movl	-32(%rbp), %eax
	shrl	$8, %eax
	movl	%eax, -32(%rbp)
	movl	-40(%rbp), %eax
	addl	$1, %eax
	movl	%eax, -40(%rbp)
	movl	-40(%rbp), %eax
	cmpl	-60(%rbp), %eax
	jne	.LBB58_71
# %bb.69:                               # %if.then361
                                        #   in Loop: Header=BB58_49 Depth=1
	jmp	.LBB58_70
.LBB58_70:                              # %while.body289.backedge
                                        #   in Loop: Header=BB58_49 Depth=1
	jmp	.LBB58_49
.LBB58_71:                              # %if.end362
                                        #   in Loop: Header=BB58_49 Depth=1
	movzbl	-9(%rbp), %eax
	cmpl	-52(%rbp), %eax
	je	.LBB58_73
# %bb.72:                               # %if.then366
                                        #   in Loop: Header=BB58_49 Depth=1
	movzbl	-9(%rbp), %eax
	movl	%eax, -52(%rbp)
	jmp	.LBB58_70
.LBB58_73:                              # %if.end368
                                        #   in Loop: Header=BB58_49 Depth=1
	movl	$3, -44(%rbp)
	movq	-80(%rbp), %rax
	movl	-32(%rbp), %ecx
	movl	(%rax,%rcx,4), %eax
	movl	%eax, -32(%rbp)
	movl	-32(%rbp), %eax
	andl	$255, %eax
	movb	%al, -9(%rbp)
	movl	-32(%rbp), %eax
	shrl	$8, %eax
	movl	%eax, -32(%rbp)
	movl	-40(%rbp), %eax
	addl	$1, %eax
	movl	%eax, -40(%rbp)
	movl	-40(%rbp), %eax
	cmpl	-60(%rbp), %eax
	jne	.LBB58_75
# %bb.74:                               # %if.then377
                                        #   in Loop: Header=BB58_49 Depth=1
	jmp	.LBB58_70
.LBB58_75:                              # %if.end378
                                        #   in Loop: Header=BB58_49 Depth=1
	movzbl	-9(%rbp), %eax
	cmpl	-52(%rbp), %eax
	je	.LBB58_77
# %bb.76:                               # %if.then382
                                        #   in Loop: Header=BB58_49 Depth=1
	movzbl	-9(%rbp), %eax
	movl	%eax, -52(%rbp)
	jmp	.LBB58_70
.LBB58_77:                              # %if.end384
                                        #   in Loop: Header=BB58_49 Depth=1
	movq	-80(%rbp), %rax
	movl	-32(%rbp), %ecx
	movl	(%rax,%rcx,4), %eax
	movl	%eax, -32(%rbp)
	movl	-32(%rbp), %eax
	andl	$255, %eax
	movb	%al, -9(%rbp)
	movl	-32(%rbp), %eax
	shrl	$8, %eax
	movl	%eax, -32(%rbp)
	movl	-40(%rbp), %eax
	addl	$1, %eax
	movl	%eax, -40(%rbp)
	movzbl	-9(%rbp), %eax
	addl	$4, %eax
	movl	%eax, -44(%rbp)
	movq	-80(%rbp), %rax
	movl	-32(%rbp), %ecx
	movl	(%rax,%rcx,4), %eax
	movl	%eax, -32(%rbp)
	movl	-32(%rbp), %eax
	andl	$255, %eax
	movzbl	%al, %eax
	movl	%eax, -52(%rbp)
	movl	-32(%rbp), %eax
	shrl	$8, %eax
	movl	%eax, -32(%rbp)
	movl	-40(%rbp), %eax
	addl	$1, %eax
	movl	%eax, -40(%rbp)
	jmp	.LBB58_70
.LBB58_78:                              # %return_notr
	movq	-24(%rbp), %rax
	movq	(%rax), %rax
	movl	36(%rax), %eax
	movl	%eax, -92(%rbp)
	movl	-84(%rbp), %eax
	subl	-48(%rbp), %eax
	movq	-24(%rbp), %rcx
	movq	(%rcx), %rcx
	addl	36(%rcx), %eax
	movl	%eax, 36(%rcx)
	movq	-24(%rbp), %rax
	movq	(%rax), %rax
	movl	36(%rax), %eax
	cmpl	-92(%rbp), %eax
	jae	.LBB58_80
# %bb.79:                               # %if.then409
	movq	-24(%rbp), %rax
	movq	(%rax), %rax
	movl	40(%rax), %ecx
	addl	$1, %ecx
	movl	%ecx, 40(%rax)
.LBB58_80:                              # %if.end413
	movl	-56(%rbp), %eax
	movq	-24(%rbp), %rcx
	movl	%eax, 3184(%rcx)
	movb	-25(%rbp), %al
	movq	-24(%rbp), %rcx
	movb	%al, 12(%rcx)
	movl	-44(%rbp), %eax
	movq	-24(%rbp), %rcx
	movl	%eax, 16(%rcx)
	movl	-40(%rbp), %eax
	movq	-24(%rbp), %rcx
	movl	%eax, 1092(%rcx)
	movl	-52(%rbp), %eax
	movq	-24(%rbp), %rcx
	movl	%eax, 64(%rcx)
	movq	-80(%rbp), %rax
	movq	-24(%rbp), %rcx
	movq	%rax, 3152(%rcx)
	movl	-32(%rbp), %eax
	movq	-24(%rbp), %rcx
	movl	%eax, 60(%rcx)
	movq	-72(%rbp), %rax
	movq	-24(%rbp), %rcx
	movq	(%rcx), %rcx
	movq	%rax, 24(%rcx)
	movl	-48(%rbp), %eax
	movq	-24(%rbp), %rcx
	movq	(%rcx), %rcx
	movl	%eax, 32(%rcx)
# %bb.81:                               # %if.end425
	movb	$0, -33(%rbp)
.LBB58_82:                              # %return
	movb	-33(%rbp), %bl
	cmpl	$1443542417, -88(%rbp)  # imm = 0x560AB591
	jne	.LBB58_84
.LBB58_83:
	movzbl	%bl, %eax
	addq	$88, %rsp
	popq	%rbx
	popq	%rbp
	.cfi_def_cfa %rsp, 8
	retq
.LBB58_84:                              # %func_exit
	.cfi_def_cfa %rbp, 16
	callq	detect_breach
	jmp	.LBB58_83
.Lfunc_end58:
	.size	unRLE_obuf_to_output_FAST.18, .Lfunc_end58-unRLE_obuf_to_output_FAST.18
	.cfi_endproc
                                        # -- End function
	.p2align	4, 0x90         # -- Begin function add_pair_to_block.19
	.type	add_pair_to_block.19,@function
add_pair_to_block.19:                   # @add_pair_to_block.19
	.cfi_startproc
# %bb.0:                                # %entry
	pushq	%rbp
	.cfi_def_cfa_offset 16
	.cfi_offset %rbp, -16
	movq	%rsp, %rbp
	.cfi_def_cfa_register %rbp
	subq	$32, %rsp
	movl	$1476092178, -24(%rbp)  # imm = 0x57FB6112
	movq	%rdi, -16(%rbp)
	movq	-16(%rbp), %rax
	movl	92(%rax), %eax
	movb	%al, -1(%rbp)
	movl	$0, -20(%rbp)
.LBB59_1:                               # %for.cond
                                        # =>This Inner Loop Header: Depth=1
	movl	-20(%rbp), %eax
	movq	-16(%rbp), %rcx
	cmpl	96(%rcx), %eax
	jge	.LBB59_4
# %bb.2:                                # %for.body
                                        #   in Loop: Header=BB59_1 Depth=1
	movq	-16(%rbp), %rax
	movl	648(%rax), %eax
	shll	$8, %eax
	movq	-16(%rbp), %rcx
	movl	648(%rcx), %ecx
	shrl	$24, %ecx
	movzbl	-1(%rbp), %edx
	xorl	%edx, %ecx
	movl	%ecx, %ecx
	xorl	BZ2_crc32Table(,%rcx,4), %eax
	movq	-16(%rbp), %rcx
	movl	%eax, 648(%rcx)
# %bb.3:                                # %for.inc
                                        #   in Loop: Header=BB59_1 Depth=1
	movl	-20(%rbp), %eax
	addl	$1, %eax
	movl	%eax, -20(%rbp)
	jmp	.LBB59_1
.LBB59_4:                               # %for.end
	movq	-16(%rbp), %rax
	movl	92(%rax), %ecx
	movb	$1, 128(%rax,%rcx)
	movq	-16(%rbp), %rax
	movl	96(%rax), %eax
	movl	%eax, %ecx
	subl	$1, %ecx
	je	.LBB59_7
	jmp	.LBB59_5
.LBB59_5:                               # %for.end
	movl	%eax, %ecx
	subl	$2, %ecx
	je	.LBB59_8
	jmp	.LBB59_6
.LBB59_6:                               # %for.end
	subl	$3, %eax
	je	.LBB59_9
	jmp	.LBB59_10
.LBB59_7:                               # %sw.bb
	movb	-1(%rbp), %al
	movq	-16(%rbp), %rcx
	movq	64(%rcx), %rcx
	movq	-16(%rbp), %rdx
	movslq	108(%rdx), %rdx
	movb	%al, (%rcx,%rdx)
	movq	-16(%rbp), %rax
	movl	108(%rax), %ecx
	addl	$1, %ecx
	movl	%ecx, 108(%rax)
	jmp	.LBB59_11
.LBB59_8:                               # %sw.bb14
	movb	-1(%rbp), %al
	movq	-16(%rbp), %rcx
	movq	64(%rcx), %rcx
	movq	-16(%rbp), %rdx
	movslq	108(%rdx), %rdx
	movb	%al, (%rcx,%rdx)
	movq	-16(%rbp), %rax
	movl	108(%rax), %ecx
	addl	$1, %ecx
	movl	%ecx, 108(%rax)
	movb	-1(%rbp), %al
	movq	-16(%rbp), %rcx
	movq	64(%rcx), %rcx
	movq	-16(%rbp), %rdx
	movslq	108(%rdx), %rdx
	movb	%al, (%rcx,%rdx)
	movq	-16(%rbp), %rax
	movl	108(%rax), %ecx
	addl	$1, %ecx
	movl	%ecx, 108(%rax)
	jmp	.LBB59_11
.LBB59_9:                               # %sw.bb27
	movb	-1(%rbp), %al
	movq	-16(%rbp), %rcx
	movq	64(%rcx), %rcx
	movq	-16(%rbp), %rdx
	movslq	108(%rdx), %rdx
	movb	%al, (%rcx,%rdx)
	movq	-16(%rbp), %rax
	movl	108(%rax), %ecx
	addl	$1, %ecx
	movl	%ecx, 108(%rax)
	movb	-1(%rbp), %al
	movq	-16(%rbp), %rcx
	movq	64(%rcx), %rcx
	movq	-16(%rbp), %rdx
	movslq	108(%rdx), %rdx
	movb	%al, (%rcx,%rdx)
	movq	-16(%rbp), %rax
	movl	108(%rax), %ecx
	addl	$1, %ecx
	movl	%ecx, 108(%rax)
	movb	-1(%rbp), %al
	movq	-16(%rbp), %rcx
	movq	64(%rcx), %rcx
	movq	-16(%rbp), %rdx
	movslq	108(%rdx), %rdx
	movb	%al, (%rcx,%rdx)
	movq	-16(%rbp), %rax
	movl	108(%rax), %ecx
	addl	$1, %ecx
	movl	%ecx, 108(%rax)
	jmp	.LBB59_11
.LBB59_10:                              # %sw.default
	movq	-16(%rbp), %rax
	movq	-16(%rbp), %rcx
	movl	96(%rcx), %ecx
	subl	$4, %ecx
	movslq	%ecx, %rcx
	movb	$1, 128(%rax,%rcx)
	movb	-1(%rbp), %al
	movq	-16(%rbp), %rcx
	movq	64(%rcx), %rcx
	movq	-16(%rbp), %rdx
	movslq	108(%rdx), %rdx
	movb	%al, (%rcx,%rdx)
	movq	-16(%rbp), %rax
	movl	108(%rax), %ecx
	addl	$1, %ecx
	movl	%ecx, 108(%rax)
	movb	-1(%rbp), %al
	movq	-16(%rbp), %rcx
	movq	64(%rcx), %rcx
	movq	-16(%rbp), %rdx
	movslq	108(%rdx), %rdx
	movb	%al, (%rcx,%rdx)
	movq	-16(%rbp), %rax
	movl	108(%rax), %ecx
	addl	$1, %ecx
	movl	%ecx, 108(%rax)
	movb	-1(%rbp), %al
	movq	-16(%rbp), %rcx
	movq	64(%rcx), %rcx
	movq	-16(%rbp), %rdx
	movslq	108(%rdx), %rdx
	movb	%al, (%rcx,%rdx)
	movq	-16(%rbp), %rax
	movl	108(%rax), %ecx
	addl	$1, %ecx
	movl	%ecx, 108(%rax)
	movb	-1(%rbp), %al
	movq	-16(%rbp), %rcx
	movq	64(%rcx), %rcx
	movq	-16(%rbp), %rdx
	movslq	108(%rdx), %rdx
	movb	%al, (%rcx,%rdx)
	movq	-16(%rbp), %rax
	movl	108(%rax), %ecx
	addl	$1, %ecx
	movl	%ecx, 108(%rax)
	movq	-16(%rbp), %rax
	movl	96(%rax), %eax
	subl	$4, %eax
	movq	-16(%rbp), %rcx
	movq	64(%rcx), %rcx
	movq	-16(%rbp), %rdx
	movslq	108(%rdx), %rdx
	movb	%al, (%rcx,%rdx)
	movq	-16(%rbp), %rax
	movl	108(%rax), %ecx
	addl	$1, %ecx
	movl	%ecx, 108(%rax)
.LBB59_11:                              # %sw.epilog
	cmpl	$1476092178, -24(%rbp)  # imm = 0x57FB6112
	jne	.LBB59_13
.LBB59_12:
	addq	$32, %rsp
	popq	%rbp
	.cfi_def_cfa %rsp, 8
	retq
.LBB59_13:                              # %func_exit
	.cfi_def_cfa %rbp, 16
	callq	detect_breach
	jmp	.LBB59_12
.Lfunc_end59:
	.size	add_pair_to_block.19, .Lfunc_end59-add_pair_to_block.19
	.cfi_endproc
                                        # -- End function
	.p2align	4, 0x90         # -- Begin function copy_input_until_stop.20
	.type	copy_input_until_stop.20,@function
copy_input_until_stop.20:               # @copy_input_until_stop.20
	.cfi_startproc
# %bb.0:                                # %entry
	pushq	%rbp
	.cfi_def_cfa_offset 16
	.cfi_offset %rbp, -16
	movq	%rsp, %rbp
	.cfi_def_cfa_register %rbp
	pushq	%rbx
	subq	$24, %rsp
	.cfi_offset %rbx, -24
	movl	$1117395134, -32(%rbp)  # imm = 0x429A18BE
	movq	%rdi, -16(%rbp)
	movb	$0, -17(%rbp)
	movq	-16(%rbp), %rax
	cmpl	$2, 8(%rax)
	jne	.LBB60_20
# %bb.1:                                # %if.then
	jmp	.LBB60_2
.LBB60_2:                               # %while.body
                                        # =>This Inner Loop Header: Depth=1
	movq	-16(%rbp), %rax
	movl	108(%rax), %eax
	movq	-16(%rbp), %rcx
	cmpl	112(%rcx), %eax
	jl	.LBB60_4
# %bb.3:                                # %if.then2
	jmp	.LBB60_19
.LBB60_4:                               # %if.end
                                        #   in Loop: Header=BB60_2 Depth=1
	movq	-16(%rbp), %rax
	movq	(%rax), %rax
	cmpl	$0, 8(%rax)
	jne	.LBB60_6
# %bb.5:                                # %if.then4
	jmp	.LBB60_19
.LBB60_6:                               # %if.end5
                                        #   in Loop: Header=BB60_2 Depth=1
	movb	$1, -17(%rbp)
	movq	-16(%rbp), %rax
	movq	(%rax), %rax
	movq	(%rax), %rax
	movzbl	(%rax), %eax
	movl	%eax, -28(%rbp)
	movl	-28(%rbp), %eax
	movq	-16(%rbp), %rcx
	cmpl	92(%rcx), %eax
	je	.LBB60_9
# %bb.7:                                # %land.lhs.true
                                        #   in Loop: Header=BB60_2 Depth=1
	movq	-16(%rbp), %rax
	cmpl	$1, 96(%rax)
	jne	.LBB60_9
# %bb.8:                                # %if.then11
                                        #   in Loop: Header=BB60_2 Depth=1
	movq	-16(%rbp), %rax
	movl	92(%rax), %eax
	movb	%al, -19(%rbp)
	movq	-16(%rbp), %rax
	movl	648(%rax), %eax
	shll	$8, %eax
	movq	-16(%rbp), %rcx
	movl	648(%rcx), %ecx
	shrl	$24, %ecx
	movzbl	-19(%rbp), %edx
	xorl	%edx, %ecx
	movl	%ecx, %ecx
	xorl	BZ2_crc32Table(,%rcx,4), %eax
	movq	-16(%rbp), %rcx
	movl	%eax, 648(%rcx)
	movq	-16(%rbp), %rax
	movq	-16(%rbp), %rcx
	movl	92(%rcx), %ecx
	movb	$1, 128(%rax,%rcx)
	movb	-19(%rbp), %al
	movq	-16(%rbp), %rcx
	movq	64(%rcx), %rcx
	movq	-16(%rbp), %rdx
	movslq	108(%rdx), %rdx
	movb	%al, (%rcx,%rdx)
	movq	-16(%rbp), %rax
	movl	108(%rax), %ecx
	addl	$1, %ecx
	movl	%ecx, 108(%rax)
	movl	-28(%rbp), %eax
	movq	-16(%rbp), %rcx
	movl	%eax, 92(%rcx)
	jmp	.LBB60_16
.LBB60_9:                               # %if.else
                                        #   in Loop: Header=BB60_2 Depth=1
	movl	-28(%rbp), %eax
	movq	-16(%rbp), %rcx
	cmpl	92(%rcx), %eax
	jne	.LBB60_11
# %bb.10:                               # %lor.lhs.false
                                        #   in Loop: Header=BB60_2 Depth=1
	movq	-16(%rbp), %rax
	cmpl	$255, 96(%rax)
	jne	.LBB60_14
.LBB60_11:                              # %if.then32
                                        #   in Loop: Header=BB60_2 Depth=1
	movq	-16(%rbp), %rax
	cmpl	$256, 92(%rax)          # imm = 0x100
	jae	.LBB60_13
# %bb.12:                               # %if.then36
                                        #   in Loop: Header=BB60_2 Depth=1
	movq	-16(%rbp), %rdi
	callq	add_pair_to_block
.LBB60_13:                              # %if.end37
                                        #   in Loop: Header=BB60_2 Depth=1
	movl	-28(%rbp), %eax
	movq	-16(%rbp), %rcx
	movl	%eax, 92(%rcx)
	movq	-16(%rbp), %rax
	movl	$1, 96(%rax)
	jmp	.LBB60_15
.LBB60_14:                              # %if.else40
                                        #   in Loop: Header=BB60_2 Depth=1
	movq	-16(%rbp), %rax
	movl	96(%rax), %ecx
	addl	$1, %ecx
	movl	%ecx, 96(%rax)
.LBB60_15:                              # %if.end43
                                        #   in Loop: Header=BB60_2 Depth=1
	jmp	.LBB60_16
.LBB60_16:                              # %if.end44
                                        #   in Loop: Header=BB60_2 Depth=1
	movq	-16(%rbp), %rax
	movq	(%rax), %rax
	movq	(%rax), %rcx
	addq	$1, %rcx
	movq	%rcx, (%rax)
	movq	-16(%rbp), %rax
	movq	(%rax), %rax
	movl	8(%rax), %ecx
	addl	$-1, %ecx
	movl	%ecx, 8(%rax)
	movq	-16(%rbp), %rax
	movq	(%rax), %rax
	movl	12(%rax), %ecx
	addl	$1, %ecx
	movl	%ecx, 12(%rax)
	movq	-16(%rbp), %rax
	movq	(%rax), %rax
	cmpl	$0, 12(%rax)
	jne	.LBB60_18
# %bb.17:                               # %if.then55
                                        #   in Loop: Header=BB60_2 Depth=1
	movq	-16(%rbp), %rax
	movq	(%rax), %rax
	movl	16(%rax), %ecx
	addl	$1, %ecx
	movl	%ecx, 16(%rax)
.LBB60_18:                              # %if.end58
                                        #   in Loop: Header=BB60_2 Depth=1
	jmp	.LBB60_2
.LBB60_19:                              # %while.end
	jmp	.LBB60_41
.LBB60_20:                              # %if.else59
	jmp	.LBB60_21
.LBB60_21:                              # %while.body60
                                        # =>This Inner Loop Header: Depth=1
	movq	-16(%rbp), %rax
	movl	108(%rax), %eax
	movq	-16(%rbp), %rcx
	cmpl	112(%rcx), %eax
	jl	.LBB60_23
# %bb.22:                               # %if.then65
	jmp	.LBB60_40
.LBB60_23:                              # %if.end66
                                        #   in Loop: Header=BB60_21 Depth=1
	movq	-16(%rbp), %rax
	movq	(%rax), %rax
	cmpl	$0, 8(%rax)
	jne	.LBB60_25
# %bb.24:                               # %if.then71
	jmp	.LBB60_40
.LBB60_25:                              # %if.end72
                                        #   in Loop: Header=BB60_21 Depth=1
	movq	-16(%rbp), %rax
	cmpl	$0, 16(%rax)
	jne	.LBB60_27
# %bb.26:                               # %if.then75
	jmp	.LBB60_40
.LBB60_27:                              # %if.end76
                                        #   in Loop: Header=BB60_21 Depth=1
	movb	$1, -17(%rbp)
	movq	-16(%rbp), %rax
	movq	(%rax), %rax
	movq	(%rax), %rax
	movzbl	(%rax), %eax
	movl	%eax, -24(%rbp)
	movl	-24(%rbp), %eax
	movq	-16(%rbp), %rcx
	cmpl	92(%rcx), %eax
	je	.LBB60_30
# %bb.28:                               # %land.lhs.true84
                                        #   in Loop: Header=BB60_21 Depth=1
	movq	-16(%rbp), %rax
	cmpl	$1, 96(%rax)
	jne	.LBB60_30
# %bb.29:                               # %if.then88
                                        #   in Loop: Header=BB60_21 Depth=1
	movq	-16(%rbp), %rax
	movl	92(%rax), %eax
	movb	%al, -18(%rbp)
	movq	-16(%rbp), %rax
	movl	648(%rax), %eax
	shll	$8, %eax
	movq	-16(%rbp), %rcx
	movl	648(%rcx), %ecx
	shrl	$24, %ecx
	movzbl	-18(%rbp), %edx
	xorl	%edx, %ecx
	movl	%ecx, %ecx
	xorl	BZ2_crc32Table(,%rcx,4), %eax
	movq	-16(%rbp), %rcx
	movl	%eax, 648(%rcx)
	movq	-16(%rbp), %rax
	movq	-16(%rbp), %rcx
	movl	92(%rcx), %ecx
	movb	$1, 128(%rax,%rcx)
	movb	-18(%rbp), %al
	movq	-16(%rbp), %rcx
	movq	64(%rcx), %rcx
	movq	-16(%rbp), %rdx
	movslq	108(%rdx), %rdx
	movb	%al, (%rcx,%rdx)
	movq	-16(%rbp), %rax
	movl	108(%rax), %ecx
	addl	$1, %ecx
	movl	%ecx, 108(%rax)
	movl	-24(%rbp), %eax
	movq	-16(%rbp), %rcx
	movl	%eax, 92(%rcx)
	jmp	.LBB60_37
.LBB60_30:                              # %if.else113
                                        #   in Loop: Header=BB60_21 Depth=1
	movl	-24(%rbp), %eax
	movq	-16(%rbp), %rcx
	cmpl	92(%rcx), %eax
	jne	.LBB60_32
# %bb.31:                               # %lor.lhs.false117
                                        #   in Loop: Header=BB60_21 Depth=1
	movq	-16(%rbp), %rax
	cmpl	$255, 96(%rax)
	jne	.LBB60_35
.LBB60_32:                              # %if.then121
                                        #   in Loop: Header=BB60_21 Depth=1
	movq	-16(%rbp), %rax
	cmpl	$256, 92(%rax)          # imm = 0x100
	jae	.LBB60_34
# %bb.33:                               # %if.then125
                                        #   in Loop: Header=BB60_21 Depth=1
	movq	-16(%rbp), %rdi
	callq	add_pair_to_block
.LBB60_34:                              # %if.end126
                                        #   in Loop: Header=BB60_21 Depth=1
	movl	-24(%rbp), %eax
	movq	-16(%rbp), %rcx
	movl	%eax, 92(%rcx)
	movq	-16(%rbp), %rax
	movl	$1, 96(%rax)
	jmp	.LBB60_36
.LBB60_35:                              # %if.else129
                                        #   in Loop: Header=BB60_21 Depth=1
	movq	-16(%rbp), %rax
	movl	96(%rax), %ecx
	addl	$1, %ecx
	movl	%ecx, 96(%rax)
.LBB60_36:                              # %if.end132
                                        #   in Loop: Header=BB60_21 Depth=1
	jmp	.LBB60_37
.LBB60_37:                              # %if.end133
                                        #   in Loop: Header=BB60_21 Depth=1
	movq	-16(%rbp), %rax
	movq	(%rax), %rax
	movq	(%rax), %rcx
	addq	$1, %rcx
	movq	%rcx, (%rax)
	movq	-16(%rbp), %rax
	movq	(%rax), %rax
	movl	8(%rax), %ecx
	addl	$-1, %ecx
	movl	%ecx, 8(%rax)
	movq	-16(%rbp), %rax
	movq	(%rax), %rax
	movl	12(%rax), %ecx
	addl	$1, %ecx
	movl	%ecx, 12(%rax)
	movq	-16(%rbp), %rax
	movq	(%rax), %rax
	cmpl	$0, 12(%rax)
	jne	.LBB60_39
# %bb.38:                               # %if.then147
                                        #   in Loop: Header=BB60_21 Depth=1
	movq	-16(%rbp), %rax
	movq	(%rax), %rax
	movl	16(%rax), %ecx
	addl	$1, %ecx
	movl	%ecx, 16(%rax)
.LBB60_39:                              # %if.end151
                                        #   in Loop: Header=BB60_21 Depth=1
	movq	-16(%rbp), %rax
	movl	16(%rax), %ecx
	addl	$-1, %ecx
	movl	%ecx, 16(%rax)
	jmp	.LBB60_21
.LBB60_40:                              # %while.end154
	jmp	.LBB60_41
.LBB60_41:                              # %if.end155
	movb	-17(%rbp), %bl
	cmpl	$1117395134, -32(%rbp)  # imm = 0x429A18BE
	jne	.LBB60_43
.LBB60_42:
	movzbl	%bl, %eax
	addq	$24, %rsp
	popq	%rbx
	popq	%rbp
	.cfi_def_cfa %rsp, 8
	retq
.LBB60_43:                              # %func_exit
	.cfi_def_cfa %rbp, 16
	callq	detect_breach
	jmp	.LBB60_42
.Lfunc_end60:
	.size	copy_input_until_stop.20, .Lfunc_end60-copy_input_until_stop.20
	.cfi_endproc
                                        # -- End function
	.globl	BZ2_bzWriteClose64.21   # -- Begin function BZ2_bzWriteClose64.21
	.p2align	4, 0x90
	.type	BZ2_bzWriteClose64.21,@function
BZ2_bzWriteClose64.21:                  # @BZ2_bzWriteClose64.21
	.cfi_startproc
# %bb.0:                                # %entry
	pushq	%rbp
	.cfi_def_cfa_offset 16
	.cfi_offset %rbp, -16
	movq	%rsp, %rbp
	.cfi_def_cfa_register %rbp
	subq	$80, %rsp
	movq	16(%rbp), %rax
	movl	$1454418333, -60(%rbp)  # imm = 0x56B0A99D
	movq	%rdi, -16(%rbp)
	movq	%rsi, -72(%rbp)
	movl	%edx, -28(%rbp)
	movq	%rcx, -40(%rbp)
	movq	%r8, -56(%rbp)
	movq	%r9, -48(%rbp)
	movq	-72(%rbp), %rax
	movq	%rax, -8(%rbp)
	cmpq	$0, -8(%rbp)
	jne	.LBB61_6
# %bb.1:                                # %if.then
	cmpq	$0, -16(%rbp)
	je	.LBB61_3
# %bb.2:                                # %if.then2
	movq	-16(%rbp), %rax
	movl	$0, (%rax)
.LBB61_3:                               # %if.end
	cmpq	$0, -8(%rbp)
	je	.LBB61_5
# %bb.4:                                # %if.then4
	movq	-8(%rbp), %rax
	movl	$0, 5096(%rax)
.LBB61_5:                               # %if.end5
	jmp	.LBB61_71
.LBB61_6:                               # %if.end6
	movq	-8(%rbp), %rax
	cmpb	$0, 5012(%rax)
	jne	.LBB61_12
# %bb.7:                                # %if.then7
	cmpq	$0, -16(%rbp)
	je	.LBB61_9
# %bb.8:                                # %if.then9
	movq	-16(%rbp), %rax
	movl	$-1, (%rax)
.LBB61_9:                               # %if.end10
	cmpq	$0, -8(%rbp)
	je	.LBB61_11
# %bb.10:                               # %if.then12
	movq	-8(%rbp), %rax
	movl	$-1, 5096(%rax)
.LBB61_11:                              # %if.end14
	jmp	.LBB61_71
.LBB61_12:                              # %if.end15
	movq	-8(%rbp), %rax
	movq	(%rax), %rdi
	callq	ferror
	cmpl	$0, %eax
	je	.LBB61_18
# %bb.13:                               # %if.then17
	cmpq	$0, -16(%rbp)
	je	.LBB61_15
# %bb.14:                               # %if.then19
	movq	-16(%rbp), %rax
	movl	$-6, (%rax)
.LBB61_15:                              # %if.end20
	cmpq	$0, -8(%rbp)
	je	.LBB61_17
# %bb.16:                               # %if.then22
	movq	-8(%rbp), %rax
	movl	$-6, 5096(%rax)
.LBB61_17:                              # %if.end24
	jmp	.LBB61_71
.LBB61_18:                              # %if.end25
	cmpq	$0, -40(%rbp)
	je	.LBB61_20
# %bb.19:                               # %if.then27
	movq	-40(%rbp), %rax
	movl	$0, (%rax)
.LBB61_20:                              # %if.end28
	cmpq	$0, -56(%rbp)
	je	.LBB61_22
# %bb.21:                               # %if.then30
	movq	-56(%rbp), %rax
	movl	$0, (%rax)
.LBB61_22:                              # %if.end31
	cmpq	$0, -48(%rbp)
	je	.LBB61_24
# %bb.23:                               # %if.then33
	movq	-48(%rbp), %rax
	movl	$0, (%rax)
.LBB61_24:                              # %if.end34
	cmpq	$0, 16(%rbp)
	je	.LBB61_26
# %bb.25:                               # %if.then36
	movq	16(%rbp), %rax
	movl	$0, (%rax)
.LBB61_26:                              # %if.end37
	cmpl	$0, -28(%rbp)
	jne	.LBB61_49
# %bb.27:                               # %land.lhs.true
	movq	-8(%rbp), %rax
	cmpl	$0, 5096(%rax)
	jne	.LBB61_49
# %bb.28:                               # %if.then41
	jmp	.LBB61_29
.LBB61_29:                              # %while.body
                                        # =>This Inner Loop Header: Depth=1
	movq	-8(%rbp), %rax
	movl	$5000, 5048(%rax)       # imm = 0x1388
	movq	-8(%rbp), %rax
	addq	$8, %rax
	movq	-8(%rbp), %rcx
	movq	%rax, 5040(%rcx)
	movq	-8(%rbp), %rdi
	addq	$5016, %rdi             # imm = 0x1398
	movl	$2, %esi
	callq	BZ2_bzCompress
	movl	%eax, -20(%rbp)
	cmpl	$3, -20(%rbp)
	je	.LBB61_36
# %bb.30:                               # %land.lhs.true46
                                        #   in Loop: Header=BB61_29 Depth=1
	cmpl	$4, -20(%rbp)
	je	.LBB61_36
# %bb.31:                               # %if.then48
	cmpq	$0, -16(%rbp)
	je	.LBB61_33
# %bb.32:                               # %if.then50
	movl	-20(%rbp), %eax
	movq	-16(%rbp), %rcx
	movl	%eax, (%rcx)
.LBB61_33:                              # %if.end51
	cmpq	$0, -8(%rbp)
	je	.LBB61_35
# %bb.34:                               # %if.then53
	movl	-20(%rbp), %eax
	movq	-8(%rbp), %rcx
	movl	%eax, 5096(%rcx)
.LBB61_35:                              # %if.end55
	jmp	.LBB61_71
.LBB61_36:                              # %if.end56
                                        #   in Loop: Header=BB61_29 Depth=1
	movq	-8(%rbp), %rax
	cmpl	$5000, 5048(%rax)       # imm = 0x1388
	jae	.LBB61_45
# %bb.37:                               # %if.then60
                                        #   in Loop: Header=BB61_29 Depth=1
	movq	-8(%rbp), %rax
	movl	$5000, %ecx             # imm = 0x1388
	subl	5048(%rax), %ecx
	movl	%ecx, -24(%rbp)
	movq	-8(%rbp), %rdi
	addq	$8, %rdi
	movslq	-24(%rbp), %rdx
	movq	-8(%rbp), %rax
	movq	(%rax), %rcx
	movl	$1, %esi
	callq	fwrite
	movl	%eax, -64(%rbp)
	movl	-24(%rbp), %eax
	cmpl	-64(%rbp), %eax
	jne	.LBB61_39
# %bb.38:                               # %lor.lhs.false
                                        #   in Loop: Header=BB61_29 Depth=1
	movq	-8(%rbp), %rax
	movq	(%rax), %rdi
	callq	ferror
	cmpl	$0, %eax
	je	.LBB61_44
.LBB61_39:                              # %if.then73
	cmpq	$0, -16(%rbp)
	je	.LBB61_41
# %bb.40:                               # %if.then76
	movq	-16(%rbp), %rax
	movl	$-6, (%rax)
.LBB61_41:                              # %if.end77
	cmpq	$0, -8(%rbp)
	je	.LBB61_43
# %bb.42:                               # %if.then80
	movq	-8(%rbp), %rax
	movl	$-6, 5096(%rax)
.LBB61_43:                              # %if.end82
	jmp	.LBB61_71
.LBB61_44:                              # %if.end83
                                        #   in Loop: Header=BB61_29 Depth=1
	jmp	.LBB61_45
.LBB61_45:                              # %if.end84
                                        #   in Loop: Header=BB61_29 Depth=1
	cmpl	$4, -20(%rbp)
	jne	.LBB61_47
# %bb.46:                               # %if.then87
	jmp	.LBB61_48
.LBB61_47:                              # %if.end88
                                        #   in Loop: Header=BB61_29 Depth=1
	jmp	.LBB61_29
.LBB61_48:                              # %while.end
	jmp	.LBB61_49
.LBB61_49:                              # %if.end89
	cmpl	$0, -28(%rbp)
	jne	.LBB61_58
# %bb.50:                               # %land.lhs.true91
	movq	-8(%rbp), %rax
	movq	(%rax), %rdi
	callq	ferror
	cmpl	$0, %eax
	jne	.LBB61_58
# %bb.51:                               # %if.then95
	movq	-8(%rbp), %rax
	movq	(%rax), %rdi
	callq	fflush
	movq	-8(%rbp), %rax
	movq	(%rax), %rdi
	callq	ferror
	cmpl	$0, %eax
	je	.LBB61_57
# %bb.52:                               # %if.then101
	cmpq	$0, -16(%rbp)
	je	.LBB61_54
# %bb.53:                               # %if.then104
	movq	-16(%rbp), %rax
	movl	$-6, (%rax)
.LBB61_54:                              # %if.end105
	cmpq	$0, -8(%rbp)
	je	.LBB61_56
# %bb.55:                               # %if.then108
	movq	-8(%rbp), %rax
	movl	$-6, 5096(%rax)
.LBB61_56:                              # %if.end110
	jmp	.LBB61_71
.LBB61_57:                              # %if.end111
	jmp	.LBB61_58
.LBB61_58:                              # %if.end112
	cmpq	$0, -40(%rbp)
	je	.LBB61_60
# %bb.59:                               # %if.then115
	movq	-8(%rbp), %rax
	movl	5028(%rax), %eax
	movq	-40(%rbp), %rcx
	movl	%eax, (%rcx)
.LBB61_60:                              # %if.end117
	cmpq	$0, -56(%rbp)
	je	.LBB61_62
# %bb.61:                               # %if.then120
	movq	-8(%rbp), %rax
	movl	5032(%rax), %eax
	movq	-56(%rbp), %rcx
	movl	%eax, (%rcx)
.LBB61_62:                              # %if.end122
	cmpq	$0, -48(%rbp)
	je	.LBB61_64
# %bb.63:                               # %if.then125
	movq	-8(%rbp), %rax
	movl	5052(%rax), %eax
	movq	-48(%rbp), %rcx
	movl	%eax, (%rcx)
.LBB61_64:                              # %if.end127
	cmpq	$0, 16(%rbp)
	je	.LBB61_66
# %bb.65:                               # %if.then130
	movq	-8(%rbp), %rax
	movl	5056(%rax), %eax
	movq	16(%rbp), %rcx
	movl	%eax, (%rcx)
.LBB61_66:                              # %if.end132
	cmpq	$0, -16(%rbp)
	je	.LBB61_68
# %bb.67:                               # %if.then135
	movq	-16(%rbp), %rax
	movl	$0, (%rax)
.LBB61_68:                              # %if.end136
	cmpq	$0, -8(%rbp)
	je	.LBB61_70
# %bb.69:                               # %if.then139
	movq	-8(%rbp), %rax
	movl	$0, 5096(%rax)
.LBB61_70:                              # %if.end141
	movq	-8(%rbp), %rdi
	addq	$5016, %rdi             # imm = 0x1398
	callq	BZ2_bzCompressEnd
	movq	-8(%rbp), %rdi
	callq	free
.LBB61_71:                              # %return
	cmpl	$1454418333, -60(%rbp)  # imm = 0x56B0A99D
	jne	.LBB61_73
.LBB61_72:
	addq	$80, %rsp
	popq	%rbp
	.cfi_def_cfa %rsp, 8
	retq
.LBB61_73:                              # %func_exit
	.cfi_def_cfa %rbp, 16
	callq	detect_breach
	jmp	.LBB61_72
.Lfunc_end61:
	.size	BZ2_bzWriteClose64.21, .Lfunc_end61-BZ2_bzWriteClose64.21
	.cfi_endproc
                                        # -- End function
	.globl	BZ2_bzReadOpen.22       # -- Begin function BZ2_bzReadOpen.22
	.p2align	4, 0x90
	.type	BZ2_bzReadOpen.22,@function
BZ2_bzReadOpen.22:                      # @BZ2_bzReadOpen.22
	.cfi_startproc
# %bb.0:                                # %entry
	pushq	%rbp
	.cfi_def_cfa_offset 16
	.cfi_offset %rbp, -16
	movq	%rsp, %rbp
	.cfi_def_cfa_register %rbp
	pushq	%rbx
	subq	$72, %rsp
	.cfi_offset %rbx, -24
	movl	$1940033560, -76(%rbp)  # imm = 0x73A29018
	movq	%rdi, -32(%rbp)
	movq	%rsi, -72(%rbp)
	movl	%edx, -40(%rbp)
	movl	%ecx, -36(%rbp)
	movq	%r8, -56(%rbp)
	movl	%r9d, -20(%rbp)
	movq	$0, -16(%rbp)
	cmpq	$0, -32(%rbp)
	je	.LBB62_2
# %bb.1:                                # %if.then
	movq	-32(%rbp), %rax
	movl	$0, (%rax)
.LBB62_2:                               # %if.end
	cmpq	$0, -16(%rbp)
	je	.LBB62_4
# %bb.3:                                # %if.then2
	movq	-16(%rbp), %rax
	movl	$0, 5096(%rax)
.LBB62_4:                               # %if.end3
	cmpq	$0, -72(%rbp)
	je	.LBB62_14
# %bb.5:                                # %lor.lhs.false
	cmpl	$0, -36(%rbp)
	je	.LBB62_7
# %bb.6:                                # %land.lhs.true
	cmpl	$1, -36(%rbp)
	jne	.LBB62_14
.LBB62_7:                               # %lor.lhs.false7
	cmpl	$0, -40(%rbp)
	jl	.LBB62_14
# %bb.8:                                # %lor.lhs.false9
	cmpl	$4, -40(%rbp)
	jg	.LBB62_14
# %bb.9:                                # %lor.lhs.false11
	cmpq	$0, -56(%rbp)
	jne	.LBB62_11
# %bb.10:                               # %land.lhs.true13
	cmpl	$0, -20(%rbp)
	jne	.LBB62_14
.LBB62_11:                              # %lor.lhs.false15
	cmpq	$0, -56(%rbp)
	je	.LBB62_19
# %bb.12:                               # %land.lhs.true17
	cmpl	$0, -20(%rbp)
	jl	.LBB62_14
# %bb.13:                               # %lor.lhs.false19
	cmpl	$5000, -20(%rbp)        # imm = 0x1388
	jle	.LBB62_19
.LBB62_14:                              # %if.then21
	cmpq	$0, -32(%rbp)
	je	.LBB62_16
# %bb.15:                               # %if.then23
	movq	-32(%rbp), %rax
	movl	$-2, (%rax)
.LBB62_16:                              # %if.end24
	cmpq	$0, -16(%rbp)
	je	.LBB62_18
# %bb.17:                               # %if.then26
	movq	-16(%rbp), %rax
	movl	$-2, 5096(%rax)
.LBB62_18:                              # %if.end28
	movq	$0, -64(%rbp)
	jmp	.LBB62_45
.LBB62_19:                              # %if.end29
	movq	-72(%rbp), %rdi
	callq	ferror
	cmpl	$0, %eax
	je	.LBB62_25
# %bb.20:                               # %if.then30
	cmpq	$0, -32(%rbp)
	je	.LBB62_22
# %bb.21:                               # %if.then32
	movq	-32(%rbp), %rax
	movl	$-6, (%rax)
.LBB62_22:                              # %if.end33
	cmpq	$0, -16(%rbp)
	je	.LBB62_24
# %bb.23:                               # %if.then35
	movq	-16(%rbp), %rax
	movl	$-6, 5096(%rax)
.LBB62_24:                              # %if.end37
	movq	$0, -64(%rbp)
	jmp	.LBB62_45
.LBB62_25:                              # %if.end38
	movl	$5104, %edi             # imm = 0x13F0
	callq	malloc
	movq	%rax, -16(%rbp)
	cmpq	$0, -16(%rbp)
	jne	.LBB62_31
# %bb.26:                               # %if.then41
	cmpq	$0, -32(%rbp)
	je	.LBB62_28
# %bb.27:                               # %if.then43
	movq	-32(%rbp), %rax
	movl	$-3, (%rax)
.LBB62_28:                              # %if.end44
	cmpq	$0, -16(%rbp)
	je	.LBB62_30
# %bb.29:                               # %if.then46
	movq	-16(%rbp), %rax
	movl	$-3, 5096(%rax)
.LBB62_30:                              # %if.end48
	movq	$0, -64(%rbp)
	jmp	.LBB62_45
.LBB62_31:                              # %if.end49
	cmpq	$0, -32(%rbp)
	je	.LBB62_33
# %bb.32:                               # %if.then51
	movq	-32(%rbp), %rax
	movl	$0, (%rax)
.LBB62_33:                              # %if.end52
	cmpq	$0, -16(%rbp)
	je	.LBB62_35
# %bb.34:                               # %if.then54
	movq	-16(%rbp), %rax
	movl	$0, 5096(%rax)
.LBB62_35:                              # %if.end56
	movq	-16(%rbp), %rax
	movb	$0, 5100(%rax)
	movq	-72(%rbp), %rax
	movq	-16(%rbp), %rcx
	movq	%rax, (%rcx)
	movq	-16(%rbp), %rax
	movl	$0, 5008(%rax)
	movq	-16(%rbp), %rax
	movb	$0, 5012(%rax)
	movq	-16(%rbp), %rax
	movq	$0, 5072(%rax)
	movq	-16(%rbp), %rax
	movq	$0, 5080(%rax)
	movq	-16(%rbp), %rax
	movq	$0, 5088(%rax)
.LBB62_36:                              # %while.cond
                                        # =>This Inner Loop Header: Depth=1
	cmpl	$0, -20(%rbp)
	jle	.LBB62_38
# %bb.37:                               # %while.body
                                        #   in Loop: Header=BB62_36 Depth=1
	movq	-56(%rbp), %rax
	movb	(%rax), %al
	movq	-16(%rbp), %rcx
	movq	-16(%rbp), %rdx
	movslq	5008(%rdx), %rdx
	movb	%al, 8(%rcx,%rdx)
	movq	-16(%rbp), %rax
	movl	5008(%rax), %ecx
	addl	$1, %ecx
	movl	%ecx, 5008(%rax)
	movq	-56(%rbp), %rax
	addq	$1, %rax
	movq	%rax, -56(%rbp)
	movl	-20(%rbp), %eax
	addl	$-1, %eax
	movl	%eax, -20(%rbp)
	jmp	.LBB62_36
.LBB62_38:                              # %while.end
	movq	-16(%rbp), %rdi
	addq	$5016, %rdi             # imm = 0x1398
	movl	-40(%rbp), %esi
	movl	-36(%rbp), %edx
	callq	BZ2_bzDecompressInit
	movl	%eax, -44(%rbp)
	cmpl	$0, -44(%rbp)
	je	.LBB62_44
# %bb.39:                               # %if.then65
	cmpq	$0, -32(%rbp)
	je	.LBB62_41
# %bb.40:                               # %if.then67
	movl	-44(%rbp), %eax
	movq	-32(%rbp), %rcx
	movl	%eax, (%rcx)
.LBB62_41:                              # %if.end68
	cmpq	$0, -16(%rbp)
	je	.LBB62_43
# %bb.42:                               # %if.then70
	movl	-44(%rbp), %eax
	movq	-16(%rbp), %rcx
	movl	%eax, 5096(%rcx)
.LBB62_43:                              # %if.end72
	movq	-16(%rbp), %rdi
	callq	free
	movq	$0, -64(%rbp)
	jmp	.LBB62_45
.LBB62_44:                              # %if.end73
	movq	-16(%rbp), %rax
	movl	5008(%rax), %eax
	movq	-16(%rbp), %rcx
	movl	%eax, 5024(%rcx)
	movq	-16(%rbp), %rax
	addq	$8, %rax
	movq	-16(%rbp), %rcx
	movq	%rax, 5016(%rcx)
	movq	-16(%rbp), %rax
	movb	$1, 5100(%rax)
	movq	-16(%rbp), %rax
	movq	%rax, -64(%rbp)
.LBB62_45:                              # %return
	movq	-64(%rbp), %rbx
	cmpl	$1940033560, -76(%rbp)  # imm = 0x73A29018
	jne	.LBB62_47
.LBB62_46:
	movq	%rbx, %rax
	addq	$72, %rsp
	popq	%rbx
	popq	%rbp
	.cfi_def_cfa %rsp, 8
	retq
.LBB62_47:                              # %func_exit
	.cfi_def_cfa %rbp, 16
	callq	detect_breach
	jmp	.LBB62_46
.Lfunc_end62:
	.size	BZ2_bzReadOpen.22, .Lfunc_end62-BZ2_bzReadOpen.22
	.cfi_endproc
                                        # -- End function
	.p2align	4, 0x90         # -- Begin function default_bzfree.23
	.type	default_bzfree.23,@function
default_bzfree.23:                      # @default_bzfree.23
	.cfi_startproc
# %bb.0:                                # %entry
	pushq	%rbp
	.cfi_def_cfa_offset 16
	.cfi_offset %rbp, -16
	movq	%rsp, %rbp
	.cfi_def_cfa_register %rbp
	subq	$32, %rsp
	movl	$2070279457, -4(%rbp)   # imm = 0x7B65F521
	movq	%rdi, -24(%rbp)
	movq	%rsi, -16(%rbp)
	cmpq	$0, -16(%rbp)
	je	.LBB63_2
# %bb.1:                                # %if.then
	movq	-16(%rbp), %rdi
	callq	free
.LBB63_2:                               # %if.end
	cmpl	$2070279457, -4(%rbp)   # imm = 0x7B65F521
	jne	.LBB63_4
.LBB63_3:
	addq	$32, %rsp
	popq	%rbp
	.cfi_def_cfa %rsp, 8
	retq
.LBB63_4:                               # %func_exit
	.cfi_def_cfa %rbp, 16
	callq	detect_breach
	jmp	.LBB63_3
.Lfunc_end63:
	.size	default_bzfree.23, .Lfunc_end63-default_bzfree.23
	.cfi_endproc
                                        # -- End function
	.globl	BZ2_bzWrite.24          # -- Begin function BZ2_bzWrite.24
	.p2align	4, 0x90
	.type	BZ2_bzWrite.24,@function
BZ2_bzWrite.24:                         # @BZ2_bzWrite.24
	.cfi_startproc
# %bb.0:                                # %entry
	pushq	%rbp
	.cfi_def_cfa_offset 16
	.cfi_offset %rbp, -16
	movq	%rsp, %rbp
	.cfi_def_cfa_register %rbp
	subq	$64, %rsp
	movl	$892334985, -32(%rbp)   # imm = 0x352FF389
	movq	%rdi, -16(%rbp)
	movq	%rsi, -56(%rbp)
	movq	%rdx, -48(%rbp)
	movl	%ecx, -24(%rbp)
	movq	-56(%rbp), %rax
	movq	%rax, -8(%rbp)
	cmpq	$0, -16(%rbp)
	je	.LBB64_2
# %bb.1:                                # %if.then
	movq	-16(%rbp), %rax
	movl	$0, (%rax)
.LBB64_2:                               # %if.end
	cmpq	$0, -8(%rbp)
	je	.LBB64_4
# %bb.3:                                # %if.then2
	movq	-8(%rbp), %rax
	movl	$0, 5096(%rax)
.LBB64_4:                               # %if.end3
	cmpq	$0, -8(%rbp)
	je	.LBB64_7
# %bb.5:                                # %lor.lhs.false
	cmpq	$0, -48(%rbp)
	je	.LBB64_7
# %bb.6:                                # %lor.lhs.false6
	cmpl	$0, -24(%rbp)
	jge	.LBB64_12
.LBB64_7:                               # %if.then8
	cmpq	$0, -16(%rbp)
	je	.LBB64_9
# %bb.8:                                # %if.then10
	movq	-16(%rbp), %rax
	movl	$-2, (%rax)
.LBB64_9:                               # %if.end11
	cmpq	$0, -8(%rbp)
	je	.LBB64_11
# %bb.10:                               # %if.then13
	movq	-8(%rbp), %rax
	movl	$-2, 5096(%rax)
.LBB64_11:                              # %if.end15
	jmp	.LBB64_53
.LBB64_12:                              # %if.end16
	movq	-8(%rbp), %rax
	cmpb	$0, 5012(%rax)
	jne	.LBB64_18
# %bb.13:                               # %if.then17
	cmpq	$0, -16(%rbp)
	je	.LBB64_15
# %bb.14:                               # %if.then19
	movq	-16(%rbp), %rax
	movl	$-1, (%rax)
.LBB64_15:                              # %if.end20
	cmpq	$0, -8(%rbp)
	je	.LBB64_17
# %bb.16:                               # %if.then22
	movq	-8(%rbp), %rax
	movl	$-1, 5096(%rax)
.LBB64_17:                              # %if.end24
	jmp	.LBB64_53
.LBB64_18:                              # %if.end25
	movq	-8(%rbp), %rax
	movq	(%rax), %rdi
	callq	ferror
	cmpl	$0, %eax
	je	.LBB64_24
# %bb.19:                               # %if.then27
	cmpq	$0, -16(%rbp)
	je	.LBB64_21
# %bb.20:                               # %if.then29
	movq	-16(%rbp), %rax
	movl	$-6, (%rax)
.LBB64_21:                              # %if.end30
	cmpq	$0, -8(%rbp)
	je	.LBB64_23
# %bb.22:                               # %if.then32
	movq	-8(%rbp), %rax
	movl	$-6, 5096(%rax)
.LBB64_23:                              # %if.end34
	jmp	.LBB64_53
.LBB64_24:                              # %if.end35
	cmpl	$0, -24(%rbp)
	jne	.LBB64_30
# %bb.25:                               # %if.then37
	cmpq	$0, -16(%rbp)
	je	.LBB64_27
# %bb.26:                               # %if.then39
	movq	-16(%rbp), %rax
	movl	$0, (%rax)
.LBB64_27:                              # %if.end40
	cmpq	$0, -8(%rbp)
	je	.LBB64_29
# %bb.28:                               # %if.then42
	movq	-8(%rbp), %rax
	movl	$0, 5096(%rax)
.LBB64_29:                              # %if.end44
	jmp	.LBB64_53
.LBB64_30:                              # %if.end45
	movl	-24(%rbp), %eax
	movq	-8(%rbp), %rcx
	movl	%eax, 5024(%rcx)
	movq	-48(%rbp), %rax
	movq	-8(%rbp), %rcx
	movq	%rax, 5016(%rcx)
.LBB64_31:                              # %while.body
                                        # =>This Inner Loop Header: Depth=1
	movq	-8(%rbp), %rax
	movl	$5000, 5048(%rax)       # imm = 0x1388
	movq	-8(%rbp), %rax
	addq	$8, %rax
	movq	-8(%rbp), %rcx
	movq	%rax, 5040(%rcx)
	movq	-8(%rbp), %rdi
	addq	$5016, %rdi             # imm = 0x1398
	xorl	%esi, %esi
	callq	BZ2_bzCompress
	movl	%eax, -20(%rbp)
	cmpl	$1, -20(%rbp)
	je	.LBB64_37
# %bb.32:                               # %if.then53
	cmpq	$0, -16(%rbp)
	je	.LBB64_34
# %bb.33:                               # %if.then55
	movl	-20(%rbp), %eax
	movq	-16(%rbp), %rcx
	movl	%eax, (%rcx)
.LBB64_34:                              # %if.end56
	cmpq	$0, -8(%rbp)
	je	.LBB64_36
# %bb.35:                               # %if.then58
	movl	-20(%rbp), %eax
	movq	-8(%rbp), %rcx
	movl	%eax, 5096(%rcx)
.LBB64_36:                              # %if.end60
	jmp	.LBB64_53
.LBB64_37:                              # %if.end61
                                        #   in Loop: Header=BB64_31 Depth=1
	movq	-8(%rbp), %rax
	cmpl	$5000, 5048(%rax)       # imm = 0x1388
	jae	.LBB64_46
# %bb.38:                               # %if.then65
                                        #   in Loop: Header=BB64_31 Depth=1
	movq	-8(%rbp), %rax
	movl	$5000, %ecx             # imm = 0x1388
	subl	5048(%rax), %ecx
	movl	%ecx, -28(%rbp)
	movq	-8(%rbp), %rdi
	addq	$8, %rdi
	movslq	-28(%rbp), %rdx
	movq	-8(%rbp), %rax
	movq	(%rax), %rcx
	movl	$1, %esi
	callq	fwrite
	movl	%eax, -36(%rbp)
	movl	-28(%rbp), %eax
	cmpl	-36(%rbp), %eax
	jne	.LBB64_40
# %bb.39:                               # %lor.lhs.false75
                                        #   in Loop: Header=BB64_31 Depth=1
	movq	-8(%rbp), %rax
	movq	(%rax), %rdi
	callq	ferror
	cmpl	$0, %eax
	je	.LBB64_45
.LBB64_40:                              # %if.then79
	cmpq	$0, -16(%rbp)
	je	.LBB64_42
# %bb.41:                               # %if.then82
	movq	-16(%rbp), %rax
	movl	$-6, (%rax)
.LBB64_42:                              # %if.end83
	cmpq	$0, -8(%rbp)
	je	.LBB64_44
# %bb.43:                               # %if.then86
	movq	-8(%rbp), %rax
	movl	$-6, 5096(%rax)
.LBB64_44:                              # %if.end88
	jmp	.LBB64_53
.LBB64_45:                              # %if.end89
                                        #   in Loop: Header=BB64_31 Depth=1
	jmp	.LBB64_46
.LBB64_46:                              # %if.end90
                                        #   in Loop: Header=BB64_31 Depth=1
	movq	-8(%rbp), %rax
	cmpl	$0, 5024(%rax)
	jne	.LBB64_52
# %bb.47:                               # %if.then95
	cmpq	$0, -16(%rbp)
	je	.LBB64_49
# %bb.48:                               # %if.then98
	movq	-16(%rbp), %rax
	movl	$0, (%rax)
.LBB64_49:                              # %if.end99
	cmpq	$0, -8(%rbp)
	je	.LBB64_51
# %bb.50:                               # %if.then102
	movq	-8(%rbp), %rax
	movl	$0, 5096(%rax)
.LBB64_51:                              # %if.end104
	jmp	.LBB64_53
.LBB64_52:                              # %if.end105
                                        #   in Loop: Header=BB64_31 Depth=1
	jmp	.LBB64_31
.LBB64_53:                              # %return
	cmpl	$892334985, -32(%rbp)   # imm = 0x352FF389
	jne	.LBB64_55
.LBB64_54:
	addq	$64, %rsp
	popq	%rbp
	.cfi_def_cfa %rsp, 8
	retq
.LBB64_55:                              # %func_exit
	.cfi_def_cfa %rbp, 16
	callq	detect_breach
	jmp	.LBB64_54
.Lfunc_end64:
	.size	BZ2_bzWrite.24, .Lfunc_end64-BZ2_bzWrite.24
	.cfi_endproc
                                        # -- End function
	.p2align	4, 0x90         # -- Begin function unRLE_obuf_to_output_FAST.25
	.type	unRLE_obuf_to_output_FAST.25,@function
unRLE_obuf_to_output_FAST.25:           # @unRLE_obuf_to_output_FAST.25
	.cfi_startproc
# %bb.0:                                # %entry
	pushq	%rbp
	.cfi_def_cfa_offset 16
	.cfi_offset %rbp, -16
	movq	%rsp, %rbp
	.cfi_def_cfa_register %rbp
	pushq	%rbx
	subq	$88, %rsp
	.cfi_offset %rbx, -24
	movl	$940987032, -88(%rbp)   # imm = 0x38165298
	movq	%rdi, -24(%rbp)
	movq	-24(%rbp), %rax
	cmpb	$0, 20(%rax)
	je	.LBB65_48
# %bb.1:                                # %if.then
	jmp	.LBB65_2
.LBB65_2:                               # %while.body
                                        # =>This Loop Header: Depth=1
                                        #     Child Loop BB65_3 Depth 2
	jmp	.LBB65_3
.LBB65_3:                               # %while.body2
                                        #   Parent Loop BB65_2 Depth=1
                                        # =>  This Inner Loop Header: Depth=2
	movq	-24(%rbp), %rax
	movq	(%rax), %rax
	cmpl	$0, 32(%rax)
	jne	.LBB65_5
# %bb.4:                                # %if.then3
	movb	$0, -33(%rbp)
	jmp	.LBB65_82
.LBB65_5:                               # %if.end
                                        #   in Loop: Header=BB65_3 Depth=2
	movq	-24(%rbp), %rax
	cmpl	$0, 16(%rax)
	jne	.LBB65_7
# %bb.6:                                # %if.then5
                                        #   in Loop: Header=BB65_2 Depth=1
	jmp	.LBB65_10
.LBB65_7:                               # %if.end6
                                        #   in Loop: Header=BB65_3 Depth=2
	movq	-24(%rbp), %rax
	movb	12(%rax), %al
	movq	-24(%rbp), %rcx
	movq	(%rcx), %rcx
	movq	24(%rcx), %rcx
	movb	%al, (%rcx)
	movq	-24(%rbp), %rax
	movl	3184(%rax), %eax
	shll	$8, %eax
	movq	-24(%rbp), %rcx
	movl	3184(%rcx), %ecx
	shrl	$24, %ecx
	movq	-24(%rbp), %rdx
	movzbl	12(%rdx), %edx
	xorl	%edx, %ecx
	movl	%ecx, %ecx
	xorl	BZ2_crc32Table(,%rcx,4), %eax
	movq	-24(%rbp), %rcx
	movl	%eax, 3184(%rcx)
	movq	-24(%rbp), %rax
	movl	16(%rax), %ecx
	addl	$-1, %ecx
	movl	%ecx, 16(%rax)
	movq	-24(%rbp), %rax
	movq	(%rax), %rax
	movq	24(%rax), %rcx
	addq	$1, %rcx
	movq	%rcx, 24(%rax)
	movq	-24(%rbp), %rax
	movq	(%rax), %rax
	movl	32(%rax), %ecx
	addl	$-1, %ecx
	movl	%ecx, 32(%rax)
	movq	-24(%rbp), %rax
	movq	(%rax), %rax
	movl	36(%rax), %ecx
	addl	$1, %ecx
	movl	%ecx, 36(%rax)
	movq	-24(%rbp), %rax
	movq	(%rax), %rax
	cmpl	$0, 36(%rax)
	jne	.LBB65_9
# %bb.8:                                # %if.then23
                                        #   in Loop: Header=BB65_3 Depth=2
	movq	-24(%rbp), %rax
	movq	(%rax), %rax
	movl	40(%rax), %ecx
	addl	$1, %ecx
	movl	%ecx, 40(%rax)
.LBB65_9:                               # %if.end26
                                        #   in Loop: Header=BB65_3 Depth=2
	jmp	.LBB65_3
.LBB65_10:                              # %while.end
                                        #   in Loop: Header=BB65_2 Depth=1
	movq	-24(%rbp), %rax
	movl	1092(%rax), %eax
	movq	-24(%rbp), %rcx
	movl	64080(%rcx), %ecx
	addl	$1, %ecx
	cmpl	%ecx, %eax
	jne	.LBB65_12
# %bb.11:                               # %if.then29
	movb	$0, -33(%rbp)
	jmp	.LBB65_82
.LBB65_12:                              # %if.end30
                                        #   in Loop: Header=BB65_2 Depth=1
	movq	-24(%rbp), %rax
	movl	1092(%rax), %eax
	movq	-24(%rbp), %rcx
	movl	64080(%rcx), %ecx
	addl	$1, %ecx
	cmpl	%ecx, %eax
	jle	.LBB65_14
# %bb.13:                               # %if.then36
	movb	$1, -33(%rbp)
	jmp	.LBB65_82
.LBB65_14:                              # %if.end37
                                        #   in Loop: Header=BB65_2 Depth=1
	movq	-24(%rbp), %rax
	movl	$1, 16(%rax)
	movq	-24(%rbp), %rax
	movl	64(%rax), %eax
	movq	-24(%rbp), %rcx
	movb	%al, 12(%rcx)
	movq	-24(%rbp), %rax
	movq	3152(%rax), %rax
	movq	-24(%rbp), %rcx
	movl	60(%rcx), %ecx
	movl	(%rax,%rcx,4), %eax
	movq	-24(%rbp), %rcx
	movl	%eax, 60(%rcx)
	movq	-24(%rbp), %rax
	movl	60(%rax), %eax
	andl	$255, %eax
	movb	%al, -9(%rbp)
	movq	-24(%rbp), %rax
	movl	60(%rax), %ecx
	shrl	$8, %ecx
	movl	%ecx, 60(%rax)
	movq	-24(%rbp), %rax
	cmpl	$0, 24(%rax)
	jne	.LBB65_18
# %bb.15:                               # %if.then50
                                        #   in Loop: Header=BB65_2 Depth=1
	movq	-24(%rbp), %rax
	movslq	28(%rax), %rax
	movl	BZ2_rNums(,%rax,4), %eax
	movq	-24(%rbp), %rcx
	movl	%eax, 24(%rcx)
	movq	-24(%rbp), %rax
	movl	28(%rax), %ecx
	addl	$1, %ecx
	movl	%ecx, 28(%rax)
	movq	-24(%rbp), %rax
	cmpl	$512, 28(%rax)          # imm = 0x200
	jne	.LBB65_17
# %bb.16:                               # %if.then59
                                        #   in Loop: Header=BB65_2 Depth=1
	movq	-24(%rbp), %rax
	movl	$0, 28(%rax)
.LBB65_17:                              # %if.end61
                                        #   in Loop: Header=BB65_2 Depth=1
	jmp	.LBB65_18
.LBB65_18:                              # %if.end62
                                        #   in Loop: Header=BB65_2 Depth=1
	xorl	%eax, %eax
	movq	-24(%rbp), %rcx
	movl	24(%rcx), %edx
	addl	$-1, %edx
	movl	%edx, 24(%rcx)
	movq	-24(%rbp), %rcx
	movl	24(%rcx), %ecx
	cmpl	$1, %ecx
	movl	$1, %ecx
	cmovel	%ecx, %eax
	movzbl	-9(%rbp), %ecx
	xorl	%eax, %ecx
	movb	%cl, -9(%rbp)
	movq	-24(%rbp), %rax
	movl	1092(%rax), %ecx
	addl	$1, %ecx
	movl	%ecx, 1092(%rax)
	movq	-24(%rbp), %rax
	movl	1092(%rax), %eax
	movq	-24(%rbp), %rcx
	movl	64080(%rcx), %ecx
	addl	$1, %ecx
	cmpl	%ecx, %eax
	jne	.LBB65_21
# %bb.19:                               # %if.then78
                                        #   in Loop: Header=BB65_2 Depth=1
	jmp	.LBB65_20
.LBB65_20:                              # %while.body.backedge
                                        #   in Loop: Header=BB65_2 Depth=1
	jmp	.LBB65_2
.LBB65_21:                              # %if.end79
                                        #   in Loop: Header=BB65_2 Depth=1
	movzbl	-9(%rbp), %eax
	movq	-24(%rbp), %rcx
	cmpl	64(%rcx), %eax
	je	.LBB65_23
# %bb.22:                               # %if.then84
                                        #   in Loop: Header=BB65_2 Depth=1
	movzbl	-9(%rbp), %eax
	movq	-24(%rbp), %rcx
	movl	%eax, 64(%rcx)
	jmp	.LBB65_20
.LBB65_23:                              # %if.end87
                                        #   in Loop: Header=BB65_2 Depth=1
	movq	-24(%rbp), %rax
	movl	$2, 16(%rax)
	movq	-24(%rbp), %rax
	movq	3152(%rax), %rax
	movq	-24(%rbp), %rcx
	movl	60(%rcx), %ecx
	movl	(%rax,%rcx,4), %eax
	movq	-24(%rbp), %rcx
	movl	%eax, 60(%rcx)
	movq	-24(%rbp), %rax
	movl	60(%rax), %eax
	andl	$255, %eax
	movb	%al, -9(%rbp)
	movq	-24(%rbp), %rax
	movl	60(%rax), %ecx
	shrl	$8, %ecx
	movl	%ecx, 60(%rax)
	movq	-24(%rbp), %rax
	cmpl	$0, 24(%rax)
	jne	.LBB65_27
# %bb.24:                               # %if.then102
                                        #   in Loop: Header=BB65_2 Depth=1
	movq	-24(%rbp), %rax
	movslq	28(%rax), %rax
	movl	BZ2_rNums(,%rax,4), %eax
	movq	-24(%rbp), %rcx
	movl	%eax, 24(%rcx)
	movq	-24(%rbp), %rax
	movl	28(%rax), %ecx
	addl	$1, %ecx
	movl	%ecx, 28(%rax)
	movq	-24(%rbp), %rax
	cmpl	$512, 28(%rax)          # imm = 0x200
	jne	.LBB65_26
# %bb.25:                               # %if.then112
                                        #   in Loop: Header=BB65_2 Depth=1
	movq	-24(%rbp), %rax
	movl	$0, 28(%rax)
.LBB65_26:                              # %if.end114
                                        #   in Loop: Header=BB65_2 Depth=1
	jmp	.LBB65_27
.LBB65_27:                              # %if.end115
                                        #   in Loop: Header=BB65_2 Depth=1
	xorl	%eax, %eax
	movq	-24(%rbp), %rcx
	movl	24(%rcx), %edx
	addl	$-1, %edx
	movl	%edx, 24(%rcx)
	movq	-24(%rbp), %rcx
	movl	24(%rcx), %ecx
	cmpl	$1, %ecx
	movl	$1, %ecx
	cmovel	%ecx, %eax
	movzbl	-9(%rbp), %ecx
	xorl	%eax, %ecx
	movb	%cl, -9(%rbp)
	movq	-24(%rbp), %rax
	movl	1092(%rax), %ecx
	addl	$1, %ecx
	movl	%ecx, 1092(%rax)
	movq	-24(%rbp), %rax
	movl	1092(%rax), %eax
	movq	-24(%rbp), %rcx
	movl	64080(%rcx), %ecx
	addl	$1, %ecx
	cmpl	%ecx, %eax
	jne	.LBB65_29
# %bb.28:                               # %if.then132
                                        #   in Loop: Header=BB65_2 Depth=1
	jmp	.LBB65_20
.LBB65_29:                              # %if.end133
                                        #   in Loop: Header=BB65_2 Depth=1
	movzbl	-9(%rbp), %eax
	movq	-24(%rbp), %rcx
	cmpl	64(%rcx), %eax
	je	.LBB65_31
# %bb.30:                               # %if.then138
                                        #   in Loop: Header=BB65_2 Depth=1
	movzbl	-9(%rbp), %eax
	movq	-24(%rbp), %rcx
	movl	%eax, 64(%rcx)
	jmp	.LBB65_20
.LBB65_31:                              # %if.end141
                                        #   in Loop: Header=BB65_2 Depth=1
	movq	-24(%rbp), %rax
	movl	$3, 16(%rax)
	movq	-24(%rbp), %rax
	movq	3152(%rax), %rax
	movq	-24(%rbp), %rcx
	movl	60(%rcx), %ecx
	movl	(%rax,%rcx,4), %eax
	movq	-24(%rbp), %rcx
	movl	%eax, 60(%rcx)
	movq	-24(%rbp), %rax
	movl	60(%rax), %eax
	andl	$255, %eax
	movb	%al, -9(%rbp)
	movq	-24(%rbp), %rax
	movl	60(%rax), %ecx
	shrl	$8, %ecx
	movl	%ecx, 60(%rax)
	movq	-24(%rbp), %rax
	cmpl	$0, 24(%rax)
	jne	.LBB65_35
# %bb.32:                               # %if.then156
                                        #   in Loop: Header=BB65_2 Depth=1
	movq	-24(%rbp), %rax
	movslq	28(%rax), %rax
	movl	BZ2_rNums(,%rax,4), %eax
	movq	-24(%rbp), %rcx
	movl	%eax, 24(%rcx)
	movq	-24(%rbp), %rax
	movl	28(%rax), %ecx
	addl	$1, %ecx
	movl	%ecx, 28(%rax)
	movq	-24(%rbp), %rax
	cmpl	$512, 28(%rax)          # imm = 0x200
	jne	.LBB65_34
# %bb.33:                               # %if.then166
                                        #   in Loop: Header=BB65_2 Depth=1
	movq	-24(%rbp), %rax
	movl	$0, 28(%rax)
.LBB65_34:                              # %if.end168
                                        #   in Loop: Header=BB65_2 Depth=1
	jmp	.LBB65_35
.LBB65_35:                              # %if.end169
                                        #   in Loop: Header=BB65_2 Depth=1
	xorl	%eax, %eax
	movq	-24(%rbp), %rcx
	movl	24(%rcx), %edx
	addl	$-1, %edx
	movl	%edx, 24(%rcx)
	movq	-24(%rbp), %rcx
	movl	24(%rcx), %ecx
	cmpl	$1, %ecx
	movl	$1, %ecx
	cmovel	%ecx, %eax
	movzbl	-9(%rbp), %ecx
	xorl	%eax, %ecx
	movb	%cl, -9(%rbp)
	movq	-24(%rbp), %rax
	movl	1092(%rax), %ecx
	addl	$1, %ecx
	movl	%ecx, 1092(%rax)
	movq	-24(%rbp), %rax
	movl	1092(%rax), %eax
	movq	-24(%rbp), %rcx
	movl	64080(%rcx), %ecx
	addl	$1, %ecx
	cmpl	%ecx, %eax
	jne	.LBB65_37
# %bb.36:                               # %if.then186
                                        #   in Loop: Header=BB65_2 Depth=1
	jmp	.LBB65_20
.LBB65_37:                              # %if.end187
                                        #   in Loop: Header=BB65_2 Depth=1
	movzbl	-9(%rbp), %eax
	movq	-24(%rbp), %rcx
	cmpl	64(%rcx), %eax
	je	.LBB65_39
# %bb.38:                               # %if.then192
                                        #   in Loop: Header=BB65_2 Depth=1
	movzbl	-9(%rbp), %eax
	movq	-24(%rbp), %rcx
	movl	%eax, 64(%rcx)
	jmp	.LBB65_20
.LBB65_39:                              # %if.end195
                                        #   in Loop: Header=BB65_2 Depth=1
	movq	-24(%rbp), %rax
	movq	3152(%rax), %rax
	movq	-24(%rbp), %rcx
	movl	60(%rcx), %ecx
	movl	(%rax,%rcx,4), %eax
	movq	-24(%rbp), %rcx
	movl	%eax, 60(%rcx)
	movq	-24(%rbp), %rax
	movl	60(%rax), %eax
	andl	$255, %eax
	movb	%al, -9(%rbp)
	movq	-24(%rbp), %rax
	movl	60(%rax), %ecx
	shrl	$8, %ecx
	movl	%ecx, 60(%rax)
	movq	-24(%rbp), %rax
	cmpl	$0, 24(%rax)
	jne	.LBB65_43
# %bb.40:                               # %if.then209
                                        #   in Loop: Header=BB65_2 Depth=1
	movq	-24(%rbp), %rax
	movslq	28(%rax), %rax
	movl	BZ2_rNums(,%rax,4), %eax
	movq	-24(%rbp), %rcx
	movl	%eax, 24(%rcx)
	movq	-24(%rbp), %rax
	movl	28(%rax), %ecx
	addl	$1, %ecx
	movl	%ecx, 28(%rax)
	movq	-24(%rbp), %rax
	cmpl	$512, 28(%rax)          # imm = 0x200
	jne	.LBB65_42
# %bb.41:                               # %if.then219
                                        #   in Loop: Header=BB65_2 Depth=1
	movq	-24(%rbp), %rax
	movl	$0, 28(%rax)
.LBB65_42:                              # %if.end221
                                        #   in Loop: Header=BB65_2 Depth=1
	jmp	.LBB65_43
.LBB65_43:                              # %if.end222
                                        #   in Loop: Header=BB65_2 Depth=1
	xorl	%eax, %eax
	movq	-24(%rbp), %rcx
	movl	24(%rcx), %edx
	addl	$-1, %edx
	movl	%edx, 24(%rcx)
	movq	-24(%rbp), %rcx
	movl	24(%rcx), %ecx
	cmpl	$1, %ecx
	movl	$1, %ecx
	cmovel	%ecx, %eax
	movzbl	-9(%rbp), %ecx
	xorl	%eax, %ecx
	movb	%cl, -9(%rbp)
	movq	-24(%rbp), %rax
	movl	1092(%rax), %ecx
	addl	$1, %ecx
	movl	%ecx, 1092(%rax)
	movzbl	-9(%rbp), %eax
	addl	$4, %eax
	movq	-24(%rbp), %rcx
	movl	%eax, 16(%rcx)
	movq	-24(%rbp), %rax
	movq	3152(%rax), %rax
	movq	-24(%rbp), %rcx
	movl	60(%rcx), %ecx
	movl	(%rax,%rcx,4), %eax
	movq	-24(%rbp), %rcx
	movl	%eax, 60(%rcx)
	movq	-24(%rbp), %rax
	movl	60(%rax), %eax
	andl	$255, %eax
	movzbl	%al, %eax
	movq	-24(%rbp), %rcx
	movl	%eax, 64(%rcx)
	movq	-24(%rbp), %rax
	movl	60(%rax), %ecx
	shrl	$8, %ecx
	movl	%ecx, 60(%rax)
	movq	-24(%rbp), %rax
	cmpl	$0, 24(%rax)
	jne	.LBB65_47
# %bb.44:                               # %if.then252
                                        #   in Loop: Header=BB65_2 Depth=1
	movq	-24(%rbp), %rax
	movslq	28(%rax), %rax
	movl	BZ2_rNums(,%rax,4), %eax
	movq	-24(%rbp), %rcx
	movl	%eax, 24(%rcx)
	movq	-24(%rbp), %rax
	movl	28(%rax), %ecx
	addl	$1, %ecx
	movl	%ecx, 28(%rax)
	movq	-24(%rbp), %rax
	cmpl	$512, 28(%rax)          # imm = 0x200
	jne	.LBB65_46
# %bb.45:                               # %if.then262
                                        #   in Loop: Header=BB65_2 Depth=1
	movq	-24(%rbp), %rax
	movl	$0, 28(%rax)
.LBB65_46:                              # %if.end264
                                        #   in Loop: Header=BB65_2 Depth=1
	jmp	.LBB65_47
.LBB65_47:                              # %if.end265
                                        #   in Loop: Header=BB65_2 Depth=1
	xorl	%eax, %eax
	movq	-24(%rbp), %rcx
	movl	24(%rcx), %edx
	addl	$-1, %edx
	movl	%edx, 24(%rcx)
	movq	-24(%rbp), %rcx
	movl	24(%rcx), %ecx
	cmpl	$1, %ecx
	movl	$1, %ecx
	cmovel	%ecx, %eax
	movq	-24(%rbp), %rcx
	xorl	64(%rcx), %eax
	movl	%eax, 64(%rcx)
	movq	-24(%rbp), %rax
	movl	1092(%rax), %ecx
	addl	$1, %ecx
	movl	%ecx, 1092(%rax)
	jmp	.LBB65_20
.LBB65_48:                              # %if.else
	movq	-24(%rbp), %rax
	movl	3184(%rax), %eax
	movl	%eax, -56(%rbp)
	movq	-24(%rbp), %rax
	movb	12(%rax), %al
	movb	%al, -25(%rbp)
	movq	-24(%rbp), %rax
	movl	16(%rax), %eax
	movl	%eax, -44(%rbp)
	movq	-24(%rbp), %rax
	movl	1092(%rax), %eax
	movl	%eax, -40(%rbp)
	movq	-24(%rbp), %rax
	movl	64(%rax), %eax
	movl	%eax, -48(%rbp)
	movq	-24(%rbp), %rax
	movq	3152(%rax), %rax
	movq	%rax, -80(%rbp)
	movq	-24(%rbp), %rax
	movl	60(%rax), %eax
	movl	%eax, -32(%rbp)
	movq	-24(%rbp), %rax
	movq	(%rax), %rax
	movq	24(%rax), %rax
	movq	%rax, -72(%rbp)
	movq	-24(%rbp), %rax
	movq	(%rax), %rax
	movl	32(%rax), %eax
	movl	%eax, -52(%rbp)
	movl	-52(%rbp), %eax
	movl	%eax, -92(%rbp)
	movq	-24(%rbp), %rax
	movl	64080(%rax), %eax
	addl	$1, %eax
	movl	%eax, -60(%rbp)
.LBB65_49:                              # %while.body289
                                        # =>This Loop Header: Depth=1
                                        #     Child Loop BB65_51 Depth 2
	cmpl	$0, -44(%rbp)
	jle	.LBB65_60
# %bb.50:                               # %if.then292
                                        #   in Loop: Header=BB65_49 Depth=1
	jmp	.LBB65_51
.LBB65_51:                              # %while.body294
                                        #   Parent Loop BB65_49 Depth=1
                                        # =>  This Inner Loop Header: Depth=2
	cmpl	$0, -52(%rbp)
	jne	.LBB65_53
# %bb.52:                               # %if.then297
	jmp	.LBB65_78
.LBB65_53:                              # %if.end298
                                        #   in Loop: Header=BB65_51 Depth=2
	cmpl	$1, -44(%rbp)
	jne	.LBB65_55
# %bb.54:                               # %if.then301
                                        #   in Loop: Header=BB65_49 Depth=1
	jmp	.LBB65_56
.LBB65_55:                              # %if.end302
                                        #   in Loop: Header=BB65_51 Depth=2
	movb	-25(%rbp), %al
	movq	-72(%rbp), %rcx
	movb	%al, (%rcx)
	movl	-56(%rbp), %eax
	shll	$8, %eax
	movl	-56(%rbp), %ecx
	shrl	$24, %ecx
	movzbl	-25(%rbp), %edx
	xorl	%edx, %ecx
	movl	%ecx, %ecx
	xorl	BZ2_crc32Table(,%rcx,4), %eax
	movl	%eax, -56(%rbp)
	movl	-44(%rbp), %eax
	addl	$-1, %eax
	movl	%eax, -44(%rbp)
	movq	-72(%rbp), %rax
	addq	$1, %rax
	movq	%rax, -72(%rbp)
	movl	-52(%rbp), %eax
	addl	$-1, %eax
	movl	%eax, -52(%rbp)
	jmp	.LBB65_51
.LBB65_56:                              # %while.end313
                                        #   in Loop: Header=BB65_49 Depth=1
	jmp	.LBB65_57
.LBB65_57:                              # %s_state_out_len_eq_one
                                        #   in Loop: Header=BB65_49 Depth=1
	cmpl	$0, -52(%rbp)
	jne	.LBB65_59
# %bb.58:                               # %if.then316
	movl	$1, -44(%rbp)
	jmp	.LBB65_78
.LBB65_59:                              # %if.end317
                                        #   in Loop: Header=BB65_49 Depth=1
	movb	-25(%rbp), %al
	movq	-72(%rbp), %rcx
	movb	%al, (%rcx)
	movl	-56(%rbp), %eax
	shll	$8, %eax
	movl	-56(%rbp), %ecx
	shrl	$24, %ecx
	movzbl	-25(%rbp), %edx
	xorl	%edx, %ecx
	movl	%ecx, %ecx
	xorl	BZ2_crc32Table(,%rcx,4), %eax
	movl	%eax, -56(%rbp)
	movq	-72(%rbp), %rax
	addq	$1, %rax
	movq	%rax, -72(%rbp)
	movl	-52(%rbp), %eax
	addl	$-1, %eax
	movl	%eax, -52(%rbp)
.LBB65_60:                              # %if.end327
                                        #   in Loop: Header=BB65_49 Depth=1
	movl	-40(%rbp), %eax
	cmpl	-60(%rbp), %eax
	jle	.LBB65_62
# %bb.61:                               # %if.then330
	movb	$1, -33(%rbp)
	jmp	.LBB65_82
.LBB65_62:                              # %if.end331
                                        #   in Loop: Header=BB65_49 Depth=1
	movl	-40(%rbp), %eax
	cmpl	-60(%rbp), %eax
	jne	.LBB65_64
# %bb.63:                               # %if.then334
	movl	$0, -44(%rbp)
	jmp	.LBB65_78
.LBB65_64:                              # %if.end335
                                        #   in Loop: Header=BB65_49 Depth=1
	movl	-48(%rbp), %eax
	movb	%al, -25(%rbp)
	movq	-80(%rbp), %rax
	movl	-32(%rbp), %ecx
	movl	(%rax,%rcx,4), %eax
	movl	%eax, -32(%rbp)
	movl	-32(%rbp), %eax
	andl	$255, %eax
	movb	%al, -9(%rbp)
	movl	-32(%rbp), %eax
	shrl	$8, %eax
	movl	%eax, -32(%rbp)
	movl	-40(%rbp), %eax
	addl	$1, %eax
	movl	%eax, -40(%rbp)
	movzbl	-9(%rbp), %eax
	cmpl	-48(%rbp), %eax
	je	.LBB65_66
# %bb.65:                               # %if.then346
                                        #   in Loop: Header=BB65_49 Depth=1
	movzbl	-9(%rbp), %eax
	movl	%eax, -48(%rbp)
	jmp	.LBB65_57
.LBB65_66:                              # %if.end348
                                        #   in Loop: Header=BB65_49 Depth=1
	movl	-40(%rbp), %eax
	cmpl	-60(%rbp), %eax
	jne	.LBB65_68
# %bb.67:                               # %if.then351
                                        #   in Loop: Header=BB65_49 Depth=1
	jmp	.LBB65_57
.LBB65_68:                              # %if.end352
                                        #   in Loop: Header=BB65_49 Depth=1
	movl	$2, -44(%rbp)
	movq	-80(%rbp), %rax
	movl	-32(%rbp), %ecx
	movl	(%rax,%rcx,4), %eax
	movl	%eax, -32(%rbp)
	movl	-32(%rbp), %eax
	andl	$255, %eax
	movb	%al, -9(%rbp)
	movl	-32(%rbp), %eax
	shrl	$8, %eax
	movl	%eax, -32(%rbp)
	movl	-40(%rbp), %eax
	addl	$1, %eax
	movl	%eax, -40(%rbp)
	movl	-40(%rbp), %eax
	cmpl	-60(%rbp), %eax
	jne	.LBB65_71
# %bb.69:                               # %if.then361
                                        #   in Loop: Header=BB65_49 Depth=1
	jmp	.LBB65_70
.LBB65_70:                              # %while.body289.backedge
                                        #   in Loop: Header=BB65_49 Depth=1
	jmp	.LBB65_49
.LBB65_71:                              # %if.end362
                                        #   in Loop: Header=BB65_49 Depth=1
	movzbl	-9(%rbp), %eax
	cmpl	-48(%rbp), %eax
	je	.LBB65_73
# %bb.72:                               # %if.then366
                                        #   in Loop: Header=BB65_49 Depth=1
	movzbl	-9(%rbp), %eax
	movl	%eax, -48(%rbp)
	jmp	.LBB65_70
.LBB65_73:                              # %if.end368
                                        #   in Loop: Header=BB65_49 Depth=1
	movl	$3, -44(%rbp)
	movq	-80(%rbp), %rax
	movl	-32(%rbp), %ecx
	movl	(%rax,%rcx,4), %eax
	movl	%eax, -32(%rbp)
	movl	-32(%rbp), %eax
	andl	$255, %eax
	movb	%al, -9(%rbp)
	movl	-32(%rbp), %eax
	shrl	$8, %eax
	movl	%eax, -32(%rbp)
	movl	-40(%rbp), %eax
	addl	$1, %eax
	movl	%eax, -40(%rbp)
	movl	-40(%rbp), %eax
	cmpl	-60(%rbp), %eax
	jne	.LBB65_75
# %bb.74:                               # %if.then377
                                        #   in Loop: Header=BB65_49 Depth=1
	jmp	.LBB65_70
.LBB65_75:                              # %if.end378
                                        #   in Loop: Header=BB65_49 Depth=1
	movzbl	-9(%rbp), %eax
	cmpl	-48(%rbp), %eax
	je	.LBB65_77
# %bb.76:                               # %if.then382
                                        #   in Loop: Header=BB65_49 Depth=1
	movzbl	-9(%rbp), %eax
	movl	%eax, -48(%rbp)
	jmp	.LBB65_70
.LBB65_77:                              # %if.end384
                                        #   in Loop: Header=BB65_49 Depth=1
	movq	-80(%rbp), %rax
	movl	-32(%rbp), %ecx
	movl	(%rax,%rcx,4), %eax
	movl	%eax, -32(%rbp)
	movl	-32(%rbp), %eax
	andl	$255, %eax
	movb	%al, -9(%rbp)
	movl	-32(%rbp), %eax
	shrl	$8, %eax
	movl	%eax, -32(%rbp)
	movl	-40(%rbp), %eax
	addl	$1, %eax
	movl	%eax, -40(%rbp)
	movzbl	-9(%rbp), %eax
	addl	$4, %eax
	movl	%eax, -44(%rbp)
	movq	-80(%rbp), %rax
	movl	-32(%rbp), %ecx
	movl	(%rax,%rcx,4), %eax
	movl	%eax, -32(%rbp)
	movl	-32(%rbp), %eax
	andl	$255, %eax
	movzbl	%al, %eax
	movl	%eax, -48(%rbp)
	movl	-32(%rbp), %eax
	shrl	$8, %eax
	movl	%eax, -32(%rbp)
	movl	-40(%rbp), %eax
	addl	$1, %eax
	movl	%eax, -40(%rbp)
	jmp	.LBB65_70
.LBB65_78:                              # %return_notr
	movq	-24(%rbp), %rax
	movq	(%rax), %rax
	movl	36(%rax), %eax
	movl	%eax, -84(%rbp)
	movl	-92(%rbp), %eax
	subl	-52(%rbp), %eax
	movq	-24(%rbp), %rcx
	movq	(%rcx), %rcx
	addl	36(%rcx), %eax
	movl	%eax, 36(%rcx)
	movq	-24(%rbp), %rax
	movq	(%rax), %rax
	movl	36(%rax), %eax
	cmpl	-84(%rbp), %eax
	jae	.LBB65_80
# %bb.79:                               # %if.then409
	movq	-24(%rbp), %rax
	movq	(%rax), %rax
	movl	40(%rax), %ecx
	addl	$1, %ecx
	movl	%ecx, 40(%rax)
.LBB65_80:                              # %if.end413
	movl	-56(%rbp), %eax
	movq	-24(%rbp), %rcx
	movl	%eax, 3184(%rcx)
	movb	-25(%rbp), %al
	movq	-24(%rbp), %rcx
	movb	%al, 12(%rcx)
	movl	-44(%rbp), %eax
	movq	-24(%rbp), %rcx
	movl	%eax, 16(%rcx)
	movl	-40(%rbp), %eax
	movq	-24(%rbp), %rcx
	movl	%eax, 1092(%rcx)
	movl	-48(%rbp), %eax
	movq	-24(%rbp), %rcx
	movl	%eax, 64(%rcx)
	movq	-80(%rbp), %rax
	movq	-24(%rbp), %rcx
	movq	%rax, 3152(%rcx)
	movl	-32(%rbp), %eax
	movq	-24(%rbp), %rcx
	movl	%eax, 60(%rcx)
	movq	-72(%rbp), %rax
	movq	-24(%rbp), %rcx
	movq	(%rcx), %rcx
	movq	%rax, 24(%rcx)
	movl	-52(%rbp), %eax
	movq	-24(%rbp), %rcx
	movq	(%rcx), %rcx
	movl	%eax, 32(%rcx)
# %bb.81:                               # %if.end425
	movb	$0, -33(%rbp)
.LBB65_82:                              # %return
	movb	-33(%rbp), %bl
	cmpl	$940987032, -88(%rbp)   # imm = 0x38165298
	jne	.LBB65_84
.LBB65_83:
	movzbl	%bl, %eax
	addq	$88, %rsp
	popq	%rbx
	popq	%rbp
	.cfi_def_cfa %rsp, 8
	retq
.LBB65_84:                              # %func_exit
	.cfi_def_cfa %rbp, 16
	callq	detect_breach
	jmp	.LBB65_83
.Lfunc_end65:
	.size	unRLE_obuf_to_output_FAST.25, .Lfunc_end65-unRLE_obuf_to_output_FAST.25
	.cfi_endproc
                                        # -- End function
	.globl	BZ2_bzBuffToBuffCompress.26 # -- Begin function BZ2_bzBuffToBuffCompress.26
	.p2align	4, 0x90
	.type	BZ2_bzBuffToBuffCompress.26,@function
BZ2_bzBuffToBuffCompress.26:            # @BZ2_bzBuffToBuffCompress.26
	.cfi_startproc
# %bb.0:                                # %entry
	pushq	%rbp
	.cfi_def_cfa_offset 16
	.cfi_offset %rbp, -16
	movq	%rsp, %rbp
	.cfi_def_cfa_register %rbp
	pushq	%rbx
	subq	$136, %rsp
	.cfi_offset %rbx, -24
	movl	16(%rbp), %eax
	movl	$364056064, -40(%rbp)   # imm = 0x15B30E00
	movq	%rdi, -48(%rbp)
	movq	%rsi, -32(%rbp)
	movq	%rdx, -56(%rbp)
	movl	%ecx, -36(%rbp)
	movl	%r8d, -20(%rbp)
	movl	%r9d, -24(%rbp)
	cmpq	$0, -48(%rbp)
	je	.LBB66_9
# %bb.1:                                # %lor.lhs.false
	cmpq	$0, -32(%rbp)
	je	.LBB66_9
# %bb.2:                                # %lor.lhs.false2
	cmpq	$0, -56(%rbp)
	je	.LBB66_9
# %bb.3:                                # %lor.lhs.false4
	cmpl	$1, -20(%rbp)
	jl	.LBB66_9
# %bb.4:                                # %lor.lhs.false6
	cmpl	$9, -20(%rbp)
	jg	.LBB66_9
# %bb.5:                                # %lor.lhs.false8
	cmpl	$0, -24(%rbp)
	jl	.LBB66_9
# %bb.6:                                # %lor.lhs.false10
	cmpl	$4, -24(%rbp)
	jg	.LBB66_9
# %bb.7:                                # %lor.lhs.false12
	cmpl	$0, 16(%rbp)
	jl	.LBB66_9
# %bb.8:                                # %lor.lhs.false14
	cmpl	$250, 16(%rbp)
	jle	.LBB66_10
.LBB66_9:                               # %if.then
	movl	$-2, -16(%rbp)
	jmp	.LBB66_21
.LBB66_10:                              # %if.end
	cmpl	$0, 16(%rbp)
	jne	.LBB66_12
# %bb.11:                               # %if.then17
	movl	$30, 16(%rbp)
.LBB66_12:                              # %if.end18
	movq	$0, -80(%rbp)
	movq	$0, -72(%rbp)
	movq	$0, -64(%rbp)
	movl	-20(%rbp), %esi
	movl	-24(%rbp), %edx
	movl	16(%rbp), %ecx
	leaq	-136(%rbp), %rdi
	callq	BZ2_bzCompressInit
	movl	%eax, -12(%rbp)
	cmpl	$0, -12(%rbp)
	je	.LBB66_14
# %bb.13:                               # %if.then20
	movl	-12(%rbp), %eax
	movl	%eax, -16(%rbp)
	jmp	.LBB66_21
.LBB66_14:                              # %if.end21
	movq	-56(%rbp), %rax
	movq	%rax, -136(%rbp)
	movq	-48(%rbp), %rax
	movq	%rax, -112(%rbp)
	movl	-36(%rbp), %eax
	movl	%eax, -128(%rbp)
	movq	-32(%rbp), %rax
	movl	(%rax), %eax
	movl	%eax, -104(%rbp)
	leaq	-136(%rbp), %rdi
	movl	$2, %esi
	callq	BZ2_bzCompress
	movl	%eax, -12(%rbp)
	cmpl	$3, -12(%rbp)
	jne	.LBB66_16
# %bb.15:                               # %if.then24
	jmp	.LBB66_19
.LBB66_16:                              # %if.end25
	cmpl	$4, -12(%rbp)
	je	.LBB66_18
# %bb.17:                               # %if.then27
	jmp	.LBB66_20
.LBB66_18:                              # %if.end28
	movl	-104(%rbp), %eax
	movq	-32(%rbp), %rcx
	movl	(%rcx), %edx
	subl	%eax, %edx
	movl	%edx, (%rcx)
	leaq	-136(%rbp), %rdi
	callq	BZ2_bzCompressEnd
	movl	$0, -16(%rbp)
	jmp	.LBB66_21
.LBB66_19:                              # %output_overflow
	leaq	-136(%rbp), %rdi
	callq	BZ2_bzCompressEnd
	movl	$-8, -16(%rbp)
	jmp	.LBB66_21
.LBB66_20:                              # %errhandler
	leaq	-136(%rbp), %rdi
	callq	BZ2_bzCompressEnd
	movl	-12(%rbp), %eax
	movl	%eax, -16(%rbp)
.LBB66_21:                              # %return
	movl	-16(%rbp), %ebx
	cmpl	$364056064, -40(%rbp)   # imm = 0x15B30E00
	jne	.LBB66_23
.LBB66_22:
	movl	%ebx, %eax
	addq	$136, %rsp
	popq	%rbx
	popq	%rbp
	.cfi_def_cfa %rsp, 8
	retq
.LBB66_23:                              # %func_exit
	.cfi_def_cfa %rbp, 16
	callq	detect_breach
	jmp	.LBB66_22
.Lfunc_end66:
	.size	BZ2_bzBuffToBuffCompress.26, .Lfunc_end66-BZ2_bzBuffToBuffCompress.26
	.cfi_endproc
                                        # -- End function
	.p2align	4, 0x90         # -- Begin function handle_compress.27
	.type	handle_compress.27,@function
handle_compress.27:                     # @handle_compress.27
	.cfi_startproc
# %bb.0:                                # %entry
	pushq	%rbp
	.cfi_def_cfa_offset 16
	.cfi_offset %rbp, -16
	movq	%rsp, %rbp
	.cfi_def_cfa_register %rbp
	pushq	%rbx
	subq	$40, %rsp
	.cfi_offset %rbx, -24
	movl	$313688643, -28(%rbp)   # imm = 0x12B28243
	movq	%rdi, -40(%rbp)
	movb	$0, -9(%rbp)
	movb	$0, -10(%rbp)
	movq	-40(%rbp), %rax
	movq	48(%rax), %rax
	movq	%rax, -24(%rbp)
.LBB67_1:                               # %while.body
                                        # =>This Inner Loop Header: Depth=1
	movq	-24(%rbp), %rax
	cmpl	$1, 12(%rax)
	jne	.LBB67_13
# %bb.2:                                # %if.then
                                        #   in Loop: Header=BB67_1 Depth=1
	movq	-24(%rbp), %rdi
	callq	copy_output_until_stop
	movzbl	%al, %eax
	movzbl	-10(%rbp), %ecx
	orl	%eax, %ecx
	movb	%cl, -10(%rbp)
	movq	-24(%rbp), %rax
	movl	120(%rax), %eax
	movq	-24(%rbp), %rcx
	cmpl	116(%rcx), %eax
	jge	.LBB67_4
# %bb.3:                                # %if.then6
	jmp	.LBB67_25
.LBB67_4:                               # %if.end
                                        #   in Loop: Header=BB67_1 Depth=1
	movq	-24(%rbp), %rax
	cmpl	$4, 8(%rax)
	jne	.LBB67_8
# %bb.5:                                # %land.lhs.true
                                        #   in Loop: Header=BB67_1 Depth=1
	movq	-24(%rbp), %rax
	cmpl	$0, 16(%rax)
	jne	.LBB67_8
# %bb.6:                                # %land.lhs.true11
                                        #   in Loop: Header=BB67_1 Depth=1
	movq	-24(%rbp), %rdi
	callq	isempty_RL
	movzbl	%al, %eax
	cmpl	$0, %eax
	je	.LBB67_8
# %bb.7:                                # %if.then14
	jmp	.LBB67_25
.LBB67_8:                               # %if.end15
                                        #   in Loop: Header=BB67_1 Depth=1
	movq	-24(%rbp), %rdi
	callq	prepare_new_block
	movq	-24(%rbp), %rax
	movl	$2, 12(%rax)
	movq	-24(%rbp), %rax
	cmpl	$3, 8(%rax)
	jne	.LBB67_12
# %bb.9:                                # %land.lhs.true20
                                        #   in Loop: Header=BB67_1 Depth=1
	movq	-24(%rbp), %rax
	cmpl	$0, 16(%rax)
	jne	.LBB67_12
# %bb.10:                               # %land.lhs.true24
                                        #   in Loop: Header=BB67_1 Depth=1
	movq	-24(%rbp), %rdi
	callq	isempty_RL
	movzbl	%al, %eax
	cmpl	$0, %eax
	je	.LBB67_12
# %bb.11:                               # %if.then28
	jmp	.LBB67_25
.LBB67_12:                              # %if.end29
                                        #   in Loop: Header=BB67_1 Depth=1
	jmp	.LBB67_13
.LBB67_13:                              # %if.end30
                                        #   in Loop: Header=BB67_1 Depth=1
	movq	-24(%rbp), %rax
	cmpl	$2, 12(%rax)
	jne	.LBB67_24
# %bb.14:                               # %if.then34
                                        #   in Loop: Header=BB67_1 Depth=1
	movq	-24(%rbp), %rdi
	callq	copy_input_until_stop
	movzbl	%al, %eax
	movzbl	-9(%rbp), %ecx
	orl	%eax, %ecx
	movb	%cl, -9(%rbp)
	movq	-24(%rbp), %rax
	cmpl	$2, 8(%rax)
	je	.LBB67_17
# %bb.15:                               # %land.lhs.true43
                                        #   in Loop: Header=BB67_1 Depth=1
	movq	-24(%rbp), %rax
	cmpl	$0, 16(%rax)
	jne	.LBB67_17
# %bb.16:                               # %if.then47
                                        #   in Loop: Header=BB67_1 Depth=1
	movq	-24(%rbp), %rdi
	callq	flush_RL
	movq	-24(%rbp), %rdi
	movq	-24(%rbp), %rax
	cmpl	$4, 8(%rax)
	sete	%al
	andb	$1, %al
	movzbl	%al, %eax
	movzbl	%al, %esi
	callq	BZ2_compressBlock
	movq	-24(%rbp), %rax
	movl	$1, 12(%rax)
	jmp	.LBB67_23
.LBB67_17:                              # %if.else
                                        #   in Loop: Header=BB67_1 Depth=1
	movq	-24(%rbp), %rax
	movl	108(%rax), %eax
	movq	-24(%rbp), %rcx
	cmpl	112(%rcx), %eax
	jl	.LBB67_19
# %bb.18:                               # %if.then55
                                        #   in Loop: Header=BB67_1 Depth=1
	movq	-24(%rbp), %rdi
	xorl	%esi, %esi
	callq	BZ2_compressBlock
	movq	-24(%rbp), %rax
	movl	$1, 12(%rax)
	jmp	.LBB67_22
.LBB67_19:                              # %if.else57
                                        #   in Loop: Header=BB67_1 Depth=1
	movq	-24(%rbp), %rax
	movq	(%rax), %rax
	cmpl	$0, 8(%rax)
	jne	.LBB67_21
# %bb.20:                               # %if.then61
	jmp	.LBB67_25
.LBB67_21:                              # %if.end62
                                        #   in Loop: Header=BB67_1 Depth=1
	jmp	.LBB67_22
.LBB67_22:                              # %if.end63
                                        #   in Loop: Header=BB67_1 Depth=1
	jmp	.LBB67_23
.LBB67_23:                              # %if.end64
                                        #   in Loop: Header=BB67_1 Depth=1
	jmp	.LBB67_24
.LBB67_24:                              # %if.end65
                                        #   in Loop: Header=BB67_1 Depth=1
	jmp	.LBB67_1
.LBB67_25:                              # %while.end
	movzbl	-9(%rbp), %eax
	cmpl	$0, %eax
	movb	$1, %al
	jne	.LBB67_27
# %bb.26:                               # %lor.rhs
	movzbl	-10(%rbp), %eax
	cmpl	$0, %eax
	setne	%al
.LBB67_27:                              # %lor.end
	andb	$1, %al
	movzbl	%al, %ebx
	cmpl	$313688643, -28(%rbp)   # imm = 0x12B28243
	jne	.LBB67_29
.LBB67_28:
	movzbl	%bl, %eax
	addq	$40, %rsp
	popq	%rbx
	popq	%rbp
	.cfi_def_cfa %rsp, 8
	retq
.LBB67_29:                              # %func_exit
	.cfi_def_cfa %rbp, 16
	callq	detect_breach
	jmp	.LBB67_28
.Lfunc_end67:
	.size	handle_compress.27, .Lfunc_end67-handle_compress.27
	.cfi_endproc
                                        # -- End function
	.globl	BZ2_bzdopen.28          # -- Begin function BZ2_bzdopen.28
	.p2align	4, 0x90
	.type	BZ2_bzdopen.28,@function
BZ2_bzdopen.28:                         # @BZ2_bzdopen.28
	.cfi_startproc
# %bb.0:                                # %entry
	pushq	%rbp
	.cfi_def_cfa_offset 16
	.cfi_offset %rbp, -16
	movq	%rsp, %rbp
	.cfi_def_cfa_register %rbp
	pushq	%rbx
	subq	$24, %rsp
	.cfi_offset %rbx, -24
	movl	$724093465, -16(%rbp)   # imm = 0x2B28CA19
	movl	%edi, -12(%rbp)
	movq	%rsi, -24(%rbp)
	movl	-12(%rbp), %esi
	movq	-24(%rbp), %rdx
	xorl	%edi, %edi
	movl	$1, %ecx
	callq	bzopen_or_bzdopen
	movq	%rax, %rbx
	cmpl	$724093465, -16(%rbp)   # imm = 0x2B28CA19
	jne	.LBB68_2
.LBB68_1:
	movq	%rbx, %rax
	addq	$24, %rsp
	popq	%rbx
	popq	%rbp
	.cfi_def_cfa %rsp, 8
	retq
.LBB68_2:                               # %func_exit
	.cfi_def_cfa %rbp, 16
	callq	detect_breach
	jmp	.LBB68_1
.Lfunc_end68:
	.size	BZ2_bzdopen.28, .Lfunc_end68-BZ2_bzdopen.28
	.cfi_endproc
                                        # -- End function
	.globl	BZ2_bzWrite.29          # -- Begin function BZ2_bzWrite.29
	.p2align	4, 0x90
	.type	BZ2_bzWrite.29,@function
BZ2_bzWrite.29:                         # @BZ2_bzWrite.29
	.cfi_startproc
# %bb.0:                                # %entry
	pushq	%rbp
	.cfi_def_cfa_offset 16
	.cfi_offset %rbp, -16
	movq	%rsp, %rbp
	.cfi_def_cfa_register %rbp
	subq	$64, %rsp
	movl	$1949467208, -36(%rbp)  # imm = 0x74328248
	movq	%rdi, -16(%rbp)
	movq	%rsi, -56(%rbp)
	movq	%rdx, -48(%rbp)
	movl	%ecx, -20(%rbp)
	movq	-56(%rbp), %rax
	movq	%rax, -8(%rbp)
	cmpq	$0, -16(%rbp)
	je	.LBB69_2
# %bb.1:                                # %if.then
	movq	-16(%rbp), %rax
	movl	$0, (%rax)
.LBB69_2:                               # %if.end
	cmpq	$0, -8(%rbp)
	je	.LBB69_4
# %bb.3:                                # %if.then2
	movq	-8(%rbp), %rax
	movl	$0, 5096(%rax)
.LBB69_4:                               # %if.end3
	cmpq	$0, -8(%rbp)
	je	.LBB69_7
# %bb.5:                                # %lor.lhs.false
	cmpq	$0, -48(%rbp)
	je	.LBB69_7
# %bb.6:                                # %lor.lhs.false6
	cmpl	$0, -20(%rbp)
	jge	.LBB69_12
.LBB69_7:                               # %if.then8
	cmpq	$0, -16(%rbp)
	je	.LBB69_9
# %bb.8:                                # %if.then10
	movq	-16(%rbp), %rax
	movl	$-2, (%rax)
.LBB69_9:                               # %if.end11
	cmpq	$0, -8(%rbp)
	je	.LBB69_11
# %bb.10:                               # %if.then13
	movq	-8(%rbp), %rax
	movl	$-2, 5096(%rax)
.LBB69_11:                              # %if.end15
	jmp	.LBB69_53
.LBB69_12:                              # %if.end16
	movq	-8(%rbp), %rax
	cmpb	$0, 5012(%rax)
	jne	.LBB69_18
# %bb.13:                               # %if.then17
	cmpq	$0, -16(%rbp)
	je	.LBB69_15
# %bb.14:                               # %if.then19
	movq	-16(%rbp), %rax
	movl	$-1, (%rax)
.LBB69_15:                              # %if.end20
	cmpq	$0, -8(%rbp)
	je	.LBB69_17
# %bb.16:                               # %if.then22
	movq	-8(%rbp), %rax
	movl	$-1, 5096(%rax)
.LBB69_17:                              # %if.end24
	jmp	.LBB69_53
.LBB69_18:                              # %if.end25
	movq	-8(%rbp), %rax
	movq	(%rax), %rdi
	callq	ferror
	cmpl	$0, %eax
	je	.LBB69_24
# %bb.19:                               # %if.then27
	cmpq	$0, -16(%rbp)
	je	.LBB69_21
# %bb.20:                               # %if.then29
	movq	-16(%rbp), %rax
	movl	$-6, (%rax)
.LBB69_21:                              # %if.end30
	cmpq	$0, -8(%rbp)
	je	.LBB69_23
# %bb.22:                               # %if.then32
	movq	-8(%rbp), %rax
	movl	$-6, 5096(%rax)
.LBB69_23:                              # %if.end34
	jmp	.LBB69_53
.LBB69_24:                              # %if.end35
	cmpl	$0, -20(%rbp)
	jne	.LBB69_30
# %bb.25:                               # %if.then37
	cmpq	$0, -16(%rbp)
	je	.LBB69_27
# %bb.26:                               # %if.then39
	movq	-16(%rbp), %rax
	movl	$0, (%rax)
.LBB69_27:                              # %if.end40
	cmpq	$0, -8(%rbp)
	je	.LBB69_29
# %bb.28:                               # %if.then42
	movq	-8(%rbp), %rax
	movl	$0, 5096(%rax)
.LBB69_29:                              # %if.end44
	jmp	.LBB69_53
.LBB69_30:                              # %if.end45
	movl	-20(%rbp), %eax
	movq	-8(%rbp), %rcx
	movl	%eax, 5024(%rcx)
	movq	-48(%rbp), %rax
	movq	-8(%rbp), %rcx
	movq	%rax, 5016(%rcx)
.LBB69_31:                              # %while.body
                                        # =>This Inner Loop Header: Depth=1
	movq	-8(%rbp), %rax
	movl	$5000, 5048(%rax)       # imm = 0x1388
	movq	-8(%rbp), %rax
	addq	$8, %rax
	movq	-8(%rbp), %rcx
	movq	%rax, 5040(%rcx)
	movq	-8(%rbp), %rdi
	addq	$5016, %rdi             # imm = 0x1398
	xorl	%esi, %esi
	callq	BZ2_bzCompress
	movl	%eax, -24(%rbp)
	cmpl	$1, -24(%rbp)
	je	.LBB69_37
# %bb.32:                               # %if.then53
	cmpq	$0, -16(%rbp)
	je	.LBB69_34
# %bb.33:                               # %if.then55
	movl	-24(%rbp), %eax
	movq	-16(%rbp), %rcx
	movl	%eax, (%rcx)
.LBB69_34:                              # %if.end56
	cmpq	$0, -8(%rbp)
	je	.LBB69_36
# %bb.35:                               # %if.then58
	movl	-24(%rbp), %eax
	movq	-8(%rbp), %rcx
	movl	%eax, 5096(%rcx)
.LBB69_36:                              # %if.end60
	jmp	.LBB69_53
.LBB69_37:                              # %if.end61
                                        #   in Loop: Header=BB69_31 Depth=1
	movq	-8(%rbp), %rax
	cmpl	$5000, 5048(%rax)       # imm = 0x1388
	jae	.LBB69_46
# %bb.38:                               # %if.then65
                                        #   in Loop: Header=BB69_31 Depth=1
	movq	-8(%rbp), %rax
	movl	$5000, %ecx             # imm = 0x1388
	subl	5048(%rax), %ecx
	movl	%ecx, -28(%rbp)
	movq	-8(%rbp), %rdi
	addq	$8, %rdi
	movslq	-28(%rbp), %rdx
	movq	-8(%rbp), %rax
	movq	(%rax), %rcx
	movl	$1, %esi
	callq	fwrite
	movl	%eax, -32(%rbp)
	movl	-28(%rbp), %eax
	cmpl	-32(%rbp), %eax
	jne	.LBB69_40
# %bb.39:                               # %lor.lhs.false75
                                        #   in Loop: Header=BB69_31 Depth=1
	movq	-8(%rbp), %rax
	movq	(%rax), %rdi
	callq	ferror
	cmpl	$0, %eax
	je	.LBB69_45
.LBB69_40:                              # %if.then79
	cmpq	$0, -16(%rbp)
	je	.LBB69_42
# %bb.41:                               # %if.then82
	movq	-16(%rbp), %rax
	movl	$-6, (%rax)
.LBB69_42:                              # %if.end83
	cmpq	$0, -8(%rbp)
	je	.LBB69_44
# %bb.43:                               # %if.then86
	movq	-8(%rbp), %rax
	movl	$-6, 5096(%rax)
.LBB69_44:                              # %if.end88
	jmp	.LBB69_53
.LBB69_45:                              # %if.end89
                                        #   in Loop: Header=BB69_31 Depth=1
	jmp	.LBB69_46
.LBB69_46:                              # %if.end90
                                        #   in Loop: Header=BB69_31 Depth=1
	movq	-8(%rbp), %rax
	cmpl	$0, 5024(%rax)
	jne	.LBB69_52
# %bb.47:                               # %if.then95
	cmpq	$0, -16(%rbp)
	je	.LBB69_49
# %bb.48:                               # %if.then98
	movq	-16(%rbp), %rax
	movl	$0, (%rax)
.LBB69_49:                              # %if.end99
	cmpq	$0, -8(%rbp)
	je	.LBB69_51
# %bb.50:                               # %if.then102
	movq	-8(%rbp), %rax
	movl	$0, 5096(%rax)
.LBB69_51:                              # %if.end104
	jmp	.LBB69_53
.LBB69_52:                              # %if.end105
                                        #   in Loop: Header=BB69_31 Depth=1
	jmp	.LBB69_31
.LBB69_53:                              # %return
	cmpl	$1949467208, -36(%rbp)  # imm = 0x74328248
	jne	.LBB69_55
.LBB69_54:
	addq	$64, %rsp
	popq	%rbp
	.cfi_def_cfa %rsp, 8
	retq
.LBB69_55:                              # %func_exit
	.cfi_def_cfa %rbp, 16
	callq	detect_breach
	jmp	.LBB69_54
.Lfunc_end69:
	.size	BZ2_bzWrite.29, .Lfunc_end69-BZ2_bzWrite.29
	.cfi_endproc
                                        # -- End function
	.globl	BZ2_bzReadOpen.30       # -- Begin function BZ2_bzReadOpen.30
	.p2align	4, 0x90
	.type	BZ2_bzReadOpen.30,@function
BZ2_bzReadOpen.30:                      # @BZ2_bzReadOpen.30
	.cfi_startproc
# %bb.0:                                # %entry
	pushq	%rbp
	.cfi_def_cfa_offset 16
	.cfi_offset %rbp, -16
	movq	%rsp, %rbp
	.cfi_def_cfa_register %rbp
	pushq	%rbx
	subq	$72, %rsp
	.cfi_offset %rbx, -24
	movl	$2092096419, -76(%rbp)  # imm = 0x7CB2DBA3
	movq	%rdi, -32(%rbp)
	movq	%rsi, -72(%rbp)
	movl	%edx, -36(%rbp)
	movl	%ecx, -44(%rbp)
	movq	%r8, -56(%rbp)
	movl	%r9d, -20(%rbp)
	movq	$0, -16(%rbp)
	cmpq	$0, -32(%rbp)
	je	.LBB70_2
# %bb.1:                                # %if.then
	movq	-32(%rbp), %rax
	movl	$0, (%rax)
.LBB70_2:                               # %if.end
	cmpq	$0, -16(%rbp)
	je	.LBB70_4
# %bb.3:                                # %if.then2
	movq	-16(%rbp), %rax
	movl	$0, 5096(%rax)
.LBB70_4:                               # %if.end3
	cmpq	$0, -72(%rbp)
	je	.LBB70_14
# %bb.5:                                # %lor.lhs.false
	cmpl	$0, -44(%rbp)
	je	.LBB70_7
# %bb.6:                                # %land.lhs.true
	cmpl	$1, -44(%rbp)
	jne	.LBB70_14
.LBB70_7:                               # %lor.lhs.false7
	cmpl	$0, -36(%rbp)
	jl	.LBB70_14
# %bb.8:                                # %lor.lhs.false9
	cmpl	$4, -36(%rbp)
	jg	.LBB70_14
# %bb.9:                                # %lor.lhs.false11
	cmpq	$0, -56(%rbp)
	jne	.LBB70_11
# %bb.10:                               # %land.lhs.true13
	cmpl	$0, -20(%rbp)
	jne	.LBB70_14
.LBB70_11:                              # %lor.lhs.false15
	cmpq	$0, -56(%rbp)
	je	.LBB70_19
# %bb.12:                               # %land.lhs.true17
	cmpl	$0, -20(%rbp)
	jl	.LBB70_14
# %bb.13:                               # %lor.lhs.false19
	cmpl	$5000, -20(%rbp)        # imm = 0x1388
	jle	.LBB70_19
.LBB70_14:                              # %if.then21
	cmpq	$0, -32(%rbp)
	je	.LBB70_16
# %bb.15:                               # %if.then23
	movq	-32(%rbp), %rax
	movl	$-2, (%rax)
.LBB70_16:                              # %if.end24
	cmpq	$0, -16(%rbp)
	je	.LBB70_18
# %bb.17:                               # %if.then26
	movq	-16(%rbp), %rax
	movl	$-2, 5096(%rax)
.LBB70_18:                              # %if.end28
	movq	$0, -64(%rbp)
	jmp	.LBB70_45
.LBB70_19:                              # %if.end29
	movq	-72(%rbp), %rdi
	callq	ferror
	cmpl	$0, %eax
	je	.LBB70_25
# %bb.20:                               # %if.then30
	cmpq	$0, -32(%rbp)
	je	.LBB70_22
# %bb.21:                               # %if.then32
	movq	-32(%rbp), %rax
	movl	$-6, (%rax)
.LBB70_22:                              # %if.end33
	cmpq	$0, -16(%rbp)
	je	.LBB70_24
# %bb.23:                               # %if.then35
	movq	-16(%rbp), %rax
	movl	$-6, 5096(%rax)
.LBB70_24:                              # %if.end37
	movq	$0, -64(%rbp)
	jmp	.LBB70_45
.LBB70_25:                              # %if.end38
	movl	$5104, %edi             # imm = 0x13F0
	callq	malloc
	movq	%rax, -16(%rbp)
	cmpq	$0, -16(%rbp)
	jne	.LBB70_31
# %bb.26:                               # %if.then41
	cmpq	$0, -32(%rbp)
	je	.LBB70_28
# %bb.27:                               # %if.then43
	movq	-32(%rbp), %rax
	movl	$-3, (%rax)
.LBB70_28:                              # %if.end44
	cmpq	$0, -16(%rbp)
	je	.LBB70_30
# %bb.29:                               # %if.then46
	movq	-16(%rbp), %rax
	movl	$-3, 5096(%rax)
.LBB70_30:                              # %if.end48
	movq	$0, -64(%rbp)
	jmp	.LBB70_45
.LBB70_31:                              # %if.end49
	cmpq	$0, -32(%rbp)
	je	.LBB70_33
# %bb.32:                               # %if.then51
	movq	-32(%rbp), %rax
	movl	$0, (%rax)
.LBB70_33:                              # %if.end52
	cmpq	$0, -16(%rbp)
	je	.LBB70_35
# %bb.34:                               # %if.then54
	movq	-16(%rbp), %rax
	movl	$0, 5096(%rax)
.LBB70_35:                              # %if.end56
	movq	-16(%rbp), %rax
	movb	$0, 5100(%rax)
	movq	-72(%rbp), %rax
	movq	-16(%rbp), %rcx
	movq	%rax, (%rcx)
	movq	-16(%rbp), %rax
	movl	$0, 5008(%rax)
	movq	-16(%rbp), %rax
	movb	$0, 5012(%rax)
	movq	-16(%rbp), %rax
	movq	$0, 5072(%rax)
	movq	-16(%rbp), %rax
	movq	$0, 5080(%rax)
	movq	-16(%rbp), %rax
	movq	$0, 5088(%rax)
.LBB70_36:                              # %while.cond
                                        # =>This Inner Loop Header: Depth=1
	cmpl	$0, -20(%rbp)
	jle	.LBB70_38
# %bb.37:                               # %while.body
                                        #   in Loop: Header=BB70_36 Depth=1
	movq	-56(%rbp), %rax
	movb	(%rax), %al
	movq	-16(%rbp), %rcx
	movq	-16(%rbp), %rdx
	movslq	5008(%rdx), %rdx
	movb	%al, 8(%rcx,%rdx)
	movq	-16(%rbp), %rax
	movl	5008(%rax), %ecx
	addl	$1, %ecx
	movl	%ecx, 5008(%rax)
	movq	-56(%rbp), %rax
	addq	$1, %rax
	movq	%rax, -56(%rbp)
	movl	-20(%rbp), %eax
	addl	$-1, %eax
	movl	%eax, -20(%rbp)
	jmp	.LBB70_36
.LBB70_38:                              # %while.end
	movq	-16(%rbp), %rdi
	addq	$5016, %rdi             # imm = 0x1398
	movl	-36(%rbp), %esi
	movl	-44(%rbp), %edx
	callq	BZ2_bzDecompressInit
	movl	%eax, -40(%rbp)
	cmpl	$0, -40(%rbp)
	je	.LBB70_44
# %bb.39:                               # %if.then65
	cmpq	$0, -32(%rbp)
	je	.LBB70_41
# %bb.40:                               # %if.then67
	movl	-40(%rbp), %eax
	movq	-32(%rbp), %rcx
	movl	%eax, (%rcx)
.LBB70_41:                              # %if.end68
	cmpq	$0, -16(%rbp)
	je	.LBB70_43
# %bb.42:                               # %if.then70
	movl	-40(%rbp), %eax
	movq	-16(%rbp), %rcx
	movl	%eax, 5096(%rcx)
.LBB70_43:                              # %if.end72
	movq	-16(%rbp), %rdi
	callq	free
	movq	$0, -64(%rbp)
	jmp	.LBB70_45
.LBB70_44:                              # %if.end73
	movq	-16(%rbp), %rax
	movl	5008(%rax), %eax
	movq	-16(%rbp), %rcx
	movl	%eax, 5024(%rcx)
	movq	-16(%rbp), %rax
	addq	$8, %rax
	movq	-16(%rbp), %rcx
	movq	%rax, 5016(%rcx)
	movq	-16(%rbp), %rax
	movb	$1, 5100(%rax)
	movq	-16(%rbp), %rax
	movq	%rax, -64(%rbp)
.LBB70_45:                              # %return
	movq	-64(%rbp), %rbx
	cmpl	$2092096419, -76(%rbp)  # imm = 0x7CB2DBA3
	jne	.LBB70_47
.LBB70_46:
	movq	%rbx, %rax
	addq	$72, %rsp
	popq	%rbx
	popq	%rbp
	.cfi_def_cfa %rsp, 8
	retq
.LBB70_47:                              # %func_exit
	.cfi_def_cfa %rbp, 16
	callq	detect_breach
	jmp	.LBB70_46
.Lfunc_end70:
	.size	BZ2_bzReadOpen.30, .Lfunc_end70-BZ2_bzReadOpen.30
	.cfi_endproc
                                        # -- End function
	.globl	BZ2_bzDecompressEnd.31  # -- Begin function BZ2_bzDecompressEnd.31
	.p2align	4, 0x90
	.type	BZ2_bzDecompressEnd.31,@function
BZ2_bzDecompressEnd.31:                 # @BZ2_bzDecompressEnd.31
	.cfi_startproc
# %bb.0:                                # %entry
	pushq	%rbp
	.cfi_def_cfa_offset 16
	.cfi_offset %rbp, -16
	movq	%rsp, %rbp
	.cfi_def_cfa_register %rbp
	pushq	%rbx
	subq	$40, %rsp
	.cfi_offset %rbx, -24
	movl	$1078904472, -36(%rbp)  # imm = 0x404EC698
	movq	%rdi, -16(%rbp)
	cmpq	$0, -16(%rbp)
	jne	.LBB71_2
# %bb.1:                                # %if.then
	movl	$-2, -20(%rbp)
	jmp	.LBB71_13
.LBB71_2:                               # %if.end
	movq	-16(%rbp), %rax
	movq	48(%rax), %rax
	movq	%rax, -32(%rbp)
	cmpq	$0, -32(%rbp)
	jne	.LBB71_4
# %bb.3:                                # %if.then2
	movl	$-2, -20(%rbp)
	jmp	.LBB71_13
.LBB71_4:                               # %if.end3
	movq	-32(%rbp), %rax
	movq	(%rax), %rax
	cmpq	-16(%rbp), %rax
	je	.LBB71_6
# %bb.5:                                # %if.then6
	movl	$-2, -20(%rbp)
	jmp	.LBB71_13
.LBB71_6:                               # %if.end7
	movq	-32(%rbp), %rax
	cmpq	$0, 3152(%rax)
	je	.LBB71_8
# %bb.7:                                # %if.then9
	movq	-16(%rbp), %rax
	movq	64(%rax), %rax
	movq	-16(%rbp), %rcx
	movq	72(%rcx), %rdi
	movq	-32(%rbp), %rcx
	movq	3152(%rcx), %rsi
	callq	*%rax
.LBB71_8:                               # %if.end11
	movq	-32(%rbp), %rax
	cmpq	$0, 3160(%rax)
	je	.LBB71_10
# %bb.9:                                # %if.then13
	movq	-16(%rbp), %rax
	movq	64(%rax), %rax
	movq	-16(%rbp), %rcx
	movq	72(%rcx), %rdi
	movq	-32(%rbp), %rcx
	movq	3160(%rcx), %rsi
	callq	*%rax
.LBB71_10:                              # %if.end17
	movq	-32(%rbp), %rax
	cmpq	$0, 3168(%rax)
	je	.LBB71_12
# %bb.11:                               # %if.then19
	movq	-16(%rbp), %rax
	movq	64(%rax), %rax
	movq	-16(%rbp), %rcx
	movq	72(%rcx), %rdi
	movq	-32(%rbp), %rcx
	movq	3168(%rcx), %rsi
	callq	*%rax
.LBB71_12:                              # %if.end23
	movq	-16(%rbp), %rax
	movq	64(%rax), %rax
	movq	-16(%rbp), %rcx
	movq	72(%rcx), %rdi
	movq	-16(%rbp), %rcx
	movq	48(%rcx), %rsi
	callq	*%rax
	movq	-16(%rbp), %rax
	movq	$0, 48(%rax)
	movl	$0, -20(%rbp)
.LBB71_13:                              # %return
	movl	-20(%rbp), %ebx
	cmpl	$1078904472, -36(%rbp)  # imm = 0x404EC698
	jne	.LBB71_15
.LBB71_14:
	movl	%ebx, %eax
	addq	$40, %rsp
	popq	%rbx
	popq	%rbp
	.cfi_def_cfa %rsp, 8
	retq
.LBB71_15:                              # %func_exit
	.cfi_def_cfa %rbp, 16
	callq	detect_breach
	jmp	.LBB71_14
.Lfunc_end71:
	.size	BZ2_bzDecompressEnd.31, .Lfunc_end71-BZ2_bzDecompressEnd.31
	.cfi_endproc
                                        # -- End function
	.globl	BZ2_bzwrite.32          # -- Begin function BZ2_bzwrite.32
	.p2align	4, 0x90
	.type	BZ2_bzwrite.32,@function
BZ2_bzwrite.32:                         # @BZ2_bzwrite.32
	.cfi_startproc
# %bb.0:                                # %entry
	pushq	%rbp
	.cfi_def_cfa_offset 16
	.cfi_offset %rbp, -16
	movq	%rsp, %rbp
	.cfi_def_cfa_register %rbp
	pushq	%rbx
	subq	$40, %rsp
	.cfi_offset %rbx, -24
	movl	$2044714179, -20(%rbp)  # imm = 0x79DFDCC3
	movq	%rdi, -32(%rbp)
	movq	%rsi, -40(%rbp)
	movl	%edx, -16(%rbp)
	movq	-32(%rbp), %rsi
	movq	-40(%rbp), %rdx
	movl	-16(%rbp), %ecx
	leaq	-24(%rbp), %rdi
	callq	BZ2_bzWrite
	cmpl	$0, -24(%rbp)
	jne	.LBB72_2
# %bb.1:                                # %if.then
	movl	-16(%rbp), %eax
	movl	%eax, -12(%rbp)
	jmp	.LBB72_3
.LBB72_2:                               # %if.else
	movl	$-1, -12(%rbp)
.LBB72_3:                               # %return
	movl	-12(%rbp), %ebx
	cmpl	$2044714179, -20(%rbp)  # imm = 0x79DFDCC3
	jne	.LBB72_5
.LBB72_4:
	movl	%ebx, %eax
	addq	$40, %rsp
	popq	%rbx
	popq	%rbp
	.cfi_def_cfa %rsp, 8
	retq
.LBB72_5:                               # %func_exit
	.cfi_def_cfa %rbp, 16
	callq	detect_breach
	jmp	.LBB72_4
.Lfunc_end72:
	.size	BZ2_bzwrite.32, .Lfunc_end72-BZ2_bzwrite.32
	.cfi_endproc
                                        # -- End function
	.globl	BZ2_bzCompress.33       # -- Begin function BZ2_bzCompress.33
	.p2align	4, 0x90
	.type	BZ2_bzCompress.33,@function
BZ2_bzCompress.33:                      # @BZ2_bzCompress.33
	.cfi_startproc
# %bb.0:                                # %entry
	pushq	%rbp
	.cfi_def_cfa_offset 16
	.cfi_offset %rbp, -16
	movq	%rsp, %rbp
	.cfi_def_cfa_register %rbp
	pushq	%rbx
	subq	$40, %rsp
	.cfi_offset %rbx, -24
	movl	$71823303, -44(%rbp)    # imm = 0x447EFC7
	movq	%rdi, -40(%rbp)
	movl	%esi, -28(%rbp)
	cmpq	$0, -40(%rbp)
	jne	.LBB73_2
# %bb.1:                                # %if.then
	movl	$-2, -16(%rbp)
	jmp	.LBB73_39
.LBB73_2:                               # %if.end
	movq	-40(%rbp), %rax
	movq	48(%rax), %rax
	movq	%rax, -24(%rbp)
	cmpq	$0, -24(%rbp)
	jne	.LBB73_4
# %bb.3:                                # %if.then2
	movl	$-2, -16(%rbp)
	jmp	.LBB73_39
.LBB73_4:                               # %if.end3
	movq	-24(%rbp), %rax
	movq	(%rax), %rax
	cmpq	-40(%rbp), %rax
	je	.LBB73_6
# %bb.5:                                # %if.then6
	movl	$-2, -16(%rbp)
	jmp	.LBB73_39
.LBB73_6:                               # %if.end7
	jmp	.LBB73_7
.LBB73_7:                               # %preswitch
                                        # =>This Inner Loop Header: Depth=1
	movq	-24(%rbp), %rax
	movl	8(%rax), %eax
	addl	$-1, %eax
	movl	%eax, %ecx
	subl	$3, %ecx
	ja	.LBB73_38
# %bb.8:                                # %preswitch
                                        #   in Loop: Header=BB73_7 Depth=1
	movq	.LJTI73_0(,%rax,8), %rax
	jmpq	*%rax
.LBB73_9:                               # %sw.bb
	movl	$-1, -16(%rbp)
	jmp	.LBB73_39
.LBB73_10:                              # %sw.bb8
                                        #   in Loop: Header=BB73_7 Depth=1
	cmpl	$0, -28(%rbp)
	jne	.LBB73_12
# %bb.11:                               # %if.then10
	movq	-40(%rbp), %rdi
	callq	handle_compress
	movb	%al, -9(%rbp)
	movzbl	-9(%rbp), %eax
	cmpl	$0, %eax
	movl	$1, %eax
	movl	$4294967294, %ecx       # imm = 0xFFFFFFFE
	cmovnel	%eax, %ecx
	movl	%ecx, -16(%rbp)
	jmp	.LBB73_39
.LBB73_12:                              # %if.else
                                        #   in Loop: Header=BB73_7 Depth=1
	cmpl	$1, -28(%rbp)
	jne	.LBB73_15
# %bb.13:                               # %if.then13
                                        #   in Loop: Header=BB73_7 Depth=1
	movq	-40(%rbp), %rax
	movl	8(%rax), %eax
	movq	-24(%rbp), %rcx
	movl	%eax, 16(%rcx)
	movq	-24(%rbp), %rax
	movl	$3, 8(%rax)
.LBB73_14:                              # %preswitch.backedge
                                        #   in Loop: Header=BB73_7 Depth=1
	jmp	.LBB73_7
.LBB73_15:                              # %if.else15
                                        #   in Loop: Header=BB73_7 Depth=1
	cmpl	$2, -28(%rbp)
	jne	.LBB73_17
# %bb.16:                               # %if.then18
                                        #   in Loop: Header=BB73_7 Depth=1
	movq	-40(%rbp), %rax
	movl	8(%rax), %eax
	movq	-24(%rbp), %rcx
	movl	%eax, 16(%rcx)
	movq	-24(%rbp), %rax
	movl	$4, 8(%rax)
	jmp	.LBB73_14
.LBB73_17:                              # %if.else22
	movl	$-2, -16(%rbp)
	jmp	.LBB73_39
.LBB73_18:                              # %sw.bb23
	cmpl	$1, -28(%rbp)
	je	.LBB73_20
# %bb.19:                               # %if.then26
	movl	$-1, -16(%rbp)
	jmp	.LBB73_39
.LBB73_20:                              # %if.end27
	movq	-24(%rbp), %rax
	movl	16(%rax), %eax
	movq	-24(%rbp), %rcx
	movq	(%rcx), %rcx
	cmpl	8(%rcx), %eax
	je	.LBB73_22
# %bb.21:                               # %if.then33
	movl	$-1, -16(%rbp)
	jmp	.LBB73_39
.LBB73_22:                              # %if.end34
	movq	-40(%rbp), %rdi
	callq	handle_compress
	movb	%al, -9(%rbp)
	movq	-24(%rbp), %rax
	cmpl	$0, 16(%rax)
	ja	.LBB73_25
# %bb.23:                               # %lor.lhs.false
	movq	-24(%rbp), %rdi
	callq	isempty_RL
	cmpb	$0, %al
	je	.LBB73_25
# %bb.24:                               # %lor.lhs.false41
	movq	-24(%rbp), %rax
	movl	120(%rax), %eax
	movq	-24(%rbp), %rcx
	cmpl	116(%rcx), %eax
	jge	.LBB73_26
.LBB73_25:                              # %if.then44
	movl	$2, -16(%rbp)
	jmp	.LBB73_39
.LBB73_26:                              # %if.end45
	movq	-24(%rbp), %rax
	movl	$2, 8(%rax)
	movl	$1, -16(%rbp)
	jmp	.LBB73_39
.LBB73_27:                              # %sw.bb47
	cmpl	$2, -28(%rbp)
	je	.LBB73_29
# %bb.28:                               # %if.then50
	movl	$-1, -16(%rbp)
	jmp	.LBB73_39
.LBB73_29:                              # %if.end51
	movq	-24(%rbp), %rax
	movl	16(%rax), %eax
	movq	-24(%rbp), %rcx
	movq	(%rcx), %rcx
	cmpl	8(%rcx), %eax
	je	.LBB73_31
# %bb.30:                               # %if.then57
	movl	$-1, -16(%rbp)
	jmp	.LBB73_39
.LBB73_31:                              # %if.end58
	movq	-40(%rbp), %rdi
	callq	handle_compress
	movb	%al, -9(%rbp)
	cmpb	$0, -9(%rbp)
	jne	.LBB73_33
# %bb.32:                               # %if.then61
	movl	$-1, -16(%rbp)
	jmp	.LBB73_39
.LBB73_33:                              # %if.end62
	movq	-24(%rbp), %rax
	cmpl	$0, 16(%rax)
	ja	.LBB73_36
# %bb.34:                               # %lor.lhs.false66
	movq	-24(%rbp), %rdi
	callq	isempty_RL
	cmpb	$0, %al
	je	.LBB73_36
# %bb.35:                               # %lor.lhs.false69
	movq	-24(%rbp), %rax
	movl	120(%rax), %eax
	movq	-24(%rbp), %rcx
	cmpl	116(%rcx), %eax
	jge	.LBB73_37
.LBB73_36:                              # %if.then74
	movl	$3, -16(%rbp)
	jmp	.LBB73_39
.LBB73_37:                              # %if.end75
	movq	-24(%rbp), %rax
	movl	$1, 8(%rax)
	movl	$4, -16(%rbp)
	jmp	.LBB73_39
.LBB73_38:                              # %sw.epilog
	movl	$0, -16(%rbp)
.LBB73_39:                              # %return
	movl	-16(%rbp), %ebx
	cmpl	$71823303, -44(%rbp)    # imm = 0x447EFC7
	jne	.LBB73_41
.LBB73_40:
	movl	%ebx, %eax
	addq	$40, %rsp
	popq	%rbx
	popq	%rbp
	.cfi_def_cfa %rsp, 8
	retq
.LBB73_41:                              # %func_exit
	.cfi_def_cfa %rbp, 16
	callq	detect_breach
	jmp	.LBB73_40
.Lfunc_end73:
	.size	BZ2_bzCompress.33, .Lfunc_end73-BZ2_bzCompress.33
	.cfi_endproc
	.section	.rodata,"a",@progbits
	.p2align	3
.LJTI73_0:
	.quad	.LBB73_9
	.quad	.LBB73_10
	.quad	.LBB73_18
	.quad	.LBB73_27
                                        # -- End function
	.text
	.globl	BZ2_bzReadOpen.34       # -- Begin function BZ2_bzReadOpen.34
	.p2align	4, 0x90
	.type	BZ2_bzReadOpen.34,@function
BZ2_bzReadOpen.34:                      # @BZ2_bzReadOpen.34
	.cfi_startproc
# %bb.0:                                # %entry
	pushq	%rbp
	.cfi_def_cfa_offset 16
	.cfi_offset %rbp, -16
	movq	%rsp, %rbp
	.cfi_def_cfa_register %rbp
	pushq	%rbx
	subq	$72, %rsp
	.cfi_offset %rbx, -24
	movl	$1493994890, -76(%rbp)  # imm = 0x590C8D8A
	movq	%rdi, -32(%rbp)
	movq	%rsi, -72(%rbp)
	movl	%edx, -44(%rbp)
	movl	%ecx, -36(%rbp)
	movq	%r8, -56(%rbp)
	movl	%r9d, -20(%rbp)
	movq	$0, -16(%rbp)
	cmpq	$0, -32(%rbp)
	je	.LBB74_2
# %bb.1:                                # %if.then
	movq	-32(%rbp), %rax
	movl	$0, (%rax)
.LBB74_2:                               # %if.end
	cmpq	$0, -16(%rbp)
	je	.LBB74_4
# %bb.3:                                # %if.then2
	movq	-16(%rbp), %rax
	movl	$0, 5096(%rax)
.LBB74_4:                               # %if.end3
	cmpq	$0, -72(%rbp)
	je	.LBB74_14
# %bb.5:                                # %lor.lhs.false
	cmpl	$0, -36(%rbp)
	je	.LBB74_7
# %bb.6:                                # %land.lhs.true
	cmpl	$1, -36(%rbp)
	jne	.LBB74_14
.LBB74_7:                               # %lor.lhs.false7
	cmpl	$0, -44(%rbp)
	jl	.LBB74_14
# %bb.8:                                # %lor.lhs.false9
	cmpl	$4, -44(%rbp)
	jg	.LBB74_14
# %bb.9:                                # %lor.lhs.false11
	cmpq	$0, -56(%rbp)
	jne	.LBB74_11
# %bb.10:                               # %land.lhs.true13
	cmpl	$0, -20(%rbp)
	jne	.LBB74_14
.LBB74_11:                              # %lor.lhs.false15
	cmpq	$0, -56(%rbp)
	je	.LBB74_19
# %bb.12:                               # %land.lhs.true17
	cmpl	$0, -20(%rbp)
	jl	.LBB74_14
# %bb.13:                               # %lor.lhs.false19
	cmpl	$5000, -20(%rbp)        # imm = 0x1388
	jle	.LBB74_19
.LBB74_14:                              # %if.then21
	cmpq	$0, -32(%rbp)
	je	.LBB74_16
# %bb.15:                               # %if.then23
	movq	-32(%rbp), %rax
	movl	$-2, (%rax)
.LBB74_16:                              # %if.end24
	cmpq	$0, -16(%rbp)
	je	.LBB74_18
# %bb.17:                               # %if.then26
	movq	-16(%rbp), %rax
	movl	$-2, 5096(%rax)
.LBB74_18:                              # %if.end28
	movq	$0, -64(%rbp)
	jmp	.LBB74_45
.LBB74_19:                              # %if.end29
	movq	-72(%rbp), %rdi
	callq	ferror
	cmpl	$0, %eax
	je	.LBB74_25
# %bb.20:                               # %if.then30
	cmpq	$0, -32(%rbp)
	je	.LBB74_22
# %bb.21:                               # %if.then32
	movq	-32(%rbp), %rax
	movl	$-6, (%rax)
.LBB74_22:                              # %if.end33
	cmpq	$0, -16(%rbp)
	je	.LBB74_24
# %bb.23:                               # %if.then35
	movq	-16(%rbp), %rax
	movl	$-6, 5096(%rax)
.LBB74_24:                              # %if.end37
	movq	$0, -64(%rbp)
	jmp	.LBB74_45
.LBB74_25:                              # %if.end38
	movl	$5104, %edi             # imm = 0x13F0
	callq	malloc
	movq	%rax, -16(%rbp)
	cmpq	$0, -16(%rbp)
	jne	.LBB74_31
# %bb.26:                               # %if.then41
	cmpq	$0, -32(%rbp)
	je	.LBB74_28
# %bb.27:                               # %if.then43
	movq	-32(%rbp), %rax
	movl	$-3, (%rax)
.LBB74_28:                              # %if.end44
	cmpq	$0, -16(%rbp)
	je	.LBB74_30
# %bb.29:                               # %if.then46
	movq	-16(%rbp), %rax
	movl	$-3, 5096(%rax)
.LBB74_30:                              # %if.end48
	movq	$0, -64(%rbp)
	jmp	.LBB74_45
.LBB74_31:                              # %if.end49
	cmpq	$0, -32(%rbp)
	je	.LBB74_33
# %bb.32:                               # %if.then51
	movq	-32(%rbp), %rax
	movl	$0, (%rax)
.LBB74_33:                              # %if.end52
	cmpq	$0, -16(%rbp)
	je	.LBB74_35
# %bb.34:                               # %if.then54
	movq	-16(%rbp), %rax
	movl	$0, 5096(%rax)
.LBB74_35:                              # %if.end56
	movq	-16(%rbp), %rax
	movb	$0, 5100(%rax)
	movq	-72(%rbp), %rax
	movq	-16(%rbp), %rcx
	movq	%rax, (%rcx)
	movq	-16(%rbp), %rax
	movl	$0, 5008(%rax)
	movq	-16(%rbp), %rax
	movb	$0, 5012(%rax)
	movq	-16(%rbp), %rax
	movq	$0, 5072(%rax)
	movq	-16(%rbp), %rax
	movq	$0, 5080(%rax)
	movq	-16(%rbp), %rax
	movq	$0, 5088(%rax)
.LBB74_36:                              # %while.cond
                                        # =>This Inner Loop Header: Depth=1
	cmpl	$0, -20(%rbp)
	jle	.LBB74_38
# %bb.37:                               # %while.body
                                        #   in Loop: Header=BB74_36 Depth=1
	movq	-56(%rbp), %rax
	movb	(%rax), %al
	movq	-16(%rbp), %rcx
	movq	-16(%rbp), %rdx
	movslq	5008(%rdx), %rdx
	movb	%al, 8(%rcx,%rdx)
	movq	-16(%rbp), %rax
	movl	5008(%rax), %ecx
	addl	$1, %ecx
	movl	%ecx, 5008(%rax)
	movq	-56(%rbp), %rax
	addq	$1, %rax
	movq	%rax, -56(%rbp)
	movl	-20(%rbp), %eax
	addl	$-1, %eax
	movl	%eax, -20(%rbp)
	jmp	.LBB74_36
.LBB74_38:                              # %while.end
	movq	-16(%rbp), %rdi
	addq	$5016, %rdi             # imm = 0x1398
	movl	-44(%rbp), %esi
	movl	-36(%rbp), %edx
	callq	BZ2_bzDecompressInit
	movl	%eax, -40(%rbp)
	cmpl	$0, -40(%rbp)
	je	.LBB74_44
# %bb.39:                               # %if.then65
	cmpq	$0, -32(%rbp)
	je	.LBB74_41
# %bb.40:                               # %if.then67
	movl	-40(%rbp), %eax
	movq	-32(%rbp), %rcx
	movl	%eax, (%rcx)
.LBB74_41:                              # %if.end68
	cmpq	$0, -16(%rbp)
	je	.LBB74_43
# %bb.42:                               # %if.then70
	movl	-40(%rbp), %eax
	movq	-16(%rbp), %rcx
	movl	%eax, 5096(%rcx)
.LBB74_43:                              # %if.end72
	movq	-16(%rbp), %rdi
	callq	free
	movq	$0, -64(%rbp)
	jmp	.LBB74_45
.LBB74_44:                              # %if.end73
	movq	-16(%rbp), %rax
	movl	5008(%rax), %eax
	movq	-16(%rbp), %rcx
	movl	%eax, 5024(%rcx)
	movq	-16(%rbp), %rax
	addq	$8, %rax
	movq	-16(%rbp), %rcx
	movq	%rax, 5016(%rcx)
	movq	-16(%rbp), %rax
	movb	$1, 5100(%rax)
	movq	-16(%rbp), %rax
	movq	%rax, -64(%rbp)
.LBB74_45:                              # %return
	movq	-64(%rbp), %rbx
	cmpl	$1493994890, -76(%rbp)  # imm = 0x590C8D8A
	jne	.LBB74_47
.LBB74_46:
	movq	%rbx, %rax
	addq	$72, %rsp
	popq	%rbx
	popq	%rbp
	.cfi_def_cfa %rsp, 8
	retq
.LBB74_47:                              # %func_exit
	.cfi_def_cfa %rbp, 16
	callq	detect_breach
	jmp	.LBB74_46
.Lfunc_end74:
	.size	BZ2_bzReadOpen.34, .Lfunc_end74-BZ2_bzReadOpen.34
	.cfi_endproc
                                        # -- End function
	.p2align	4, 0x90         # -- Begin function default_bzfree.35
	.type	default_bzfree.35,@function
default_bzfree.35:                      # @default_bzfree.35
	.cfi_startproc
# %bb.0:                                # %entry
	pushq	%rbp
	.cfi_def_cfa_offset 16
	.cfi_offset %rbp, -16
	movq	%rsp, %rbp
	.cfi_def_cfa_register %rbp
	subq	$32, %rsp
	movl	$655419241, -4(%rbp)    # imm = 0x2710E769
	movq	%rdi, -24(%rbp)
	movq	%rsi, -16(%rbp)
	cmpq	$0, -16(%rbp)
	je	.LBB75_2
# %bb.1:                                # %if.then
	movq	-16(%rbp), %rdi
	callq	free
.LBB75_2:                               # %if.end
	cmpl	$655419241, -4(%rbp)    # imm = 0x2710E769
	jne	.LBB75_4
.LBB75_3:
	addq	$32, %rsp
	popq	%rbp
	.cfi_def_cfa %rsp, 8
	retq
.LBB75_4:                               # %func_exit
	.cfi_def_cfa %rbp, 16
	callq	detect_breach
	jmp	.LBB75_3
.Lfunc_end75:
	.size	default_bzfree.35, .Lfunc_end75-default_bzfree.35
	.cfi_endproc
                                        # -- End function
	.globl	BZ2_bzCompress.36       # -- Begin function BZ2_bzCompress.36
	.p2align	4, 0x90
	.type	BZ2_bzCompress.36,@function
BZ2_bzCompress.36:                      # @BZ2_bzCompress.36
	.cfi_startproc
# %bb.0:                                # %entry
	pushq	%rbp
	.cfi_def_cfa_offset 16
	.cfi_offset %rbp, -16
	movq	%rsp, %rbp
	.cfi_def_cfa_register %rbp
	pushq	%rbx
	subq	$40, %rsp
	.cfi_offset %rbx, -24
	movl	$1040792751, -44(%rbp)  # imm = 0x3E093CAF
	movq	%rdi, -40(%rbp)
	movl	%esi, -28(%rbp)
	cmpq	$0, -40(%rbp)
	jne	.LBB76_2
# %bb.1:                                # %if.then
	movl	$-2, -16(%rbp)
	jmp	.LBB76_39
.LBB76_2:                               # %if.end
	movq	-40(%rbp), %rax
	movq	48(%rax), %rax
	movq	%rax, -24(%rbp)
	cmpq	$0, -24(%rbp)
	jne	.LBB76_4
# %bb.3:                                # %if.then2
	movl	$-2, -16(%rbp)
	jmp	.LBB76_39
.LBB76_4:                               # %if.end3
	movq	-24(%rbp), %rax
	movq	(%rax), %rax
	cmpq	-40(%rbp), %rax
	je	.LBB76_6
# %bb.5:                                # %if.then6
	movl	$-2, -16(%rbp)
	jmp	.LBB76_39
.LBB76_6:                               # %if.end7
	jmp	.LBB76_7
.LBB76_7:                               # %preswitch
                                        # =>This Inner Loop Header: Depth=1
	movq	-24(%rbp), %rax
	movl	8(%rax), %eax
	addl	$-1, %eax
	movl	%eax, %ecx
	subl	$3, %ecx
	ja	.LBB76_38
# %bb.8:                                # %preswitch
                                        #   in Loop: Header=BB76_7 Depth=1
	movq	.LJTI76_0(,%rax,8), %rax
	jmpq	*%rax
.LBB76_9:                               # %sw.bb
	movl	$-1, -16(%rbp)
	jmp	.LBB76_39
.LBB76_10:                              # %sw.bb8
                                        #   in Loop: Header=BB76_7 Depth=1
	cmpl	$0, -28(%rbp)
	jne	.LBB76_12
# %bb.11:                               # %if.then10
	movq	-40(%rbp), %rdi
	callq	handle_compress
	movb	%al, -9(%rbp)
	movzbl	-9(%rbp), %eax
	cmpl	$0, %eax
	movl	$1, %eax
	movl	$4294967294, %ecx       # imm = 0xFFFFFFFE
	cmovnel	%eax, %ecx
	movl	%ecx, -16(%rbp)
	jmp	.LBB76_39
.LBB76_12:                              # %if.else
                                        #   in Loop: Header=BB76_7 Depth=1
	cmpl	$1, -28(%rbp)
	jne	.LBB76_15
# %bb.13:                               # %if.then13
                                        #   in Loop: Header=BB76_7 Depth=1
	movq	-40(%rbp), %rax
	movl	8(%rax), %eax
	movq	-24(%rbp), %rcx
	movl	%eax, 16(%rcx)
	movq	-24(%rbp), %rax
	movl	$3, 8(%rax)
.LBB76_14:                              # %preswitch.backedge
                                        #   in Loop: Header=BB76_7 Depth=1
	jmp	.LBB76_7
.LBB76_15:                              # %if.else15
                                        #   in Loop: Header=BB76_7 Depth=1
	cmpl	$2, -28(%rbp)
	jne	.LBB76_17
# %bb.16:                               # %if.then18
                                        #   in Loop: Header=BB76_7 Depth=1
	movq	-40(%rbp), %rax
	movl	8(%rax), %eax
	movq	-24(%rbp), %rcx
	movl	%eax, 16(%rcx)
	movq	-24(%rbp), %rax
	movl	$4, 8(%rax)
	jmp	.LBB76_14
.LBB76_17:                              # %if.else22
	movl	$-2, -16(%rbp)
	jmp	.LBB76_39
.LBB76_18:                              # %sw.bb23
	cmpl	$1, -28(%rbp)
	je	.LBB76_20
# %bb.19:                               # %if.then26
	movl	$-1, -16(%rbp)
	jmp	.LBB76_39
.LBB76_20:                              # %if.end27
	movq	-24(%rbp), %rax
	movl	16(%rax), %eax
	movq	-24(%rbp), %rcx
	movq	(%rcx), %rcx
	cmpl	8(%rcx), %eax
	je	.LBB76_22
# %bb.21:                               # %if.then33
	movl	$-1, -16(%rbp)
	jmp	.LBB76_39
.LBB76_22:                              # %if.end34
	movq	-40(%rbp), %rdi
	callq	handle_compress
	movb	%al, -9(%rbp)
	movq	-24(%rbp), %rax
	cmpl	$0, 16(%rax)
	ja	.LBB76_25
# %bb.23:                               # %lor.lhs.false
	movq	-24(%rbp), %rdi
	callq	isempty_RL
	cmpb	$0, %al
	je	.LBB76_25
# %bb.24:                               # %lor.lhs.false41
	movq	-24(%rbp), %rax
	movl	120(%rax), %eax
	movq	-24(%rbp), %rcx
	cmpl	116(%rcx), %eax
	jge	.LBB76_26
.LBB76_25:                              # %if.then44
	movl	$2, -16(%rbp)
	jmp	.LBB76_39
.LBB76_26:                              # %if.end45
	movq	-24(%rbp), %rax
	movl	$2, 8(%rax)
	movl	$1, -16(%rbp)
	jmp	.LBB76_39
.LBB76_27:                              # %sw.bb47
	cmpl	$2, -28(%rbp)
	je	.LBB76_29
# %bb.28:                               # %if.then50
	movl	$-1, -16(%rbp)
	jmp	.LBB76_39
.LBB76_29:                              # %if.end51
	movq	-24(%rbp), %rax
	movl	16(%rax), %eax
	movq	-24(%rbp), %rcx
	movq	(%rcx), %rcx
	cmpl	8(%rcx), %eax
	je	.LBB76_31
# %bb.30:                               # %if.then57
	movl	$-1, -16(%rbp)
	jmp	.LBB76_39
.LBB76_31:                              # %if.end58
	movq	-40(%rbp), %rdi
	callq	handle_compress
	movb	%al, -9(%rbp)
	cmpb	$0, -9(%rbp)
	jne	.LBB76_33
# %bb.32:                               # %if.then61
	movl	$-1, -16(%rbp)
	jmp	.LBB76_39
.LBB76_33:                              # %if.end62
	movq	-24(%rbp), %rax
	cmpl	$0, 16(%rax)
	ja	.LBB76_36
# %bb.34:                               # %lor.lhs.false66
	movq	-24(%rbp), %rdi
	callq	isempty_RL
	cmpb	$0, %al
	je	.LBB76_36
# %bb.35:                               # %lor.lhs.false69
	movq	-24(%rbp), %rax
	movl	120(%rax), %eax
	movq	-24(%rbp), %rcx
	cmpl	116(%rcx), %eax
	jge	.LBB76_37
.LBB76_36:                              # %if.then74
	movl	$3, -16(%rbp)
	jmp	.LBB76_39
.LBB76_37:                              # %if.end75
	movq	-24(%rbp), %rax
	movl	$1, 8(%rax)
	movl	$4, -16(%rbp)
	jmp	.LBB76_39
.LBB76_38:                              # %sw.epilog
	movl	$0, -16(%rbp)
.LBB76_39:                              # %return
	movl	-16(%rbp), %ebx
	cmpl	$1040792751, -44(%rbp)  # imm = 0x3E093CAF
	jne	.LBB76_41
.LBB76_40:
	movl	%ebx, %eax
	addq	$40, %rsp
	popq	%rbx
	popq	%rbp
	.cfi_def_cfa %rsp, 8
	retq
.LBB76_41:                              # %func_exit
	.cfi_def_cfa %rbp, 16
	callq	detect_breach
	jmp	.LBB76_40
.Lfunc_end76:
	.size	BZ2_bzCompress.36, .Lfunc_end76-BZ2_bzCompress.36
	.cfi_endproc
	.section	.rodata,"a",@progbits
	.p2align	3
.LJTI76_0:
	.quad	.LBB76_9
	.quad	.LBB76_10
	.quad	.LBB76_18
	.quad	.LBB76_27
                                        # -- End function
	.text
	.globl	BZ2_bzclose.37          # -- Begin function BZ2_bzclose.37
	.p2align	4, 0x90
	.type	BZ2_bzclose.37,@function
BZ2_bzclose.37:                         # @BZ2_bzclose.37
	.cfi_startproc
# %bb.0:                                # %entry
	pushq	%rbp
	.cfi_def_cfa_offset 16
	.cfi_offset %rbp, -16
	movq	%rsp, %rbp
	.cfi_def_cfa_register %rbp
	subq	$32, %rsp
	movl	$487654960, -28(%rbp)   # imm = 0x1D110630
	movq	%rdi, -8(%rbp)
	movq	-8(%rbp), %rax
	movq	(%rax), %rax
	movq	%rax, -24(%rbp)
	cmpq	$0, -8(%rbp)
	jne	.LBB77_2
# %bb.1:                                # %if.then
	jmp	.LBB77_10
.LBB77_2:                               # %if.end
	movq	-8(%rbp), %rax
	cmpb	$0, 5012(%rax)
	je	.LBB77_6
# %bb.3:                                # %if.then1
	movq	-8(%rbp), %rsi
	leaq	-12(%rbp), %rdi
	xorl	%edx, %edx
	xorl	%ecx, %ecx
	xorl	%r8d, %r8d
	callq	BZ2_bzWriteClose
	cmpl	$0, -12(%rbp)
	je	.LBB77_5
# %bb.4:                                # %if.then3
	movq	-8(%rbp), %rsi
	xorl	%edi, %edi
	movl	$1, %edx
	xorl	%ecx, %ecx
	xorl	%r8d, %r8d
	callq	BZ2_bzWriteClose
.LBB77_5:                               # %if.end4
	jmp	.LBB77_7
