	.text
	.file	"compress.c"
	.globl	BZ2_bsInitWrite         # -- Begin function BZ2_bsInitWrite
	.p2align	4, 0x90
	.type	BZ2_bsInitWrite,@function
BZ2_bsInitWrite:                        # @BZ2_bsInitWrite
	.cfi_startproc
# %bb.0:                                # %entry
	pushq	%rbp
	.cfi_def_cfa_offset 16
	.cfi_offset %rbp, -16
	movq	%rsp, %rbp
	.cfi_def_cfa_register %rbp
	movq	%rdi, -8(%rbp)
	movq	-8(%rbp), %rax
	movl	$0, 644(%rax)
	movq	-8(%rbp), %rax
	movl	$0, 640(%rax)
	popq	%rbp
	.cfi_def_cfa %rsp, 8
	retq
.Lfunc_end0:
	.size	BZ2_bsInitWrite, .Lfunc_end0-BZ2_bsInitWrite
	.cfi_endproc
                                        # -- End function
	.globl	BZ2_compressBlock       # -- Begin function BZ2_compressBlock
	.p2align	4, 0x90
	.type	BZ2_compressBlock,@function
BZ2_compressBlock:                      # @BZ2_compressBlock
	.cfi_startproc
# %bb.0:                                # %rand_bb
	pushq	%rbp
	.cfi_def_cfa_offset 16
	.cfi_offset %rbp, -16
	movq	%rsp, %rbp
	.cfi_def_cfa_register %rbp
	pushq	%r14
	pushq	%rbx
	.cfi_offset %rbx, -32
	.cfi_offset %r14, -24
	movl	%esi, %r14d
	movq	%rdi, %rbx
	callq	get_urand
	cmpl	$0, %eax
	jne	.LBB1_2
# %bb.1:                                # %func_BZ2_compressBlock.1
	movq	%rbx, %rdi
	movzbl	%r14b, %esi
	callq	BZ2_compressBlock.1
	popq	%rbx
	popq	%r14
	popq	%rbp
	.cfi_def_cfa %rsp, 8
	retq
.LBB1_2:                                # %func_BZ2_compressBlock.11
	.cfi_def_cfa %rbp, 16
	movq	%rbx, %rdi
	movzbl	%r14b, %esi
	callq	BZ2_compressBlock.11
	popq	%rbx
	popq	%r14
	popq	%rbp
	.cfi_def_cfa %rsp, 8
	retq
.Lfunc_end1:
	.size	BZ2_compressBlock, .Lfunc_end1-BZ2_compressBlock
	.cfi_endproc
                                        # -- End function
	.p2align	4, 0x90         # -- Begin function bsPutUChar
	.type	bsPutUChar,@function
bsPutUChar:                             # @bsPutUChar
	.cfi_startproc
# %bb.0:                                # %rand_bb
	pushq	%rbp
	.cfi_def_cfa_offset 16
	.cfi_offset %rbp, -16
	movq	%rsp, %rbp
	.cfi_def_cfa_register %rbp
	pushq	%r14
	pushq	%rbx
	.cfi_offset %rbx, -32
	.cfi_offset %r14, -24
	movl	%esi, %r14d
	movq	%rdi, %rbx
	callq	get_urand
	cmpl	$0, %eax
	jne	.LBB2_2
# %bb.1:                                # %func_bsPutUChar.6
	movq	%rbx, %rdi
	movzbl	%r14b, %esi
	callq	bsPutUChar.6
	popq	%rbx
	popq	%r14
	popq	%rbp
	.cfi_def_cfa %rsp, 8
	retq
.LBB2_2:                                # %func_bsPutUChar.7
	.cfi_def_cfa %rbp, 16
	movq	%rbx, %rdi
	movzbl	%r14b, %esi
	callq	bsPutUChar.7
	popq	%rbx
	popq	%r14
	popq	%rbp
	.cfi_def_cfa %rsp, 8
	retq
.Lfunc_end2:
	.size	bsPutUChar, .Lfunc_end2-bsPutUChar
	.cfi_endproc
                                        # -- End function
	.p2align	4, 0x90         # -- Begin function bsPutUInt32
	.type	bsPutUInt32,@function
bsPutUInt32:                            # @bsPutUInt32
	.cfi_startproc
# %bb.0:                                # %rand_bb
	pushq	%rbp
	.cfi_def_cfa_offset 16
	.cfi_offset %rbp, -16
	movq	%rsp, %rbp
	.cfi_def_cfa_register %rbp
	pushq	%r14
	pushq	%rbx
	.cfi_offset %rbx, -32
	.cfi_offset %r14, -24
	movl	%esi, %r14d
	movq	%rdi, %rbx
	callq	get_urand
	cmpl	$0, %eax
	jne	.LBB3_2
# %bb.1:                                # %func_bsPutUInt32.16
	movq	%rbx, %rdi
	movl	%r14d, %esi
	callq	bsPutUInt32.16
	popq	%rbx
	popq	%r14
	popq	%rbp
	.cfi_def_cfa %rsp, 8
	retq
.LBB3_2:                                # %func_bsPutUInt32.28
	.cfi_def_cfa %rbp, 16
	movq	%rbx, %rdi
	movl	%r14d, %esi
	callq	bsPutUInt32.28
	popq	%rbx
	popq	%r14
	popq	%rbp
	.cfi_def_cfa %rsp, 8
	retq
.Lfunc_end3:
	.size	bsPutUInt32, .Lfunc_end3-bsPutUInt32
	.cfi_endproc
                                        # -- End function
	.p2align	4, 0x90         # -- Begin function bsW
	.type	bsW,@function
bsW:                                    # @bsW
	.cfi_startproc
# %bb.0:                                # %rand_bb
	pushq	%rbp
	.cfi_def_cfa_offset 16
	.cfi_offset %rbp, -16
	movq	%rsp, %rbp
	.cfi_def_cfa_register %rbp
	pushq	%r15
	pushq	%r14
	pushq	%rbx
	pushq	%rax
	.cfi_offset %rbx, -40
	.cfi_offset %r14, -32
	.cfi_offset %r15, -24
	movl	%edx, %r14d
	movl	%esi, %r15d
	movq	%rdi, %rbx
	callq	get_urand
	cmpl	$0, %eax
	jne	.LBB4_7
# %bb.1:                                # %func_bsW.3
	movq	%rbx, %rdi
	movl	%r15d, %esi
	movl	%r14d, %edx
	callq	bsW.3
	addq	$8, %rsp
	popq	%rbx
	popq	%r14
	popq	%r15
	popq	%rbp
	.cfi_def_cfa %rsp, 8
	retq
.LBB4_2:                                # %func_bsW.5
	.cfi_def_cfa %rbp, 16
	movq	%rbx, %rdi
	movl	%r15d, %esi
	movl	%r14d, %edx
	callq	bsW.5
	addq	$8, %rsp
	popq	%rbx
	popq	%r14
	popq	%r15
	popq	%rbp
	.cfi_def_cfa %rsp, 8
	retq
.LBB4_3:                                # %func_bsW.9
	.cfi_def_cfa %rbp, 16
	movq	%rbx, %rdi
	movl	%r15d, %esi
	movl	%r14d, %edx
	callq	bsW.9
	addq	$8, %rsp
	popq	%rbx
	popq	%r14
	popq	%r15
	popq	%rbp
	.cfi_def_cfa %rsp, 8
	retq
.LBB4_4:                                # %func_bsW.12
	.cfi_def_cfa %rbp, 16
	movq	%rbx, %rdi
	movl	%r15d, %esi
	movl	%r14d, %edx
	callq	bsW.12
	addq	$8, %rsp
	popq	%rbx
	popq	%r14
	popq	%r15
	popq	%rbp
	.cfi_def_cfa %rsp, 8
	retq
.LBB4_5:                                # %func_bsW.20
	.cfi_def_cfa %rbp, 16
	movq	%rbx, %rdi
	movl	%r15d, %esi
	movl	%r14d, %edx
	callq	bsW.20
	addq	$8, %rsp
	popq	%rbx
	popq	%r14
	popq	%r15
	popq	%rbp
	.cfi_def_cfa %rsp, 8
	retq
.LBB4_6:                                # %func_bsW.23
	.cfi_def_cfa %rbp, 16
	movq	%rbx, %rdi
	movl	%r15d, %esi
	movl	%r14d, %edx
	callq	bsW.23
	addq	$8, %rsp
	popq	%rbx
	popq	%r14
	popq	%r15
	popq	%rbp
	.cfi_def_cfa %rsp, 8
	retq
.LBB4_7:                                # %ctrl0
	.cfi_def_cfa %rbp, 16
	cmpl	$1, %eax
	je	.LBB4_2
# %bb.8:                                # %ctrl1
	cmpl	$2, %eax
	je	.LBB4_3
# %bb.9:                                # %ctrl2
	cmpl	$3, %eax
	je	.LBB4_4
# %bb.10:                               # %ctrl3
	cmpl	$4, %eax
	je	.LBB4_5
	jmp	.LBB4_6
.Lfunc_end4:
	.size	bsW, .Lfunc_end4-bsW
	.cfi_endproc
                                        # -- End function
	.p2align	4, 0x90         # -- Begin function generateMTFValues
	.type	generateMTFValues,@function
generateMTFValues:                      # @generateMTFValues
	.cfi_startproc
# %bb.0:                                # %rand_bb
	pushq	%rbp
	.cfi_def_cfa_offset 16
	.cfi_offset %rbp, -16
	movq	%rsp, %rbp
	.cfi_def_cfa_register %rbp
	pushq	%rbx
	pushq	%rax
	.cfi_offset %rbx, -24
	movq	%rdi, %rbx
	callq	get_urand
	cmpl	$0, %eax
	jne	.LBB5_17
# %bb.1:                                # %func_generateMTFValues.14
	movq	%rbx, %rdi
	callq	generateMTFValues.14
	addq	$8, %rsp
	popq	%rbx
	popq	%rbp
	.cfi_def_cfa %rsp, 8
	retq
.LBB5_2:                                # %func_generateMTFValues.15
	.cfi_def_cfa %rbp, 16
	movq	%rbx, %rdi
	callq	generateMTFValues.15
	addq	$8, %rsp
	popq	%rbx
	popq	%rbp
	.cfi_def_cfa %rsp, 8
	retq
.LBB5_3:                                # %func_generateMTFValues.17
	.cfi_def_cfa %rbp, 16
	movq	%rbx, %rdi
	callq	generateMTFValues.17
	addq	$8, %rsp
	popq	%rbx
	popq	%rbp
	.cfi_def_cfa %rsp, 8
	retq
.LBB5_4:                                # %func_generateMTFValues.18
	.cfi_def_cfa %rbp, 16
	movq	%rbx, %rdi
	callq	generateMTFValues.18
	addq	$8, %rsp
	popq	%rbx
	popq	%rbp
	.cfi_def_cfa %rsp, 8
	retq
.LBB5_5:                                # %func_generateMTFValues.25
	.cfi_def_cfa %rbp, 16
	movq	%rbx, %rdi
	callq	generateMTFValues.25
	addq	$8, %rsp
	popq	%rbx
	popq	%rbp
	.cfi_def_cfa %rsp, 8
	retq
.LBB5_6:                                # %func_generateMTFValues.29
	.cfi_def_cfa %rbp, 16
	movq	%rbx, %rdi
	callq	generateMTFValues.29
	addq	$8, %rsp
	popq	%rbx
	popq	%rbp
	.cfi_def_cfa %rsp, 8
	retq
.LBB5_7:                                # %func_generateMTFValues.30
	.cfi_def_cfa %rbp, 16
	movq	%rbx, %rdi
	callq	generateMTFValues.30
	addq	$8, %rsp
	popq	%rbx
	popq	%rbp
	.cfi_def_cfa %rsp, 8
	retq
.LBB5_8:                                # %func_generateMTFValues.36
	.cfi_def_cfa %rbp, 16
	movq	%rbx, %rdi
	callq	generateMTFValues.36
	addq	$8, %rsp
	popq	%rbx
	popq	%rbp
	.cfi_def_cfa %rsp, 8
	retq
.LBB5_9:                                # %func_generateMTFValues.38
	.cfi_def_cfa %rbp, 16
	movq	%rbx, %rdi
	callq	generateMTFValues.38
	addq	$8, %rsp
	popq	%rbx
	popq	%rbp
	.cfi_def_cfa %rsp, 8
	retq
.LBB5_10:                               # %func_generateMTFValues.39
	.cfi_def_cfa %rbp, 16
	movq	%rbx, %rdi
	callq	generateMTFValues.39
	addq	$8, %rsp
	popq	%rbx
	popq	%rbp
	.cfi_def_cfa %rsp, 8
	retq
.LBB5_11:                               # %func_generateMTFValues.40
	.cfi_def_cfa %rbp, 16
	movq	%rbx, %rdi
	callq	generateMTFValues.40
	addq	$8, %rsp
	popq	%rbx
	popq	%rbp
	.cfi_def_cfa %rsp, 8
	retq
.LBB5_12:                               # %func_generateMTFValues.41
	.cfi_def_cfa %rbp, 16
	movq	%rbx, %rdi
	callq	generateMTFValues.41
	addq	$8, %rsp
	popq	%rbx
	popq	%rbp
	.cfi_def_cfa %rsp, 8
	retq
.LBB5_13:                               # %func_generateMTFValues.43
	.cfi_def_cfa %rbp, 16
	movq	%rbx, %rdi
	callq	generateMTFValues.43
	addq	$8, %rsp
	popq	%rbx
	popq	%rbp
	.cfi_def_cfa %rsp, 8
	retq
.LBB5_14:                               # %func_generateMTFValues.44
	.cfi_def_cfa %rbp, 16
	movq	%rbx, %rdi
	callq	generateMTFValues.44
	addq	$8, %rsp
	popq	%rbx
	popq	%rbp
	.cfi_def_cfa %rsp, 8
	retq
.LBB5_15:                               # %func_generateMTFValues.45
	.cfi_def_cfa %rbp, 16
	movq	%rbx, %rdi
	callq	generateMTFValues.45
	addq	$8, %rsp
	popq	%rbx
	popq	%rbp
	.cfi_def_cfa %rsp, 8
	retq
.LBB5_16:                               # %func_generateMTFValues.46
	.cfi_def_cfa %rbp, 16
	movq	%rbx, %rdi
	callq	generateMTFValues.46
	addq	$8, %rsp
	popq	%rbx
	popq	%rbp
	.cfi_def_cfa %rsp, 8
	retq
.LBB5_17:                               # %ctrl0
	.cfi_def_cfa %rbp, 16
	cmpl	$1, %eax
	je	.LBB5_2
# %bb.18:                               # %ctrl1
	cmpl	$2, %eax
	je	.LBB5_3
# %bb.19:                               # %ctrl2
	cmpl	$3, %eax
	je	.LBB5_4
# %bb.20:                               # %ctrl3
	cmpl	$4, %eax
	je	.LBB5_5
# %bb.21:                               # %ctrl4
	cmpl	$5, %eax
	je	.LBB5_6
# %bb.22:                               # %ctrl5
	cmpl	$6, %eax
	je	.LBB5_7
# %bb.23:                               # %ctrl6
	cmpl	$7, %eax
	je	.LBB5_8
# %bb.24:                               # %ctrl7
	cmpl	$8, %eax
	je	.LBB5_9
# %bb.25:                               # %ctrl8
	cmpl	$9, %eax
	je	.LBB5_10
# %bb.26:                               # %ctrl9
	cmpl	$10, %eax
	je	.LBB5_11
# %bb.27:                               # %ctrl10
	cmpl	$11, %eax
	je	.LBB5_12
# %bb.28:                               # %ctrl11
	cmpl	$12, %eax
	je	.LBB5_13
# %bb.29:                               # %ctrl12
	cmpl	$13, %eax
	je	.LBB5_14
# %bb.30:                               # %ctrl13
	cmpl	$14, %eax
	je	.LBB5_15
	jmp	.LBB5_16
.Lfunc_end5:
	.size	generateMTFValues, .Lfunc_end5-generateMTFValues
	.cfi_endproc
                                        # -- End function
	.p2align	4, 0x90         # -- Begin function sendMTFValues
	.type	sendMTFValues,@function
sendMTFValues:                          # @sendMTFValues
	.cfi_startproc
# %bb.0:                                # %rand_bb
	pushq	%rbp
	.cfi_def_cfa_offset 16
	.cfi_offset %rbp, -16
	movq	%rsp, %rbp
	.cfi_def_cfa_register %rbp
	pushq	%rbx
	pushq	%rax
	.cfi_offset %rbx, -24
	movq	%rdi, %rbx
	callq	get_urand
	cmpl	$0, %eax
	jne	.LBB6_17
# %bb.1:                                # %func_sendMTFValues.2
	movq	%rbx, %rdi
	callq	sendMTFValues.2
	addq	$8, %rsp
	popq	%rbx
	popq	%rbp
	.cfi_def_cfa %rsp, 8
	retq
.LBB6_2:                                # %func_sendMTFValues.10
	.cfi_def_cfa %rbp, 16
	movq	%rbx, %rdi
	callq	sendMTFValues.10
	addq	$8, %rsp
	popq	%rbx
	popq	%rbp
	.cfi_def_cfa %rsp, 8
	retq
.LBB6_3:                                # %func_sendMTFValues.13
	.cfi_def_cfa %rbp, 16
	movq	%rbx, %rdi
	callq	sendMTFValues.13
	addq	$8, %rsp
	popq	%rbx
	popq	%rbp
	.cfi_def_cfa %rsp, 8
	retq
.LBB6_4:                                # %func_sendMTFValues.19
	.cfi_def_cfa %rbp, 16
	movq	%rbx, %rdi
	callq	sendMTFValues.19
	addq	$8, %rsp
	popq	%rbx
	popq	%rbp
	.cfi_def_cfa %rsp, 8
	retq
.LBB6_5:                                # %func_sendMTFValues.21
	.cfi_def_cfa %rbp, 16
	movq	%rbx, %rdi
	callq	sendMTFValues.21
	addq	$8, %rsp
	popq	%rbx
	popq	%rbp
	.cfi_def_cfa %rsp, 8
	retq
.LBB6_6:                                # %func_sendMTFValues.22
	.cfi_def_cfa %rbp, 16
	movq	%rbx, %rdi
	callq	sendMTFValues.22
	addq	$8, %rsp
	popq	%rbx
	popq	%rbp
	.cfi_def_cfa %rsp, 8
	retq
.LBB6_7:                                # %func_sendMTFValues.24
	.cfi_def_cfa %rbp, 16
	movq	%rbx, %rdi
	callq	sendMTFValues.24
	addq	$8, %rsp
	popq	%rbx
	popq	%rbp
	.cfi_def_cfa %rsp, 8
	retq
.LBB6_8:                                # %func_sendMTFValues.26
	.cfi_def_cfa %rbp, 16
	movq	%rbx, %rdi
	callq	sendMTFValues.26
	addq	$8, %rsp
	popq	%rbx
	popq	%rbp
	.cfi_def_cfa %rsp, 8
	retq
.LBB6_9:                                # %func_sendMTFValues.27
	.cfi_def_cfa %rbp, 16
	movq	%rbx, %rdi
	callq	sendMTFValues.27
	addq	$8, %rsp
	popq	%rbx
	popq	%rbp
	.cfi_def_cfa %rsp, 8
	retq
.LBB6_10:                               # %func_sendMTFValues.31
	.cfi_def_cfa %rbp, 16
	movq	%rbx, %rdi
	callq	sendMTFValues.31
	addq	$8, %rsp
	popq	%rbx
	popq	%rbp
	.cfi_def_cfa %rsp, 8
	retq
.LBB6_11:                               # %func_sendMTFValues.32
	.cfi_def_cfa %rbp, 16
	movq	%rbx, %rdi
	callq	sendMTFValues.32
	addq	$8, %rsp
	popq	%rbx
	popq	%rbp
	.cfi_def_cfa %rsp, 8
	retq
.LBB6_12:                               # %func_sendMTFValues.33
	.cfi_def_cfa %rbp, 16
	movq	%rbx, %rdi
	callq	sendMTFValues.33
	addq	$8, %rsp
	popq	%rbx
	popq	%rbp
	.cfi_def_cfa %rsp, 8
	retq
.LBB6_13:                               # %func_sendMTFValues.34
	.cfi_def_cfa %rbp, 16
	movq	%rbx, %rdi
	callq	sendMTFValues.34
	addq	$8, %rsp
	popq	%rbx
	popq	%rbp
	.cfi_def_cfa %rsp, 8
	retq
.LBB6_14:                               # %func_sendMTFValues.35
	.cfi_def_cfa %rbp, 16
	movq	%rbx, %rdi
	callq	sendMTFValues.35
	addq	$8, %rsp
	popq	%rbx
	popq	%rbp
	.cfi_def_cfa %rsp, 8
	retq
.LBB6_15:                               # %func_sendMTFValues.37
	.cfi_def_cfa %rbp, 16
	movq	%rbx, %rdi
	callq	sendMTFValues.37
	addq	$8, %rsp
	popq	%rbx
	popq	%rbp
	.cfi_def_cfa %rsp, 8
	retq
.LBB6_16:                               # %func_sendMTFValues.42
	.cfi_def_cfa %rbp, 16
	movq	%rbx, %rdi
	callq	sendMTFValues.42
	addq	$8, %rsp
	popq	%rbx
	popq	%rbp
	.cfi_def_cfa %rsp, 8
	retq
.LBB6_17:                               # %ctrl0
	.cfi_def_cfa %rbp, 16
	cmpl	$1, %eax
	je	.LBB6_2
# %bb.18:                               # %ctrl1
	cmpl	$2, %eax
	je	.LBB6_3
# %bb.19:                               # %ctrl2
	cmpl	$3, %eax
	je	.LBB6_4
# %bb.20:                               # %ctrl3
	cmpl	$4, %eax
	je	.LBB6_5
# %bb.21:                               # %ctrl4
	cmpl	$5, %eax
	je	.LBB6_6
# %bb.22:                               # %ctrl5
	cmpl	$6, %eax
	je	.LBB6_7
# %bb.23:                               # %ctrl6
	cmpl	$7, %eax
	je	.LBB6_8
# %bb.24:                               # %ctrl7
	cmpl	$8, %eax
	je	.LBB6_9
# %bb.25:                               # %ctrl8
	cmpl	$9, %eax
	je	.LBB6_10
# %bb.26:                               # %ctrl9
	cmpl	$10, %eax
	je	.LBB6_11
# %bb.27:                               # %ctrl10
	cmpl	$11, %eax
	je	.LBB6_12
# %bb.28:                               # %ctrl11
	cmpl	$12, %eax
	je	.LBB6_13
# %bb.29:                               # %ctrl12
	cmpl	$13, %eax
	je	.LBB6_14
# %bb.30:                               # %ctrl13
	cmpl	$14, %eax
	je	.LBB6_15
	jmp	.LBB6_16
.Lfunc_end6:
	.size	sendMTFValues, .Lfunc_end6-sendMTFValues
	.cfi_endproc
                                        # -- End function
	.p2align	4, 0x90         # -- Begin function bsFinishWrite
	.type	bsFinishWrite,@function
bsFinishWrite:                          # @bsFinishWrite
	.cfi_startproc
# %bb.0:                                # %entry
	pushq	%rbp
	.cfi_def_cfa_offset 16
	.cfi_offset %rbp, -16
	movq	%rsp, %rbp
	.cfi_def_cfa_register %rbp
	movq	%rdi, -8(%rbp)
.LBB7_1:                                # %while.cond
                                        # =>This Inner Loop Header: Depth=1
	movq	-8(%rbp), %rax
	cmpl	$0, 644(%rax)
	jle	.LBB7_3
# %bb.2:                                # %while.body
                                        #   in Loop: Header=BB7_1 Depth=1
	movq	-8(%rbp), %rax
	movl	640(%rax), %eax
	shrl	$24, %eax
	movq	-8(%rbp), %rcx
	movq	80(%rcx), %rcx
	movq	-8(%rbp), %rdx
	movslq	116(%rdx), %rdx
	movb	%al, (%rcx,%rdx)
	movq	-8(%rbp), %rax
	movl	116(%rax), %ecx
	addl	$1, %ecx
	movl	%ecx, 116(%rax)
	movq	-8(%rbp), %rax
	movl	640(%rax), %ecx
	shll	$8, %ecx
	movl	%ecx, 640(%rax)
	movq	-8(%rbp), %rax
	movl	644(%rax), %ecx
	subl	$8, %ecx
	movl	%ecx, 644(%rax)
	jmp	.LBB7_1
.LBB7_3:                                # %while.end
	popq	%rbp
	.cfi_def_cfa %rsp, 8
	retq
.Lfunc_end7:
	.size	bsFinishWrite, .Lfunc_end7-bsFinishWrite
	.cfi_endproc
                                        # -- End function
	.p2align	4, 0x90         # -- Begin function makeMaps_e
	.type	makeMaps_e,@function
makeMaps_e:                             # @makeMaps_e
	.cfi_startproc
# %bb.0:                                # %rand_bb
	pushq	%rbp
	.cfi_def_cfa_offset 16
	.cfi_offset %rbp, -16
	movq	%rsp, %rbp
	.cfi_def_cfa_register %rbp
	pushq	%rbx
	pushq	%rax
	.cfi_offset %rbx, -24
	movq	%rdi, %rbx
	callq	get_urand
	cmpl	$0, %eax
	jne	.LBB8_2
# %bb.1:                                # %func_makeMaps_e.4
	movq	%rbx, %rdi
	callq	makeMaps_e.4
	addq	$8, %rsp
	popq	%rbx
	popq	%rbp
	.cfi_def_cfa %rsp, 8
	retq
.LBB8_2:                                # %func_makeMaps_e.8
	.cfi_def_cfa %rbp, 16
	movq	%rbx, %rdi
	callq	makeMaps_e.8
	addq	$8, %rsp
	popq	%rbx
	popq	%rbp
	.cfi_def_cfa %rsp, 8
	retq
.Lfunc_end8:
	.size	makeMaps_e, .Lfunc_end8-makeMaps_e
	.cfi_endproc
                                        # -- End function
	.globl	BZ2_compressBlock.1     # -- Begin function BZ2_compressBlock.1
	.p2align	4, 0x90
	.type	BZ2_compressBlock.1,@function
BZ2_compressBlock.1:                    # @BZ2_compressBlock.1
	.cfi_startproc
# %bb.0:                                # %entry
	pushq	%rbp
	.cfi_def_cfa_offset 16
	.cfi_offset %rbp, -16
	movq	%rsp, %rbp
	.cfi_def_cfa_register %rbp
	subq	$16, %rsp
	movl	$699604238, -16(%rbp)   # imm = 0x29B31D0E
	movq	%rdi, -8(%rbp)
	movb	%sil, -9(%rbp)
	movq	-8(%rbp), %rax
	cmpl	$0, 108(%rax)
	jle	.LBB9_6
# %bb.1:                                # %if.then
	movq	-8(%rbp), %rax
	movl	648(%rax), %eax
	xorl	$-1, %eax
	movq	-8(%rbp), %rcx
	movl	%eax, 648(%rcx)
	movq	-8(%rbp), %rax
	movl	652(%rax), %eax
	shll	$1, %eax
	movq	-8(%rbp), %rcx
	movl	652(%rcx), %ecx
	shrl	$31, %ecx
	orl	%ecx, %eax
	movq	-8(%rbp), %rcx
	movl	%eax, 652(%rcx)
	movq	-8(%rbp), %rax
	movl	648(%rax), %eax
	movq	-8(%rbp), %rcx
	xorl	652(%rcx), %eax
	movl	%eax, 652(%rcx)
	movq	-8(%rbp), %rax
	cmpl	$1, 660(%rax)
	jle	.LBB9_3
# %bb.2:                                # %if.then7
	movq	-8(%rbp), %rax
	movl	$0, 116(%rax)
.LBB9_3:                                # %if.end
	movq	-8(%rbp), %rax
	cmpl	$2, 656(%rax)
	jl	.LBB9_5
# %bb.4:                                # %if.then9
	movq	stderr, %rdi
	movq	-8(%rbp), %rax
	movl	660(%rax), %edx
	movq	-8(%rbp), %rax
	movl	648(%rax), %ecx
	movq	-8(%rbp), %rax
	movl	652(%rax), %r8d
	movq	-8(%rbp), %rax
	movl	108(%rax), %r9d
	movabsq	$.L.str, %rsi
	movb	$0, %al
	callq	fprintf
.LBB9_5:                                # %if.end14
	movq	-8(%rbp), %rdi
	callq	BZ2_blockSort
.LBB9_6:                                # %if.end15
	movq	-8(%rbp), %rax
	movq	32(%rax), %rax
	movq	-8(%rbp), %rcx
	movslq	108(%rcx), %rcx
	addq	%rcx, %rax
	movq	-8(%rbp), %rcx
	movq	%rax, 80(%rcx)
	movq	-8(%rbp), %rax
	cmpl	$1, 660(%rax)
	jne	.LBB9_8
# %bb.7:                                # %if.then19
	movq	-8(%rbp), %rdi
	callq	BZ2_bsInitWrite
	movq	-8(%rbp), %rdi
	movl	$66, %esi
	callq	bsPutUChar
	movq	-8(%rbp), %rdi
	movl	$90, %esi
	callq	bsPutUChar
	movq	-8(%rbp), %rdi
	movl	$104, %esi
	callq	bsPutUChar
	movq	-8(%rbp), %rdi
	movq	-8(%rbp), %rax
	movl	664(%rax), %eax
	addl	$48, %eax
	movzbl	%al, %esi
	callq	bsPutUChar
.LBB9_8:                                # %if.end20
	movq	-8(%rbp), %rax
	cmpl	$0, 108(%rax)
	jle	.LBB9_10
# %bb.9:                                # %if.then24
	movq	-8(%rbp), %rdi
	movl	$49, %esi
	callq	bsPutUChar
	movq	-8(%rbp), %rdi
	movl	$65, %esi
	callq	bsPutUChar
	movq	-8(%rbp), %rdi
	movl	$89, %esi
	callq	bsPutUChar
	movq	-8(%rbp), %rdi
	movl	$38, %esi
	callq	bsPutUChar
	movq	-8(%rbp), %rdi
	movl	$83, %esi
	callq	bsPutUChar
	movq	-8(%rbp), %rdi
	movl	$89, %esi
	callq	bsPutUChar
	movq	-8(%rbp), %rdi
	movq	-8(%rbp), %rax
	movl	648(%rax), %esi
	callq	bsPutUInt32
	movq	-8(%rbp), %rdi
	movl	$1, %esi
	xorl	%edx, %edx
	callq	bsW
	movq	-8(%rbp), %rdi
	movq	-8(%rbp), %rax
	movl	48(%rax), %edx
	movl	$24, %esi
	callq	bsW
	movq	-8(%rbp), %rdi
	callq	generateMTFValues
	movq	-8(%rbp), %rdi
	callq	sendMTFValues
.LBB9_10:                               # %if.end26
	cmpb	$0, -9(%rbp)
	je	.LBB9_14
# %bb.11:                               # %if.then27
	movq	-8(%rbp), %rdi
	movl	$23, %esi
	callq	bsPutUChar
	movq	-8(%rbp), %rdi
	movl	$114, %esi
	callq	bsPutUChar
	movq	-8(%rbp), %rdi
	movl	$69, %esi
	callq	bsPutUChar
	movq	-8(%rbp), %rdi
	movl	$56, %esi
	callq	bsPutUChar
	movq	-8(%rbp), %rdi
	movl	$80, %esi
	callq	bsPutUChar
	movq	-8(%rbp), %rdi
	movl	$144, %esi
	callq	bsPutUChar
	movq	-8(%rbp), %rdi
	movq	-8(%rbp), %rax
	movl	652(%rax), %esi
	callq	bsPutUInt32
	movq	-8(%rbp), %rax
	cmpl	$2, 656(%rax)
	jl	.LBB9_13
# %bb.12:                               # %if.then32
	movq	stderr, %rdi
	movq	-8(%rbp), %rax
	movl	652(%rax), %edx
	movabsq	$.L.str.1, %rsi
	movb	$0, %al
	callq	fprintf
.LBB9_13:                               # %if.end35
	movq	-8(%rbp), %rdi
	callq	bsFinishWrite
.LBB9_14:                               # %if.end36
	cmpl	$699604238, -16(%rbp)   # imm = 0x29B31D0E
	jne	.LBB9_16
.LBB9_15:
	addq	$16, %rsp
	popq	%rbp
	.cfi_def_cfa %rsp, 8
	retq
.LBB9_16:                               # %func_exit
	.cfi_def_cfa %rbp, 16
	callq	detect_breach
	jmp	.LBB9_15
.Lfunc_end9:
	.size	BZ2_compressBlock.1, .Lfunc_end9-BZ2_compressBlock.1
	.cfi_endproc
                                        # -- End function
	.section	.rodata.cst8,"aM",@progbits,8
	.p2align	3               # -- Begin function sendMTFValues.2
.LCPI10_0:
	.quad	4636737291354636288     # double 100
	.text
	.p2align	4, 0x90
	.type	sendMTFValues.2,@function
sendMTFValues.2:                        # @sendMTFValues.2
	.cfi_startproc
# %bb.0:                                # %entry
	pushq	%rbp
	.cfi_def_cfa_offset 16
	.cfi_offset %rbp, -16
	movq	%rsp, %rbp
	.cfi_def_cfa_register %rbp
	subq	$224, %rsp
	movl	$1228927033, -172(%rbp) # imm = 0x493FF039
	movq	%rdi, -16(%rbp)
	movq	-16(%rbp), %rax
	movq	72(%rax), %rax
	movq	%rax, -40(%rbp)
	movq	-16(%rbp), %rax
	cmpl	$3, 656(%rax)
	jl	.LBB10_2
# %bb.1:                                # %if.then
	movq	stderr, %rdi
	movq	-16(%rbp), %rax
	movl	108(%rax), %edx
	movq	-16(%rbp), %rax
	movl	668(%rax), %ecx
	movq	-16(%rbp), %rax
	movl	124(%rax), %r8d
	movabsq	$.L.str.2, %rsi
	movb	$0, %al
	callq	fprintf
.LBB10_2:                               # %if.end
	movq	-16(%rbp), %rax
	movl	124(%rax), %eax
	addl	$2, %eax
	movl	%eax, -100(%rbp)
	movl	$0, -48(%rbp)
.LBB10_3:                               # %for.cond
                                        # =>This Loop Header: Depth=1
                                        #     Child Loop BB10_5 Depth 2
	cmpl	$6, -48(%rbp)
	jge	.LBB10_10
# %bb.4:                                # %for.body
                                        #   in Loop: Header=BB10_3 Depth=1
	movl	$0, -56(%rbp)
.LBB10_5:                               # %for.cond4
                                        #   Parent Loop BB10_3 Depth=1
                                        # =>  This Inner Loop Header: Depth=2
	movl	-56(%rbp), %eax
	cmpl	-100(%rbp), %eax
	jge	.LBB10_8
# %bb.6:                                # %for.body6
                                        #   in Loop: Header=BB10_5 Depth=2
	movq	-16(%rbp), %rax
	addq	$37708, %rax            # imm = 0x934C
	movslq	-48(%rbp), %rcx
	imulq	$258, %rcx, %rcx        # imm = 0x102
	addq	%rcx, %rax
	movslq	-56(%rbp), %rcx
	movb	$15, (%rax,%rcx)
# %bb.7:                                # %for.inc
                                        #   in Loop: Header=BB10_5 Depth=2
	movl	-56(%rbp), %eax
	addl	$1, %eax
	movl	%eax, -56(%rbp)
	jmp	.LBB10_5
.LBB10_8:                               # %for.end
                                        #   in Loop: Header=BB10_3 Depth=1
	jmp	.LBB10_9
.LBB10_9:                               # %for.inc9
                                        #   in Loop: Header=BB10_3 Depth=1
	movl	-48(%rbp), %eax
	addl	$1, %eax
	movl	%eax, -48(%rbp)
	jmp	.LBB10_3
.LBB10_10:                              # %for.end11
	movq	-16(%rbp), %rax
	cmpl	$0, 668(%rax)
	jg	.LBB10_12
# %bb.11:                               # %if.then14
	movl	$3001, %edi             # imm = 0xBB9
	callq	BZ2_bz__AssertH__fail
.LBB10_12:                              # %if.end15
	movq	-16(%rbp), %rax
	cmpl	$200, 668(%rax)
	jge	.LBB10_14
# %bb.13:                               # %if.then18
	movl	$2, -84(%rbp)
	jmp	.LBB10_24
.LBB10_14:                              # %if.else
	movq	-16(%rbp), %rax
	cmpl	$600, 668(%rax)         # imm = 0x258
	jge	.LBB10_16
# %bb.15:                               # %if.then21
	movl	$3, -84(%rbp)
	jmp	.LBB10_23
.LBB10_16:                              # %if.else22
	movq	-16(%rbp), %rax
	cmpl	$1200, 668(%rax)        # imm = 0x4B0
	jge	.LBB10_18
# %bb.17:                               # %if.then25
	movl	$4, -84(%rbp)
	jmp	.LBB10_22
.LBB10_18:                              # %if.else26
	movq	-16(%rbp), %rax
	cmpl	$2400, 668(%rax)        # imm = 0x960
	jge	.LBB10_20
# %bb.19:                               # %if.then29
	movl	$5, -84(%rbp)
	jmp	.LBB10_21
.LBB10_20:                              # %if.else30
	movl	$6, -84(%rbp)
.LBB10_21:                              # %if.end31
	jmp	.LBB10_22
.LBB10_22:                              # %if.end32
	jmp	.LBB10_23
.LBB10_23:                              # %if.end33
	jmp	.LBB10_24
.LBB10_24:                              # %if.end34
	movl	-84(%rbp), %eax
	movl	%eax, -96(%rbp)
	movq	-16(%rbp), %rax
	movl	668(%rax), %eax
	movl	%eax, -140(%rbp)
	movl	$0, -20(%rbp)
.LBB10_25:                              # %while.cond
                                        # =>This Loop Header: Depth=1
                                        #     Child Loop BB10_27 Depth 2
                                        #     Child Loop BB10_39 Depth 2
	cmpl	$0, -96(%rbp)
	jle	.LBB10_47
# %bb.26:                               # %while.body
                                        #   in Loop: Header=BB10_25 Depth=1
	movl	-140(%rbp), %eax
	cltd
	idivl	-96(%rbp)
	movl	%eax, -176(%rbp)
	movl	-20(%rbp), %eax
	subl	$1, %eax
	movl	%eax, -60(%rbp)
	movl	$0, -108(%rbp)
.LBB10_27:                              # %while.cond37
                                        #   Parent Loop BB10_25 Depth=1
                                        # =>  This Inner Loop Header: Depth=2
	xorl	%eax, %eax
	movl	-108(%rbp), %ecx
	cmpl	-176(%rbp), %ecx
	jge	.LBB10_29
# %bb.28:                               # %land.rhs
                                        #   in Loop: Header=BB10_27 Depth=2
	movl	-60(%rbp), %eax
	movl	-100(%rbp), %ecx
	subl	$1, %ecx
	cmpl	%ecx, %eax
	setl	%al
.LBB10_29:                              # %land.end
                                        #   in Loop: Header=BB10_27 Depth=2
	testb	$1, %al
	jne	.LBB10_30
	jmp	.LBB10_31
.LBB10_30:                              # %while.body41
                                        #   in Loop: Header=BB10_27 Depth=2
	movl	-60(%rbp), %eax
	addl	$1, %eax
	movl	%eax, -60(%rbp)
	movq	-16(%rbp), %rax
	movslq	-60(%rbp), %rcx
	movl	672(%rax,%rcx,4), %eax
	addl	-108(%rbp), %eax
	movl	%eax, -108(%rbp)
	jmp	.LBB10_27
.LBB10_31:                              # %while.end
                                        #   in Loop: Header=BB10_25 Depth=1
	movl	-60(%rbp), %eax
	cmpl	-20(%rbp), %eax
	jle	.LBB10_36
# %bb.32:                               # %land.lhs.true
                                        #   in Loop: Header=BB10_25 Depth=1
	movl	-96(%rbp), %eax
	cmpl	-84(%rbp), %eax
	je	.LBB10_36
# %bb.33:                               # %land.lhs.true48
                                        #   in Loop: Header=BB10_25 Depth=1
	cmpl	$1, -96(%rbp)
	je	.LBB10_36
# %bb.34:                               # %land.lhs.true50
                                        #   in Loop: Header=BB10_25 Depth=1
	movl	-84(%rbp), %eax
	subl	-96(%rbp), %eax
	cltd
	movl	$2, %ecx
	idivl	%ecx
	cmpl	$1, %edx
	jne	.LBB10_36
# %bb.35:                               # %if.then53
                                        #   in Loop: Header=BB10_25 Depth=1
	movq	-16(%rbp), %rax
	movslq	-60(%rbp), %rcx
	movl	672(%rax,%rcx,4), %eax
	movl	-108(%rbp), %ecx
	subl	%eax, %ecx
	movl	%ecx, -108(%rbp)
	movl	-60(%rbp), %eax
	addl	$-1, %eax
	movl	%eax, -60(%rbp)
.LBB10_36:                              # %if.end58
                                        #   in Loop: Header=BB10_25 Depth=1
	movq	-16(%rbp), %rax
	cmpl	$3, 656(%rax)
	jl	.LBB10_38
# %bb.37:                               # %if.then61
                                        #   in Loop: Header=BB10_25 Depth=1
	vmovsd	.LCPI10_0(%rip), %xmm0  # xmm0 = mem[0],zero
	movq	stderr, %rdi
	movl	-96(%rbp), %edx
	movl	-20(%rbp), %ecx
	movl	-60(%rbp), %r8d
	movl	-108(%rbp), %r9d
	vcvtsi2ssl	-108(%rbp), %xmm0, %xmm1
	vcvtss2sd	%xmm1, %xmm0, %xmm1
	vmulsd	%xmm1, %xmm0, %xmm0
	movq	-16(%rbp), %rax
	vcvtsi2ssl	668(%rax), %xmm0, %xmm1
	vcvtss2sd	%xmm1, %xmm0, %xmm1
	vdivsd	%xmm1, %xmm0, %xmm0
	movabsq	$.L.str.3, %rsi
	movb	$1, %al
	callq	fprintf
.LBB10_38:                              # %if.end68
                                        #   in Loop: Header=BB10_25 Depth=1
	movl	$0, -56(%rbp)
.LBB10_39:                              # %for.cond69
                                        #   Parent Loop BB10_25 Depth=1
                                        # =>  This Inner Loop Header: Depth=2
	movl	-56(%rbp), %eax
	cmpl	-100(%rbp), %eax
	jge	.LBB10_46
# %bb.40:                               # %for.body72
                                        #   in Loop: Header=BB10_39 Depth=2
	movl	-56(%rbp), %eax
	cmpl	-20(%rbp), %eax
	jl	.LBB10_43
# %bb.41:                               # %land.lhs.true75
                                        #   in Loop: Header=BB10_39 Depth=2
	movl	-56(%rbp), %eax
	cmpl	-60(%rbp), %eax
	jg	.LBB10_43
# %bb.42:                               # %if.then78
                                        #   in Loop: Header=BB10_39 Depth=2
	movq	-16(%rbp), %rax
	addq	$37708, %rax            # imm = 0x934C
	movl	-96(%rbp), %ecx
	subl	$1, %ecx
	movslq	%ecx, %rcx
	imulq	$258, %rcx, %rcx        # imm = 0x102
	addq	%rcx, %rax
	movslq	-56(%rbp), %rcx
	movb	$0, (%rax,%rcx)
	jmp	.LBB10_44
.LBB10_43:                              # %if.else85
                                        #   in Loop: Header=BB10_39 Depth=2
	movq	-16(%rbp), %rax
	addq	$37708, %rax            # imm = 0x934C
	movl	-96(%rbp), %ecx
	subl	$1, %ecx
	movslq	%ecx, %rcx
	imulq	$258, %rcx, %rcx        # imm = 0x102
	addq	%rcx, %rax
	movslq	-56(%rbp), %rcx
	movb	$15, (%rax,%rcx)
.LBB10_44:                              # %if.end92
                                        #   in Loop: Header=BB10_39 Depth=2
	jmp	.LBB10_45
.LBB10_45:                              # %for.inc93
                                        #   in Loop: Header=BB10_39 Depth=2
	movl	-56(%rbp), %eax
	addl	$1, %eax
	movl	%eax, -56(%rbp)
	jmp	.LBB10_39
.LBB10_46:                              # %for.end95
                                        #   in Loop: Header=BB10_25 Depth=1
	movl	-96(%rbp), %eax
	addl	$-1, %eax
	movl	%eax, -96(%rbp)
	movl	-60(%rbp), %eax
	addl	$1, %eax
	movl	%eax, -20(%rbp)
	movl	-108(%rbp), %eax
	movl	-140(%rbp), %ecx
	subl	%eax, %ecx
	movl	%ecx, -140(%rbp)
	jmp	.LBB10_25
.LBB10_47:                              # %while.end99
	movl	$0, -132(%rbp)
.LBB10_48:                              # %for.cond100
                                        # =>This Loop Header: Depth=1
                                        #     Child Loop BB10_50 Depth 2
                                        #     Child Loop BB10_54 Depth 2
                                        #       Child Loop BB10_56 Depth 3
                                        #     Child Loop BB10_63 Depth 2
                                        #     Child Loop BB10_68 Depth 2
                                        #       Child Loop BB10_73 Depth 3
                                        #       Child Loop BB10_80 Depth 3
                                        #         Child Loop BB10_82 Depth 4
                                        #       Child Loop BB10_89 Depth 3
                                        #       Child Loop BB10_98 Depth 3
                                        #     Child Loop BB10_105 Depth 2
                                        #     Child Loop BB10_110 Depth 2
	cmpl	$4, -132(%rbp)
	jge	.LBB10_115
# %bb.49:                               # %for.body103
                                        #   in Loop: Header=BB10_48 Depth=1
	movl	$0, -48(%rbp)
.LBB10_50:                              # %for.cond104
                                        #   Parent Loop BB10_48 Depth=1
                                        # =>  This Inner Loop Header: Depth=2
	movl	-48(%rbp), %eax
	cmpl	-84(%rbp), %eax
	jge	.LBB10_53
# %bb.51:                               # %for.body107
                                        #   in Loop: Header=BB10_50 Depth=2
	movslq	-48(%rbp), %rax
	movl	$0, -224(%rbp,%rax,4)
# %bb.52:                               # %for.inc110
                                        #   in Loop: Header=BB10_50 Depth=2
	movl	-48(%rbp), %eax
	addl	$1, %eax
	movl	%eax, -48(%rbp)
	jmp	.LBB10_50
.LBB10_53:                              # %for.end112
                                        #   in Loop: Header=BB10_48 Depth=1
	movl	$0, -48(%rbp)
.LBB10_54:                              # %for.cond113
                                        #   Parent Loop BB10_48 Depth=1
                                        # =>  This Loop Header: Depth=2
                                        #       Child Loop BB10_56 Depth 3
	movl	-48(%rbp), %eax
	cmpl	-84(%rbp), %eax
	jge	.LBB10_61
# %bb.55:                               # %for.body116
                                        #   in Loop: Header=BB10_54 Depth=2
	movl	$0, -56(%rbp)
.LBB10_56:                              # %for.cond117
                                        #   Parent Loop BB10_48 Depth=1
                                        #     Parent Loop BB10_54 Depth=2
                                        # =>    This Inner Loop Header: Depth=3
	movl	-56(%rbp), %eax
	cmpl	-100(%rbp), %eax
	jge	.LBB10_59
# %bb.57:                               # %for.body120
                                        #   in Loop: Header=BB10_56 Depth=3
	movq	-16(%rbp), %rax
	addq	$45448, %rax            # imm = 0xB188
	movslq	-48(%rbp), %rcx
	imulq	$1032, %rcx, %rcx       # imm = 0x408
	addq	%rcx, %rax
	movslq	-56(%rbp), %rcx
	movl	$0, (%rax,%rcx,4)
# %bb.58:                               # %for.inc125
                                        #   in Loop: Header=BB10_56 Depth=3
	movl	-56(%rbp), %eax
	addl	$1, %eax
	movl	%eax, -56(%rbp)
	jmp	.LBB10_56
.LBB10_59:                              # %for.end127
                                        #   in Loop: Header=BB10_54 Depth=2
	jmp	.LBB10_60
.LBB10_60:                              # %for.inc128
                                        #   in Loop: Header=BB10_54 Depth=2
	movl	-48(%rbp), %eax
	addl	$1, %eax
	movl	%eax, -48(%rbp)
	jmp	.LBB10_54
.LBB10_61:                              # %for.end130
                                        #   in Loop: Header=BB10_48 Depth=1
	cmpl	$6, -84(%rbp)
	jne	.LBB10_67
# %bb.62:                               # %if.then133
                                        #   in Loop: Header=BB10_48 Depth=1
	movl	$0, -56(%rbp)
.LBB10_63:                              # %for.cond134
                                        #   Parent Loop BB10_48 Depth=1
                                        # =>  This Inner Loop Header: Depth=2
	movl	-56(%rbp), %eax
	cmpl	-100(%rbp), %eax
	jge	.LBB10_66
# %bb.64:                               # %for.body137
                                        #   in Loop: Header=BB10_63 Depth=2
	movq	-16(%rbp), %rax
	movslq	-56(%rbp), %rcx
	movzbl	37966(%rax,%rcx), %eax
	shll	$16, %eax
	movq	-16(%rbp), %rcx
	movslq	-56(%rbp), %rdx
	movzbl	37708(%rcx,%rdx), %ecx
	orl	%ecx, %eax
	movq	-16(%rbp), %rcx
	addq	$51640, %rcx            # imm = 0xC9B8
	movslq	-56(%rbp), %rdx
	shlq	$4, %rdx
	addq	%rdx, %rcx
	movl	%eax, (%rcx)
	movq	-16(%rbp), %rax
	movslq	-56(%rbp), %rcx
	movzbl	38482(%rax,%rcx), %eax
	shll	$16, %eax
	movq	-16(%rbp), %rcx
	movslq	-56(%rbp), %rdx
	movzbl	38224(%rcx,%rdx), %ecx
	orl	%ecx, %eax
	movq	-16(%rbp), %rcx
	addq	$51640, %rcx            # imm = 0xC9B8
	movslq	-56(%rbp), %rdx
	shlq	$4, %rdx
	addq	%rdx, %rcx
	movl	%eax, 4(%rcx)
	movq	-16(%rbp), %rax
	movslq	-56(%rbp), %rcx
	movzbl	38998(%rax,%rcx), %eax
	shll	$16, %eax
	movq	-16(%rbp), %rcx
	movslq	-56(%rbp), %rdx
	movzbl	38740(%rcx,%rdx), %ecx
	orl	%ecx, %eax
	movq	-16(%rbp), %rcx
	addq	$51640, %rcx            # imm = 0xC9B8
	movslq	-56(%rbp), %rdx
	shlq	$4, %rdx
	addq	%rdx, %rcx
	movl	%eax, 8(%rcx)
# %bb.65:                               # %for.inc183
                                        #   in Loop: Header=BB10_63 Depth=2
	movl	-56(%rbp), %eax
	addl	$1, %eax
	movl	%eax, -56(%rbp)
	jmp	.LBB10_63
.LBB10_66:                              # %for.end185
                                        #   in Loop: Header=BB10_48 Depth=1
	jmp	.LBB10_67
.LBB10_67:                              # %if.end186
                                        #   in Loop: Header=BB10_48 Depth=1
	movl	$0, -104(%rbp)
	movl	$0, -144(%rbp)
	movl	$0, -20(%rbp)
.LBB10_68:                              # %while.body188
                                        #   Parent Loop BB10_48 Depth=1
                                        # =>  This Loop Header: Depth=2
                                        #       Child Loop BB10_73 Depth 3
                                        #       Child Loop BB10_80 Depth 3
                                        #         Child Loop BB10_82 Depth 4
                                        #       Child Loop BB10_89 Depth 3
                                        #       Child Loop BB10_98 Depth 3
	movl	-20(%rbp), %eax
	movq	-16(%rbp), %rcx
	cmpl	668(%rcx), %eax
	jl	.LBB10_70
# %bb.69:                               # %if.then192
                                        #   in Loop: Header=BB10_48 Depth=1
	jmp	.LBB10_103
.LBB10_70:                              # %if.end193
                                        #   in Loop: Header=BB10_68 Depth=2
	movl	-20(%rbp), %eax
	addl	$50, %eax
	subl	$1, %eax
	movl	%eax, -60(%rbp)
	movl	-60(%rbp), %eax
	movq	-16(%rbp), %rcx
	cmpl	668(%rcx), %eax
	jl	.LBB10_72
# %bb.71:                               # %if.then199
                                        #   in Loop: Header=BB10_68 Depth=2
	movq	-16(%rbp), %rax
	movl	668(%rax), %eax
	subl	$1, %eax
	movl	%eax, -60(%rbp)
.LBB10_72:                              # %if.end202
                                        #   in Loop: Header=BB10_68 Depth=2
	movl	$0, -48(%rbp)
.LBB10_73:                              # %for.cond203
                                        #   Parent Loop BB10_48 Depth=1
                                        #     Parent Loop BB10_68 Depth=2
                                        # =>    This Inner Loop Header: Depth=3
	movl	-48(%rbp), %eax
	cmpl	-84(%rbp), %eax
	jge	.LBB10_76
# %bb.74:                               # %for.body206
                                        #   in Loop: Header=BB10_73 Depth=3
	movslq	-48(%rbp), %rax
	movw	$0, -162(%rbp,%rax,2)
# %bb.75:                               # %for.inc209
                                        #   in Loop: Header=BB10_73 Depth=3
	movl	-48(%rbp), %eax
	addl	$1, %eax
	movl	%eax, -48(%rbp)
	jmp	.LBB10_73
.LBB10_76:                              # %for.end211
                                        #   in Loop: Header=BB10_68 Depth=2
	cmpl	$6, -84(%rbp)
	jne	.LBB10_79
# %bb.77:                               # %land.lhs.true214
                                        #   in Loop: Header=BB10_68 Depth=2
	movl	-60(%rbp), %eax
	subl	-20(%rbp), %eax
	addl	$1, %eax
	movl	$50, %ecx
	cmpl	%eax, %ecx
	jne	.LBB10_79
# %bb.78:                               # %if.then219
                                        #   in Loop: Header=BB10_68 Depth=2
	movl	$0, -24(%rbp)
	movl	$0, -28(%rbp)
	movl	$0, -32(%rbp)
	movq	-40(%rbp), %rax
	movl	-20(%rbp), %ecx
	addl	$0, %ecx
	movslq	%ecx, %rcx
	movw	(%rax,%rcx,2), %ax
	movw	%ax, -2(%rbp)
	movq	-16(%rbp), %rax
	addq	$51640, %rax            # imm = 0xC9B8
	movzwl	-2(%rbp), %ecx
	shlq	$4, %rcx
	addq	%rcx, %rax
	movl	(%rax), %eax
	addl	-32(%rbp), %eax
	movl	%eax, -32(%rbp)
	movq	-16(%rbp), %rax
	addq	$51640, %rax            # imm = 0xC9B8
	movzwl	-2(%rbp), %ecx
	shlq	$4, %rcx
	addq	%rcx, %rax
	movl	4(%rax), %eax
	addl	-28(%rbp), %eax
	movl	%eax, -28(%rbp)
	movq	-16(%rbp), %rax
	addq	$51640, %rax            # imm = 0xC9B8
	movzwl	-2(%rbp), %ecx
	shlq	$4, %rcx
	addq	%rcx, %rax
	movl	8(%rax), %eax
	addl	-24(%rbp), %eax
	movl	%eax, -24(%rbp)
	movq	-40(%rbp), %rax
	movl	-20(%rbp), %ecx
	addl	$1, %ecx
	movslq	%ecx, %rcx
	movw	(%rax,%rcx,2), %ax
	movw	%ax, -2(%rbp)
	movq	-16(%rbp), %rax
	addq	$51640, %rax            # imm = 0xC9B8
	movzwl	-2(%rbp), %ecx
	shlq	$4, %rcx
	addq	%rcx, %rax
	movl	(%rax), %eax
	addl	-32(%rbp), %eax
	movl	%eax, -32(%rbp)
	movq	-16(%rbp), %rax
	addq	$51640, %rax            # imm = 0xC9B8
	movzwl	-2(%rbp), %ecx
	shlq	$4, %rcx
	addq	%rcx, %rax
	movl	4(%rax), %eax
	addl	-28(%rbp), %eax
	movl	%eax, -28(%rbp)
	movq	-16(%rbp), %rax
	addq	$51640, %rax            # imm = 0xC9B8
	movzwl	-2(%rbp), %ecx
	shlq	$4, %rcx
	addq	%rcx, %rax
	movl	8(%rax), %eax
	addl	-24(%rbp), %eax
	movl	%eax, -24(%rbp)
	movq	-40(%rbp), %rax
	movl	-20(%rbp), %ecx
	addl	$2, %ecx
	movslq	%ecx, %rcx
	movw	(%rax,%rcx,2), %ax
	movw	%ax, -2(%rbp)
	movq	-16(%rbp), %rax
	addq	$51640, %rax            # imm = 0xC9B8
	movzwl	-2(%rbp), %ecx
	shlq	$4, %rcx
	addq	%rcx, %rax
	movl	(%rax), %eax
	addl	-32(%rbp), %eax
	movl	%eax, -32(%rbp)
	movq	-16(%rbp), %rax
	addq	$51640, %rax            # imm = 0xC9B8
	movzwl	-2(%rbp), %ecx
	shlq	$4, %rcx
	addq	%rcx, %rax
	movl	4(%rax), %eax
	addl	-28(%rbp), %eax
	movl	%eax, -28(%rbp)
	movq	-16(%rbp), %rax
	addq	$51640, %rax            # imm = 0xC9B8
	movzwl	-2(%rbp), %ecx
	shlq	$4, %rcx
	addq	%rcx, %rax
	movl	8(%rax), %eax
	addl	-24(%rbp), %eax
	movl	%eax, -24(%rbp)
	movq	-40(%rbp), %rax
	movl	-20(%rbp), %ecx
	addl	$3, %ecx
	movslq	%ecx, %rcx
	movw	(%rax,%rcx,2), %ax
	movw	%ax, -2(%rbp)
	movq	-16(%rbp), %rax
	addq	$51640, %rax            # imm = 0xC9B8
	movzwl	-2(%rbp), %ecx
	shlq	$4, %rcx
	addq	%rcx, %rax
	movl	(%rax), %eax
	addl	-32(%rbp), %eax
	movl	%eax, -32(%rbp)
	movq	-16(%rbp), %rax
	addq	$51640, %rax            # imm = 0xC9B8
	movzwl	-2(%rbp), %ecx
	shlq	$4, %rcx
	addq	%rcx, %rax
	movl	4(%rax), %eax
	addl	-28(%rbp), %eax
	movl	%eax, -28(%rbp)
	movq	-16(%rbp), %rax
	addq	$51640, %rax            # imm = 0xC9B8
	movzwl	-2(%rbp), %ecx
	shlq	$4, %rcx
	addq	%rcx, %rax
	movl	8(%rax), %eax
	addl	-24(%rbp), %eax
	movl	%eax, -24(%rbp)
	movq	-40(%rbp), %rax
	movl	-20(%rbp), %ecx
	addl	$4, %ecx
	movslq	%ecx, %rcx
	movw	(%rax,%rcx,2), %ax
	movw	%ax, -2(%rbp)
	movq	-16(%rbp), %rax
	addq	$51640, %rax            # imm = 0xC9B8
	movzwl	-2(%rbp), %ecx
	shlq	$4, %rcx
	addq	%rcx, %rax
	movl	(%rax), %eax
	addl	-32(%rbp), %eax
	movl	%eax, -32(%rbp)
	movq	-16(%rbp), %rax
	addq	$51640, %rax            # imm = 0xC9B8
	movzwl	-2(%rbp), %ecx
	shlq	$4, %rcx
	addq	%rcx, %rax
	movl	4(%rax), %eax
	addl	-28(%rbp), %eax
	movl	%eax, -28(%rbp)
	movq	-16(%rbp), %rax
	addq	$51640, %rax            # imm = 0xC9B8
	movzwl	-2(%rbp), %ecx
	shlq	$4, %rcx
	addq	%rcx, %rax
	movl	8(%rax), %eax
	addl	-24(%rbp), %eax
	movl	%eax, -24(%rbp)
	movq	-40(%rbp), %rax
	movl	-20(%rbp), %ecx
	addl	$5, %ecx
	movslq	%ecx, %rcx
	movw	(%rax,%rcx,2), %ax
	movw	%ax, -2(%rbp)
	movq	-16(%rbp), %rax
	addq	$51640, %rax            # imm = 0xC9B8
	movzwl	-2(%rbp), %ecx
	shlq	$4, %rcx
	addq	%rcx, %rax
	movl	(%rax), %eax
	addl	-32(%rbp), %eax
	movl	%eax, -32(%rbp)
	movq	-16(%rbp), %rax
	addq	$51640, %rax            # imm = 0xC9B8
	movzwl	-2(%rbp), %ecx
	shlq	$4, %rcx
	addq	%rcx, %rax
	movl	4(%rax), %eax
	addl	-28(%rbp), %eax
	movl	%eax, -28(%rbp)
	movq	-16(%rbp), %rax
	addq	$51640, %rax            # imm = 0xC9B8
	movzwl	-2(%rbp), %ecx
	shlq	$4, %rcx
	addq	%rcx, %rax
	movl	8(%rax), %eax
	addl	-24(%rbp), %eax
	movl	%eax, -24(%rbp)
	movq	-40(%rbp), %rax
	movl	-20(%rbp), %ecx
	addl	$6, %ecx
	movslq	%ecx, %rcx
	movw	(%rax,%rcx,2), %ax
	movw	%ax, -2(%rbp)
	movq	-16(%rbp), %rax
	addq	$51640, %rax            # imm = 0xC9B8
	movzwl	-2(%rbp), %ecx
	shlq	$4, %rcx
	addq	%rcx, %rax
	movl	(%rax), %eax
	addl	-32(%rbp), %eax
	movl	%eax, -32(%rbp)
	movq	-16(%rbp), %rax
	addq	$51640, %rax            # imm = 0xC9B8
	movzwl	-2(%rbp), %ecx
	shlq	$4, %rcx
	addq	%rcx, %rax
	movl	4(%rax), %eax
	addl	-28(%rbp), %eax
	movl	%eax, -28(%rbp)
	movq	-16(%rbp), %rax
	addq	$51640, %rax            # imm = 0xC9B8
	movzwl	-2(%rbp), %ecx
	shlq	$4, %rcx
	addq	%rcx, %rax
	movl	8(%rax), %eax
	addl	-24(%rbp), %eax
	movl	%eax, -24(%rbp)
	movq	-40(%rbp), %rax
	movl	-20(%rbp), %ecx
	addl	$7, %ecx
	movslq	%ecx, %rcx
	movw	(%rax,%rcx,2), %ax
	movw	%ax, -2(%rbp)
	movq	-16(%rbp), %rax
	addq	$51640, %rax            # imm = 0xC9B8
	movzwl	-2(%rbp), %ecx
	shlq	$4, %rcx
	addq	%rcx, %rax
	movl	(%rax), %eax
	addl	-32(%rbp), %eax
	movl	%eax, -32(%rbp)
	movq	-16(%rbp), %rax
	addq	$51640, %rax            # imm = 0xC9B8
	movzwl	-2(%rbp), %ecx
	shlq	$4, %rcx
	addq	%rcx, %rax
	movl	4(%rax), %eax
	addl	-28(%rbp), %eax
	movl	%eax, -28(%rbp)
	movq	-16(%rbp), %rax
	addq	$51640, %rax            # imm = 0xC9B8
	movzwl	-2(%rbp), %ecx
	shlq	$4, %rcx
	addq	%rcx, %rax
	movl	8(%rax), %eax
	addl	-24(%rbp), %eax
	movl	%eax, -24(%rbp)
	movq	-40(%rbp), %rax
	movl	-20(%rbp), %ecx
	addl	$8, %ecx
	movslq	%ecx, %rcx
	movw	(%rax,%rcx,2), %ax
	movw	%ax, -2(%rbp)
	movq	-16(%rbp), %rax
	addq	$51640, %rax            # imm = 0xC9B8
	movzwl	-2(%rbp), %ecx
	shlq	$4, %rcx
	addq	%rcx, %rax
	movl	(%rax), %eax
	addl	-32(%rbp), %eax
	movl	%eax, -32(%rbp)
	movq	-16(%rbp), %rax
	addq	$51640, %rax            # imm = 0xC9B8
	movzwl	-2(%rbp), %ecx
	shlq	$4, %rcx
	addq	%rcx, %rax
	movl	4(%rax), %eax
	addl	-28(%rbp), %eax
	movl	%eax, -28(%rbp)
	movq	-16(%rbp), %rax
	addq	$51640, %rax            # imm = 0xC9B8
	movzwl	-2(%rbp), %ecx
	shlq	$4, %rcx
	addq	%rcx, %rax
	movl	8(%rax), %eax
	addl	-24(%rbp), %eax
	movl	%eax, -24(%rbp)
	movq	-40(%rbp), %rax
	movl	-20(%rbp), %ecx
	addl	$9, %ecx
	movslq	%ecx, %rcx
	movw	(%rax,%rcx,2), %ax
	movw	%ax, -2(%rbp)
	movq	-16(%rbp), %rax
	addq	$51640, %rax            # imm = 0xC9B8
	movzwl	-2(%rbp), %ecx
	shlq	$4, %rcx
	addq	%rcx, %rax
	movl	(%rax), %eax
	addl	-32(%rbp), %eax
	movl	%eax, -32(%rbp)
	movq	-16(%rbp), %rax
	addq	$51640, %rax            # imm = 0xC9B8
	movzwl	-2(%rbp), %ecx
	shlq	$4, %rcx
	addq	%rcx, %rax
	movl	4(%rax), %eax
	addl	-28(%rbp), %eax
	movl	%eax, -28(%rbp)
	movq	-16(%rbp), %rax
	addq	$51640, %rax            # imm = 0xC9B8
	movzwl	-2(%rbp), %ecx
	shlq	$4, %rcx
	addq	%rcx, %rax
	movl	8(%rax), %eax
	addl	-24(%rbp), %eax
	movl	%eax, -24(%rbp)
	movq	-40(%rbp), %rax
	movl	-20(%rbp), %ecx
	addl	$10, %ecx
	movslq	%ecx, %rcx
	movw	(%rax,%rcx,2), %ax
	movw	%ax, -2(%rbp)
	movq	-16(%rbp), %rax
	addq	$51640, %rax            # imm = 0xC9B8
	movzwl	-2(%rbp), %ecx
	shlq	$4, %rcx
	addq	%rcx, %rax
	movl	(%rax), %eax
	addl	-32(%rbp), %eax
	movl	%eax, -32(%rbp)
	movq	-16(%rbp), %rax
	addq	$51640, %rax            # imm = 0xC9B8
	movzwl	-2(%rbp), %ecx
	shlq	$4, %rcx
	addq	%rcx, %rax
	movl	4(%rax), %eax
	addl	-28(%rbp), %eax
	movl	%eax, -28(%rbp)
	movq	-16(%rbp), %rax
	addq	$51640, %rax            # imm = 0xC9B8
	movzwl	-2(%rbp), %ecx
	shlq	$4, %rcx
	addq	%rcx, %rax
	movl	8(%rax), %eax
	addl	-24(%rbp), %eax
	movl	%eax, -24(%rbp)
	movq	-40(%rbp), %rax
	movl	-20(%rbp), %ecx
	addl	$11, %ecx
	movslq	%ecx, %rcx
	movw	(%rax,%rcx,2), %ax
	movw	%ax, -2(%rbp)
	movq	-16(%rbp), %rax
	addq	$51640, %rax            # imm = 0xC9B8
	movzwl	-2(%rbp), %ecx
	shlq	$4, %rcx
	addq	%rcx, %rax
	movl	(%rax), %eax
	addl	-32(%rbp), %eax
	movl	%eax, -32(%rbp)
	movq	-16(%rbp), %rax
	addq	$51640, %rax            # imm = 0xC9B8
	movzwl	-2(%rbp), %ecx
	shlq	$4, %rcx
	addq	%rcx, %rax
	movl	4(%rax), %eax
	addl	-28(%rbp), %eax
	movl	%eax, -28(%rbp)
	movq	-16(%rbp), %rax
	addq	$51640, %rax            # imm = 0xC9B8
	movzwl	-2(%rbp), %ecx
	shlq	$4, %rcx
	addq	%rcx, %rax
	movl	8(%rax), %eax
	addl	-24(%rbp), %eax
	movl	%eax, -24(%rbp)
	movq	-40(%rbp), %rax
	movl	-20(%rbp), %ecx
	addl	$12, %ecx
	movslq	%ecx, %rcx
	movw	(%rax,%rcx,2), %ax
	movw	%ax, -2(%rbp)
	movq	-16(%rbp), %rax
	addq	$51640, %rax            # imm = 0xC9B8
	movzwl	-2(%rbp), %ecx
	shlq	$4, %rcx
	addq	%rcx, %rax
	movl	(%rax), %eax
	addl	-32(%rbp), %eax
	movl	%eax, -32(%rbp)
	movq	-16(%rbp), %rax
	addq	$51640, %rax            # imm = 0xC9B8
	movzwl	-2(%rbp), %ecx
	shlq	$4, %rcx
	addq	%rcx, %rax
	movl	4(%rax), %eax
	addl	-28(%rbp), %eax
	movl	%eax, -28(%rbp)
	movq	-16(%rbp), %rax
	addq	$51640, %rax            # imm = 0xC9B8
	movzwl	-2(%rbp), %ecx
	shlq	$4, %rcx
	addq	%rcx, %rax
	movl	8(%rax), %eax
	addl	-24(%rbp), %eax
	movl	%eax, -24(%rbp)
	movq	-40(%rbp), %rax
	movl	-20(%rbp), %ecx
	addl	$13, %ecx
	movslq	%ecx, %rcx
	movw	(%rax,%rcx,2), %ax
	movw	%ax, -2(%rbp)
	movq	-16(%rbp), %rax
	addq	$51640, %rax            # imm = 0xC9B8
	movzwl	-2(%rbp), %ecx
	shlq	$4, %rcx
	addq	%rcx, %rax
	movl	(%rax), %eax
	addl	-32(%rbp), %eax
	movl	%eax, -32(%rbp)
	movq	-16(%rbp), %rax
	addq	$51640, %rax            # imm = 0xC9B8
	movzwl	-2(%rbp), %ecx
	shlq	$4, %rcx
	addq	%rcx, %rax
	movl	4(%rax), %eax
	addl	-28(%rbp), %eax
	movl	%eax, -28(%rbp)
	movq	-16(%rbp), %rax
	addq	$51640, %rax            # imm = 0xC9B8
	movzwl	-2(%rbp), %ecx
	shlq	$4, %rcx
	addq	%rcx, %rax
	movl	8(%rax), %eax
	addl	-24(%rbp), %eax
	movl	%eax, -24(%rbp)
	movq	-40(%rbp), %rax
	movl	-20(%rbp), %ecx
	addl	$14, %ecx
	movslq	%ecx, %rcx
	movw	(%rax,%rcx,2), %ax
	movw	%ax, -2(%rbp)
	movq	-16(%rbp), %rax
	addq	$51640, %rax            # imm = 0xC9B8
	movzwl	-2(%rbp), %ecx
	shlq	$4, %rcx
	addq	%rcx, %rax
	movl	(%rax), %eax
	addl	-32(%rbp), %eax
	movl	%eax, -32(%rbp)
	movq	-16(%rbp), %rax
	addq	$51640, %rax            # imm = 0xC9B8
	movzwl	-2(%rbp), %ecx
	shlq	$4, %rcx
	addq	%rcx, %rax
	movl	4(%rax), %eax
	addl	-28(%rbp), %eax
	movl	%eax, -28(%rbp)
	movq	-16(%rbp), %rax
	addq	$51640, %rax            # imm = 0xC9B8
	movzwl	-2(%rbp), %ecx
	shlq	$4, %rcx
	addq	%rcx, %rax
	movl	8(%rax), %eax
	addl	-24(%rbp), %eax
	movl	%eax, -24(%rbp)
	movq	-40(%rbp), %rax
	movl	-20(%rbp), %ecx
	addl	$15, %ecx
	movslq	%ecx, %rcx
	movw	(%rax,%rcx,2), %ax
	movw	%ax, -2(%rbp)
	movq	-16(%rbp), %rax
	addq	$51640, %rax            # imm = 0xC9B8
	movzwl	-2(%rbp), %ecx
	shlq	$4, %rcx
	addq	%rcx, %rax
	movl	(%rax), %eax
	addl	-32(%rbp), %eax
	movl	%eax, -32(%rbp)
	movq	-16(%rbp), %rax
	addq	$51640, %rax            # imm = 0xC9B8
	movzwl	-2(%rbp), %ecx
	shlq	$4, %rcx
	addq	%rcx, %rax
	movl	4(%rax), %eax
	addl	-28(%rbp), %eax
	movl	%eax, -28(%rbp)
	movq	-16(%rbp), %rax
	addq	$51640, %rax            # imm = 0xC9B8
	movzwl	-2(%rbp), %ecx
	shlq	$4, %rcx
	addq	%rcx, %rax
	movl	8(%rax), %eax
	addl	-24(%rbp), %eax
	movl	%eax, -24(%rbp)
	movq	-40(%rbp), %rax
	movl	-20(%rbp), %ecx
	addl	$16, %ecx
	movslq	%ecx, %rcx
	movw	(%rax,%rcx,2), %ax
	movw	%ax, -2(%rbp)
	movq	-16(%rbp), %rax
	addq	$51640, %rax            # imm = 0xC9B8
	movzwl	-2(%rbp), %ecx
	shlq	$4, %rcx
	addq	%rcx, %rax
	movl	(%rax), %eax
	addl	-32(%rbp), %eax
	movl	%eax, -32(%rbp)
	movq	-16(%rbp), %rax
	addq	$51640, %rax            # imm = 0xC9B8
	movzwl	-2(%rbp), %ecx
	shlq	$4, %rcx
	addq	%rcx, %rax
	movl	4(%rax), %eax
	addl	-28(%rbp), %eax
	movl	%eax, -28(%rbp)
	movq	-16(%rbp), %rax
	addq	$51640, %rax            # imm = 0xC9B8
	movzwl	-2(%rbp), %ecx
	shlq	$4, %rcx
	addq	%rcx, %rax
	movl	8(%rax), %eax
	addl	-24(%rbp), %eax
	movl	%eax, -24(%rbp)
	movq	-40(%rbp), %rax
	movl	-20(%rbp), %ecx
	addl	$17, %ecx
	movslq	%ecx, %rcx
	movw	(%rax,%rcx,2), %ax
	movw	%ax, -2(%rbp)
	movq	-16(%rbp), %rax
	addq	$51640, %rax            # imm = 0xC9B8
	movzwl	-2(%rbp), %ecx
	shlq	$4, %rcx
	addq	%rcx, %rax
	movl	(%rax), %eax
	addl	-32(%rbp), %eax
	movl	%eax, -32(%rbp)
	movq	-16(%rbp), %rax
	addq	$51640, %rax            # imm = 0xC9B8
	movzwl	-2(%rbp), %ecx
	shlq	$4, %rcx
	addq	%rcx, %rax
	movl	4(%rax), %eax
	addl	-28(%rbp), %eax
	movl	%eax, -28(%rbp)
	movq	-16(%rbp), %rax
	addq	$51640, %rax            # imm = 0xC9B8
	movzwl	-2(%rbp), %ecx
	shlq	$4, %rcx
	addq	%rcx, %rax
	movl	8(%rax), %eax
	addl	-24(%rbp), %eax
	movl	%eax, -24(%rbp)
	movq	-40(%rbp), %rax
	movl	-20(%rbp), %ecx
	addl	$18, %ecx
	movslq	%ecx, %rcx
	movw	(%rax,%rcx,2), %ax
	movw	%ax, -2(%rbp)
	movq	-16(%rbp), %rax
	addq	$51640, %rax            # imm = 0xC9B8
	movzwl	-2(%rbp), %ecx
	shlq	$4, %rcx
	addq	%rcx, %rax
	movl	(%rax), %eax
	addl	-32(%rbp), %eax
	movl	%eax, -32(%rbp)
	movq	-16(%rbp), %rax
	addq	$51640, %rax            # imm = 0xC9B8
	movzwl	-2(%rbp), %ecx
	shlq	$4, %rcx
	addq	%rcx, %rax
	movl	4(%rax), %eax
	addl	-28(%rbp), %eax
	movl	%eax, -28(%rbp)
	movq	-16(%rbp), %rax
	addq	$51640, %rax            # imm = 0xC9B8
	movzwl	-2(%rbp), %ecx
	shlq	$4, %rcx
	addq	%rcx, %rax
	movl	8(%rax), %eax
	addl	-24(%rbp), %eax
	movl	%eax, -24(%rbp)
	movq	-40(%rbp), %rax
	movl	-20(%rbp), %ecx
	addl	$19, %ecx
	movslq	%ecx, %rcx
	movw	(%rax,%rcx,2), %ax
	movw	%ax, -2(%rbp)
	movq	-16(%rbp), %rax
	addq	$51640, %rax            # imm = 0xC9B8
	movzwl	-2(%rbp), %ecx
	shlq	$4, %rcx
	addq	%rcx, %rax
	movl	(%rax), %eax
	addl	-32(%rbp), %eax
	movl	%eax, -32(%rbp)
	movq	-16(%rbp), %rax
	addq	$51640, %rax            # imm = 0xC9B8
	movzwl	-2(%rbp), %ecx
	shlq	$4, %rcx
	addq	%rcx, %rax
	movl	4(%rax), %eax
	addl	-28(%rbp), %eax
	movl	%eax, -28(%rbp)
	movq	-16(%rbp), %rax
	addq	$51640, %rax            # imm = 0xC9B8
	movzwl	-2(%rbp), %ecx
	shlq	$4, %rcx
	addq	%rcx, %rax
	movl	8(%rax), %eax
	addl	-24(%rbp), %eax
	movl	%eax, -24(%rbp)
	movq	-40(%rbp), %rax
	movl	-20(%rbp), %ecx
	addl	$20, %ecx
	movslq	%ecx, %rcx
	movw	(%rax,%rcx,2), %ax
	movw	%ax, -2(%rbp)
	movq	-16(%rbp), %rax
	addq	$51640, %rax            # imm = 0xC9B8
	movzwl	-2(%rbp), %ecx
	shlq	$4, %rcx
	addq	%rcx, %rax
	movl	(%rax), %eax
	addl	-32(%rbp), %eax
	movl	%eax, -32(%rbp)
	movq	-16(%rbp), %rax
	addq	$51640, %rax            # imm = 0xC9B8
	movzwl	-2(%rbp), %ecx
	shlq	$4, %rcx
	addq	%rcx, %rax
	movl	4(%rax), %eax
	addl	-28(%rbp), %eax
	movl	%eax, -28(%rbp)
	movq	-16(%rbp), %rax
	addq	$51640, %rax            # imm = 0xC9B8
	movzwl	-2(%rbp), %ecx
	shlq	$4, %rcx
	addq	%rcx, %rax
	movl	8(%rax), %eax
	addl	-24(%rbp), %eax
	movl	%eax, -24(%rbp)
	movq	-40(%rbp), %rax
	movl	-20(%rbp), %ecx
	addl	$21, %ecx
	movslq	%ecx, %rcx
	movw	(%rax,%rcx,2), %ax
	movw	%ax, -2(%rbp)
	movq	-16(%rbp), %rax
	addq	$51640, %rax            # imm = 0xC9B8
	movzwl	-2(%rbp), %ecx
	shlq	$4, %rcx
	addq	%rcx, %rax
	movl	(%rax), %eax
	addl	-32(%rbp), %eax
	movl	%eax, -32(%rbp)
	movq	-16(%rbp), %rax
	addq	$51640, %rax            # imm = 0xC9B8
	movzwl	-2(%rbp), %ecx
	shlq	$4, %rcx
	addq	%rcx, %rax
	movl	4(%rax), %eax
	addl	-28(%rbp), %eax
	movl	%eax, -28(%rbp)
	movq	-16(%rbp), %rax
	addq	$51640, %rax            # imm = 0xC9B8
	movzwl	-2(%rbp), %ecx
	shlq	$4, %rcx
	addq	%rcx, %rax
	movl	8(%rax), %eax
	addl	-24(%rbp), %eax
	movl	%eax, -24(%rbp)
	movq	-40(%rbp), %rax
	movl	-20(%rbp), %ecx
	addl	$22, %ecx
	movslq	%ecx, %rcx
	movw	(%rax,%rcx,2), %ax
	movw	%ax, -2(%rbp)
	movq	-16(%rbp), %rax
	addq	$51640, %rax            # imm = 0xC9B8
	movzwl	-2(%rbp), %ecx
	shlq	$4, %rcx
	addq	%rcx, %rax
	movl	(%rax), %eax
	addl	-32(%rbp), %eax
	movl	%eax, -32(%rbp)
	movq	-16(%rbp), %rax
	addq	$51640, %rax            # imm = 0xC9B8
	movzwl	-2(%rbp), %ecx
	shlq	$4, %rcx
	addq	%rcx, %rax
	movl	4(%rax), %eax
	addl	-28(%rbp), %eax
	movl	%eax, -28(%rbp)
	movq	-16(%rbp), %rax
	addq	$51640, %rax            # imm = 0xC9B8
	movzwl	-2(%rbp), %ecx
	shlq	$4, %rcx
	addq	%rcx, %rax
	movl	8(%rax), %eax
	addl	-24(%rbp), %eax
	movl	%eax, -24(%rbp)
	movq	-40(%rbp), %rax
	movl	-20(%rbp), %ecx
	addl	$23, %ecx
	movslq	%ecx, %rcx
	movw	(%rax,%rcx,2), %ax
	movw	%ax, -2(%rbp)
	movq	-16(%rbp), %rax
	addq	$51640, %rax            # imm = 0xC9B8
	movzwl	-2(%rbp), %ecx
	shlq	$4, %rcx
	addq	%rcx, %rax
	movl	(%rax), %eax
	addl	-32(%rbp), %eax
	movl	%eax, -32(%rbp)
	movq	-16(%rbp), %rax
	addq	$51640, %rax            # imm = 0xC9B8
	movzwl	-2(%rbp), %ecx
	shlq	$4, %rcx
	addq	%rcx, %rax
	movl	4(%rax), %eax
	addl	-28(%rbp), %eax
	movl	%eax, -28(%rbp)
	movq	-16(%rbp), %rax
	addq	$51640, %rax            # imm = 0xC9B8
	movzwl	-2(%rbp), %ecx
	shlq	$4, %rcx
	addq	%rcx, %rax
	movl	8(%rax), %eax
	addl	-24(%rbp), %eax
	movl	%eax, -24(%rbp)
	movq	-40(%rbp), %rax
	movl	-20(%rbp), %ecx
	addl	$24, %ecx
	movslq	%ecx, %rcx
	movw	(%rax,%rcx,2), %ax
	movw	%ax, -2(%rbp)
	movq	-16(%rbp), %rax
	addq	$51640, %rax            # imm = 0xC9B8
	movzwl	-2(%rbp), %ecx
	shlq	$4, %rcx
	addq	%rcx, %rax
	movl	(%rax), %eax
	addl	-32(%rbp), %eax
	movl	%eax, -32(%rbp)
	movq	-16(%rbp), %rax
	addq	$51640, %rax            # imm = 0xC9B8
	movzwl	-2(%rbp), %ecx
	shlq	$4, %rcx
	addq	%rcx, %rax
	movl	4(%rax), %eax
	addl	-28(%rbp), %eax
	movl	%eax, -28(%rbp)
	movq	-16(%rbp), %rax
	addq	$51640, %rax            # imm = 0xC9B8
	movzwl	-2(%rbp), %ecx
	shlq	$4, %rcx
	addq	%rcx, %rax
	movl	8(%rax), %eax
	addl	-24(%rbp), %eax
	movl	%eax, -24(%rbp)
	movq	-40(%rbp), %rax
	movl	-20(%rbp), %ecx
	addl	$25, %ecx
	movslq	%ecx, %rcx
	movw	(%rax,%rcx,2), %ax
	movw	%ax, -2(%rbp)
	movq	-16(%rbp), %rax
	addq	$51640, %rax            # imm = 0xC9B8
	movzwl	-2(%rbp), %ecx
	shlq	$4, %rcx
	addq	%rcx, %rax
	movl	(%rax), %eax
	addl	-32(%rbp), %eax
	movl	%eax, -32(%rbp)
	movq	-16(%rbp), %rax
	addq	$51640, %rax            # imm = 0xC9B8
	movzwl	-2(%rbp), %ecx
	shlq	$4, %rcx
	addq	%rcx, %rax
	movl	4(%rax), %eax
	addl	-28(%rbp), %eax
	movl	%eax, -28(%rbp)
	movq	-16(%rbp), %rax
	addq	$51640, %rax            # imm = 0xC9B8
	movzwl	-2(%rbp), %ecx
	shlq	$4, %rcx
	addq	%rcx, %rax
	movl	8(%rax), %eax
	addl	-24(%rbp), %eax
	movl	%eax, -24(%rbp)
	movq	-40(%rbp), %rax
	movl	-20(%rbp), %ecx
	addl	$26, %ecx
	movslq	%ecx, %rcx
	movw	(%rax,%rcx,2), %ax
	movw	%ax, -2(%rbp)
	movq	-16(%rbp), %rax
	addq	$51640, %rax            # imm = 0xC9B8
	movzwl	-2(%rbp), %ecx
	shlq	$4, %rcx
	addq	%rcx, %rax
	movl	(%rax), %eax
	addl	-32(%rbp), %eax
	movl	%eax, -32(%rbp)
	movq	-16(%rbp), %rax
	addq	$51640, %rax            # imm = 0xC9B8
	movzwl	-2(%rbp), %ecx
	shlq	$4, %rcx
	addq	%rcx, %rax
	movl	4(%rax), %eax
	addl	-28(%rbp), %eax
	movl	%eax, -28(%rbp)
	movq	-16(%rbp), %rax
	addq	$51640, %rax            # imm = 0xC9B8
	movzwl	-2(%rbp), %ecx
	shlq	$4, %rcx
	addq	%rcx, %rax
	movl	8(%rax), %eax
	addl	-24(%rbp), %eax
	movl	%eax, -24(%rbp)
	movq	-40(%rbp), %rax
	movl	-20(%rbp), %ecx
	addl	$27, %ecx
	movslq	%ecx, %rcx
	movw	(%rax,%rcx,2), %ax
	movw	%ax, -2(%rbp)
	movq	-16(%rbp), %rax
	addq	$51640, %rax            # imm = 0xC9B8
	movzwl	-2(%rbp), %ecx
	shlq	$4, %rcx
	addq	%rcx, %rax
	movl	(%rax), %eax
	addl	-32(%rbp), %eax
	movl	%eax, -32(%rbp)
	movq	-16(%rbp), %rax
	addq	$51640, %rax            # imm = 0xC9B8
	movzwl	-2(%rbp), %ecx
	shlq	$4, %rcx
	addq	%rcx, %rax
	movl	4(%rax), %eax
	addl	-28(%rbp), %eax
	movl	%eax, -28(%rbp)
	movq	-16(%rbp), %rax
	addq	$51640, %rax            # imm = 0xC9B8
	movzwl	-2(%rbp), %ecx
	shlq	$4, %rcx
	addq	%rcx, %rax
	movl	8(%rax), %eax
	addl	-24(%rbp), %eax
	movl	%eax, -24(%rbp)
	movq	-40(%rbp), %rax
	movl	-20(%rbp), %ecx
	addl	$28, %ecx
	movslq	%ecx, %rcx
	movw	(%rax,%rcx,2), %ax
	movw	%ax, -2(%rbp)
	movq	-16(%rbp), %rax
	addq	$51640, %rax            # imm = 0xC9B8
	movzwl	-2(%rbp), %ecx
	shlq	$4, %rcx
	addq	%rcx, %rax
	movl	(%rax), %eax
	addl	-32(%rbp), %eax
	movl	%eax, -32(%rbp)
	movq	-16(%rbp), %rax
	addq	$51640, %rax            # imm = 0xC9B8
	movzwl	-2(%rbp), %ecx
	shlq	$4, %rcx
	addq	%rcx, %rax
	movl	4(%rax), %eax
	addl	-28(%rbp), %eax
	movl	%eax, -28(%rbp)
	movq	-16(%rbp), %rax
	addq	$51640, %rax            # imm = 0xC9B8
	movzwl	-2(%rbp), %ecx
	shlq	$4, %rcx
	addq	%rcx, %rax
	movl	8(%rax), %eax
	addl	-24(%rbp), %eax
	movl	%eax, -24(%rbp)
	movq	-40(%rbp), %rax
	movl	-20(%rbp), %ecx
	addl	$29, %ecx
	movslq	%ecx, %rcx
	movw	(%rax,%rcx,2), %ax
	movw	%ax, -2(%rbp)
	movq	-16(%rbp), %rax
	addq	$51640, %rax            # imm = 0xC9B8
	movzwl	-2(%rbp), %ecx
	shlq	$4, %rcx
	addq	%rcx, %rax
	movl	(%rax), %eax
	addl	-32(%rbp), %eax
	movl	%eax, -32(%rbp)
	movq	-16(%rbp), %rax
	addq	$51640, %rax            # imm = 0xC9B8
	movzwl	-2(%rbp), %ecx
	shlq	$4, %rcx
	addq	%rcx, %rax
	movl	4(%rax), %eax
	addl	-28(%rbp), %eax
	movl	%eax, -28(%rbp)
	movq	-16(%rbp), %rax
	addq	$51640, %rax            # imm = 0xC9B8
	movzwl	-2(%rbp), %ecx
	shlq	$4, %rcx
	addq	%rcx, %rax
	movl	8(%rax), %eax
	addl	-24(%rbp), %eax
	movl	%eax, -24(%rbp)
	movq	-40(%rbp), %rax
	movl	-20(%rbp), %ecx
	addl	$30, %ecx
	movslq	%ecx, %rcx
	movw	(%rax,%rcx,2), %ax
	movw	%ax, -2(%rbp)
	movq	-16(%rbp), %rax
	addq	$51640, %rax            # imm = 0xC9B8
	movzwl	-2(%rbp), %ecx
	shlq	$4, %rcx
	addq	%rcx, %rax
	movl	(%rax), %eax
	addl	-32(%rbp), %eax
	movl	%eax, -32(%rbp)
	movq	-16(%rbp), %rax
	addq	$51640, %rax            # imm = 0xC9B8
	movzwl	-2(%rbp), %ecx
	shlq	$4, %rcx
	addq	%rcx, %rax
	movl	4(%rax), %eax
	addl	-28(%rbp), %eax
	movl	%eax, -28(%rbp)
	movq	-16(%rbp), %rax
	addq	$51640, %rax            # imm = 0xC9B8
	movzwl	-2(%rbp), %ecx
	shlq	$4, %rcx
	addq	%rcx, %rax
	movl	8(%rax), %eax
	addl	-24(%rbp), %eax
	movl	%eax, -24(%rbp)
	movq	-40(%rbp), %rax
	movl	-20(%rbp), %ecx
	addl	$31, %ecx
	movslq	%ecx, %rcx
	movw	(%rax,%rcx,2), %ax
	movw	%ax, -2(%rbp)
	movq	-16(%rbp), %rax
	addq	$51640, %rax            # imm = 0xC9B8
	movzwl	-2(%rbp), %ecx
	shlq	$4, %rcx
	addq	%rcx, %rax
	movl	(%rax), %eax
	addl	-32(%rbp), %eax
	movl	%eax, -32(%rbp)
	movq	-16(%rbp), %rax
	addq	$51640, %rax            # imm = 0xC9B8
	movzwl	-2(%rbp), %ecx
	shlq	$4, %rcx
	addq	%rcx, %rax
	movl	4(%rax), %eax
	addl	-28(%rbp), %eax
	movl	%eax, -28(%rbp)
	movq	-16(%rbp), %rax
	addq	$51640, %rax            # imm = 0xC9B8
	movzwl	-2(%rbp), %ecx
	shlq	$4, %rcx
	addq	%rcx, %rax
	movl	8(%rax), %eax
	addl	-24(%rbp), %eax
	movl	%eax, -24(%rbp)
	movq	-40(%rbp), %rax
	movl	-20(%rbp), %ecx
	addl	$32, %ecx
	movslq	%ecx, %rcx
	movw	(%rax,%rcx,2), %ax
	movw	%ax, -2(%rbp)
	movq	-16(%rbp), %rax
	addq	$51640, %rax            # imm = 0xC9B8
	movzwl	-2(%rbp), %ecx
	shlq	$4, %rcx
	addq	%rcx, %rax
	movl	(%rax), %eax
	addl	-32(%rbp), %eax
	movl	%eax, -32(%rbp)
	movq	-16(%rbp), %rax
	addq	$51640, %rax            # imm = 0xC9B8
	movzwl	-2(%rbp), %ecx
	shlq	$4, %rcx
	addq	%rcx, %rax
	movl	4(%rax), %eax
	addl	-28(%rbp), %eax
	movl	%eax, -28(%rbp)
	movq	-16(%rbp), %rax
	addq	$51640, %rax            # imm = 0xC9B8
	movzwl	-2(%rbp), %ecx
	shlq	$4, %rcx
	addq	%rcx, %rax
	movl	8(%rax), %eax
	addl	-24(%rbp), %eax
	movl	%eax, -24(%rbp)
	movq	-40(%rbp), %rax
	movl	-20(%rbp), %ecx
	addl	$33, %ecx
	movslq	%ecx, %rcx
	movw	(%rax,%rcx,2), %ax
	movw	%ax, -2(%rbp)
	movq	-16(%rbp), %rax
	addq	$51640, %rax            # imm = 0xC9B8
	movzwl	-2(%rbp), %ecx
	shlq	$4, %rcx
	addq	%rcx, %rax
	movl	(%rax), %eax
	addl	-32(%rbp), %eax
	movl	%eax, -32(%rbp)
	movq	-16(%rbp), %rax
	addq	$51640, %rax            # imm = 0xC9B8
	movzwl	-2(%rbp), %ecx
	shlq	$4, %rcx
	addq	%rcx, %rax
	movl	4(%rax), %eax
	addl	-28(%rbp), %eax
	movl	%eax, -28(%rbp)
	movq	-16(%rbp), %rax
	addq	$51640, %rax            # imm = 0xC9B8
	movzwl	-2(%rbp), %ecx
	shlq	$4, %rcx
	addq	%rcx, %rax
	movl	8(%rax), %eax
	addl	-24(%rbp), %eax
	movl	%eax, -24(%rbp)
	movq	-40(%rbp), %rax
	movl	-20(%rbp), %ecx
	addl	$34, %ecx
	movslq	%ecx, %rcx
	movw	(%rax,%rcx,2), %ax
	movw	%ax, -2(%rbp)
	movq	-16(%rbp), %rax
	addq	$51640, %rax            # imm = 0xC9B8
	movzwl	-2(%rbp), %ecx
	shlq	$4, %rcx
	addq	%rcx, %rax
	movl	(%rax), %eax
	addl	-32(%rbp), %eax
	movl	%eax, -32(%rbp)
	movq	-16(%rbp), %rax
	addq	$51640, %rax            # imm = 0xC9B8
	movzwl	-2(%rbp), %ecx
	shlq	$4, %rcx
	addq	%rcx, %rax
	movl	4(%rax), %eax
	addl	-28(%rbp), %eax
	movl	%eax, -28(%rbp)
	movq	-16(%rbp), %rax
	addq	$51640, %rax            # imm = 0xC9B8
	movzwl	-2(%rbp), %ecx
	shlq	$4, %rcx
	addq	%rcx, %rax
	movl	8(%rax), %eax
	addl	-24(%rbp), %eax
	movl	%eax, -24(%rbp)
	movq	-40(%rbp), %rax
	movl	-20(%rbp), %ecx
	addl	$35, %ecx
	movslq	%ecx, %rcx
	movw	(%rax,%rcx,2), %ax
	movw	%ax, -2(%rbp)
	movq	-16(%rbp), %rax
	addq	$51640, %rax            # imm = 0xC9B8
	movzwl	-2(%rbp), %ecx
	shlq	$4, %rcx
	addq	%rcx, %rax
	movl	(%rax), %eax
	addl	-32(%rbp), %eax
	movl	%eax, -32(%rbp)
	movq	-16(%rbp), %rax
	addq	$51640, %rax            # imm = 0xC9B8
	movzwl	-2(%rbp), %ecx
	shlq	$4, %rcx
	addq	%rcx, %rax
	movl	4(%rax), %eax
	addl	-28(%rbp), %eax
	movl	%eax, -28(%rbp)
	movq	-16(%rbp), %rax
	addq	$51640, %rax            # imm = 0xC9B8
	movzwl	-2(%rbp), %ecx
	shlq	$4, %rcx
	addq	%rcx, %rax
	movl	8(%rax), %eax
	addl	-24(%rbp), %eax
	movl	%eax, -24(%rbp)
	movq	-40(%rbp), %rax
	movl	-20(%rbp), %ecx
	addl	$36, %ecx
	movslq	%ecx, %rcx
	movw	(%rax,%rcx,2), %ax
	movw	%ax, -2(%rbp)
	movq	-16(%rbp), %rax
	addq	$51640, %rax            # imm = 0xC9B8
	movzwl	-2(%rbp), %ecx
	shlq	$4, %rcx
	addq	%rcx, %rax
	movl	(%rax), %eax
	addl	-32(%rbp), %eax
	movl	%eax, -32(%rbp)
	movq	-16(%rbp), %rax
	addq	$51640, %rax            # imm = 0xC9B8
	movzwl	-2(%rbp), %ecx
	shlq	$4, %rcx
	addq	%rcx, %rax
	movl	4(%rax), %eax
	addl	-28(%rbp), %eax
	movl	%eax, -28(%rbp)
	movq	-16(%rbp), %rax
	addq	$51640, %rax            # imm = 0xC9B8
	movzwl	-2(%rbp), %ecx
	shlq	$4, %rcx
	addq	%rcx, %rax
	movl	8(%rax), %eax
	addl	-24(%rbp), %eax
	movl	%eax, -24(%rbp)
	movq	-40(%rbp), %rax
	movl	-20(%rbp), %ecx
	addl	$37, %ecx
	movslq	%ecx, %rcx
	movw	(%rax,%rcx,2), %ax
	movw	%ax, -2(%rbp)
	movq	-16(%rbp), %rax
	addq	$51640, %rax            # imm = 0xC9B8
	movzwl	-2(%rbp), %ecx
	shlq	$4, %rcx
	addq	%rcx, %rax
	movl	(%rax), %eax
	addl	-32(%rbp), %eax
	movl	%eax, -32(%rbp)
	movq	-16(%rbp), %rax
	addq	$51640, %rax            # imm = 0xC9B8
	movzwl	-2(%rbp), %ecx
	shlq	$4, %rcx
	addq	%rcx, %rax
	movl	4(%rax), %eax
	addl	-28(%rbp), %eax
	movl	%eax, -28(%rbp)
	movq	-16(%rbp), %rax
	addq	$51640, %rax            # imm = 0xC9B8
	movzwl	-2(%rbp), %ecx
	shlq	$4, %rcx
	addq	%rcx, %rax
	movl	8(%rax), %eax
	addl	-24(%rbp), %eax
	movl	%eax, -24(%rbp)
	movq	-40(%rbp), %rax
	movl	-20(%rbp), %ecx
	addl	$38, %ecx
	movslq	%ecx, %rcx
	movw	(%rax,%rcx,2), %ax
	movw	%ax, -2(%rbp)
	movq	-16(%rbp), %rax
	addq	$51640, %rax            # imm = 0xC9B8
	movzwl	-2(%rbp), %ecx
	shlq	$4, %rcx
	addq	%rcx, %rax
	movl	(%rax), %eax
	addl	-32(%rbp), %eax
	movl	%eax, -32(%rbp)
	movq	-16(%rbp), %rax
	addq	$51640, %rax            # imm = 0xC9B8
	movzwl	-2(%rbp), %ecx
	shlq	$4, %rcx
	addq	%rcx, %rax
	movl	4(%rax), %eax
	addl	-28(%rbp), %eax
	movl	%eax, -28(%rbp)
	movq	-16(%rbp), %rax
	addq	$51640, %rax            # imm = 0xC9B8
	movzwl	-2(%rbp), %ecx
	shlq	$4, %rcx
	addq	%rcx, %rax
	movl	8(%rax), %eax
	addl	-24(%rbp), %eax
	movl	%eax, -24(%rbp)
	movq	-40(%rbp), %rax
	movl	-20(%rbp), %ecx
	addl	$39, %ecx
	movslq	%ecx, %rcx
	movw	(%rax,%rcx,2), %ax
	movw	%ax, -2(%rbp)
	movq	-16(%rbp), %rax
	addq	$51640, %rax            # imm = 0xC9B8
	movzwl	-2(%rbp), %ecx
	shlq	$4, %rcx
	addq	%rcx, %rax
	movl	(%rax), %eax
	addl	-32(%rbp), %eax
	movl	%eax, -32(%rbp)
	movq	-16(%rbp), %rax
	addq	$51640, %rax            # imm = 0xC9B8
	movzwl	-2(%rbp), %ecx
	shlq	$4, %rcx
	addq	%rcx, %rax
	movl	4(%rax), %eax
	addl	-28(%rbp), %eax
	movl	%eax, -28(%rbp)
	movq	-16(%rbp), %rax
	addq	$51640, %rax            # imm = 0xC9B8
	movzwl	-2(%rbp), %ecx
	shlq	$4, %rcx
	addq	%rcx, %rax
	movl	8(%rax), %eax
	addl	-24(%rbp), %eax
	movl	%eax, -24(%rbp)
	movq	-40(%rbp), %rax
	movl	-20(%rbp), %ecx
	addl	$40, %ecx
	movslq	%ecx, %rcx
	movw	(%rax,%rcx,2), %ax
	movw	%ax, -2(%rbp)
	movq	-16(%rbp), %rax
	addq	$51640, %rax            # imm = 0xC9B8
	movzwl	-2(%rbp), %ecx
	shlq	$4, %rcx
	addq	%rcx, %rax
	movl	(%rax), %eax
	addl	-32(%rbp), %eax
	movl	%eax, -32(%rbp)
	movq	-16(%rbp), %rax
	addq	$51640, %rax            # imm = 0xC9B8
	movzwl	-2(%rbp), %ecx
	shlq	$4, %rcx
	addq	%rcx, %rax
	movl	4(%rax), %eax
	addl	-28(%rbp), %eax
	movl	%eax, -28(%rbp)
	movq	-16(%rbp), %rax
	addq	$51640, %rax            # imm = 0xC9B8
	movzwl	-2(%rbp), %ecx
	shlq	$4, %rcx
	addq	%rcx, %rax
	movl	8(%rax), %eax
	addl	-24(%rbp), %eax
	movl	%eax, -24(%rbp)
	movq	-40(%rbp), %rax
	movl	-20(%rbp), %ecx
	addl	$41, %ecx
	movslq	%ecx, %rcx
	movw	(%rax,%rcx,2), %ax
	movw	%ax, -2(%rbp)
	movq	-16(%rbp), %rax
	addq	$51640, %rax            # imm = 0xC9B8
	movzwl	-2(%rbp), %ecx
	shlq	$4, %rcx
	addq	%rcx, %rax
	movl	(%rax), %eax
	addl	-32(%rbp), %eax
	movl	%eax, -32(%rbp)
	movq	-16(%rbp), %rax
	addq	$51640, %rax            # imm = 0xC9B8
	movzwl	-2(%rbp), %ecx
	shlq	$4, %rcx
	addq	%rcx, %rax
	movl	4(%rax), %eax
	addl	-28(%rbp), %eax
	movl	%eax, -28(%rbp)
	movq	-16(%rbp), %rax
	addq	$51640, %rax            # imm = 0xC9B8
	movzwl	-2(%rbp), %ecx
	shlq	$4, %rcx
	addq	%rcx, %rax
	movl	8(%rax), %eax
	addl	-24(%rbp), %eax
	movl	%eax, -24(%rbp)
	movq	-40(%rbp), %rax
	movl	-20(%rbp), %ecx
	addl	$42, %ecx
	movslq	%ecx, %rcx
	movw	(%rax,%rcx,2), %ax
	movw	%ax, -2(%rbp)
	movq	-16(%rbp), %rax
	addq	$51640, %rax            # imm = 0xC9B8
	movzwl	-2(%rbp), %ecx
	shlq	$4, %rcx
	addq	%rcx, %rax
	movl	(%rax), %eax
	addl	-32(%rbp), %eax
	movl	%eax, -32(%rbp)
	movq	-16(%rbp), %rax
	addq	$51640, %rax            # imm = 0xC9B8
	movzwl	-2(%rbp), %ecx
	shlq	$4, %rcx
	addq	%rcx, %rax
	movl	4(%rax), %eax
	addl	-28(%rbp), %eax
	movl	%eax, -28(%rbp)
	movq	-16(%rbp), %rax
	addq	$51640, %rax            # imm = 0xC9B8
	movzwl	-2(%rbp), %ecx
	shlq	$4, %rcx
	addq	%rcx, %rax
	movl	8(%rax), %eax
	addl	-24(%rbp), %eax
	movl	%eax, -24(%rbp)
	movq	-40(%rbp), %rax
	movl	-20(%rbp), %ecx
	addl	$43, %ecx
	movslq	%ecx, %rcx
	movw	(%rax,%rcx,2), %ax
	movw	%ax, -2(%rbp)
	movq	-16(%rbp), %rax
	addq	$51640, %rax            # imm = 0xC9B8
	movzwl	-2(%rbp), %ecx
	shlq	$4, %rcx
	addq	%rcx, %rax
	movl	(%rax), %eax
	addl	-32(%rbp), %eax
	movl	%eax, -32(%rbp)
	movq	-16(%rbp), %rax
	addq	$51640, %rax            # imm = 0xC9B8
	movzwl	-2(%rbp), %ecx
	shlq	$4, %rcx
	addq	%rcx, %rax
	movl	4(%rax), %eax
	addl	-28(%rbp), %eax
	movl	%eax, -28(%rbp)
	movq	-16(%rbp), %rax
	addq	$51640, %rax            # imm = 0xC9B8
	movzwl	-2(%rbp), %ecx
	shlq	$4, %rcx
	addq	%rcx, %rax
	movl	8(%rax), %eax
	addl	-24(%rbp), %eax
	movl	%eax, -24(%rbp)
	movq	-40(%rbp), %rax
	movl	-20(%rbp), %ecx
	addl	$44, %ecx
	movslq	%ecx, %rcx
	movw	(%rax,%rcx,2), %ax
	movw	%ax, -2(%rbp)
	movq	-16(%rbp), %rax
	addq	$51640, %rax            # imm = 0xC9B8
	movzwl	-2(%rbp), %ecx
	shlq	$4, %rcx
	addq	%rcx, %rax
	movl	(%rax), %eax
	addl	-32(%rbp), %eax
	movl	%eax, -32(%rbp)
	movq	-16(%rbp), %rax
	addq	$51640, %rax            # imm = 0xC9B8
	movzwl	-2(%rbp), %ecx
	shlq	$4, %rcx
	addq	%rcx, %rax
	movl	4(%rax), %eax
	addl	-28(%rbp), %eax
	movl	%eax, -28(%rbp)
	movq	-16(%rbp), %rax
	addq	$51640, %rax            # imm = 0xC9B8
	movzwl	-2(%rbp), %ecx
	shlq	$4, %rcx
	addq	%rcx, %rax
	movl	8(%rax), %eax
	addl	-24(%rbp), %eax
	movl	%eax, -24(%rbp)
	movq	-40(%rbp), %rax
	movl	-20(%rbp), %ecx
	addl	$45, %ecx
	movslq	%ecx, %rcx
	movw	(%rax,%rcx,2), %ax
	movw	%ax, -2(%rbp)
	movq	-16(%rbp), %rax
	addq	$51640, %rax            # imm = 0xC9B8
	movzwl	-2(%rbp), %ecx
	shlq	$4, %rcx
	addq	%rcx, %rax
	movl	(%rax), %eax
	addl	-32(%rbp), %eax
	movl	%eax, -32(%rbp)
	movq	-16(%rbp), %rax
	addq	$51640, %rax            # imm = 0xC9B8
	movzwl	-2(%rbp), %ecx
	shlq	$4, %rcx
	addq	%rcx, %rax
	movl	4(%rax), %eax
	addl	-28(%rbp), %eax
	movl	%eax, -28(%rbp)
	movq	-16(%rbp), %rax
	addq	$51640, %rax            # imm = 0xC9B8
	movzwl	-2(%rbp), %ecx
	shlq	$4, %rcx
	addq	%rcx, %rax
	movl	8(%rax), %eax
	addl	-24(%rbp), %eax
	movl	%eax, -24(%rbp)
	movq	-40(%rbp), %rax
	movl	-20(%rbp), %ecx
	addl	$46, %ecx
	movslq	%ecx, %rcx
	movw	(%rax,%rcx,2), %ax
	movw	%ax, -2(%rbp)
	movq	-16(%rbp), %rax
	addq	$51640, %rax            # imm = 0xC9B8
	movzwl	-2(%rbp), %ecx
	shlq	$4, %rcx
	addq	%rcx, %rax
	movl	(%rax), %eax
	addl	-32(%rbp), %eax
	movl	%eax, -32(%rbp)
	movq	-16(%rbp), %rax
	addq	$51640, %rax            # imm = 0xC9B8
	movzwl	-2(%rbp), %ecx
	shlq	$4, %rcx
	addq	%rcx, %rax
	movl	4(%rax), %eax
	addl	-28(%rbp), %eax
	movl	%eax, -28(%rbp)
	movq	-16(%rbp), %rax
	addq	$51640, %rax            # imm = 0xC9B8
	movzwl	-2(%rbp), %ecx
	shlq	$4, %rcx
	addq	%rcx, %rax
	movl	8(%rax), %eax
	addl	-24(%rbp), %eax
	movl	%eax, -24(%rbp)
	movq	-40(%rbp), %rax
	movl	-20(%rbp), %ecx
	addl	$47, %ecx
	movslq	%ecx, %rcx
	movw	(%rax,%rcx,2), %ax
	movw	%ax, -2(%rbp)
	movq	-16(%rbp), %rax
	addq	$51640, %rax            # imm = 0xC9B8
	movzwl	-2(%rbp), %ecx
	shlq	$4, %rcx
	addq	%rcx, %rax
	movl	(%rax), %eax
	addl	-32(%rbp), %eax
	movl	%eax, -32(%rbp)
	movq	-16(%rbp), %rax
	addq	$51640, %rax            # imm = 0xC9B8
	movzwl	-2(%rbp), %ecx
	shlq	$4, %rcx
	addq	%rcx, %rax
	movl	4(%rax), %eax
	addl	-28(%rbp), %eax
	movl	%eax, -28(%rbp)
	movq	-16(%rbp), %rax
	addq	$51640, %rax            # imm = 0xC9B8
	movzwl	-2(%rbp), %ecx
	shlq	$4, %rcx
	addq	%rcx, %rax
	movl	8(%rax), %eax
	addl	-24(%rbp), %eax
	movl	%eax, -24(%rbp)
	movq	-40(%rbp), %rax
	movl	-20(%rbp), %ecx
	addl	$48, %ecx
	movslq	%ecx, %rcx
	movw	(%rax,%rcx,2), %ax
	movw	%ax, -2(%rbp)
	movq	-16(%rbp), %rax
	addq	$51640, %rax            # imm = 0xC9B8
	movzwl	-2(%rbp), %ecx
	shlq	$4, %rcx
	addq	%rcx, %rax
	movl	(%rax), %eax
	addl	-32(%rbp), %eax
	movl	%eax, -32(%rbp)
	movq	-16(%rbp), %rax
	addq	$51640, %rax            # imm = 0xC9B8
	movzwl	-2(%rbp), %ecx
	shlq	$4, %rcx
	addq	%rcx, %rax
	movl	4(%rax), %eax
	addl	-28(%rbp), %eax
	movl	%eax, -28(%rbp)
	movq	-16(%rbp), %rax
	addq	$51640, %rax            # imm = 0xC9B8
	movzwl	-2(%rbp), %ecx
	shlq	$4, %rcx
	addq	%rcx, %rax
	movl	8(%rax), %eax
	addl	-24(%rbp), %eax
	movl	%eax, -24(%rbp)
	movq	-40(%rbp), %rax
	movl	-20(%rbp), %ecx
	addl	$49, %ecx
	movslq	%ecx, %rcx
	movw	(%rax,%rcx,2), %ax
	movw	%ax, -2(%rbp)
	movq	-16(%rbp), %rax
	addq	$51640, %rax            # imm = 0xC9B8
	movzwl	-2(%rbp), %ecx
	shlq	$4, %rcx
	addq	%rcx, %rax
	movl	(%rax), %eax
	addl	-32(%rbp), %eax
	movl	%eax, -32(%rbp)
	movq	-16(%rbp), %rax
	addq	$51640, %rax            # imm = 0xC9B8
	movzwl	-2(%rbp), %ecx
	shlq	$4, %rcx
	addq	%rcx, %rax
	movl	4(%rax), %eax
	addl	-28(%rbp), %eax
	movl	%eax, -28(%rbp)
	movq	-16(%rbp), %rax
	addq	$51640, %rax            # imm = 0xC9B8
	movzwl	-2(%rbp), %ecx
	shlq	$4, %rcx
	addq	%rcx, %rax
	movl	8(%rax), %eax
	addl	-24(%rbp), %eax
	movl	%eax, -24(%rbp)
	movl	-32(%rbp), %eax
	andl	$65535, %eax            # imm = 0xFFFF
	movw	%ax, -162(%rbp)
	movl	-32(%rbp), %eax
	shrl	$16, %eax
	movw	%ax, -160(%rbp)
	movl	-28(%rbp), %eax
	andl	$65535, %eax            # imm = 0xFFFF
	movw	%ax, -158(%rbp)
	movl	-28(%rbp), %eax
	shrl	$16, %eax
	movw	%ax, -156(%rbp)
	movl	-24(%rbp), %eax
	andl	$65535, %eax            # imm = 0xFFFF
	movw	%ax, -154(%rbp)
	movl	-24(%rbp), %eax
	shrl	$16, %eax
	movw	%ax, -152(%rbp)
	jmp	.LBB10_88
.LBB10_79:                              # %if.else1136
                                        #   in Loop: Header=BB10_68 Depth=2
	movl	-20(%rbp), %eax
	movl	%eax, -44(%rbp)
.LBB10_80:                              # %for.cond1137
                                        #   Parent Loop BB10_48 Depth=1
                                        #     Parent Loop BB10_68 Depth=2
                                        # =>    This Loop Header: Depth=3
                                        #         Child Loop BB10_82 Depth 4
	movl	-44(%rbp), %eax
	cmpl	-60(%rbp), %eax
	jg	.LBB10_87
# %bb.81:                               # %for.body1140
                                        #   in Loop: Header=BB10_80 Depth=3
	movq	-40(%rbp), %rax
	movslq	-44(%rbp), %rcx
	movw	(%rax,%rcx,2), %ax
	movw	%ax, -150(%rbp)
	movl	$0, -48(%rbp)
.LBB10_82:                              # %for.cond1144
                                        #   Parent Loop BB10_48 Depth=1
                                        #     Parent Loop BB10_68 Depth=2
                                        #       Parent Loop BB10_80 Depth=3
                                        # =>      This Inner Loop Header: Depth=4
	movl	-48(%rbp), %eax
	cmpl	-84(%rbp), %eax
	jge	.LBB10_85
# %bb.83:                               # %for.body1147
                                        #   in Loop: Header=BB10_82 Depth=4
	movq	-16(%rbp), %rax
	addq	$37708, %rax            # imm = 0x934C
	movslq	-48(%rbp), %rcx
	imulq	$258, %rcx, %rcx        # imm = 0x102
	addq	%rcx, %rax
	movzwl	-150(%rbp), %ecx
	movzbl	(%rax,%rcx), %eax
	movslq	-48(%rbp), %rcx
	movzwl	-162(%rbp,%rcx,2), %edx
	addl	%eax, %edx
	movw	%dx, -162(%rbp,%rcx,2)
# %bb.84:                               # %for.inc1159
                                        #   in Loop: Header=BB10_82 Depth=4
	movl	-48(%rbp), %eax
	addl	$1, %eax
	movl	%eax, -48(%rbp)
	jmp	.LBB10_82
.LBB10_85:                              # %for.end1161
                                        #   in Loop: Header=BB10_80 Depth=3
	jmp	.LBB10_86
.LBB10_86:                              # %for.inc1162
                                        #   in Loop: Header=BB10_80 Depth=3
	movl	-44(%rbp), %eax
	addl	$1, %eax
	movl	%eax, -44(%rbp)
	jmp	.LBB10_80
.LBB10_87:                              # %for.end1164
                                        #   in Loop: Header=BB10_68 Depth=2
	jmp	.LBB10_88
.LBB10_88:                              # %if.end1165
                                        #   in Loop: Header=BB10_68 Depth=2
	movl	$999999999, -148(%rbp)  # imm = 0x3B9AC9FF
	movl	$-1, -52(%rbp)
	movl	$0, -48(%rbp)
.LBB10_89:                              # %for.cond1166
                                        #   Parent Loop BB10_48 Depth=1
                                        #     Parent Loop BB10_68 Depth=2
                                        # =>    This Inner Loop Header: Depth=3
	movl	-48(%rbp), %eax
	cmpl	-84(%rbp), %eax
	jge	.LBB10_94
# %bb.90:                               # %for.body1169
                                        #   in Loop: Header=BB10_89 Depth=3
	movslq	-48(%rbp), %rax
	movzwl	-162(%rbp,%rax,2), %eax
	cmpl	-148(%rbp), %eax
	jge	.LBB10_92
# %bb.91:                               # %if.then1175
                                        #   in Loop: Header=BB10_89 Depth=3
	movslq	-48(%rbp), %rax
	movzwl	-162(%rbp,%rax,2), %eax
	movl	%eax, -148(%rbp)
	movl	-48(%rbp), %eax
	movl	%eax, -52(%rbp)
.LBB10_92:                              # %if.end1179
                                        #   in Loop: Header=BB10_89 Depth=3
	jmp	.LBB10_93
.LBB10_93:                              # %for.inc1180
                                        #   in Loop: Header=BB10_89 Depth=3
	movl	-48(%rbp), %eax
	addl	$1, %eax
	movl	%eax, -48(%rbp)
	jmp	.LBB10_89
.LBB10_94:                              # %for.end1182
                                        #   in Loop: Header=BB10_68 Depth=2
	movl	-148(%rbp), %eax
	addl	-144(%rbp), %eax
	movl	%eax, -144(%rbp)
	movslq	-52(%rbp), %rax
	movl	-224(%rbp,%rax,4), %ecx
	addl	$1, %ecx
	movl	%ecx, -224(%rbp,%rax,4)
	movl	-52(%rbp), %eax
	movq	-16(%rbp), %rcx
	movslq	-104(%rbp), %rdx
	movb	%al, 1704(%rcx,%rdx)
	movl	-104(%rbp), %eax
	addl	$1, %eax
	movl	%eax, -104(%rbp)
	cmpl	$6, -84(%rbp)
	jne	.LBB10_97
# %bb.95:                               # %land.lhs.true1193
                                        #   in Loop: Header=BB10_68 Depth=2
	movl	-60(%rbp), %eax
	subl	-20(%rbp), %eax
	addl	$1, %eax
	movl	$50, %ecx
	cmpl	%eax, %ecx
	jne	.LBB10_97
# %bb.96:                               # %if.then1198
                                        #   in Loop: Header=BB10_68 Depth=2
	movq	-16(%rbp), %rax
	addq	$45448, %rax            # imm = 0xB188
	movslq	-52(%rbp), %rcx
	imulq	$1032, %rcx, %rcx       # imm = 0x408
	addq	%rcx, %rax
	movq	-40(%rbp), %rcx
	movl	-20(%rbp), %edx
	addl	$0, %edx
	movslq	%edx, %rdx
	movzwl	(%rcx,%rdx,2), %ecx
	movl	(%rax,%rcx,4), %edx
	addl	$1, %edx
	movl	%edx, (%rax,%rcx,4)
	movq	-16(%rbp), %rax
	addq	$45448, %rax            # imm = 0xB188
	movslq	-52(%rbp), %rcx
	imulq	$1032, %rcx, %rcx       # imm = 0x408
	addq	%rcx, %rax
	movq	-40(%rbp), %rcx
	movl	-20(%rbp), %edx
	addl	$1, %edx
	movslq	%edx, %rdx
	movzwl	(%rcx,%rdx,2), %ecx
	movl	(%rax,%rcx,4), %edx
	addl	$1, %edx
	movl	%edx, (%rax,%rcx,4)
	movq	-16(%rbp), %rax
	addq	$45448, %rax            # imm = 0xB188
	movslq	-52(%rbp), %rcx
	imulq	$1032, %rcx, %rcx       # imm = 0x408
	addq	%rcx, %rax
	movq	-40(%rbp), %rcx
	movl	-20(%rbp), %edx
	addl	$2, %edx
	movslq	%edx, %rdx
	movzwl	(%rcx,%rdx,2), %ecx
	movl	(%rax,%rcx,4), %edx
	addl	$1, %edx
	movl	%edx, (%rax,%rcx,4)
	movq	-16(%rbp), %rax
	addq	$45448, %rax            # imm = 0xB188
	movslq	-52(%rbp), %rcx
	imulq	$1032, %rcx, %rcx       # imm = 0x408
	addq	%rcx, %rax
	movq	-40(%rbp), %rcx
	movl	-20(%rbp), %edx
	addl	$3, %edx
	movslq	%edx, %rdx
	movzwl	(%rcx,%rdx,2), %ecx
	movl	(%rax,%rcx,4), %edx
	addl	$1, %edx
	movl	%edx, (%rax,%rcx,4)
	movq	-16(%rbp), %rax
	addq	$45448, %rax            # imm = 0xB188
	movslq	-52(%rbp), %rcx
	imulq	$1032, %rcx, %rcx       # imm = 0x408
	addq	%rcx, %rax
	movq	-40(%rbp), %rcx
	movl	-20(%rbp), %edx
	addl	$4, %edx
	movslq	%edx, %rdx
	movzwl	(%rcx,%rdx,2), %ecx
	movl	(%rax,%rcx,4), %edx
	addl	$1, %edx
	movl	%edx, (%rax,%rcx,4)
	movq	-16(%rbp), %rax
	addq	$45448, %rax            # imm = 0xB188
	movslq	-52(%rbp), %rcx
	imulq	$1032, %rcx, %rcx       # imm = 0x408
	addq	%rcx, %rax
	movq	-40(%rbp), %rcx
	movl	-20(%rbp), %edx
	addl	$5, %edx
	movslq	%edx, %rdx
	movzwl	(%rcx,%rdx,2), %ecx
	movl	(%rax,%rcx,4), %edx
	addl	$1, %edx
	movl	%edx, (%rax,%rcx,4)
	movq	-16(%rbp), %rax
	addq	$45448, %rax            # imm = 0xB188
	movslq	-52(%rbp), %rcx
	imulq	$1032, %rcx, %rcx       # imm = 0x408
	addq	%rcx, %rax
	movq	-40(%rbp), %rcx
	movl	-20(%rbp), %edx
	addl	$6, %edx
	movslq	%edx, %rdx
	movzwl	(%rcx,%rdx,2), %ecx
	movl	(%rax,%rcx,4), %edx
	addl	$1, %edx
	movl	%edx, (%rax,%rcx,4)
	movq	-16(%rbp), %rax
	addq	$45448, %rax            # imm = 0xB188
	movslq	-52(%rbp), %rcx
	imulq	$1032, %rcx, %rcx       # imm = 0x408
	addq	%rcx, %rax
	movq	-40(%rbp), %rcx
	movl	-20(%rbp), %edx
	addl	$7, %edx
	movslq	%edx, %rdx
	movzwl	(%rcx,%rdx,2), %ecx
	movl	(%rax,%rcx,4), %edx
	addl	$1, %edx
	movl	%edx, (%rax,%rcx,4)
	movq	-16(%rbp), %rax
	addq	$45448, %rax            # imm = 0xB188
	movslq	-52(%rbp), %rcx
	imulq	$1032, %rcx, %rcx       # imm = 0x408
	addq	%rcx, %rax
	movq	-40(%rbp), %rcx
	movl	-20(%rbp), %edx
	addl	$8, %edx
	movslq	%edx, %rdx
	movzwl	(%rcx,%rdx,2), %ecx
	movl	(%rax,%rcx,4), %edx
	addl	$1, %edx
	movl	%edx, (%rax,%rcx,4)
	movq	-16(%rbp), %rax
	addq	$45448, %rax            # imm = 0xB188
	movslq	-52(%rbp), %rcx
	imulq	$1032, %rcx, %rcx       # imm = 0x408
	addq	%rcx, %rax
	movq	-40(%rbp), %rcx
	movl	-20(%rbp), %edx
	addl	$9, %edx
	movslq	%edx, %rdx
	movzwl	(%rcx,%rdx,2), %ecx
	movl	(%rax,%rcx,4), %edx
	addl	$1, %edx
	movl	%edx, (%rax,%rcx,4)
	movq	-16(%rbp), %rax
	addq	$45448, %rax            # imm = 0xB188
	movslq	-52(%rbp), %rcx
	imulq	$1032, %rcx, %rcx       # imm = 0x408
	addq	%rcx, %rax
	movq	-40(%rbp), %rcx
	movl	-20(%rbp), %edx
	addl	$10, %edx
	movslq	%edx, %rdx
	movzwl	(%rcx,%rdx,2), %ecx
	movl	(%rax,%rcx,4), %edx
	addl	$1, %edx
	movl	%edx, (%rax,%rcx,4)
	movq	-16(%rbp), %rax
	addq	$45448, %rax            # imm = 0xB188
	movslq	-52(%rbp), %rcx
	imulq	$1032, %rcx, %rcx       # imm = 0x408
	addq	%rcx, %rax
	movq	-40(%rbp), %rcx
	movl	-20(%rbp), %edx
	addl	$11, %edx
	movslq	%edx, %rdx
	movzwl	(%rcx,%rdx,2), %ecx
	movl	(%rax,%rcx,4), %edx
	addl	$1, %edx
	movl	%edx, (%rax,%rcx,4)
	movq	-16(%rbp), %rax
	addq	$45448, %rax            # imm = 0xB188
	movslq	-52(%rbp), %rcx
	imulq	$1032, %rcx, %rcx       # imm = 0x408
	addq	%rcx, %rax
	movq	-40(%rbp), %rcx
	movl	-20(%rbp), %edx
	addl	$12, %edx
	movslq	%edx, %rdx
	movzwl	(%rcx,%rdx,2), %ecx
	movl	(%rax,%rcx,4), %edx
	addl	$1, %edx
	movl	%edx, (%rax,%rcx,4)
	movq	-16(%rbp), %rax
	addq	$45448, %rax            # imm = 0xB188
	movslq	-52(%rbp), %rcx
	imulq	$1032, %rcx, %rcx       # imm = 0x408
	addq	%rcx, %rax
	movq	-40(%rbp), %rcx
	movl	-20(%rbp), %edx
	addl	$13, %edx
	movslq	%edx, %rdx
	movzwl	(%rcx,%rdx,2), %ecx
	movl	(%rax,%rcx,4), %edx
	addl	$1, %edx
	movl	%edx, (%rax,%rcx,4)
	movq	-16(%rbp), %rax
	addq	$45448, %rax            # imm = 0xB188
	movslq	-52(%rbp), %rcx
	imulq	$1032, %rcx, %rcx       # imm = 0x408
	addq	%rcx, %rax
	movq	-40(%rbp), %rcx
	movl	-20(%rbp), %edx
	addl	$14, %edx
	movslq	%edx, %rdx
	movzwl	(%rcx,%rdx,2), %ecx
	movl	(%rax,%rcx,4), %edx
	addl	$1, %edx
	movl	%edx, (%rax,%rcx,4)
	movq	-16(%rbp), %rax
	addq	$45448, %rax            # imm = 0xB188
	movslq	-52(%rbp), %rcx
	imulq	$1032, %rcx, %rcx       # imm = 0x408
	addq	%rcx, %rax
	movq	-40(%rbp), %rcx
	movl	-20(%rbp), %edx
	addl	$15, %edx
	movslq	%edx, %rdx
	movzwl	(%rcx,%rdx,2), %ecx
	movl	(%rax,%rcx,4), %edx
	addl	$1, %edx
	movl	%edx, (%rax,%rcx,4)
	movq	-16(%rbp), %rax
	addq	$45448, %rax            # imm = 0xB188
	movslq	-52(%rbp), %rcx
	imulq	$1032, %rcx, %rcx       # imm = 0x408
	addq	%rcx, %rax
	movq	-40(%rbp), %rcx
	movl	-20(%rbp), %edx
	addl	$16, %edx
	movslq	%edx, %rdx
	movzwl	(%rcx,%rdx,2), %ecx
	movl	(%rax,%rcx,4), %edx
	addl	$1, %edx
	movl	%edx, (%rax,%rcx,4)
	movq	-16(%rbp), %rax
	addq	$45448, %rax            # imm = 0xB188
	movslq	-52(%rbp), %rcx
	imulq	$1032, %rcx, %rcx       # imm = 0x408
	addq	%rcx, %rax
	movq	-40(%rbp), %rcx
	movl	-20(%rbp), %edx
	addl	$17, %edx
	movslq	%edx, %rdx
	movzwl	(%rcx,%rdx,2), %ecx
	movl	(%rax,%rcx,4), %edx
	addl	$1, %edx
	movl	%edx, (%rax,%rcx,4)
	movq	-16(%rbp), %rax
	addq	$45448, %rax            # imm = 0xB188
	movslq	-52(%rbp), %rcx
	imulq	$1032, %rcx, %rcx       # imm = 0x408
	addq	%rcx, %rax
	movq	-40(%rbp), %rcx
	movl	-20(%rbp), %edx
	addl	$18, %edx
	movslq	%edx, %rdx
	movzwl	(%rcx,%rdx,2), %ecx
	movl	(%rax,%rcx,4), %edx
	addl	$1, %edx
	movl	%edx, (%rax,%rcx,4)
	movq	-16(%rbp), %rax
	addq	$45448, %rax            # imm = 0xB188
	movslq	-52(%rbp), %rcx
	imulq	$1032, %rcx, %rcx       # imm = 0x408
	addq	%rcx, %rax
	movq	-40(%rbp), %rcx
	movl	-20(%rbp), %edx
	addl	$19, %edx
	movslq	%edx, %rdx
	movzwl	(%rcx,%rdx,2), %ecx
	movl	(%rax,%rcx,4), %edx
	addl	$1, %edx
	movl	%edx, (%rax,%rcx,4)
	movq	-16(%rbp), %rax
	addq	$45448, %rax            # imm = 0xB188
	movslq	-52(%rbp), %rcx
	imulq	$1032, %rcx, %rcx       # imm = 0x408
	addq	%rcx, %rax
	movq	-40(%rbp), %rcx
	movl	-20(%rbp), %edx
	addl	$20, %edx
	movslq	%edx, %rdx
	movzwl	(%rcx,%rdx,2), %ecx
	movl	(%rax,%rcx,4), %edx
	addl	$1, %edx
	movl	%edx, (%rax,%rcx,4)
	movq	-16(%rbp), %rax
	addq	$45448, %rax            # imm = 0xB188
	movslq	-52(%rbp), %rcx
	imulq	$1032, %rcx, %rcx       # imm = 0x408
	addq	%rcx, %rax
	movq	-40(%rbp), %rcx
	movl	-20(%rbp), %edx
	addl	$21, %edx
	movslq	%edx, %rdx
	movzwl	(%rcx,%rdx,2), %ecx
	movl	(%rax,%rcx,4), %edx
	addl	$1, %edx
	movl	%edx, (%rax,%rcx,4)
	movq	-16(%rbp), %rax
	addq	$45448, %rax            # imm = 0xB188
	movslq	-52(%rbp), %rcx
	imulq	$1032, %rcx, %rcx       # imm = 0x408
	addq	%rcx, %rax
	movq	-40(%rbp), %rcx
	movl	-20(%rbp), %edx
	addl	$22, %edx
	movslq	%edx, %rdx
	movzwl	(%rcx,%rdx,2), %ecx
	movl	(%rax,%rcx,4), %edx
	addl	$1, %edx
	movl	%edx, (%rax,%rcx,4)
	movq	-16(%rbp), %rax
	addq	$45448, %rax            # imm = 0xB188
	movslq	-52(%rbp), %rcx
	imulq	$1032, %rcx, %rcx       # imm = 0x408
	addq	%rcx, %rax
	movq	-40(%rbp), %rcx
	movl	-20(%rbp), %edx
	addl	$23, %edx
	movslq	%edx, %rdx
	movzwl	(%rcx,%rdx,2), %ecx
	movl	(%rax,%rcx,4), %edx
	addl	$1, %edx
	movl	%edx, (%rax,%rcx,4)
	movq	-16(%rbp), %rax
	addq	$45448, %rax            # imm = 0xB188
	movslq	-52(%rbp), %rcx
	imulq	$1032, %rcx, %rcx       # imm = 0x408
	addq	%rcx, %rax
	movq	-40(%rbp), %rcx
	movl	-20(%rbp), %edx
	addl	$24, %edx
	movslq	%edx, %rdx
	movzwl	(%rcx,%rdx,2), %ecx
	movl	(%rax,%rcx,4), %edx
	addl	$1, %edx
	movl	%edx, (%rax,%rcx,4)
	movq	-16(%rbp), %rax
	addq	$45448, %rax            # imm = 0xB188
	movslq	-52(%rbp), %rcx
	imulq	$1032, %rcx, %rcx       # imm = 0x408
	addq	%rcx, %rax
	movq	-40(%rbp), %rcx
	movl	-20(%rbp), %edx
	addl	$25, %edx
	movslq	%edx, %rdx
	movzwl	(%rcx,%rdx,2), %ecx
	movl	(%rax,%rcx,4), %edx
	addl	$1, %edx
	movl	%edx, (%rax,%rcx,4)
	movq	-16(%rbp), %rax
	addq	$45448, %rax            # imm = 0xB188
	movslq	-52(%rbp), %rcx
	imulq	$1032, %rcx, %rcx       # imm = 0x408
	addq	%rcx, %rax
	movq	-40(%rbp), %rcx
	movl	-20(%rbp), %edx
	addl	$26, %edx
	movslq	%edx, %rdx
	movzwl	(%rcx,%rdx,2), %ecx
	movl	(%rax,%rcx,4), %edx
	addl	$1, %edx
	movl	%edx, (%rax,%rcx,4)
	movq	-16(%rbp), %rax
	addq	$45448, %rax            # imm = 0xB188
	movslq	-52(%rbp), %rcx
	imulq	$1032, %rcx, %rcx       # imm = 0x408
	addq	%rcx, %rax
	movq	-40(%rbp), %rcx
	movl	-20(%rbp), %edx
	addl	$27, %edx
	movslq	%edx, %rdx
	movzwl	(%rcx,%rdx,2), %ecx
	movl	(%rax,%rcx,4), %edx
	addl	$1, %edx
	movl	%edx, (%rax,%rcx,4)
	movq	-16(%rbp), %rax
	addq	$45448, %rax            # imm = 0xB188
	movslq	-52(%rbp), %rcx
	imulq	$1032, %rcx, %rcx       # imm = 0x408
	addq	%rcx, %rax
	movq	-40(%rbp), %rcx
	movl	-20(%rbp), %edx
	addl	$28, %edx
	movslq	%edx, %rdx
	movzwl	(%rcx,%rdx,2), %ecx
	movl	(%rax,%rcx,4), %edx
	addl	$1, %edx
	movl	%edx, (%rax,%rcx,4)
	movq	-16(%rbp), %rax
	addq	$45448, %rax            # imm = 0xB188
	movslq	-52(%rbp), %rcx
	imulq	$1032, %rcx, %rcx       # imm = 0x408
	addq	%rcx, %rax
	movq	-40(%rbp), %rcx
	movl	-20(%rbp), %edx
	addl	$29, %edx
	movslq	%edx, %rdx
	movzwl	(%rcx,%rdx,2), %ecx
	movl	(%rax,%rcx,4), %edx
	addl	$1, %edx
	movl	%edx, (%rax,%rcx,4)
	movq	-16(%rbp), %rax
	addq	$45448, %rax            # imm = 0xB188
	movslq	-52(%rbp), %rcx
	imulq	$1032, %rcx, %rcx       # imm = 0x408
	addq	%rcx, %rax
	movq	-40(%rbp), %rcx
	movl	-20(%rbp), %edx
	addl	$30, %edx
	movslq	%edx, %rdx
	movzwl	(%rcx,%rdx,2), %ecx
	movl	(%rax,%rcx,4), %edx
	addl	$1, %edx
	movl	%edx, (%rax,%rcx,4)
	movq	-16(%rbp), %rax
	addq	$45448, %rax            # imm = 0xB188
	movslq	-52(%rbp), %rcx
	imulq	$1032, %rcx, %rcx       # imm = 0x408
	addq	%rcx, %rax
	movq	-40(%rbp), %rcx
	movl	-20(%rbp), %edx
	addl	$31, %edx
	movslq	%edx, %rdx
	movzwl	(%rcx,%rdx,2), %ecx
	movl	(%rax,%rcx,4), %edx
	addl	$1, %edx
	movl	%edx, (%rax,%rcx,4)
	movq	-16(%rbp), %rax
	addq	$45448, %rax            # imm = 0xB188
	movslq	-52(%rbp), %rcx
	imulq	$1032, %rcx, %rcx       # imm = 0x408
	addq	%rcx, %rax
	movq	-40(%rbp), %rcx
	movl	-20(%rbp), %edx
	addl	$32, %edx
	movslq	%edx, %rdx
	movzwl	(%rcx,%rdx,2), %ecx
	movl	(%rax,%rcx,4), %edx
	addl	$1, %edx
	movl	%edx, (%rax,%rcx,4)
	movq	-16(%rbp), %rax
	addq	$45448, %rax            # imm = 0xB188
	movslq	-52(%rbp), %rcx
	imulq	$1032, %rcx, %rcx       # imm = 0x408
	addq	%rcx, %rax
	movq	-40(%rbp), %rcx
	movl	-20(%rbp), %edx
	addl	$33, %edx
	movslq	%edx, %rdx
	movzwl	(%rcx,%rdx,2), %ecx
	movl	(%rax,%rcx,4), %edx
	addl	$1, %edx
	movl	%edx, (%rax,%rcx,4)
	movq	-16(%rbp), %rax
	addq	$45448, %rax            # imm = 0xB188
	movslq	-52(%rbp), %rcx
	imulq	$1032, %rcx, %rcx       # imm = 0x408
	addq	%rcx, %rax
	movq	-40(%rbp), %rcx
	movl	-20(%rbp), %edx
	addl	$34, %edx
	movslq	%edx, %rdx
	movzwl	(%rcx,%rdx,2), %ecx
	movl	(%rax,%rcx,4), %edx
	addl	$1, %edx
	movl	%edx, (%rax,%rcx,4)
	movq	-16(%rbp), %rax
	addq	$45448, %rax            # imm = 0xB188
	movslq	-52(%rbp), %rcx
	imulq	$1032, %rcx, %rcx       # imm = 0x408
	addq	%rcx, %rax
	movq	-40(%rbp), %rcx
	movl	-20(%rbp), %edx
	addl	$35, %edx
	movslq	%edx, %rdx
	movzwl	(%rcx,%rdx,2), %ecx
	movl	(%rax,%rcx,4), %edx
	addl	$1, %edx
	movl	%edx, (%rax,%rcx,4)
	movq	-16(%rbp), %rax
	addq	$45448, %rax            # imm = 0xB188
	movslq	-52(%rbp), %rcx
	imulq	$1032, %rcx, %rcx       # imm = 0x408
	addq	%rcx, %rax
	movq	-40(%rbp), %rcx
	movl	-20(%rbp), %edx
	addl	$36, %edx
	movslq	%edx, %rdx
	movzwl	(%rcx,%rdx,2), %ecx
	movl	(%rax,%rcx,4), %edx
	addl	$1, %edx
	movl	%edx, (%rax,%rcx,4)
	movq	-16(%rbp), %rax
	addq	$45448, %rax            # imm = 0xB188
	movslq	-52(%rbp), %rcx
	imulq	$1032, %rcx, %rcx       # imm = 0x408
	addq	%rcx, %rax
	movq	-40(%rbp), %rcx
	movl	-20(%rbp), %edx
	addl	$37, %edx
	movslq	%edx, %rdx
	movzwl	(%rcx,%rdx,2), %ecx
	movl	(%rax,%rcx,4), %edx
	addl	$1, %edx
	movl	%edx, (%rax,%rcx,4)
	movq	-16(%rbp), %rax
	addq	$45448, %rax            # imm = 0xB188
	movslq	-52(%rbp), %rcx
	imulq	$1032, %rcx, %rcx       # imm = 0x408
	addq	%rcx, %rax
	movq	-40(%rbp), %rcx
	movl	-20(%rbp), %edx
	addl	$38, %edx
	movslq	%edx, %rdx
	movzwl	(%rcx,%rdx,2), %ecx
	movl	(%rax,%rcx,4), %edx
	addl	$1, %edx
	movl	%edx, (%rax,%rcx,4)
	movq	-16(%rbp), %rax
	addq	$45448, %rax            # imm = 0xB188
	movslq	-52(%rbp), %rcx
	imulq	$1032, %rcx, %rcx       # imm = 0x408
	addq	%rcx, %rax
	movq	-40(%rbp), %rcx
	movl	-20(%rbp), %edx
	addl	$39, %edx
	movslq	%edx, %rdx
	movzwl	(%rcx,%rdx,2), %ecx
	movl	(%rax,%rcx,4), %edx
	addl	$1, %edx
	movl	%edx, (%rax,%rcx,4)
	movq	-16(%rbp), %rax
	addq	$45448, %rax            # imm = 0xB188
	movslq	-52(%rbp), %rcx
	imulq	$1032, %rcx, %rcx       # imm = 0x408
	addq	%rcx, %rax
	movq	-40(%rbp), %rcx
	movl	-20(%rbp), %edx
	addl	$40, %edx
	movslq	%edx, %rdx
	movzwl	(%rcx,%rdx,2), %ecx
	movl	(%rax,%rcx,4), %edx
	addl	$1, %edx
	movl	%edx, (%rax,%rcx,4)
	movq	-16(%rbp), %rax
	addq	$45448, %rax            # imm = 0xB188
	movslq	-52(%rbp), %rcx
	imulq	$1032, %rcx, %rcx       # imm = 0x408
	addq	%rcx, %rax
	movq	-40(%rbp), %rcx
	movl	-20(%rbp), %edx
	addl	$41, %edx
	movslq	%edx, %rdx
	movzwl	(%rcx,%rdx,2), %ecx
	movl	(%rax,%rcx,4), %edx
	addl	$1, %edx
	movl	%edx, (%rax,%rcx,4)
	movq	-16(%rbp), %rax
	addq	$45448, %rax            # imm = 0xB188
	movslq	-52(%rbp), %rcx
	imulq	$1032, %rcx, %rcx       # imm = 0x408
	addq	%rcx, %rax
	movq	-40(%rbp), %rcx
	movl	-20(%rbp), %edx
	addl	$42, %edx
	movslq	%edx, %rdx
	movzwl	(%rcx,%rdx,2), %ecx
	movl	(%rax,%rcx,4), %edx
	addl	$1, %edx
	movl	%edx, (%rax,%rcx,4)
	movq	-16(%rbp), %rax
	addq	$45448, %rax            # imm = 0xB188
	movslq	-52(%rbp), %rcx
	imulq	$1032, %rcx, %rcx       # imm = 0x408
	addq	%rcx, %rax
	movq	-40(%rbp), %rcx
	movl	-20(%rbp), %edx
	addl	$43, %edx
	movslq	%edx, %rdx
	movzwl	(%rcx,%rdx,2), %ecx
	movl	(%rax,%rcx,4), %edx
	addl	$1, %edx
	movl	%edx, (%rax,%rcx,4)
	movq	-16(%rbp), %rax
	addq	$45448, %rax            # imm = 0xB188
	movslq	-52(%rbp), %rcx
	imulq	$1032, %rcx, %rcx       # imm = 0x408
	addq	%rcx, %rax
	movq	-40(%rbp), %rcx
	movl	-20(%rbp), %edx
	addl	$44, %edx
	movslq	%edx, %rdx
	movzwl	(%rcx,%rdx,2), %ecx
	movl	(%rax,%rcx,4), %edx
	addl	$1, %edx
	movl	%edx, (%rax,%rcx,4)
	movq	-16(%rbp), %rax
	addq	$45448, %rax            # imm = 0xB188
	movslq	-52(%rbp), %rcx
	imulq	$1032, %rcx, %rcx       # imm = 0x408
	addq	%rcx, %rax
	movq	-40(%rbp), %rcx
	movl	-20(%rbp), %edx
	addl	$45, %edx
	movslq	%edx, %rdx
	movzwl	(%rcx,%rdx,2), %ecx
	movl	(%rax,%rcx,4), %edx
	addl	$1, %edx
	movl	%edx, (%rax,%rcx,4)
	movq	-16(%rbp), %rax
	addq	$45448, %rax            # imm = 0xB188
	movslq	-52(%rbp), %rcx
	imulq	$1032, %rcx, %rcx       # imm = 0x408
	addq	%rcx, %rax
	movq	-40(%rbp), %rcx
	movl	-20(%rbp), %edx
	addl	$46, %edx
	movslq	%edx, %rdx
	movzwl	(%rcx,%rdx,2), %ecx
	movl	(%rax,%rcx,4), %edx
	addl	$1, %edx
	movl	%edx, (%rax,%rcx,4)
	movq	-16(%rbp), %rax
	addq	$45448, %rax            # imm = 0xB188
	movslq	-52(%rbp), %rcx
	imulq	$1032, %rcx, %rcx       # imm = 0x408
	addq	%rcx, %rax
	movq	-40(%rbp), %rcx
	movl	-20(%rbp), %edx
	addl	$47, %edx
	movslq	%edx, %rdx
	movzwl	(%rcx,%rdx,2), %ecx
	movl	(%rax,%rcx,4), %edx
	addl	$1, %edx
	movl	%edx, (%rax,%rcx,4)
	movq	-16(%rbp), %rax
	addq	$45448, %rax            # imm = 0xB188
	movslq	-52(%rbp), %rcx
	imulq	$1032, %rcx, %rcx       # imm = 0x408
	addq	%rcx, %rax
	movq	-40(%rbp), %rcx
	movl	-20(%rbp), %edx
	addl	$48, %edx
	movslq	%edx, %rdx
	movzwl	(%rcx,%rdx,2), %ecx
	movl	(%rax,%rcx,4), %edx
	addl	$1, %edx
	movl	%edx, (%rax,%rcx,4)
	movq	-16(%rbp), %rax
	addq	$45448, %rax            # imm = 0xB188
	movslq	-52(%rbp), %rcx
	imulq	$1032, %rcx, %rcx       # imm = 0x408
	addq	%rcx, %rax
	movq	-40(%rbp), %rcx
	movl	-20(%rbp), %edx
	addl	$49, %edx
	movslq	%edx, %rdx
	movzwl	(%rcx,%rdx,2), %ecx
	movl	(%rax,%rcx,4), %edx
	addl	$1, %edx
	movl	%edx, (%rax,%rcx,4)
	jmp	.LBB10_102
.LBB10_97:                              # %if.else1649
                                        #   in Loop: Header=BB10_68 Depth=2
	movl	-20(%rbp), %eax
	movl	%eax, -44(%rbp)
.LBB10_98:                              # %for.cond1650
                                        #   Parent Loop BB10_48 Depth=1
                                        #     Parent Loop BB10_68 Depth=2
                                        # =>    This Inner Loop Header: Depth=3
	movl	-44(%rbp), %eax
	cmpl	-60(%rbp), %eax
	jg	.LBB10_101
# %bb.99:                               # %for.body1653
                                        #   in Loop: Header=BB10_98 Depth=3
	movq	-16(%rbp), %rax
	addq	$45448, %rax            # imm = 0xB188
	movslq	-52(%rbp), %rcx
	imulq	$1032, %rcx, %rcx       # imm = 0x408
	addq	%rcx, %rax
	movq	-40(%rbp), %rcx
	movslq	-44(%rbp), %rdx
	movzwl	(%rcx,%rdx,2), %ecx
	movl	(%rax,%rcx,4), %edx
	addl	$1, %edx
	movl	%edx, (%rax,%rcx,4)
# %bb.100:                              # %for.inc1662
                                        #   in Loop: Header=BB10_98 Depth=3
	movl	-44(%rbp), %eax
	addl	$1, %eax
	movl	%eax, -44(%rbp)
	jmp	.LBB10_98
.LBB10_101:                             # %for.end1664
                                        #   in Loop: Header=BB10_68 Depth=2
	jmp	.LBB10_102
.LBB10_102:                             # %if.end1665
                                        #   in Loop: Header=BB10_68 Depth=2
	movl	-60(%rbp), %eax
	addl	$1, %eax
	movl	%eax, -20(%rbp)
	jmp	.LBB10_68
.LBB10_103:                             # %while.end1667
                                        #   in Loop: Header=BB10_48 Depth=1
	movq	-16(%rbp), %rax
	cmpl	$3, 656(%rax)
	jl	.LBB10_109
# %bb.104:                              # %if.then1671
                                        #   in Loop: Header=BB10_48 Depth=1
	movq	stderr, %rdi
	movl	-132(%rbp), %ecx
	addl	$1, %ecx
	movl	-144(%rbp), %eax
	cltd
	movl	$8, %esi
	idivl	%esi
	movabsq	$.L.str.4, %rsi
	movl	%ecx, %edx
	movl	%eax, %ecx
	movb	$0, %al
	callq	fprintf
	movl	$0, -48(%rbp)
.LBB10_105:                             # %for.cond1675
                                        #   Parent Loop BB10_48 Depth=1
                                        # =>  This Inner Loop Header: Depth=2
	movl	-48(%rbp), %eax
	cmpl	-84(%rbp), %eax
	jge	.LBB10_108
# %bb.106:                              # %for.body1678
                                        #   in Loop: Header=BB10_105 Depth=2
	movq	stderr, %rdi
	movslq	-48(%rbp), %rax
	movl	-224(%rbp,%rax,4), %edx
	movabsq	$.L.str.5, %rsi
	movb	$0, %al
	callq	fprintf
# %bb.107:                              # %for.inc1682
                                        #   in Loop: Header=BB10_105 Depth=2
	movl	-48(%rbp), %eax
	addl	$1, %eax
	movl	%eax, -48(%rbp)
	jmp	.LBB10_105
.LBB10_108:                             # %for.end1684
                                        #   in Loop: Header=BB10_48 Depth=1
	movq	stderr, %rdi
	movabsq	$.L.str.6, %rsi
	movb	$0, %al
	callq	fprintf
.LBB10_109:                             # %if.end1686
                                        #   in Loop: Header=BB10_48 Depth=1
	movl	$0, -48(%rbp)
.LBB10_110:                             # %for.cond1687
                                        #   Parent Loop BB10_48 Depth=1
                                        # =>  This Inner Loop Header: Depth=2
	movl	-48(%rbp), %eax
	cmpl	-84(%rbp), %eax
	jge	.LBB10_113
# %bb.111:                              # %for.body1690
                                        #   in Loop: Header=BB10_110 Depth=2
	movq	-16(%rbp), %rdi
	addq	$37708, %rdi            # imm = 0x934C
	movslq	-48(%rbp), %rax
	imulq	$258, %rax, %rax        # imm = 0x102
	addq	%rax, %rdi
	movq	-16(%rbp), %rsi
	addq	$45448, %rsi            # imm = 0xB188
	movslq	-48(%rbp), %rax
	imulq	$1032, %rax, %rax       # imm = 0x408
	addq	%rax, %rsi
	movl	-100(%rbp), %edx
	movl	$17, %ecx
	callq	BZ2_hbMakeCodeLengths
# %bb.112:                              # %for.inc1699
                                        #   in Loop: Header=BB10_110 Depth=2
	movl	-48(%rbp), %eax
	addl	$1, %eax
	movl	%eax, -48(%rbp)
	jmp	.LBB10_110
.LBB10_113:                             # %for.end1701
                                        #   in Loop: Header=BB10_48 Depth=1
	jmp	.LBB10_114
.LBB10_114:                             # %for.inc1702
                                        #   in Loop: Header=BB10_48 Depth=1
	movl	-132(%rbp), %eax
	addl	$1, %eax
	movl	%eax, -132(%rbp)
	jmp	.LBB10_48
.LBB10_115:                             # %for.end1704
	cmpl	$8, -84(%rbp)
	jl	.LBB10_117
# %bb.116:                              # %if.then1707
	movl	$3002, %edi             # imm = 0xBBA
	callq	BZ2_bz__AssertH__fail
.LBB10_117:                             # %if.end1708
	cmpl	$32768, -104(%rbp)      # imm = 0x8000
	jge	.LBB10_119
# %bb.118:                              # %land.lhs.true1711
	cmpl	$18002, -104(%rbp)      # imm = 0x4652
	jle	.LBB10_120
.LBB10_119:                             # %if.then1714
	movl	$3003, %edi             # imm = 0xBBB
	callq	BZ2_bz__AssertH__fail
.LBB10_120:                             # %if.end1715
	movl	$0, -44(%rbp)
.LBB10_121:                             # %for.cond1716
                                        # =>This Inner Loop Header: Depth=1
	movl	-44(%rbp), %eax
	cmpl	-84(%rbp), %eax
	jge	.LBB10_124
# %bb.122:                              # %for.body1719
                                        #   in Loop: Header=BB10_121 Depth=1
	movl	-44(%rbp), %eax
	movslq	-44(%rbp), %rcx
	movb	%al, -168(%rbp,%rcx)
# %bb.123:                              # %for.inc1723
                                        #   in Loop: Header=BB10_121 Depth=1
	movl	-44(%rbp), %eax
	addl	$1, %eax
	movl	%eax, -44(%rbp)
	jmp	.LBB10_121
.LBB10_124:                             # %for.end1725
	movl	$0, -44(%rbp)
.LBB10_125:                             # %for.cond1726
                                        # =>This Loop Header: Depth=1
                                        #     Child Loop BB10_127 Depth 2
	movl	-44(%rbp), %eax
	cmpl	-104(%rbp), %eax
	jge	.LBB10_131
# %bb.126:                              # %for.body1729
                                        #   in Loop: Header=BB10_125 Depth=1
	movq	-16(%rbp), %rax
	movslq	-44(%rbp), %rcx
	movb	1704(%rax,%rcx), %al
	movb	%al, -122(%rbp)
	movl	$0, -88(%rbp)
	movslq	-88(%rbp), %rax
	movb	-168(%rbp,%rax), %al
	movb	%al, -89(%rbp)
.LBB10_127:                             # %while.cond1735
                                        #   Parent Loop BB10_125 Depth=1
                                        # =>  This Inner Loop Header: Depth=2
	movzbl	-122(%rbp), %eax
	movzbl	-89(%rbp), %ecx
	cmpl	%ecx, %eax
	je	.LBB10_129
# %bb.128:                              # %while.body1740
                                        #   in Loop: Header=BB10_127 Depth=2
	movl	-88(%rbp), %eax
	addl	$1, %eax
	movl	%eax, -88(%rbp)
	movb	-89(%rbp), %al
	movb	%al, -121(%rbp)
	movslq	-88(%rbp), %rax
	movb	-168(%rbp,%rax), %al
	movb	%al, -89(%rbp)
	movb	-121(%rbp), %al
	movslq	-88(%rbp), %rcx
	movb	%al, -168(%rbp,%rcx)
	jmp	.LBB10_127
.LBB10_129:                             # %while.end1746
                                        #   in Loop: Header=BB10_125 Depth=1
	movb	-89(%rbp), %al
	movb	%al, -168(%rbp)
	movl	-88(%rbp), %eax
	movq	-16(%rbp), %rcx
	movslq	-44(%rbp), %rdx
	movb	%al, 19706(%rcx,%rdx)
# %bb.130:                              # %for.inc1751
                                        #   in Loop: Header=BB10_125 Depth=1
	movl	-44(%rbp), %eax
	addl	$1, %eax
	movl	%eax, -44(%rbp)
	jmp	.LBB10_125
.LBB10_131:                             # %for.end1753
	movl	$0, -48(%rbp)
.LBB10_132:                             # %for.cond1754
                                        # =>This Loop Header: Depth=1
                                        #     Child Loop BB10_134 Depth 2
	movl	-48(%rbp), %eax
	cmpl	-84(%rbp), %eax
	jge	.LBB10_147
# %bb.133:                              # %for.body1757
                                        #   in Loop: Header=BB10_132 Depth=1
	movl	$32, -136(%rbp)
	movl	$0, -128(%rbp)
	movl	$0, -44(%rbp)
.LBB10_134:                             # %for.cond1758
                                        #   Parent Loop BB10_132 Depth=1
                                        # =>  This Inner Loop Header: Depth=2
	movl	-44(%rbp), %eax
	cmpl	-100(%rbp), %eax
	jge	.LBB10_141
# %bb.135:                              # %for.body1761
                                        #   in Loop: Header=BB10_134 Depth=2
	movq	-16(%rbp), %rax
	addq	$37708, %rax            # imm = 0x934C
	movslq	-48(%rbp), %rcx
	imulq	$258, %rcx, %rcx        # imm = 0x102
	addq	%rcx, %rax
	movslq	-44(%rbp), %rcx
	movzbl	(%rax,%rcx), %eax
	cmpl	-128(%rbp), %eax
	jle	.LBB10_137
# %bb.136:                              # %if.then1770
                                        #   in Loop: Header=BB10_134 Depth=2
	movq	-16(%rbp), %rax
	addq	$37708, %rax            # imm = 0x934C
	movslq	-48(%rbp), %rcx
	imulq	$258, %rcx, %rcx        # imm = 0x102
	addq	%rcx, %rax
	movslq	-44(%rbp), %rcx
	movzbl	(%rax,%rcx), %eax
	movl	%eax, -128(%rbp)
.LBB10_137:                             # %if.end1777
                                        #   in Loop: Header=BB10_134 Depth=2
	movq	-16(%rbp), %rax
	addq	$37708, %rax            # imm = 0x934C
	movslq	-48(%rbp), %rcx
	imulq	$258, %rcx, %rcx        # imm = 0x102
	addq	%rcx, %rax
	movslq	-44(%rbp), %rcx
	movzbl	(%rax,%rcx), %eax
	cmpl	-136(%rbp), %eax
	jge	.LBB10_139
# %bb.138:                              # %if.then1786
                                        #   in Loop: Header=BB10_134 Depth=2
	movq	-16(%rbp), %rax
	addq	$37708, %rax            # imm = 0x934C
	movslq	-48(%rbp), %rcx
	imulq	$258, %rcx, %rcx        # imm = 0x102
	addq	%rcx, %rax
	movslq	-44(%rbp), %rcx
	movzbl	(%rax,%rcx), %eax
	movl	%eax, -136(%rbp)
.LBB10_139:                             # %if.end1793
                                        #   in Loop: Header=BB10_134 Depth=2
	jmp	.LBB10_140
.LBB10_140:                             # %for.inc1794
                                        #   in Loop: Header=BB10_134 Depth=2
	movl	-44(%rbp), %eax
	addl	$1, %eax
	movl	%eax, -44(%rbp)
	jmp	.LBB10_134
.LBB10_141:                             # %for.end1796
                                        #   in Loop: Header=BB10_132 Depth=1
	cmpl	$17, -128(%rbp)
	jle	.LBB10_143
# %bb.142:                              # %if.then1799
                                        #   in Loop: Header=BB10_132 Depth=1
	movl	$3004, %edi             # imm = 0xBBC
	callq	BZ2_bz__AssertH__fail
.LBB10_143:                             # %if.end1800
                                        #   in Loop: Header=BB10_132 Depth=1
	cmpl	$1, -136(%rbp)
	jge	.LBB10_145
# %bb.144:                              # %if.then1803
                                        #   in Loop: Header=BB10_132 Depth=1
	movl	$3005, %edi             # imm = 0xBBD
	callq	BZ2_bz__AssertH__fail
.LBB10_145:                             # %if.end1804
                                        #   in Loop: Header=BB10_132 Depth=1
	movq	-16(%rbp), %rdi
	addq	$39256, %rdi            # imm = 0x9958
	movslq	-48(%rbp), %rax
	imulq	$1032, %rax, %rax       # imm = 0x408
	addq	%rax, %rdi
	movq	-16(%rbp), %rsi
	addq	$37708, %rsi            # imm = 0x934C
	movslq	-48(%rbp), %rax
	imulq	$258, %rax, %rax        # imm = 0x102
	addq	%rax, %rsi
	movl	-136(%rbp), %edx
	movl	-128(%rbp), %ecx
	movl	-100(%rbp), %r8d
	callq	BZ2_hbAssignCodes
# %bb.146:                              # %for.inc1812
                                        #   in Loop: Header=BB10_132 Depth=1
	movl	-48(%rbp), %eax
	addl	$1, %eax
	movl	%eax, -48(%rbp)
	jmp	.LBB10_132
.LBB10_147:                             # %for.end1814
	movl	$0, -44(%rbp)
.LBB10_148:                             # %for.cond1815
                                        # =>This Loop Header: Depth=1
                                        #     Child Loop BB10_150 Depth 2
	cmpl	$16, -44(%rbp)
	jge	.LBB10_157
# %bb.149:                              # %for.body1818
                                        #   in Loop: Header=BB10_148 Depth=1
	movslq	-44(%rbp), %rax
	movb	$0, -192(%rbp,%rax)
	movl	$0, -88(%rbp)
.LBB10_150:                             # %for.cond1821
                                        #   Parent Loop BB10_148 Depth=1
                                        # =>  This Inner Loop Header: Depth=2
	cmpl	$16, -88(%rbp)
	jge	.LBB10_155
# %bb.151:                              # %for.body1824
                                        #   in Loop: Header=BB10_150 Depth=2
	movq	-16(%rbp), %rax
	movl	-44(%rbp), %ecx
	shll	$4, %ecx
	addl	-88(%rbp), %ecx
	movslq	%ecx, %rcx
	cmpb	$0, 128(%rax,%rcx)
	je	.LBB10_153
# %bb.152:                              # %if.then1829
                                        #   in Loop: Header=BB10_150 Depth=2
	movslq	-44(%rbp), %rax
	movb	$1, -192(%rbp,%rax)
.LBB10_153:                             # %if.end1832
                                        #   in Loop: Header=BB10_150 Depth=2
	jmp	.LBB10_154
.LBB10_154:                             # %for.inc1833
                                        #   in Loop: Header=BB10_150 Depth=2
	movl	-88(%rbp), %eax
	addl	$1, %eax
	movl	%eax, -88(%rbp)
	jmp	.LBB10_150
.LBB10_155:                             # %for.end1835
                                        #   in Loop: Header=BB10_148 Depth=1
	jmp	.LBB10_156
.LBB10_156:                             # %for.inc1836
                                        #   in Loop: Header=BB10_148 Depth=1
	movl	-44(%rbp), %eax
	addl	$1, %eax
	movl	%eax, -44(%rbp)
	jmp	.LBB10_148
.LBB10_157:                             # %for.end1838
	movq	-16(%rbp), %rax
	movl	116(%rax), %eax
	movl	%eax, -116(%rbp)
	movl	$0, -44(%rbp)
.LBB10_158:                             # %for.cond1839
                                        # =>This Inner Loop Header: Depth=1
	cmpl	$16, -44(%rbp)
	jge	.LBB10_164
# %bb.159:                              # %for.body1842
                                        #   in Loop: Header=BB10_158 Depth=1
	movslq	-44(%rbp), %rax
	cmpb	$0, -192(%rbp,%rax)
	je	.LBB10_161
# %bb.160:                              # %if.then1846
                                        #   in Loop: Header=BB10_158 Depth=1
	movq	-16(%rbp), %rdi
	movl	$1, %esi
	movl	$1, %edx
	callq	bsW
	jmp	.LBB10_162
.LBB10_161:                             # %if.else1847
                                        #   in Loop: Header=BB10_158 Depth=1
	movq	-16(%rbp), %rdi
	movl	$1, %esi
	xorl	%edx, %edx
	callq	bsW
.LBB10_162:                             # %if.end1848
                                        #   in Loop: Header=BB10_158 Depth=1
	jmp	.LBB10_163
.LBB10_163:                             # %for.inc1849
                                        #   in Loop: Header=BB10_158 Depth=1
	movl	-44(%rbp), %eax
	addl	$1, %eax
	movl	%eax, -44(%rbp)
	jmp	.LBB10_158
.LBB10_164:                             # %for.end1851
	movl	$0, -44(%rbp)
.LBB10_165:                             # %for.cond1852
                                        # =>This Loop Header: Depth=1
                                        #     Child Loop BB10_168 Depth 2
	cmpl	$16, -44(%rbp)
	jge	.LBB10_177
# %bb.166:                              # %for.body1855
                                        #   in Loop: Header=BB10_165 Depth=1
	movslq	-44(%rbp), %rax
	cmpb	$0, -192(%rbp,%rax)
	je	.LBB10_175
# %bb.167:                              # %if.then1859
                                        #   in Loop: Header=BB10_165 Depth=1
	movl	$0, -88(%rbp)
.LBB10_168:                             # %for.cond1860
                                        #   Parent Loop BB10_165 Depth=1
                                        # =>  This Inner Loop Header: Depth=2
	cmpl	$16, -88(%rbp)
	jge	.LBB10_174
# %bb.169:                              # %for.body1863
                                        #   in Loop: Header=BB10_168 Depth=2
	movq	-16(%rbp), %rax
	movl	-44(%rbp), %ecx
	shll	$4, %ecx
	addl	-88(%rbp), %ecx
	movslq	%ecx, %rcx
	cmpb	$0, 128(%rax,%rcx)
	je	.LBB10_171
# %bb.170:                              # %if.then1870
                                        #   in Loop: Header=BB10_168 Depth=2
	movq	-16(%rbp), %rdi
	movl	$1, %esi
	movl	$1, %edx
	callq	bsW
	jmp	.LBB10_172
.LBB10_171:                             # %if.else1871
                                        #   in Loop: Header=BB10_168 Depth=2
	movq	-16(%rbp), %rdi
	movl	$1, %esi
	xorl	%edx, %edx
	callq	bsW
.LBB10_172:                             # %if.end1872
                                        #   in Loop: Header=BB10_168 Depth=2
	jmp	.LBB10_173
.LBB10_173:                             # %for.inc1873
                                        #   in Loop: Header=BB10_168 Depth=2
	movl	-88(%rbp), %eax
	addl	$1, %eax
	movl	%eax, -88(%rbp)
	jmp	.LBB10_168
.LBB10_174:                             # %for.end1875
                                        #   in Loop: Header=BB10_165 Depth=1
	jmp	.LBB10_175
.LBB10_175:                             # %if.end1876
                                        #   in Loop: Header=BB10_165 Depth=1
	jmp	.LBB10_176
.LBB10_176:                             # %for.inc1877
                                        #   in Loop: Header=BB10_165 Depth=1
	movl	-44(%rbp), %eax
	addl	$1, %eax
	movl	%eax, -44(%rbp)
	jmp	.LBB10_165
.LBB10_177:                             # %for.end1879
	movq	-16(%rbp), %rax
	cmpl	$3, 656(%rax)
	jl	.LBB10_179
# %bb.178:                              # %if.then1883
	movq	stderr, %rdi
	movq	-16(%rbp), %rax
	movl	116(%rax), %edx
	subl	-116(%rbp), %edx
	movabsq	$.L.str.7, %rsi
	movb	$0, %al
	callq	fprintf
.LBB10_179:                             # %if.end1887
	movq	-16(%rbp), %rax
	movl	116(%rax), %eax
	movl	%eax, -116(%rbp)
	movq	-16(%rbp), %rdi
	movl	-84(%rbp), %edx
	movl	$3, %esi
	callq	bsW
	movq	-16(%rbp), %rdi
	movl	-104(%rbp), %edx
	movl	$15, %esi
	callq	bsW
	movl	$0, -44(%rbp)
.LBB10_180:                             # %for.cond1889
                                        # =>This Loop Header: Depth=1
                                        #     Child Loop BB10_182 Depth 2
	movl	-44(%rbp), %eax
	cmpl	-104(%rbp), %eax
	jge	.LBB10_187
# %bb.181:                              # %for.body1892
                                        #   in Loop: Header=BB10_180 Depth=1
	movl	$0, -88(%rbp)
.LBB10_182:                             # %for.cond1893
                                        #   Parent Loop BB10_180 Depth=1
                                        # =>  This Inner Loop Header: Depth=2
	movl	-88(%rbp), %eax
	movq	-16(%rbp), %rcx
	movslq	-44(%rbp), %rdx
	movzbl	19706(%rcx,%rdx), %ecx
	cmpl	%ecx, %eax
	jge	.LBB10_185
# %bb.183:                              # %for.body1900
                                        #   in Loop: Header=BB10_182 Depth=2
	movq	-16(%rbp), %rdi
	movl	$1, %esi
	movl	$1, %edx
	callq	bsW
# %bb.184:                              # %for.inc1901
                                        #   in Loop: Header=BB10_182 Depth=2
	movl	-88(%rbp), %eax
	addl	$1, %eax
	movl	%eax, -88(%rbp)
	jmp	.LBB10_182
.LBB10_185:                             # %for.end1903
                                        #   in Loop: Header=BB10_180 Depth=1
	movq	-16(%rbp), %rdi
	movl	$1, %esi
	xorl	%edx, %edx
	callq	bsW
# %bb.186:                              # %for.inc1904
                                        #   in Loop: Header=BB10_180 Depth=1
	movl	-44(%rbp), %eax
	addl	$1, %eax
	movl	%eax, -44(%rbp)
	jmp	.LBB10_180
.LBB10_187:                             # %for.end1906
	movq	-16(%rbp), %rax
	cmpl	$3, 656(%rax)
	jl	.LBB10_189
# %bb.188:                              # %if.then1910
	movq	stderr, %rdi
	movq	-16(%rbp), %rax
	movl	116(%rax), %edx
	subl	-116(%rbp), %edx
	movabsq	$.L.str.8, %rsi
	movb	$0, %al
	callq	fprintf
.LBB10_189:                             # %if.end1914
	movq	-16(%rbp), %rax
	movl	116(%rax), %eax
	movl	%eax, -116(%rbp)
	movl	$0, -48(%rbp)
.LBB10_190:                             # %for.cond1916
                                        # =>This Loop Header: Depth=1
                                        #     Child Loop BB10_192 Depth 2
                                        #       Child Loop BB10_194 Depth 3
                                        #       Child Loop BB10_197 Depth 3
	movl	-48(%rbp), %eax
	cmpl	-84(%rbp), %eax
	jge	.LBB10_203
# %bb.191:                              # %for.body1919
                                        #   in Loop: Header=BB10_190 Depth=1
	movq	-16(%rbp), %rax
	addq	$37708, %rax            # imm = 0x934C
	movslq	-48(%rbp), %rcx
	imulq	$258, %rcx, %rcx        # imm = 0x102
	addq	%rcx, %rax
	movzbl	(%rax), %eax
	movl	%eax, -120(%rbp)
	movq	-16(%rbp), %rdi
	movl	-120(%rbp), %edx
	movl	$5, %esi
	callq	bsW
	movl	$0, -44(%rbp)
.LBB10_192:                             # %for.cond1925
                                        #   Parent Loop BB10_190 Depth=1
                                        # =>  This Loop Header: Depth=2
                                        #       Child Loop BB10_194 Depth 3
                                        #       Child Loop BB10_197 Depth 3
	movl	-44(%rbp), %eax
	cmpl	-100(%rbp), %eax
	jge	.LBB10_201
# %bb.193:                              # %for.body1928
                                        #   in Loop: Header=BB10_192 Depth=2
	jmp	.LBB10_194
.LBB10_194:                             # %while.cond1929
                                        #   Parent Loop BB10_190 Depth=1
                                        #     Parent Loop BB10_192 Depth=2
                                        # =>    This Inner Loop Header: Depth=3
	movl	-120(%rbp), %eax
	movq	-16(%rbp), %rcx
	addq	$37708, %rcx            # imm = 0x934C
	movslq	-48(%rbp), %rdx
	imulq	$258, %rdx, %rdx        # imm = 0x102
	addq	%rdx, %rcx
	movslq	-44(%rbp), %rdx
	movzbl	(%rcx,%rdx), %ecx
	cmpl	%ecx, %eax
	jge	.LBB10_196
# %bb.195:                              # %while.body1938
                                        #   in Loop: Header=BB10_194 Depth=3
	movq	-16(%rbp), %rdi
	movl	$2, %esi
	movl	$2, %edx
	callq	bsW
	movl	-120(%rbp), %eax
	addl	$1, %eax
	movl	%eax, -120(%rbp)
	jmp	.LBB10_194
.LBB10_196:                             # %while.end1940
                                        #   in Loop: Header=BB10_192 Depth=2
	jmp	.LBB10_197
.LBB10_197:                             # %while.cond1941
                                        #   Parent Loop BB10_190 Depth=1
                                        #     Parent Loop BB10_192 Depth=2
                                        # =>    This Inner Loop Header: Depth=3
	movl	-120(%rbp), %eax
	movq	-16(%rbp), %rcx
	addq	$37708, %rcx            # imm = 0x934C
	movslq	-48(%rbp), %rdx
	imulq	$258, %rdx, %rdx        # imm = 0x102
	addq	%rdx, %rcx
	movslq	-44(%rbp), %rdx
	movzbl	(%rcx,%rdx), %ecx
	cmpl	%ecx, %eax
	jle	.LBB10_199
# %bb.198:                              # %while.body1950
                                        #   in Loop: Header=BB10_197 Depth=3
	movq	-16(%rbp), %rdi
	movl	$2, %esi
	movl	$3, %edx
	callq	bsW
	movl	-120(%rbp), %eax
	addl	$-1, %eax
	movl	%eax, -120(%rbp)
	jmp	.LBB10_197
.LBB10_199:                             # %while.end1952
                                        #   in Loop: Header=BB10_192 Depth=2
	movq	-16(%rbp), %rdi
	movl	$1, %esi
	xorl	%edx, %edx
	callq	bsW
# %bb.200:                              # %for.inc1953
                                        #   in Loop: Header=BB10_192 Depth=2
	movl	-44(%rbp), %eax
	addl	$1, %eax
	movl	%eax, -44(%rbp)
	jmp	.LBB10_192
.LBB10_201:                             # %for.end1955
                                        #   in Loop: Header=BB10_190 Depth=1
	jmp	.LBB10_202
.LBB10_202:                             # %for.inc1956
                                        #   in Loop: Header=BB10_190 Depth=1
	movl	-48(%rbp), %eax
	addl	$1, %eax
	movl	%eax, -48(%rbp)
	jmp	.LBB10_190
.LBB10_203:                             # %for.end1958
	movq	-16(%rbp), %rax
	cmpl	$3, 656(%rax)
	jl	.LBB10_205
# %bb.204:                              # %if.then1962
	movq	stderr, %rdi
	movq	-16(%rbp), %rax
	movl	116(%rax), %edx
	subl	-116(%rbp), %edx
	movabsq	$.L.str.9, %rsi
	movb	$0, %al
	callq	fprintf
.LBB10_205:                             # %if.end1966
	movq	-16(%rbp), %rax
	movl	116(%rax), %eax
	movl	%eax, -116(%rbp)
	movl	$0, -112(%rbp)
	movl	$0, -20(%rbp)
.LBB10_206:                             # %while.body1969
                                        # =>This Loop Header: Depth=1
                                        #     Child Loop BB10_216 Depth 2
	movl	-20(%rbp), %eax
	movq	-16(%rbp), %rcx
	cmpl	668(%rcx), %eax
	jl	.LBB10_208
# %bb.207:                              # %if.then1973
	jmp	.LBB10_221
.LBB10_208:                             # %if.end1974
                                        #   in Loop: Header=BB10_206 Depth=1
	movl	-20(%rbp), %eax
	addl	$50, %eax
	subl	$1, %eax
	movl	%eax, -60(%rbp)
	movl	-60(%rbp), %eax
	movq	-16(%rbp), %rcx
	cmpl	668(%rcx), %eax
	jl	.LBB10_210
# %bb.209:                              # %if.then1980
                                        #   in Loop: Header=BB10_206 Depth=1
	movq	-16(%rbp), %rax
	movl	668(%rax), %eax
	subl	$1, %eax
	movl	%eax, -60(%rbp)
.LBB10_210:                             # %if.end1983
                                        #   in Loop: Header=BB10_206 Depth=1
	movq	-16(%rbp), %rax
	movslq	-112(%rbp), %rcx
	movzbl	1704(%rax,%rcx), %eax
	cmpl	-84(%rbp), %eax
	jl	.LBB10_212
# %bb.211:                              # %if.then1990
                                        #   in Loop: Header=BB10_206 Depth=1
	movl	$3006, %edi             # imm = 0xBBE
	callq	BZ2_bz__AssertH__fail
.LBB10_212:                             # %if.end1991
                                        #   in Loop: Header=BB10_206 Depth=1
	cmpl	$6, -84(%rbp)
	jne	.LBB10_215
# %bb.213:                              # %land.lhs.true1994
                                        #   in Loop: Header=BB10_206 Depth=1
	movl	-60(%rbp), %eax
	subl	-20(%rbp), %eax
	addl	$1, %eax
	movl	$50, %ecx
	cmpl	%eax, %ecx
	jne	.LBB10_215
# %bb.214:                              # %if.then1999
                                        #   in Loop: Header=BB10_206 Depth=1
	movq	-16(%rbp), %rax
	addq	$37708, %rax            # imm = 0x934C
	movq	-16(%rbp), %rcx
	movslq	-112(%rbp), %rdx
	movzbl	1704(%rcx,%rdx), %ecx
	imulq	$258, %rcx, %rcx        # imm = 0x102
	addq	%rcx, %rax
	movq	%rax, -72(%rbp)
	movq	-16(%rbp), %rax
	addq	$39256, %rax            # imm = 0x9958
	movq	-16(%rbp), %rcx
	movslq	-112(%rbp), %rdx
	movzbl	1704(%rcx,%rdx), %ecx
	imulq	$1032, %rcx, %rcx       # imm = 0x408
	addq	%rcx, %rax
	movq	%rax, -80(%rbp)
	movq	-40(%rbp), %rax
	movl	-20(%rbp), %ecx
	addl	$0, %ecx
	movslq	%ecx, %rcx
	movw	(%rax,%rcx,2), %ax
	movw	%ax, -4(%rbp)
	movq	-16(%rbp), %rdi
	movq	-72(%rbp), %rax
	movzwl	-4(%rbp), %ecx
	movzbl	(%rax,%rcx), %esi
	movq	-80(%rbp), %rax
	movzwl	-4(%rbp), %ecx
	movl	(%rax,%rcx,4), %edx
	callq	bsW
	movq	-40(%rbp), %rax
	movl	-20(%rbp), %ecx
	addl	$1, %ecx
	movslq	%ecx, %rcx
	movw	(%rax,%rcx,2), %ax
	movw	%ax, -4(%rbp)
	movq	-16(%rbp), %rdi
	movq	-72(%rbp), %rax
	movzwl	-4(%rbp), %ecx
	movzbl	(%rax,%rcx), %esi
	movq	-80(%rbp), %rax
	movzwl	-4(%rbp), %ecx
	movl	(%rax,%rcx,4), %edx
	callq	bsW
	movq	-40(%rbp), %rax
	movl	-20(%rbp), %ecx
	addl	$2, %ecx
	movslq	%ecx, %rcx
	movw	(%rax,%rcx,2), %ax
	movw	%ax, -4(%rbp)
	movq	-16(%rbp), %rdi
	movq	-72(%rbp), %rax
	movzwl	-4(%rbp), %ecx
	movzbl	(%rax,%rcx), %esi
	movq	-80(%rbp), %rax
	movzwl	-4(%rbp), %ecx
	movl	(%rax,%rcx,4), %edx
	callq	bsW
	movq	-40(%rbp), %rax
	movl	-20(%rbp), %ecx
	addl	$3, %ecx
	movslq	%ecx, %rcx
	movw	(%rax,%rcx,2), %ax
	movw	%ax, -4(%rbp)
	movq	-16(%rbp), %rdi
	movq	-72(%rbp), %rax
	movzwl	-4(%rbp), %ecx
	movzbl	(%rax,%rcx), %esi
	movq	-80(%rbp), %rax
	movzwl	-4(%rbp), %ecx
	movl	(%rax,%rcx,4), %edx
	callq	bsW
	movq	-40(%rbp), %rax
	movl	-20(%rbp), %ecx
	addl	$4, %ecx
	movslq	%ecx, %rcx
	movw	(%rax,%rcx,2), %ax
	movw	%ax, -4(%rbp)
	movq	-16(%rbp), %rdi
	movq	-72(%rbp), %rax
	movzwl	-4(%rbp), %ecx
	movzbl	(%rax,%rcx), %esi
	movq	-80(%rbp), %rax
	movzwl	-4(%rbp), %ecx
	movl	(%rax,%rcx,4), %edx
	callq	bsW
	movq	-40(%rbp), %rax
	movl	-20(%rbp), %ecx
	addl	$5, %ecx
	movslq	%ecx, %rcx
	movw	(%rax,%rcx,2), %ax
	movw	%ax, -4(%rbp)
	movq	-16(%rbp), %rdi
	movq	-72(%rbp), %rax
	movzwl	-4(%rbp), %ecx
	movzbl	(%rax,%rcx), %esi
	movq	-80(%rbp), %rax
	movzwl	-4(%rbp), %ecx
	movl	(%rax,%rcx,4), %edx
	callq	bsW
	movq	-40(%rbp), %rax
	movl	-20(%rbp), %ecx
	addl	$6, %ecx
	movslq	%ecx, %rcx
	movw	(%rax,%rcx,2), %ax
	movw	%ax, -4(%rbp)
	movq	-16(%rbp), %rdi
	movq	-72(%rbp), %rax
	movzwl	-4(%rbp), %ecx
	movzbl	(%rax,%rcx), %esi
	movq	-80(%rbp), %rax
	movzwl	-4(%rbp), %ecx
	movl	(%rax,%rcx,4), %edx
	callq	bsW
	movq	-40(%rbp), %rax
	movl	-20(%rbp), %ecx
	addl	$7, %ecx
	movslq	%ecx, %rcx
	movw	(%rax,%rcx,2), %ax
	movw	%ax, -4(%rbp)
	movq	-16(%rbp), %rdi
	movq	-72(%rbp), %rax
	movzwl	-4(%rbp), %ecx
	movzbl	(%rax,%rcx), %esi
	movq	-80(%rbp), %rax
	movzwl	-4(%rbp), %ecx
	movl	(%rax,%rcx,4), %edx
	callq	bsW
	movq	-40(%rbp), %rax
	movl	-20(%rbp), %ecx
	addl	$8, %ecx
	movslq	%ecx, %rcx
	movw	(%rax,%rcx,2), %ax
	movw	%ax, -4(%rbp)
	movq	-16(%rbp), %rdi
	movq	-72(%rbp), %rax
	movzwl	-4(%rbp), %ecx
	movzbl	(%rax,%rcx), %esi
	movq	-80(%rbp), %rax
	movzwl	-4(%rbp), %ecx
	movl	(%rax,%rcx,4), %edx
	callq	bsW
	movq	-40(%rbp), %rax
	movl	-20(%rbp), %ecx
	addl	$9, %ecx
	movslq	%ecx, %rcx
	movw	(%rax,%rcx,2), %ax
	movw	%ax, -4(%rbp)
	movq	-16(%rbp), %rdi
	movq	-72(%rbp), %rax
	movzwl	-4(%rbp), %ecx
	movzbl	(%rax,%rcx), %esi
	movq	-80(%rbp), %rax
	movzwl	-4(%rbp), %ecx
	movl	(%rax,%rcx,4), %edx
	callq	bsW
	movq	-40(%rbp), %rax
	movl	-20(%rbp), %ecx
	addl	$10, %ecx
	movslq	%ecx, %rcx
	movw	(%rax,%rcx,2), %ax
	movw	%ax, -4(%rbp)
	movq	-16(%rbp), %rdi
	movq	-72(%rbp), %rax
	movzwl	-4(%rbp), %ecx
	movzbl	(%rax,%rcx), %esi
	movq	-80(%rbp), %rax
	movzwl	-4(%rbp), %ecx
	movl	(%rax,%rcx,4), %edx
	callq	bsW
	movq	-40(%rbp), %rax
	movl	-20(%rbp), %ecx
	addl	$11, %ecx
	movslq	%ecx, %rcx
	movw	(%rax,%rcx,2), %ax
	movw	%ax, -4(%rbp)
	movq	-16(%rbp), %rdi
	movq	-72(%rbp), %rax
	movzwl	-4(%rbp), %ecx
	movzbl	(%rax,%rcx), %esi
	movq	-80(%rbp), %rax
	movzwl	-4(%rbp), %ecx
	movl	(%rax,%rcx,4), %edx
	callq	bsW
	movq	-40(%rbp), %rax
	movl	-20(%rbp), %ecx
	addl	$12, %ecx
	movslq	%ecx, %rcx
	movw	(%rax,%rcx,2), %ax
	movw	%ax, -4(%rbp)
	movq	-16(%rbp), %rdi
	movq	-72(%rbp), %rax
	movzwl	-4(%rbp), %ecx
	movzbl	(%rax,%rcx), %esi
	movq	-80(%rbp), %rax
	movzwl	-4(%rbp), %ecx
	movl	(%rax,%rcx,4), %edx
	callq	bsW
	movq	-40(%rbp), %rax
	movl	-20(%rbp), %ecx
	addl	$13, %ecx
	movslq	%ecx, %rcx
	movw	(%rax,%rcx,2), %ax
	movw	%ax, -4(%rbp)
	movq	-16(%rbp), %rdi
	movq	-72(%rbp), %rax
	movzwl	-4(%rbp), %ecx
	movzbl	(%rax,%rcx), %esi
	movq	-80(%rbp), %rax
	movzwl	-4(%rbp), %ecx
	movl	(%rax,%rcx,4), %edx
	callq	bsW
	movq	-40(%rbp), %rax
	movl	-20(%rbp), %ecx
	addl	$14, %ecx
	movslq	%ecx, %rcx
	movw	(%rax,%rcx,2), %ax
	movw	%ax, -4(%rbp)
	movq	-16(%rbp), %rdi
	movq	-72(%rbp), %rax
	movzwl	-4(%rbp), %ecx
	movzbl	(%rax,%rcx), %esi
	movq	-80(%rbp), %rax
	movzwl	-4(%rbp), %ecx
	movl	(%rax,%rcx,4), %edx
	callq	bsW
	movq	-40(%rbp), %rax
	movl	-20(%rbp), %ecx
	addl	$15, %ecx
	movslq	%ecx, %rcx
	movw	(%rax,%rcx,2), %ax
	movw	%ax, -4(%rbp)
	movq	-16(%rbp), %rdi
	movq	-72(%rbp), %rax
	movzwl	-4(%rbp), %ecx
	movzbl	(%rax,%rcx), %esi
	movq	-80(%rbp), %rax
	movzwl	-4(%rbp), %ecx
	movl	(%rax,%rcx,4), %edx
	callq	bsW
	movq	-40(%rbp), %rax
	movl	-20(%rbp), %ecx
	addl	$16, %ecx
	movslq	%ecx, %rcx
	movw	(%rax,%rcx,2), %ax
	movw	%ax, -4(%rbp)
	movq	-16(%rbp), %rdi
	movq	-72(%rbp), %rax
	movzwl	-4(%rbp), %ecx
	movzbl	(%rax,%rcx), %esi
	movq	-80(%rbp), %rax
	movzwl	-4(%rbp), %ecx
	movl	(%rax,%rcx,4), %edx
	callq	bsW
	movq	-40(%rbp), %rax
	movl	-20(%rbp), %ecx
	addl	$17, %ecx
	movslq	%ecx, %rcx
	movw	(%rax,%rcx,2), %ax
	movw	%ax, -4(%rbp)
	movq	-16(%rbp), %rdi
	movq	-72(%rbp), %rax
	movzwl	-4(%rbp), %ecx
	movzbl	(%rax,%rcx), %esi
	movq	-80(%rbp), %rax
	movzwl	-4(%rbp), %ecx
	movl	(%rax,%rcx,4), %edx
	callq	bsW
	movq	-40(%rbp), %rax
	movl	-20(%rbp), %ecx
	addl	$18, %ecx
	movslq	%ecx, %rcx
	movw	(%rax,%rcx,2), %ax
	movw	%ax, -4(%rbp)
	movq	-16(%rbp), %rdi
	movq	-72(%rbp), %rax
	movzwl	-4(%rbp), %ecx
	movzbl	(%rax,%rcx), %esi
	movq	-80(%rbp), %rax
	movzwl	-4(%rbp), %ecx
	movl	(%rax,%rcx,4), %edx
	callq	bsW
	movq	-40(%rbp), %rax
	movl	-20(%rbp), %ecx
	addl	$19, %ecx
	movslq	%ecx, %rcx
	movw	(%rax,%rcx,2), %ax
	movw	%ax, -4(%rbp)
	movq	-16(%rbp), %rdi
	movq	-72(%rbp), %rax
	movzwl	-4(%rbp), %ecx
	movzbl	(%rax,%rcx), %esi
	movq	-80(%rbp), %rax
	movzwl	-4(%rbp), %ecx
	movl	(%rax,%rcx,4), %edx
	callq	bsW
	movq	-40(%rbp), %rax
	movl	-20(%rbp), %ecx
	addl	$20, %ecx
	movslq	%ecx, %rcx
	movw	(%rax,%rcx,2), %ax
	movw	%ax, -4(%rbp)
	movq	-16(%rbp), %rdi
	movq	-72(%rbp), %rax
	movzwl	-4(%rbp), %ecx
	movzbl	(%rax,%rcx), %esi
	movq	-80(%rbp), %rax
	movzwl	-4(%rbp), %ecx
	movl	(%rax,%rcx,4), %edx
	callq	bsW
	movq	-40(%rbp), %rax
	movl	-20(%rbp), %ecx
	addl	$21, %ecx
	movslq	%ecx, %rcx
	movw	(%rax,%rcx,2), %ax
	movw	%ax, -4(%rbp)
	movq	-16(%rbp), %rdi
	movq	-72(%rbp), %rax
	movzwl	-4(%rbp), %ecx
	movzbl	(%rax,%rcx), %esi
	movq	-80(%rbp), %rax
	movzwl	-4(%rbp), %ecx
	movl	(%rax,%rcx,4), %edx
	callq	bsW
	movq	-40(%rbp), %rax
	movl	-20(%rbp), %ecx
	addl	$22, %ecx
	movslq	%ecx, %rcx
	movw	(%rax,%rcx,2), %ax
	movw	%ax, -4(%rbp)
	movq	-16(%rbp), %rdi
	movq	-72(%rbp), %rax
	movzwl	-4(%rbp), %ecx
	movzbl	(%rax,%rcx), %esi
	movq	-80(%rbp), %rax
	movzwl	-4(%rbp), %ecx
	movl	(%rax,%rcx,4), %edx
	callq	bsW
	movq	-40(%rbp), %rax
	movl	-20(%rbp), %ecx
	addl	$23, %ecx
	movslq	%ecx, %rcx
	movw	(%rax,%rcx,2), %ax
	movw	%ax, -4(%rbp)
	movq	-16(%rbp), %rdi
	movq	-72(%rbp), %rax
	movzwl	-4(%rbp), %ecx
	movzbl	(%rax,%rcx), %esi
	movq	-80(%rbp), %rax
	movzwl	-4(%rbp), %ecx
	movl	(%rax,%rcx,4), %edx
	callq	bsW
	movq	-40(%rbp), %rax
	movl	-20(%rbp), %ecx
	addl	$24, %ecx
	movslq	%ecx, %rcx
	movw	(%rax,%rcx,2), %ax
	movw	%ax, -4(%rbp)
	movq	-16(%rbp), %rdi
	movq	-72(%rbp), %rax
	movzwl	-4(%rbp), %ecx
	movzbl	(%rax,%rcx), %esi
	movq	-80(%rbp), %rax
	movzwl	-4(%rbp), %ecx
	movl	(%rax,%rcx,4), %edx
	callq	bsW
	movq	-40(%rbp), %rax
	movl	-20(%rbp), %ecx
	addl	$25, %ecx
	movslq	%ecx, %rcx
	movw	(%rax,%rcx,2), %ax
	movw	%ax, -4(%rbp)
	movq	-16(%rbp), %rdi
	movq	-72(%rbp), %rax
	movzwl	-4(%rbp), %ecx
	movzbl	(%rax,%rcx), %esi
	movq	-80(%rbp), %rax
	movzwl	-4(%rbp), %ecx
	movl	(%rax,%rcx,4), %edx
	callq	bsW
	movq	-40(%rbp), %rax
	movl	-20(%rbp), %ecx
	addl	$26, %ecx
	movslq	%ecx, %rcx
	movw	(%rax,%rcx,2), %ax
	movw	%ax, -4(%rbp)
	movq	-16(%rbp), %rdi
	movq	-72(%rbp), %rax
	movzwl	-4(%rbp), %ecx
	movzbl	(%rax,%rcx), %esi
	movq	-80(%rbp), %rax
	movzwl	-4(%rbp), %ecx
	movl	(%rax,%rcx,4), %edx
	callq	bsW
	movq	-40(%rbp), %rax
	movl	-20(%rbp), %ecx
	addl	$27, %ecx
	movslq	%ecx, %rcx
	movw	(%rax,%rcx,2), %ax
	movw	%ax, -4(%rbp)
	movq	-16(%rbp), %rdi
	movq	-72(%rbp), %rax
	movzwl	-4(%rbp), %ecx
	movzbl	(%rax,%rcx), %esi
	movq	-80(%rbp), %rax
	movzwl	-4(%rbp), %ecx
	movl	(%rax,%rcx,4), %edx
	callq	bsW
	movq	-40(%rbp), %rax
	movl	-20(%rbp), %ecx
	addl	$28, %ecx
	movslq	%ecx, %rcx
	movw	(%rax,%rcx,2), %ax
	movw	%ax, -4(%rbp)
	movq	-16(%rbp), %rdi
	movq	-72(%rbp), %rax
	movzwl	-4(%rbp), %ecx
	movzbl	(%rax,%rcx), %esi
	movq	-80(%rbp), %rax
	movzwl	-4(%rbp), %ecx
	movl	(%rax,%rcx,4), %edx
	callq	bsW
	movq	-40(%rbp), %rax
	movl	-20(%rbp), %ecx
	addl	$29, %ecx
	movslq	%ecx, %rcx
	movw	(%rax,%rcx,2), %ax
	movw	%ax, -4(%rbp)
	movq	-16(%rbp), %rdi
	movq	-72(%rbp), %rax
	movzwl	-4(%rbp), %ecx
	movzbl	(%rax,%rcx), %esi
	movq	-80(%rbp), %rax
	movzwl	-4(%rbp), %ecx
	movl	(%rax,%rcx,4), %edx
	callq	bsW
	movq	-40(%rbp), %rax
	movl	-20(%rbp), %ecx
	addl	$30, %ecx
	movslq	%ecx, %rcx
	movw	(%rax,%rcx,2), %ax
	movw	%ax, -4(%rbp)
	movq	-16(%rbp), %rdi
	movq	-72(%rbp), %rax
	movzwl	-4(%rbp), %ecx
	movzbl	(%rax,%rcx), %esi
	movq	-80(%rbp), %rax
	movzwl	-4(%rbp), %ecx
	movl	(%rax,%rcx,4), %edx
	callq	bsW
	movq	-40(%rbp), %rax
	movl	-20(%rbp), %ecx
	addl	$31, %ecx
	movslq	%ecx, %rcx
	movw	(%rax,%rcx,2), %ax
	movw	%ax, -4(%rbp)
	movq	-16(%rbp), %rdi
	movq	-72(%rbp), %rax
	movzwl	-4(%rbp), %ecx
	movzbl	(%rax,%rcx), %esi
	movq	-80(%rbp), %rax
	movzwl	-4(%rbp), %ecx
	movl	(%rax,%rcx,4), %edx
	callq	bsW
	movq	-40(%rbp), %rax
	movl	-20(%rbp), %ecx
	addl	$32, %ecx
	movslq	%ecx, %rcx
	movw	(%rax,%rcx,2), %ax
	movw	%ax, -4(%rbp)
	movq	-16(%rbp), %rdi
	movq	-72(%rbp), %rax
	movzwl	-4(%rbp), %ecx
	movzbl	(%rax,%rcx), %esi
	movq	-80(%rbp), %rax
	movzwl	-4(%rbp), %ecx
	movl	(%rax,%rcx,4), %edx
	callq	bsW
	movq	-40(%rbp), %rax
	movl	-20(%rbp), %ecx
	addl	$33, %ecx
	movslq	%ecx, %rcx
	movw	(%rax,%rcx,2), %ax
	movw	%ax, -4(%rbp)
	movq	-16(%rbp), %rdi
	movq	-72(%rbp), %rax
	movzwl	-4(%rbp), %ecx
	movzbl	(%rax,%rcx), %esi
	movq	-80(%rbp), %rax
	movzwl	-4(%rbp), %ecx
	movl	(%rax,%rcx,4), %edx
	callq	bsW
	movq	-40(%rbp), %rax
	movl	-20(%rbp), %ecx
	addl	$34, %ecx
	movslq	%ecx, %rcx
	movw	(%rax,%rcx,2), %ax
	movw	%ax, -4(%rbp)
	movq	-16(%rbp), %rdi
	movq	-72(%rbp), %rax
	movzwl	-4(%rbp), %ecx
	movzbl	(%rax,%rcx), %esi
	movq	-80(%rbp), %rax
	movzwl	-4(%rbp), %ecx
	movl	(%rax,%rcx,4), %edx
	callq	bsW
	movq	-40(%rbp), %rax
	movl	-20(%rbp), %ecx
	addl	$35, %ecx
	movslq	%ecx, %rcx
	movw	(%rax,%rcx,2), %ax
	movw	%ax, -4(%rbp)
	movq	-16(%rbp), %rdi
	movq	-72(%rbp), %rax
	movzwl	-4(%rbp), %ecx
	movzbl	(%rax,%rcx), %esi
	movq	-80(%rbp), %rax
	movzwl	-4(%rbp), %ecx
	movl	(%rax,%rcx,4), %edx
	callq	bsW
	movq	-40(%rbp), %rax
	movl	-20(%rbp), %ecx
	addl	$36, %ecx
	movslq	%ecx, %rcx
	movw	(%rax,%rcx,2), %ax
	movw	%ax, -4(%rbp)
	movq	-16(%rbp), %rdi
	movq	-72(%rbp), %rax
	movzwl	-4(%rbp), %ecx
	movzbl	(%rax,%rcx), %esi
	movq	-80(%rbp), %rax
	movzwl	-4(%rbp), %ecx
	movl	(%rax,%rcx,4), %edx
	callq	bsW
	movq	-40(%rbp), %rax
	movl	-20(%rbp), %ecx
	addl	$37, %ecx
	movslq	%ecx, %rcx
	movw	(%rax,%rcx,2), %ax
	movw	%ax, -4(%rbp)
	movq	-16(%rbp), %rdi
	movq	-72(%rbp), %rax
	movzwl	-4(%rbp), %ecx
	movzbl	(%rax,%rcx), %esi
	movq	-80(%rbp), %rax
	movzwl	-4(%rbp), %ecx
	movl	(%rax,%rcx,4), %edx
	callq	bsW
	movq	-40(%rbp), %rax
	movl	-20(%rbp), %ecx
	addl	$38, %ecx
	movslq	%ecx, %rcx
	movw	(%rax,%rcx,2), %ax
	movw	%ax, -4(%rbp)
	movq	-16(%rbp), %rdi
	movq	-72(%rbp), %rax
	movzwl	-4(%rbp), %ecx
	movzbl	(%rax,%rcx), %esi
	movq	-80(%rbp), %rax
	movzwl	-4(%rbp), %ecx
	movl	(%rax,%rcx,4), %edx
	callq	bsW
	movq	-40(%rbp), %rax
	movl	-20(%rbp), %ecx
	addl	$39, %ecx
	movslq	%ecx, %rcx
	movw	(%rax,%rcx,2), %ax
	movw	%ax, -4(%rbp)
	movq	-16(%rbp), %rdi
	movq	-72(%rbp), %rax
	movzwl	-4(%rbp), %ecx
	movzbl	(%rax,%rcx), %esi
	movq	-80(%rbp), %rax
	movzwl	-4(%rbp), %ecx
	movl	(%rax,%rcx,4), %edx
	callq	bsW
	movq	-40(%rbp), %rax
	movl	-20(%rbp), %ecx
	addl	$40, %ecx
	movslq	%ecx, %rcx
	movw	(%rax,%rcx,2), %ax
	movw	%ax, -4(%rbp)
	movq	-16(%rbp), %rdi
	movq	-72(%rbp), %rax
	movzwl	-4(%rbp), %ecx
	movzbl	(%rax,%rcx), %esi
	movq	-80(%rbp), %rax
	movzwl	-4(%rbp), %ecx
	movl	(%rax,%rcx,4), %edx
	callq	bsW
	movq	-40(%rbp), %rax
	movl	-20(%rbp), %ecx
	addl	$41, %ecx
	movslq	%ecx, %rcx
	movw	(%rax,%rcx,2), %ax
	movw	%ax, -4(%rbp)
	movq	-16(%rbp), %rdi
	movq	-72(%rbp), %rax
	movzwl	-4(%rbp), %ecx
	movzbl	(%rax,%rcx), %esi
	movq	-80(%rbp), %rax
	movzwl	-4(%rbp), %ecx
	movl	(%rax,%rcx,4), %edx
	callq	bsW
	movq	-40(%rbp), %rax
	movl	-20(%rbp), %ecx
	addl	$42, %ecx
	movslq	%ecx, %rcx
	movw	(%rax,%rcx,2), %ax
	movw	%ax, -4(%rbp)
	movq	-16(%rbp), %rdi
	movq	-72(%rbp), %rax
	movzwl	-4(%rbp), %ecx
	movzbl	(%rax,%rcx), %esi
	movq	-80(%rbp), %rax
	movzwl	-4(%rbp), %ecx
	movl	(%rax,%rcx,4), %edx
	callq	bsW
	movq	-40(%rbp), %rax
	movl	-20(%rbp), %ecx
	addl	$43, %ecx
	movslq	%ecx, %rcx
	movw	(%rax,%rcx,2), %ax
	movw	%ax, -4(%rbp)
	movq	-16(%rbp), %rdi
	movq	-72(%rbp), %rax
	movzwl	-4(%rbp), %ecx
	movzbl	(%rax,%rcx), %esi
	movq	-80(%rbp), %rax
	movzwl	-4(%rbp), %ecx
	movl	(%rax,%rcx,4), %edx
	callq	bsW
	movq	-40(%rbp), %rax
	movl	-20(%rbp), %ecx
	addl	$44, %ecx
	movslq	%ecx, %rcx
	movw	(%rax,%rcx,2), %ax
	movw	%ax, -4(%rbp)
	movq	-16(%rbp), %rdi
	movq	-72(%rbp), %rax
	movzwl	-4(%rbp), %ecx
	movzbl	(%rax,%rcx), %esi
	movq	-80(%rbp), %rax
	movzwl	-4(%rbp), %ecx
	movl	(%rax,%rcx,4), %edx
	callq	bsW
	movq	-40(%rbp), %rax
	movl	-20(%rbp), %ecx
	addl	$45, %ecx
	movslq	%ecx, %rcx
	movw	(%rax,%rcx,2), %ax
	movw	%ax, -4(%rbp)
	movq	-16(%rbp), %rdi
	movq	-72(%rbp), %rax
	movzwl	-4(%rbp), %ecx
	movzbl	(%rax,%rcx), %esi
	movq	-80(%rbp), %rax
	movzwl	-4(%rbp), %ecx
	movl	(%rax,%rcx,4), %edx
	callq	bsW
	movq	-40(%rbp), %rax
	movl	-20(%rbp), %ecx
	addl	$46, %ecx
	movslq	%ecx, %rcx
	movw	(%rax,%rcx,2), %ax
	movw	%ax, -4(%rbp)
	movq	-16(%rbp), %rdi
	movq	-72(%rbp), %rax
	movzwl	-4(%rbp), %ecx
	movzbl	(%rax,%rcx), %esi
	movq	-80(%rbp), %rax
	movzwl	-4(%rbp), %ecx
	movl	(%rax,%rcx,4), %edx
	callq	bsW
	movq	-40(%rbp), %rax
	movl	-20(%rbp), %ecx
	addl	$47, %ecx
	movslq	%ecx, %rcx
	movw	(%rax,%rcx,2), %ax
	movw	%ax, -4(%rbp)
	movq	-16(%rbp), %rdi
	movq	-72(%rbp), %rax
	movzwl	-4(%rbp), %ecx
	movzbl	(%rax,%rcx), %esi
	movq	-80(%rbp), %rax
	movzwl	-4(%rbp), %ecx
	movl	(%rax,%rcx,4), %edx
	callq	bsW
	movq	-40(%rbp), %rax
	movl	-20(%rbp), %ecx
	addl	$48, %ecx
	movslq	%ecx, %rcx
	movw	(%rax,%rcx,2), %ax
	movw	%ax, -4(%rbp)
	movq	-16(%rbp), %rdi
	movq	-72(%rbp), %rax
	movzwl	-4(%rbp), %ecx
	movzbl	(%rax,%rcx), %esi
	movq	-80(%rbp), %rax
	movzwl	-4(%rbp), %ecx
	movl	(%rax,%rcx,4), %edx
	callq	bsW
	movq	-40(%rbp), %rax
	movl	-20(%rbp), %ecx
	addl	$49, %ecx
	movslq	%ecx, %rcx
	movw	(%rax,%rcx,2), %ax
	movw	%ax, -4(%rbp)
	movq	-16(%rbp), %rdi
	movq	-72(%rbp), %rax
	movzwl	-4(%rbp), %ecx
	movzbl	(%rax,%rcx), %esi
	movq	-80(%rbp), %rax
	movzwl	-4(%rbp), %ecx
	movl	(%rax,%rcx,4), %edx
	callq	bsW
	jmp	.LBB10_220
.LBB10_215:                             # %if.else2414
                                        #   in Loop: Header=BB10_206 Depth=1
	movl	-20(%rbp), %eax
	movl	%eax, -44(%rbp)
.LBB10_216:                             # %for.cond2415
                                        #   Parent Loop BB10_206 Depth=1
                                        # =>  This Inner Loop Header: Depth=2
	movl	-44(%rbp), %eax
	cmpl	-60(%rbp), %eax
	jg	.LBB10_219
# %bb.217:                              # %for.body2418
                                        #   in Loop: Header=BB10_216 Depth=2
	movq	-16(%rbp), %rdi
	movq	-16(%rbp), %rax
	addq	$37708, %rax            # imm = 0x934C
	movq	-16(%rbp), %rcx
	movslq	-112(%rbp), %rdx
	movzbl	1704(%rcx,%rdx), %ecx
	imulq	$258, %rcx, %rcx        # imm = 0x102
	addq	%rcx, %rax
	movq	-40(%rbp), %rcx
	movslq	-44(%rbp), %rdx
	movzwl	(%rcx,%rdx,2), %ecx
	movzbl	(%rax,%rcx), %esi
	movq	-16(%rbp), %rax
	addq	$39256, %rax            # imm = 0x9958
	movq	-16(%rbp), %rcx
	movslq	-112(%rbp), %rdx
	movzbl	1704(%rcx,%rdx), %ecx
	imulq	$1032, %rcx, %rcx       # imm = 0x408
	addq	%rcx, %rax
	movq	-40(%rbp), %rcx
	movslq	-44(%rbp), %rdx
	movzwl	(%rcx,%rdx,2), %ecx
	movl	(%rax,%rcx,4), %edx
	callq	bsW
# %bb.218:                              # %for.inc2440
                                        #   in Loop: Header=BB10_216 Depth=2
	movl	-44(%rbp), %eax
	addl	$1, %eax
	movl	%eax, -44(%rbp)
	jmp	.LBB10_216
.LBB10_219:                             # %for.end2442
                                        #   in Loop: Header=BB10_206 Depth=1
	jmp	.LBB10_220
.LBB10_220:                             # %if.end2443
                                        #   in Loop: Header=BB10_206 Depth=1
	movl	-60(%rbp), %eax
	addl	$1, %eax
	movl	%eax, -20(%rbp)
	movl	-112(%rbp), %eax
	addl	$1, %eax
	movl	%eax, -112(%rbp)
	jmp	.LBB10_206
.LBB10_221:                             # %while.end2446
	movl	-112(%rbp), %eax
	cmpl	-104(%rbp), %eax
	je	.LBB10_223
# %bb.222:                              # %if.then2449
	movl	$3007, %edi             # imm = 0xBBF
	callq	BZ2_bz__AssertH__fail
.LBB10_223:                             # %if.end2450
	movq	-16(%rbp), %rax
	cmpl	$3, 656(%rax)
	jl	.LBB10_225
# %bb.224:                              # %if.then2454
	movq	stderr, %rdi
	movq	-16(%rbp), %rax
	movl	116(%rax), %edx
	subl	-116(%rbp), %edx
	movabsq	$.L.str.10, %rsi
	movb	$0, %al
	callq	fprintf
.LBB10_225:                             # %if.end2458
	cmpl	$1228927033, -172(%rbp) # imm = 0x493FF039
	jne	.LBB10_227
.LBB10_226:
	addq	$224, %rsp
	popq	%rbp
	.cfi_def_cfa %rsp, 8
	retq
.LBB10_227:                             # %func_exit
	.cfi_def_cfa %rbp, 16
	callq	detect_breach
	jmp	.LBB10_226
.Lfunc_end10:
	.size	sendMTFValues.2, .Lfunc_end10-sendMTFValues.2
	.cfi_endproc
                                        # -- End function
	.p2align	4, 0x90         # -- Begin function bsW.3
	.type	bsW.3,@function
bsW.3:                                  # @bsW.3
	.cfi_startproc
# %bb.0:                                # %entry
	pushq	%rbp
	.cfi_def_cfa_offset 16
	.cfi_offset %rbp, -16
	movq	%rsp, %rbp
	.cfi_def_cfa_register %rbp
	subq	$32, %rsp
	movl	$1075651449, -16(%rbp)  # imm = 0x401D2379
	movq	%rdi, -8(%rbp)
	movl	%esi, -12(%rbp)
	movl	%edx, -20(%rbp)
.LBB11_1:                               # %while.cond
                                        # =>This Inner Loop Header: Depth=1
	movq	-8(%rbp), %rax
	cmpl	$8, 644(%rax)
	jl	.LBB11_3
# %bb.2:                                # %while.body
                                        #   in Loop: Header=BB11_1 Depth=1
	movq	-8(%rbp), %rax
	movl	640(%rax), %eax
	shrl	$24, %eax
	movq	-8(%rbp), %rcx
	movq	80(%rcx), %rcx
	movq	-8(%rbp), %rdx
	movslq	116(%rdx), %rdx
	movb	%al, (%rcx,%rdx)
	movq	-8(%rbp), %rax
	movl	116(%rax), %ecx
	addl	$1, %ecx
	movl	%ecx, 116(%rax)
	movq	-8(%rbp), %rax
	movl	640(%rax), %ecx
	shll	$8, %ecx
	movl	%ecx, 640(%rax)
	movq	-8(%rbp), %rax
	movl	644(%rax), %ecx
	subl	$8, %ecx
	movl	%ecx, 644(%rax)
	jmp	.LBB11_1
.LBB11_3:                               # %while.end
	movl	-20(%rbp), %eax
	movq	-8(%rbp), %rdx
	movl	$32, %ecx
	subl	644(%rdx), %ecx
	subl	-12(%rbp), %ecx
                                        # kill: def $cl killed $ecx
	shll	%cl, %eax
	movq	-8(%rbp), %rcx
	orl	640(%rcx), %eax
	movl	%eax, 640(%rcx)
	movl	-12(%rbp), %eax
	movq	-8(%rbp), %rcx
	addl	644(%rcx), %eax
	movl	%eax, 644(%rcx)
	cmpl	$1075651449, -16(%rbp)  # imm = 0x401D2379
	jne	.LBB11_5
.LBB11_4:
	addq	$32, %rsp
	popq	%rbp
	.cfi_def_cfa %rsp, 8
	retq
.LBB11_5:                               # %func_exit
	.cfi_def_cfa %rbp, 16
	callq	detect_breach
	jmp	.LBB11_4
.Lfunc_end11:
	.size	bsW.3, .Lfunc_end11-bsW.3
	.cfi_endproc
                                        # -- End function
	.p2align	4, 0x90         # -- Begin function makeMaps_e.4
	.type	makeMaps_e.4,@function
makeMaps_e.4:                           # @makeMaps_e.4
	.cfi_startproc
# %bb.0:                                # %entry
	pushq	%rbp
	.cfi_def_cfa_offset 16
	.cfi_offset %rbp, -16
	movq	%rsp, %rbp
	.cfi_def_cfa_register %rbp
	subq	$32, %rsp
	movl	$1589019066, -20(%rbp)  # imm = 0x5EB681BA
	movq	%rdi, -16(%rbp)
	movq	-16(%rbp), %rax
	movl	$0, 124(%rax)
	movl	$0, -4(%rbp)
.LBB12_1:                               # %for.cond
                                        # =>This Inner Loop Header: Depth=1
	cmpl	$256, -4(%rbp)          # imm = 0x100
	jge	.LBB12_6
# %bb.2:                                # %for.body
                                        #   in Loop: Header=BB12_1 Depth=1
	movq	-16(%rbp), %rax
	movslq	-4(%rbp), %rcx
	cmpb	$0, 128(%rax,%rcx)
	je	.LBB12_4
# %bb.3:                                # %if.then
                                        #   in Loop: Header=BB12_1 Depth=1
	movq	-16(%rbp), %rax
	movl	124(%rax), %eax
	movq	-16(%rbp), %rcx
	movslq	-4(%rbp), %rdx
	movb	%al, 384(%rcx,%rdx)
	movq	-16(%rbp), %rax
	movl	124(%rax), %ecx
	addl	$1, %ecx
	movl	%ecx, 124(%rax)
.LBB12_4:                               # %if.end
                                        #   in Loop: Header=BB12_1 Depth=1
	jmp	.LBB12_5
.LBB12_5:                               # %for.inc
                                        #   in Loop: Header=BB12_1 Depth=1
	movl	-4(%rbp), %eax
	addl	$1, %eax
	movl	%eax, -4(%rbp)
	jmp	.LBB12_1
.LBB12_6:                               # %for.end
	cmpl	$1589019066, -20(%rbp)  # imm = 0x5EB681BA
	jne	.LBB12_8
.LBB12_7:
	addq	$32, %rsp
	popq	%rbp
	.cfi_def_cfa %rsp, 8
	retq
.LBB12_8:                               # %func_exit
	.cfi_def_cfa %rbp, 16
	callq	detect_breach
	jmp	.LBB12_7
.Lfunc_end12:
	.size	makeMaps_e.4, .Lfunc_end12-makeMaps_e.4
	.cfi_endproc
                                        # -- End function
	.p2align	4, 0x90         # -- Begin function bsW.5
	.type	bsW.5,@function
bsW.5:                                  # @bsW.5
	.cfi_startproc
# %bb.0:                                # %entry
	pushq	%rbp
	.cfi_def_cfa_offset 16
	.cfi_offset %rbp, -16
	movq	%rsp, %rbp
	.cfi_def_cfa_register %rbp
	subq	$32, %rsp
	movl	$1178349904, -20(%rbp)  # imm = 0x463C3150
	movq	%rdi, -8(%rbp)
	movl	%esi, -12(%rbp)
	movl	%edx, -16(%rbp)
.LBB13_1:                               # %while.cond
                                        # =>This Inner Loop Header: Depth=1
	movq	-8(%rbp), %rax
	cmpl	$8, 644(%rax)
	jl	.LBB13_3
# %bb.2:                                # %while.body
                                        #   in Loop: Header=BB13_1 Depth=1
	movq	-8(%rbp), %rax
	movl	640(%rax), %eax
	shrl	$24, %eax
	movq	-8(%rbp), %rcx
	movq	80(%rcx), %rcx
	movq	-8(%rbp), %rdx
	movslq	116(%rdx), %rdx
	movb	%al, (%rcx,%rdx)
	movq	-8(%rbp), %rax
	movl	116(%rax), %ecx
	addl	$1, %ecx
	movl	%ecx, 116(%rax)
	movq	-8(%rbp), %rax
	movl	640(%rax), %ecx
	shll	$8, %ecx
	movl	%ecx, 640(%rax)
	movq	-8(%rbp), %rax
	movl	644(%rax), %ecx
	subl	$8, %ecx
	movl	%ecx, 644(%rax)
	jmp	.LBB13_1
.LBB13_3:                               # %while.end
	movl	-16(%rbp), %eax
	movq	-8(%rbp), %rdx
	movl	$32, %ecx
	subl	644(%rdx), %ecx
	subl	-12(%rbp), %ecx
                                        # kill: def $cl killed $ecx
	shll	%cl, %eax
	movq	-8(%rbp), %rcx
	orl	640(%rcx), %eax
	movl	%eax, 640(%rcx)
	movl	-12(%rbp), %eax
	movq	-8(%rbp), %rcx
	addl	644(%rcx), %eax
	movl	%eax, 644(%rcx)
	cmpl	$1178349904, -20(%rbp)  # imm = 0x463C3150
	jne	.LBB13_5
.LBB13_4:
	addq	$32, %rsp
	popq	%rbp
	.cfi_def_cfa %rsp, 8
	retq
.LBB13_5:                               # %func_exit
	.cfi_def_cfa %rbp, 16
	callq	detect_breach
	jmp	.LBB13_4
.Lfunc_end13:
	.size	bsW.5, .Lfunc_end13-bsW.5
	.cfi_endproc
                                        # -- End function
	.p2align	4, 0x90         # -- Begin function bsPutUChar.6
	.type	bsPutUChar.6,@function
bsPutUChar.6:                           # @bsPutUChar.6
	.cfi_startproc
# %bb.0:                                # %entry
	pushq	%rbp
	.cfi_def_cfa_offset 16
	.cfi_offset %rbp, -16
	movq	%rsp, %rbp
	.cfi_def_cfa_register %rbp
	subq	$16, %rsp
	movl	$1898176275, -8(%rbp)   # imm = 0x7123DF13
	movq	%rdi, -16(%rbp)
	movb	%sil, -1(%rbp)
	movq	-16(%rbp), %rdi
	movzbl	-1(%rbp), %edx
	movl	$8, %esi
	callq	bsW
	cmpl	$1898176275, -8(%rbp)   # imm = 0x7123DF13
	jne	.LBB14_2
.LBB14_1:
	addq	$16, %rsp
	popq	%rbp
	.cfi_def_cfa %rsp, 8
	retq
.LBB14_2:                               # %func_exit
	.cfi_def_cfa %rbp, 16
	callq	detect_breach
	jmp	.LBB14_1
.Lfunc_end14:
	.size	bsPutUChar.6, .Lfunc_end14-bsPutUChar.6
	.cfi_endproc
                                        # -- End function
	.p2align	4, 0x90         # -- Begin function bsPutUChar.7
	.type	bsPutUChar.7,@function
bsPutUChar.7:                           # @bsPutUChar.7
	.cfi_startproc
# %bb.0:                                # %entry
	pushq	%rbp
	.cfi_def_cfa_offset 16
	.cfi_offset %rbp, -16
	movq	%rsp, %rbp
	.cfi_def_cfa_register %rbp
	subq	$16, %rsp
	movl	$338898738, -8(%rbp)    # imm = 0x14332F32
	movq	%rdi, -16(%rbp)
	movb	%sil, -1(%rbp)
	movq	-16(%rbp), %rdi
	movzbl	-1(%rbp), %edx
	movl	$8, %esi
	callq	bsW
	cmpl	$338898738, -8(%rbp)    # imm = 0x14332F32
	jne	.LBB15_2
.LBB15_1:
	addq	$16, %rsp
	popq	%rbp
	.cfi_def_cfa %rsp, 8
	retq
.LBB15_2:                               # %func_exit
	.cfi_def_cfa %rbp, 16
	callq	detect_breach
	jmp	.LBB15_1
.Lfunc_end15:
	.size	bsPutUChar.7, .Lfunc_end15-bsPutUChar.7
	.cfi_endproc
                                        # -- End function
	.p2align	4, 0x90         # -- Begin function makeMaps_e.8
	.type	makeMaps_e.8,@function
makeMaps_e.8:                           # @makeMaps_e.8
	.cfi_startproc
# %bb.0:                                # %entry
	pushq	%rbp
	.cfi_def_cfa_offset 16
	.cfi_offset %rbp, -16
	movq	%rsp, %rbp
	.cfi_def_cfa_register %rbp
	subq	$32, %rsp
	movl	$168967499, -20(%rbp)   # imm = 0xA123D4B
	movq	%rdi, -16(%rbp)
	movq	-16(%rbp), %rax
	movl	$0, 124(%rax)
	movl	$0, -4(%rbp)
.LBB16_1:                               # %for.cond
                                        # =>This Inner Loop Header: Depth=1
	cmpl	$256, -4(%rbp)          # imm = 0x100
	jge	.LBB16_6
# %bb.2:                                # %for.body
                                        #   in Loop: Header=BB16_1 Depth=1
	movq	-16(%rbp), %rax
	movslq	-4(%rbp), %rcx
	cmpb	$0, 128(%rax,%rcx)
	je	.LBB16_4
# %bb.3:                                # %if.then
                                        #   in Loop: Header=BB16_1 Depth=1
	movq	-16(%rbp), %rax
	movl	124(%rax), %eax
	movq	-16(%rbp), %rcx
	movslq	-4(%rbp), %rdx
	movb	%al, 384(%rcx,%rdx)
	movq	-16(%rbp), %rax
	movl	124(%rax), %ecx
	addl	$1, %ecx
	movl	%ecx, 124(%rax)
.LBB16_4:                               # %if.end
                                        #   in Loop: Header=BB16_1 Depth=1
	jmp	.LBB16_5
.LBB16_5:                               # %for.inc
                                        #   in Loop: Header=BB16_1 Depth=1
	movl	-4(%rbp), %eax
	addl	$1, %eax
	movl	%eax, -4(%rbp)
	jmp	.LBB16_1
.LBB16_6:                               # %for.end
	cmpl	$168967499, -20(%rbp)   # imm = 0xA123D4B
	jne	.LBB16_8
.LBB16_7:
	addq	$32, %rsp
	popq	%rbp
	.cfi_def_cfa %rsp, 8
	retq
.LBB16_8:                               # %func_exit
	.cfi_def_cfa %rbp, 16
	callq	detect_breach
	jmp	.LBB16_7
.Lfunc_end16:
	.size	makeMaps_e.8, .Lfunc_end16-makeMaps_e.8
	.cfi_endproc
                                        # -- End function
	.p2align	4, 0x90         # -- Begin function bsW.9
	.type	bsW.9,@function
bsW.9:                                  # @bsW.9
	.cfi_startproc
# %bb.0:                                # %entry
	pushq	%rbp
	.cfi_def_cfa_offset 16
	.cfi_offset %rbp, -16
	movq	%rsp, %rbp
	.cfi_def_cfa_register %rbp
	subq	$32, %rsp
	movl	$962196097, -16(%rbp)   # imm = 0x3959F281
	movq	%rdi, -8(%rbp)
	movl	%esi, -12(%rbp)
	movl	%edx, -20(%rbp)
.LBB17_1:                               # %while.cond
                                        # =>This Inner Loop Header: Depth=1
	movq	-8(%rbp), %rax
	cmpl	$8, 644(%rax)
	jl	.LBB17_3
# %bb.2:                                # %while.body
                                        #   in Loop: Header=BB17_1 Depth=1
	movq	-8(%rbp), %rax
	movl	640(%rax), %eax
	shrl	$24, %eax
	movq	-8(%rbp), %rcx
	movq	80(%rcx), %rcx
	movq	-8(%rbp), %rdx
	movslq	116(%rdx), %rdx
	movb	%al, (%rcx,%rdx)
	movq	-8(%rbp), %rax
	movl	116(%rax), %ecx
	addl	$1, %ecx
	movl	%ecx, 116(%rax)
	movq	-8(%rbp), %rax
	movl	640(%rax), %ecx
	shll	$8, %ecx
	movl	%ecx, 640(%rax)
	movq	-8(%rbp), %rax
	movl	644(%rax), %ecx
	subl	$8, %ecx
	movl	%ecx, 644(%rax)
	jmp	.LBB17_1
.LBB17_3:                               # %while.end
	movl	-20(%rbp), %eax
	movq	-8(%rbp), %rdx
	movl	$32, %ecx
	subl	644(%rdx), %ecx
	subl	-12(%rbp), %ecx
                                        # kill: def $cl killed $ecx
	shll	%cl, %eax
	movq	-8(%rbp), %rcx
	orl	640(%rcx), %eax
	movl	%eax, 640(%rcx)
	movl	-12(%rbp), %eax
	movq	-8(%rbp), %rcx
	addl	644(%rcx), %eax
	movl	%eax, 644(%rcx)
	cmpl	$962196097, -16(%rbp)   # imm = 0x3959F281
	jne	.LBB17_5
.LBB17_4:
	addq	$32, %rsp
	popq	%rbp
	.cfi_def_cfa %rsp, 8
	retq
.LBB17_5:                               # %func_exit
	.cfi_def_cfa %rbp, 16
	callq	detect_breach
	jmp	.LBB17_4
.Lfunc_end17:
	.size	bsW.9, .Lfunc_end17-bsW.9
	.cfi_endproc
                                        # -- End function
	.section	.rodata.cst8,"aM",@progbits,8
	.p2align	3               # -- Begin function sendMTFValues.10
.LCPI18_0:
	.quad	4636737291354636288     # double 100
	.text
	.p2align	4, 0x90
	.type	sendMTFValues.10,@function
sendMTFValues.10:                       # @sendMTFValues.10
	.cfi_startproc
# %bb.0:                                # %entry
	pushq	%rbp
	.cfi_def_cfa_offset 16
	.cfi_offset %rbp, -16
	movq	%rsp, %rbp
	.cfi_def_cfa_register %rbp
	subq	$224, %rsp
	movl	$1263417588, -176(%rbp) # imm = 0x4B4E38F4
	movq	%rdi, -16(%rbp)
	movq	-16(%rbp), %rax
	movq	72(%rax), %rax
	movq	%rax, -40(%rbp)
	movq	-16(%rbp), %rax
	cmpl	$3, 656(%rax)
	jl	.LBB18_2
# %bb.1:                                # %if.then
	movq	stderr, %rdi
	movq	-16(%rbp), %rax
	movl	108(%rax), %edx
	movq	-16(%rbp), %rax
	movl	668(%rax), %ecx
	movq	-16(%rbp), %rax
	movl	124(%rax), %r8d
	movabsq	$.L.str.2, %rsi
	movb	$0, %al
	callq	fprintf
.LBB18_2:                               # %if.end
	movq	-16(%rbp), %rax
	movl	124(%rax), %eax
	addl	$2, %eax
	movl	%eax, -104(%rbp)
	movl	$0, -48(%rbp)
.LBB18_3:                               # %for.cond
                                        # =>This Loop Header: Depth=1
                                        #     Child Loop BB18_5 Depth 2
	cmpl	$6, -48(%rbp)
	jge	.LBB18_10
# %bb.4:                                # %for.body
                                        #   in Loop: Header=BB18_3 Depth=1
	movl	$0, -56(%rbp)
.LBB18_5:                               # %for.cond4
                                        #   Parent Loop BB18_3 Depth=1
                                        # =>  This Inner Loop Header: Depth=2
	movl	-56(%rbp), %eax
	cmpl	-104(%rbp), %eax
	jge	.LBB18_8
# %bb.6:                                # %for.body6
                                        #   in Loop: Header=BB18_5 Depth=2
	movq	-16(%rbp), %rax
	addq	$37708, %rax            # imm = 0x934C
	movslq	-48(%rbp), %rcx
	imulq	$258, %rcx, %rcx        # imm = 0x102
	addq	%rcx, %rax
	movslq	-56(%rbp), %rcx
	movb	$15, (%rax,%rcx)
# %bb.7:                                # %for.inc
                                        #   in Loop: Header=BB18_5 Depth=2
	movl	-56(%rbp), %eax
	addl	$1, %eax
	movl	%eax, -56(%rbp)
	jmp	.LBB18_5
.LBB18_8:                               # %for.end
                                        #   in Loop: Header=BB18_3 Depth=1
	jmp	.LBB18_9
.LBB18_9:                               # %for.inc9
                                        #   in Loop: Header=BB18_3 Depth=1
	movl	-48(%rbp), %eax
	addl	$1, %eax
	movl	%eax, -48(%rbp)
	jmp	.LBB18_3
.LBB18_10:                              # %for.end11
	movq	-16(%rbp), %rax
	cmpl	$0, 668(%rax)
	jg	.LBB18_12
# %bb.11:                               # %if.then14
	movl	$3001, %edi             # imm = 0xBB9
	callq	BZ2_bz__AssertH__fail
.LBB18_12:                              # %if.end15
	movq	-16(%rbp), %rax
	cmpl	$200, 668(%rax)
	jge	.LBB18_14
# %bb.13:                               # %if.then18
	movl	$2, -84(%rbp)
	jmp	.LBB18_24
.LBB18_14:                              # %if.else
	movq	-16(%rbp), %rax
	cmpl	$600, 668(%rax)         # imm = 0x258
	jge	.LBB18_16
# %bb.15:                               # %if.then21
	movl	$3, -84(%rbp)
	jmp	.LBB18_23
.LBB18_16:                              # %if.else22
	movq	-16(%rbp), %rax
	cmpl	$1200, 668(%rax)        # imm = 0x4B0
	jge	.LBB18_18
# %bb.17:                               # %if.then25
	movl	$4, -84(%rbp)
	jmp	.LBB18_22
.LBB18_18:                              # %if.else26
	movq	-16(%rbp), %rax
	cmpl	$2400, 668(%rax)        # imm = 0x960
	jge	.LBB18_20
# %bb.19:                               # %if.then29
	movl	$5, -84(%rbp)
	jmp	.LBB18_21
.LBB18_20:                              # %if.else30
	movl	$6, -84(%rbp)
.LBB18_21:                              # %if.end31
	jmp	.LBB18_22
.LBB18_22:                              # %if.end32
	jmp	.LBB18_23
.LBB18_23:                              # %if.end33
	jmp	.LBB18_24
.LBB18_24:                              # %if.end34
	movl	-84(%rbp), %eax
	movl	%eax, -96(%rbp)
	movq	-16(%rbp), %rax
	movl	668(%rax), %eax
	movl	%eax, -144(%rbp)
	movl	$0, -20(%rbp)
.LBB18_25:                              # %while.cond
                                        # =>This Loop Header: Depth=1
                                        #     Child Loop BB18_27 Depth 2
                                        #     Child Loop BB18_39 Depth 2
	cmpl	$0, -96(%rbp)
	jle	.LBB18_47
# %bb.26:                               # %while.body
                                        #   in Loop: Header=BB18_25 Depth=1
	movl	-144(%rbp), %eax
	cltd
	idivl	-96(%rbp)
	movl	%eax, -172(%rbp)
	movl	-20(%rbp), %eax
	subl	$1, %eax
	movl	%eax, -60(%rbp)
	movl	$0, -112(%rbp)
.LBB18_27:                              # %while.cond37
                                        #   Parent Loop BB18_25 Depth=1
                                        # =>  This Inner Loop Header: Depth=2
	xorl	%eax, %eax
	movl	-112(%rbp), %ecx
	cmpl	-172(%rbp), %ecx
	jge	.LBB18_29
# %bb.28:                               # %land.rhs
                                        #   in Loop: Header=BB18_27 Depth=2
	movl	-60(%rbp), %eax
	movl	-104(%rbp), %ecx
	subl	$1, %ecx
	cmpl	%ecx, %eax
	setl	%al
.LBB18_29:                              # %land.end
                                        #   in Loop: Header=BB18_27 Depth=2
	testb	$1, %al
	jne	.LBB18_30
	jmp	.LBB18_31
.LBB18_30:                              # %while.body41
                                        #   in Loop: Header=BB18_27 Depth=2
	movl	-60(%rbp), %eax
	addl	$1, %eax
	movl	%eax, -60(%rbp)
	movq	-16(%rbp), %rax
	movslq	-60(%rbp), %rcx
	movl	672(%rax,%rcx,4), %eax
	addl	-112(%rbp), %eax
	movl	%eax, -112(%rbp)
	jmp	.LBB18_27
.LBB18_31:                              # %while.end
                                        #   in Loop: Header=BB18_25 Depth=1
	movl	-60(%rbp), %eax
	cmpl	-20(%rbp), %eax
	jle	.LBB18_36
# %bb.32:                               # %land.lhs.true
                                        #   in Loop: Header=BB18_25 Depth=1
	movl	-96(%rbp), %eax
	cmpl	-84(%rbp), %eax
	je	.LBB18_36
# %bb.33:                               # %land.lhs.true48
                                        #   in Loop: Header=BB18_25 Depth=1
	cmpl	$1, -96(%rbp)
	je	.LBB18_36
# %bb.34:                               # %land.lhs.true50
                                        #   in Loop: Header=BB18_25 Depth=1
	movl	-84(%rbp), %eax
	subl	-96(%rbp), %eax
	cltd
	movl	$2, %ecx
	idivl	%ecx
	cmpl	$1, %edx
	jne	.LBB18_36
# %bb.35:                               # %if.then53
                                        #   in Loop: Header=BB18_25 Depth=1
	movq	-16(%rbp), %rax
	movslq	-60(%rbp), %rcx
	movl	672(%rax,%rcx,4), %eax
	movl	-112(%rbp), %ecx
	subl	%eax, %ecx
	movl	%ecx, -112(%rbp)
	movl	-60(%rbp), %eax
	addl	$-1, %eax
	movl	%eax, -60(%rbp)
.LBB18_36:                              # %if.end58
                                        #   in Loop: Header=BB18_25 Depth=1
	movq	-16(%rbp), %rax
	cmpl	$3, 656(%rax)
	jl	.LBB18_38
# %bb.37:                               # %if.then61
                                        #   in Loop: Header=BB18_25 Depth=1
	vmovsd	.LCPI18_0(%rip), %xmm0  # xmm0 = mem[0],zero
	movq	stderr, %rdi
	movl	-96(%rbp), %edx
	movl	-20(%rbp), %ecx
	movl	-60(%rbp), %r8d
	movl	-112(%rbp), %r9d
	vcvtsi2ssl	-112(%rbp), %xmm0, %xmm1
	vcvtss2sd	%xmm1, %xmm0, %xmm1
	vmulsd	%xmm1, %xmm0, %xmm0
	movq	-16(%rbp), %rax
	vcvtsi2ssl	668(%rax), %xmm0, %xmm1
	vcvtss2sd	%xmm1, %xmm0, %xmm1
	vdivsd	%xmm1, %xmm0, %xmm0
	movabsq	$.L.str.3, %rsi
	movb	$1, %al
	callq	fprintf
.LBB18_38:                              # %if.end68
                                        #   in Loop: Header=BB18_25 Depth=1
	movl	$0, -56(%rbp)
.LBB18_39:                              # %for.cond69
                                        #   Parent Loop BB18_25 Depth=1
                                        # =>  This Inner Loop Header: Depth=2
	movl	-56(%rbp), %eax
	cmpl	-104(%rbp), %eax
	jge	.LBB18_46
# %bb.40:                               # %for.body72
                                        #   in Loop: Header=BB18_39 Depth=2
	movl	-56(%rbp), %eax
	cmpl	-20(%rbp), %eax
	jl	.LBB18_43
# %bb.41:                               # %land.lhs.true75
                                        #   in Loop: Header=BB18_39 Depth=2
	movl	-56(%rbp), %eax
	cmpl	-60(%rbp), %eax
	jg	.LBB18_43
# %bb.42:                               # %if.then78
                                        #   in Loop: Header=BB18_39 Depth=2
	movq	-16(%rbp), %rax
	addq	$37708, %rax            # imm = 0x934C
	movl	-96(%rbp), %ecx
	subl	$1, %ecx
	movslq	%ecx, %rcx
	imulq	$258, %rcx, %rcx        # imm = 0x102
	addq	%rcx, %rax
	movslq	-56(%rbp), %rcx
	movb	$0, (%rax,%rcx)
	jmp	.LBB18_44
.LBB18_43:                              # %if.else85
                                        #   in Loop: Header=BB18_39 Depth=2
	movq	-16(%rbp), %rax
	addq	$37708, %rax            # imm = 0x934C
	movl	-96(%rbp), %ecx
	subl	$1, %ecx
	movslq	%ecx, %rcx
	imulq	$258, %rcx, %rcx        # imm = 0x102
	addq	%rcx, %rax
	movslq	-56(%rbp), %rcx
	movb	$15, (%rax,%rcx)
.LBB18_44:                              # %if.end92
                                        #   in Loop: Header=BB18_39 Depth=2
	jmp	.LBB18_45
.LBB18_45:                              # %for.inc93
                                        #   in Loop: Header=BB18_39 Depth=2
	movl	-56(%rbp), %eax
	addl	$1, %eax
	movl	%eax, -56(%rbp)
	jmp	.LBB18_39
.LBB18_46:                              # %for.end95
                                        #   in Loop: Header=BB18_25 Depth=1
	movl	-96(%rbp), %eax
	addl	$-1, %eax
	movl	%eax, -96(%rbp)
	movl	-60(%rbp), %eax
	addl	$1, %eax
	movl	%eax, -20(%rbp)
	movl	-112(%rbp), %eax
	movl	-144(%rbp), %ecx
	subl	%eax, %ecx
	movl	%ecx, -144(%rbp)
	jmp	.LBB18_25
.LBB18_47:                              # %while.end99
	movl	$0, -132(%rbp)
.LBB18_48:                              # %for.cond100
                                        # =>This Loop Header: Depth=1
                                        #     Child Loop BB18_50 Depth 2
                                        #     Child Loop BB18_54 Depth 2
                                        #       Child Loop BB18_56 Depth 3
                                        #     Child Loop BB18_63 Depth 2
                                        #     Child Loop BB18_68 Depth 2
                                        #       Child Loop BB18_73 Depth 3
                                        #       Child Loop BB18_80 Depth 3
                                        #         Child Loop BB18_82 Depth 4
                                        #       Child Loop BB18_89 Depth 3
                                        #       Child Loop BB18_98 Depth 3
                                        #     Child Loop BB18_105 Depth 2
                                        #     Child Loop BB18_110 Depth 2
	cmpl	$4, -132(%rbp)
	jge	.LBB18_115
# %bb.49:                               # %for.body103
                                        #   in Loop: Header=BB18_48 Depth=1
	movl	$0, -48(%rbp)
.LBB18_50:                              # %for.cond104
                                        #   Parent Loop BB18_48 Depth=1
                                        # =>  This Inner Loop Header: Depth=2
	movl	-48(%rbp), %eax
	cmpl	-84(%rbp), %eax
	jge	.LBB18_53
# %bb.51:                               # %for.body107
                                        #   in Loop: Header=BB18_50 Depth=2
	movslq	-48(%rbp), %rax
	movl	$0, -224(%rbp,%rax,4)
# %bb.52:                               # %for.inc110
                                        #   in Loop: Header=BB18_50 Depth=2
	movl	-48(%rbp), %eax
	addl	$1, %eax
	movl	%eax, -48(%rbp)
	jmp	.LBB18_50
.LBB18_53:                              # %for.end112
                                        #   in Loop: Header=BB18_48 Depth=1
	movl	$0, -48(%rbp)
.LBB18_54:                              # %for.cond113
                                        #   Parent Loop BB18_48 Depth=1
                                        # =>  This Loop Header: Depth=2
                                        #       Child Loop BB18_56 Depth 3
	movl	-48(%rbp), %eax
	cmpl	-84(%rbp), %eax
	jge	.LBB18_61
# %bb.55:                               # %for.body116
                                        #   in Loop: Header=BB18_54 Depth=2
	movl	$0, -56(%rbp)
.LBB18_56:                              # %for.cond117
                                        #   Parent Loop BB18_48 Depth=1
                                        #     Parent Loop BB18_54 Depth=2
                                        # =>    This Inner Loop Header: Depth=3
	movl	-56(%rbp), %eax
	cmpl	-104(%rbp), %eax
	jge	.LBB18_59
# %bb.57:                               # %for.body120
                                        #   in Loop: Header=BB18_56 Depth=3
	movq	-16(%rbp), %rax
	addq	$45448, %rax            # imm = 0xB188
	movslq	-48(%rbp), %rcx
	imulq	$1032, %rcx, %rcx       # imm = 0x408
	addq	%rcx, %rax
	movslq	-56(%rbp), %rcx
	movl	$0, (%rax,%rcx,4)
# %bb.58:                               # %for.inc125
                                        #   in Loop: Header=BB18_56 Depth=3
	movl	-56(%rbp), %eax
	addl	$1, %eax
	movl	%eax, -56(%rbp)
	jmp	.LBB18_56
.LBB18_59:                              # %for.end127
                                        #   in Loop: Header=BB18_54 Depth=2
	jmp	.LBB18_60
.LBB18_60:                              # %for.inc128
                                        #   in Loop: Header=BB18_54 Depth=2
	movl	-48(%rbp), %eax
	addl	$1, %eax
	movl	%eax, -48(%rbp)
	jmp	.LBB18_54
.LBB18_61:                              # %for.end130
                                        #   in Loop: Header=BB18_48 Depth=1
	cmpl	$6, -84(%rbp)
	jne	.LBB18_67
# %bb.62:                               # %if.then133
                                        #   in Loop: Header=BB18_48 Depth=1
	movl	$0, -56(%rbp)
.LBB18_63:                              # %for.cond134
                                        #   Parent Loop BB18_48 Depth=1
                                        # =>  This Inner Loop Header: Depth=2
	movl	-56(%rbp), %eax
	cmpl	-104(%rbp), %eax
	jge	.LBB18_66
# %bb.64:                               # %for.body137
                                        #   in Loop: Header=BB18_63 Depth=2
	movq	-16(%rbp), %rax
	movslq	-56(%rbp), %rcx
	movzbl	37966(%rax,%rcx), %eax
	shll	$16, %eax
	movq	-16(%rbp), %rcx
	movslq	-56(%rbp), %rdx
	movzbl	37708(%rcx,%rdx), %ecx
	orl	%ecx, %eax
	movq	-16(%rbp), %rcx
	addq	$51640, %rcx            # imm = 0xC9B8
	movslq	-56(%rbp), %rdx
	shlq	$4, %rdx
	addq	%rdx, %rcx
	movl	%eax, (%rcx)
	movq	-16(%rbp), %rax
	movslq	-56(%rbp), %rcx
	movzbl	38482(%rax,%rcx), %eax
	shll	$16, %eax
	movq	-16(%rbp), %rcx
	movslq	-56(%rbp), %rdx
	movzbl	38224(%rcx,%rdx), %ecx
	orl	%ecx, %eax
	movq	-16(%rbp), %rcx
	addq	$51640, %rcx            # imm = 0xC9B8
	movslq	-56(%rbp), %rdx
	shlq	$4, %rdx
	addq	%rdx, %rcx
	movl	%eax, 4(%rcx)
	movq	-16(%rbp), %rax
	movslq	-56(%rbp), %rcx
	movzbl	38998(%rax,%rcx), %eax
	shll	$16, %eax
	movq	-16(%rbp), %rcx
	movslq	-56(%rbp), %rdx
	movzbl	38740(%rcx,%rdx), %ecx
	orl	%ecx, %eax
	movq	-16(%rbp), %rcx
	addq	$51640, %rcx            # imm = 0xC9B8
	movslq	-56(%rbp), %rdx
	shlq	$4, %rdx
	addq	%rdx, %rcx
	movl	%eax, 8(%rcx)
# %bb.65:                               # %for.inc183
                                        #   in Loop: Header=BB18_63 Depth=2
	movl	-56(%rbp), %eax
	addl	$1, %eax
	movl	%eax, -56(%rbp)
	jmp	.LBB18_63
.LBB18_66:                              # %for.end185
                                        #   in Loop: Header=BB18_48 Depth=1
	jmp	.LBB18_67
.LBB18_67:                              # %if.end186
                                        #   in Loop: Header=BB18_48 Depth=1
	movl	$0, -100(%rbp)
	movl	$0, -140(%rbp)
	movl	$0, -20(%rbp)
.LBB18_68:                              # %while.body188
                                        #   Parent Loop BB18_48 Depth=1
                                        # =>  This Loop Header: Depth=2
                                        #       Child Loop BB18_73 Depth 3
                                        #       Child Loop BB18_80 Depth 3
                                        #         Child Loop BB18_82 Depth 4
                                        #       Child Loop BB18_89 Depth 3
                                        #       Child Loop BB18_98 Depth 3
	movl	-20(%rbp), %eax
	movq	-16(%rbp), %rcx
	cmpl	668(%rcx), %eax
	jl	.LBB18_70
# %bb.69:                               # %if.then192
                                        #   in Loop: Header=BB18_48 Depth=1
	jmp	.LBB18_103
.LBB18_70:                              # %if.end193
                                        #   in Loop: Header=BB18_68 Depth=2
	movl	-20(%rbp), %eax
	addl	$50, %eax
	subl	$1, %eax
	movl	%eax, -60(%rbp)
	movl	-60(%rbp), %eax
	movq	-16(%rbp), %rcx
	cmpl	668(%rcx), %eax
	jl	.LBB18_72
# %bb.71:                               # %if.then199
                                        #   in Loop: Header=BB18_68 Depth=2
	movq	-16(%rbp), %rax
	movl	668(%rax), %eax
	subl	$1, %eax
	movl	%eax, -60(%rbp)
.LBB18_72:                              # %if.end202
                                        #   in Loop: Header=BB18_68 Depth=2
	movl	$0, -48(%rbp)
.LBB18_73:                              # %for.cond203
                                        #   Parent Loop BB18_48 Depth=1
                                        #     Parent Loop BB18_68 Depth=2
                                        # =>    This Inner Loop Header: Depth=3
	movl	-48(%rbp), %eax
	cmpl	-84(%rbp), %eax
	jge	.LBB18_76
# %bb.74:                               # %for.body206
                                        #   in Loop: Header=BB18_73 Depth=3
	movslq	-48(%rbp), %rax
	movw	$0, -162(%rbp,%rax,2)
# %bb.75:                               # %for.inc209
                                        #   in Loop: Header=BB18_73 Depth=3
	movl	-48(%rbp), %eax
	addl	$1, %eax
	movl	%eax, -48(%rbp)
	jmp	.LBB18_73
.LBB18_76:                              # %for.end211
                                        #   in Loop: Header=BB18_68 Depth=2
	cmpl	$6, -84(%rbp)
	jne	.LBB18_79
# %bb.77:                               # %land.lhs.true214
                                        #   in Loop: Header=BB18_68 Depth=2
	movl	-60(%rbp), %eax
	subl	-20(%rbp), %eax
	addl	$1, %eax
	movl	$50, %ecx
	cmpl	%eax, %ecx
	jne	.LBB18_79
# %bb.78:                               # %if.then219
                                        #   in Loop: Header=BB18_68 Depth=2
	movl	$0, -24(%rbp)
	movl	$0, -28(%rbp)
	movl	$0, -32(%rbp)
	movq	-40(%rbp), %rax
	movl	-20(%rbp), %ecx
	addl	$0, %ecx
	movslq	%ecx, %rcx
	movw	(%rax,%rcx,2), %ax
	movw	%ax, -2(%rbp)
	movq	-16(%rbp), %rax
	addq	$51640, %rax            # imm = 0xC9B8
	movzwl	-2(%rbp), %ecx
	shlq	$4, %rcx
	addq	%rcx, %rax
	movl	(%rax), %eax
	addl	-32(%rbp), %eax
	movl	%eax, -32(%rbp)
	movq	-16(%rbp), %rax
	addq	$51640, %rax            # imm = 0xC9B8
	movzwl	-2(%rbp), %ecx
	shlq	$4, %rcx
	addq	%rcx, %rax
	movl	4(%rax), %eax
	addl	-28(%rbp), %eax
	movl	%eax, -28(%rbp)
	movq	-16(%rbp), %rax
	addq	$51640, %rax            # imm = 0xC9B8
	movzwl	-2(%rbp), %ecx
	shlq	$4, %rcx
	addq	%rcx, %rax
	movl	8(%rax), %eax
	addl	-24(%rbp), %eax
	movl	%eax, -24(%rbp)
	movq	-40(%rbp), %rax
	movl	-20(%rbp), %ecx
	addl	$1, %ecx
	movslq	%ecx, %rcx
	movw	(%rax,%rcx,2), %ax
	movw	%ax, -2(%rbp)
	movq	-16(%rbp), %rax
	addq	$51640, %rax            # imm = 0xC9B8
	movzwl	-2(%rbp), %ecx
	shlq	$4, %rcx
	addq	%rcx, %rax
	movl	(%rax), %eax
	addl	-32(%rbp), %eax
	movl	%eax, -32(%rbp)
	movq	-16(%rbp), %rax
	addq	$51640, %rax            # imm = 0xC9B8
	movzwl	-2(%rbp), %ecx
	shlq	$4, %rcx
	addq	%rcx, %rax
	movl	4(%rax), %eax
	addl	-28(%rbp), %eax
	movl	%eax, -28(%rbp)
	movq	-16(%rbp), %rax
	addq	$51640, %rax            # imm = 0xC9B8
	movzwl	-2(%rbp), %ecx
	shlq	$4, %rcx
	addq	%rcx, %rax
	movl	8(%rax), %eax
	addl	-24(%rbp), %eax
	movl	%eax, -24(%rbp)
	movq	-40(%rbp), %rax
	movl	-20(%rbp), %ecx
	addl	$2, %ecx
	movslq	%ecx, %rcx
	movw	(%rax,%rcx,2), %ax
	movw	%ax, -2(%rbp)
	movq	-16(%rbp), %rax
	addq	$51640, %rax            # imm = 0xC9B8
	movzwl	-2(%rbp), %ecx
	shlq	$4, %rcx
	addq	%rcx, %rax
	movl	(%rax), %eax
	addl	-32(%rbp), %eax
	movl	%eax, -32(%rbp)
	movq	-16(%rbp), %rax
	addq	$51640, %rax            # imm = 0xC9B8
	movzwl	-2(%rbp), %ecx
	shlq	$4, %rcx
	addq	%rcx, %rax
	movl	4(%rax), %eax
	addl	-28(%rbp), %eax
	movl	%eax, -28(%rbp)
	movq	-16(%rbp), %rax
	addq	$51640, %rax            # imm = 0xC9B8
	movzwl	-2(%rbp), %ecx
	shlq	$4, %rcx
	addq	%rcx, %rax
	movl	8(%rax), %eax
	addl	-24(%rbp), %eax
	movl	%eax, -24(%rbp)
	movq	-40(%rbp), %rax
	movl	-20(%rbp), %ecx
	addl	$3, %ecx
	movslq	%ecx, %rcx
	movw	(%rax,%rcx,2), %ax
	movw	%ax, -2(%rbp)
	movq	-16(%rbp), %rax
	addq	$51640, %rax            # imm = 0xC9B8
	movzwl	-2(%rbp), %ecx
	shlq	$4, %rcx
	addq	%rcx, %rax
	movl	(%rax), %eax
	addl	-32(%rbp), %eax
	movl	%eax, -32(%rbp)
	movq	-16(%rbp), %rax
	addq	$51640, %rax            # imm = 0xC9B8
	movzwl	-2(%rbp), %ecx
	shlq	$4, %rcx
	addq	%rcx, %rax
	movl	4(%rax), %eax
	addl	-28(%rbp), %eax
	movl	%eax, -28(%rbp)
	movq	-16(%rbp), %rax
	addq	$51640, %rax            # imm = 0xC9B8
	movzwl	-2(%rbp), %ecx
	shlq	$4, %rcx
	addq	%rcx, %rax
	movl	8(%rax), %eax
	addl	-24(%rbp), %eax
	movl	%eax, -24(%rbp)
	movq	-40(%rbp), %rax
	movl	-20(%rbp), %ecx
	addl	$4, %ecx
	movslq	%ecx, %rcx
	movw	(%rax,%rcx,2), %ax
	movw	%ax, -2(%rbp)
	movq	-16(%rbp), %rax
	addq	$51640, %rax            # imm = 0xC9B8
	movzwl	-2(%rbp), %ecx
	shlq	$4, %rcx
	addq	%rcx, %rax
	movl	(%rax), %eax
	addl	-32(%rbp), %eax
	movl	%eax, -32(%rbp)
	movq	-16(%rbp), %rax
	addq	$51640, %rax            # imm = 0xC9B8
	movzwl	-2(%rbp), %ecx
	shlq	$4, %rcx
	addq	%rcx, %rax
	movl	4(%rax), %eax
	addl	-28(%rbp), %eax
	movl	%eax, -28(%rbp)
	movq	-16(%rbp), %rax
	addq	$51640, %rax            # imm = 0xC9B8
	movzwl	-2(%rbp), %ecx
	shlq	$4, %rcx
	addq	%rcx, %rax
	movl	8(%rax), %eax
	addl	-24(%rbp), %eax
	movl	%eax, -24(%rbp)
	movq	-40(%rbp), %rax
	movl	-20(%rbp), %ecx
	addl	$5, %ecx
	movslq	%ecx, %rcx
	movw	(%rax,%rcx,2), %ax
	movw	%ax, -2(%rbp)
	movq	-16(%rbp), %rax
	addq	$51640, %rax            # imm = 0xC9B8
	movzwl	-2(%rbp), %ecx
	shlq	$4, %rcx
	addq	%rcx, %rax
	movl	(%rax), %eax
	addl	-32(%rbp), %eax
	movl	%eax, -32(%rbp)
	movq	-16(%rbp), %rax
	addq	$51640, %rax            # imm = 0xC9B8
	movzwl	-2(%rbp), %ecx
	shlq	$4, %rcx
	addq	%rcx, %rax
	movl	4(%rax), %eax
	addl	-28(%rbp), %eax
	movl	%eax, -28(%rbp)
	movq	-16(%rbp), %rax
	addq	$51640, %rax            # imm = 0xC9B8
	movzwl	-2(%rbp), %ecx
	shlq	$4, %rcx
	addq	%rcx, %rax
	movl	8(%rax), %eax
	addl	-24(%rbp), %eax
	movl	%eax, -24(%rbp)
	movq	-40(%rbp), %rax
	movl	-20(%rbp), %ecx
	addl	$6, %ecx
	movslq	%ecx, %rcx
	movw	(%rax,%rcx,2), %ax
	movw	%ax, -2(%rbp)
	movq	-16(%rbp), %rax
	addq	$51640, %rax            # imm = 0xC9B8
	movzwl	-2(%rbp), %ecx
	shlq	$4, %rcx
	addq	%rcx, %rax
	movl	(%rax), %eax
	addl	-32(%rbp), %eax
	movl	%eax, -32(%rbp)
	movq	-16(%rbp), %rax
	addq	$51640, %rax            # imm = 0xC9B8
	movzwl	-2(%rbp), %ecx
	shlq	$4, %rcx
	addq	%rcx, %rax
	movl	4(%rax), %eax
	addl	-28(%rbp), %eax
	movl	%eax, -28(%rbp)
	movq	-16(%rbp), %rax
	addq	$51640, %rax            # imm = 0xC9B8
	movzwl	-2(%rbp), %ecx
	shlq	$4, %rcx
	addq	%rcx, %rax
	movl	8(%rax), %eax
	addl	-24(%rbp), %eax
	movl	%eax, -24(%rbp)
	movq	-40(%rbp), %rax
	movl	-20(%rbp), %ecx
	addl	$7, %ecx
	movslq	%ecx, %rcx
	movw	(%rax,%rcx,2), %ax
	movw	%ax, -2(%rbp)
	movq	-16(%rbp), %rax
	addq	$51640, %rax            # imm = 0xC9B8
	movzwl	-2(%rbp), %ecx
	shlq	$4, %rcx
	addq	%rcx, %rax
	movl	(%rax), %eax
	addl	-32(%rbp), %eax
	movl	%eax, -32(%rbp)
	movq	-16(%rbp), %rax
	addq	$51640, %rax            # imm = 0xC9B8
	movzwl	-2(%rbp), %ecx
	shlq	$4, %rcx
	addq	%rcx, %rax
	movl	4(%rax), %eax
	addl	-28(%rbp), %eax
	movl	%eax, -28(%rbp)
	movq	-16(%rbp), %rax
	addq	$51640, %rax            # imm = 0xC9B8
	movzwl	-2(%rbp), %ecx
	shlq	$4, %rcx
	addq	%rcx, %rax
	movl	8(%rax), %eax
	addl	-24(%rbp), %eax
	movl	%eax, -24(%rbp)
	movq	-40(%rbp), %rax
	movl	-20(%rbp), %ecx
	addl	$8, %ecx
	movslq	%ecx, %rcx
	movw	(%rax,%rcx,2), %ax
	movw	%ax, -2(%rbp)
	movq	-16(%rbp), %rax
	addq	$51640, %rax            # imm = 0xC9B8
	movzwl	-2(%rbp), %ecx
	shlq	$4, %rcx
	addq	%rcx, %rax
	movl	(%rax), %eax
	addl	-32(%rbp), %eax
	movl	%eax, -32(%rbp)
	movq	-16(%rbp), %rax
	addq	$51640, %rax            # imm = 0xC9B8
	movzwl	-2(%rbp), %ecx
	shlq	$4, %rcx
	addq	%rcx, %rax
	movl	4(%rax), %eax
	addl	-28(%rbp), %eax
	movl	%eax, -28(%rbp)
	movq	-16(%rbp), %rax
	addq	$51640, %rax            # imm = 0xC9B8
	movzwl	-2(%rbp), %ecx
	shlq	$4, %rcx
	addq	%rcx, %rax
	movl	8(%rax), %eax
	addl	-24(%rbp), %eax
	movl	%eax, -24(%rbp)
	movq	-40(%rbp), %rax
	movl	-20(%rbp), %ecx
	addl	$9, %ecx
	movslq	%ecx, %rcx
	movw	(%rax,%rcx,2), %ax
	movw	%ax, -2(%rbp)
	movq	-16(%rbp), %rax
	addq	$51640, %rax            # imm = 0xC9B8
	movzwl	-2(%rbp), %ecx
	shlq	$4, %rcx
	addq	%rcx, %rax
	movl	(%rax), %eax
	addl	-32(%rbp), %eax
	movl	%eax, -32(%rbp)
	movq	-16(%rbp), %rax
	addq	$51640, %rax            # imm = 0xC9B8
	movzwl	-2(%rbp), %ecx
	shlq	$4, %rcx
	addq	%rcx, %rax
	movl	4(%rax), %eax
	addl	-28(%rbp), %eax
	movl	%eax, -28(%rbp)
	movq	-16(%rbp), %rax
	addq	$51640, %rax            # imm = 0xC9B8
	movzwl	-2(%rbp), %ecx
	shlq	$4, %rcx
	addq	%rcx, %rax
	movl	8(%rax), %eax
	addl	-24(%rbp), %eax
	movl	%eax, -24(%rbp)
	movq	-40(%rbp), %rax
	movl	-20(%rbp), %ecx
	addl	$10, %ecx
	movslq	%ecx, %rcx
	movw	(%rax,%rcx,2), %ax
	movw	%ax, -2(%rbp)
	movq	-16(%rbp), %rax
	addq	$51640, %rax            # imm = 0xC9B8
	movzwl	-2(%rbp), %ecx
	shlq	$4, %rcx
	addq	%rcx, %rax
	movl	(%rax), %eax
	addl	-32(%rbp), %eax
	movl	%eax, -32(%rbp)
	movq	-16(%rbp), %rax
	addq	$51640, %rax            # imm = 0xC9B8
	movzwl	-2(%rbp), %ecx
	shlq	$4, %rcx
	addq	%rcx, %rax
	movl	4(%rax), %eax
	addl	-28(%rbp), %eax
	movl	%eax, -28(%rbp)
	movq	-16(%rbp), %rax
	addq	$51640, %rax            # imm = 0xC9B8
	movzwl	-2(%rbp), %ecx
	shlq	$4, %rcx
	addq	%rcx, %rax
	movl	8(%rax), %eax
	addl	-24(%rbp), %eax
	movl	%eax, -24(%rbp)
	movq	-40(%rbp), %rax
	movl	-20(%rbp), %ecx
	addl	$11, %ecx
	movslq	%ecx, %rcx
	movw	(%rax,%rcx,2), %ax
	movw	%ax, -2(%rbp)
	movq	-16(%rbp), %rax
	addq	$51640, %rax            # imm = 0xC9B8
	movzwl	-2(%rbp), %ecx
	shlq	$4, %rcx
	addq	%rcx, %rax
	movl	(%rax), %eax
	addl	-32(%rbp), %eax
	movl	%eax, -32(%rbp)
	movq	-16(%rbp), %rax
	addq	$51640, %rax            # imm = 0xC9B8
	movzwl	-2(%rbp), %ecx
	shlq	$4, %rcx
	addq	%rcx, %rax
	movl	4(%rax), %eax
	addl	-28(%rbp), %eax
	movl	%eax, -28(%rbp)
	movq	-16(%rbp), %rax
	addq	$51640, %rax            # imm = 0xC9B8
	movzwl	-2(%rbp), %ecx
	shlq	$4, %rcx
	addq	%rcx, %rax
	movl	8(%rax), %eax
	addl	-24(%rbp), %eax
	movl	%eax, -24(%rbp)
	movq	-40(%rbp), %rax
	movl	-20(%rbp), %ecx
	addl	$12, %ecx
	movslq	%ecx, %rcx
	movw	(%rax,%rcx,2), %ax
	movw	%ax, -2(%rbp)
	movq	-16(%rbp), %rax
	addq	$51640, %rax            # imm = 0xC9B8
	movzwl	-2(%rbp), %ecx
	shlq	$4, %rcx
	addq	%rcx, %rax
	movl	(%rax), %eax
	addl	-32(%rbp), %eax
	movl	%eax, -32(%rbp)
	movq	-16(%rbp), %rax
	addq	$51640, %rax            # imm = 0xC9B8
	movzwl	-2(%rbp), %ecx
	shlq	$4, %rcx
	addq	%rcx, %rax
	movl	4(%rax), %eax
	addl	-28(%rbp), %eax
	movl	%eax, -28(%rbp)
	movq	-16(%rbp), %rax
	addq	$51640, %rax            # imm = 0xC9B8
	movzwl	-2(%rbp), %ecx
	shlq	$4, %rcx
	addq	%rcx, %rax
	movl	8(%rax), %eax
	addl	-24(%rbp), %eax
	movl	%eax, -24(%rbp)
	movq	-40(%rbp), %rax
	movl	-20(%rbp), %ecx
	addl	$13, %ecx
	movslq	%ecx, %rcx
	movw	(%rax,%rcx,2), %ax
	movw	%ax, -2(%rbp)
	movq	-16(%rbp), %rax
	addq	$51640, %rax            # imm = 0xC9B8
	movzwl	-2(%rbp), %ecx
	shlq	$4, %rcx
	addq	%rcx, %rax
	movl	(%rax), %eax
	addl	-32(%rbp), %eax
	movl	%eax, -32(%rbp)
	movq	-16(%rbp), %rax
	addq	$51640, %rax            # imm = 0xC9B8
	movzwl	-2(%rbp), %ecx
	shlq	$4, %rcx
	addq	%rcx, %rax
	movl	4(%rax), %eax
	addl	-28(%rbp), %eax
	movl	%eax, -28(%rbp)
	movq	-16(%rbp), %rax
	addq	$51640, %rax            # imm = 0xC9B8
	movzwl	-2(%rbp), %ecx
	shlq	$4, %rcx
	addq	%rcx, %rax
	movl	8(%rax), %eax
	addl	-24(%rbp), %eax
	movl	%eax, -24(%rbp)
	movq	-40(%rbp), %rax
	movl	-20(%rbp), %ecx
	addl	$14, %ecx
	movslq	%ecx, %rcx
	movw	(%rax,%rcx,2), %ax
	movw	%ax, -2(%rbp)
	movq	-16(%rbp), %rax
	addq	$51640, %rax            # imm = 0xC9B8
	movzwl	-2(%rbp), %ecx
	shlq	$4, %rcx
	addq	%rcx, %rax
	movl	(%rax), %eax
	addl	-32(%rbp), %eax
	movl	%eax, -32(%rbp)
	movq	-16(%rbp), %rax
	addq	$51640, %rax            # imm = 0xC9B8
	movzwl	-2(%rbp), %ecx
	shlq	$4, %rcx
	addq	%rcx, %rax
	movl	4(%rax), %eax
	addl	-28(%rbp), %eax
	movl	%eax, -28(%rbp)
	movq	-16(%rbp), %rax
	addq	$51640, %rax            # imm = 0xC9B8
	movzwl	-2(%rbp), %ecx
	shlq	$4, %rcx
	addq	%rcx, %rax
	movl	8(%rax), %eax
	addl	-24(%rbp), %eax
	movl	%eax, -24(%rbp)
	movq	-40(%rbp), %rax
	movl	-20(%rbp), %ecx
	addl	$15, %ecx
	movslq	%ecx, %rcx
	movw	(%rax,%rcx,2), %ax
	movw	%ax, -2(%rbp)
	movq	-16(%rbp), %rax
	addq	$51640, %rax            # imm = 0xC9B8
	movzwl	-2(%rbp), %ecx
	shlq	$4, %rcx
	addq	%rcx, %rax
	movl	(%rax), %eax
	addl	-32(%rbp), %eax
	movl	%eax, -32(%rbp)
	movq	-16(%rbp), %rax
	addq	$51640, %rax            # imm = 0xC9B8
	movzwl	-2(%rbp), %ecx
	shlq	$4, %rcx
	addq	%rcx, %rax
	movl	4(%rax), %eax
	addl	-28(%rbp), %eax
	movl	%eax, -28(%rbp)
	movq	-16(%rbp), %rax
	addq	$51640, %rax            # imm = 0xC9B8
	movzwl	-2(%rbp), %ecx
	shlq	$4, %rcx
	addq	%rcx, %rax
	movl	8(%rax), %eax
	addl	-24(%rbp), %eax
	movl	%eax, -24(%rbp)
	movq	-40(%rbp), %rax
	movl	-20(%rbp), %ecx
	addl	$16, %ecx
	movslq	%ecx, %rcx
	movw	(%rax,%rcx,2), %ax
	movw	%ax, -2(%rbp)
	movq	-16(%rbp), %rax
	addq	$51640, %rax            # imm = 0xC9B8
	movzwl	-2(%rbp), %ecx
	shlq	$4, %rcx
	addq	%rcx, %rax
	movl	(%rax), %eax
	addl	-32(%rbp), %eax
	movl	%eax, -32(%rbp)
	movq	-16(%rbp), %rax
	addq	$51640, %rax            # imm = 0xC9B8
	movzwl	-2(%rbp), %ecx
	shlq	$4, %rcx
	addq	%rcx, %rax
	movl	4(%rax), %eax
	addl	-28(%rbp), %eax
	movl	%eax, -28(%rbp)
	movq	-16(%rbp), %rax
	addq	$51640, %rax            # imm = 0xC9B8
	movzwl	-2(%rbp), %ecx
	shlq	$4, %rcx
	addq	%rcx, %rax
	movl	8(%rax), %eax
	addl	-24(%rbp), %eax
	movl	%eax, -24(%rbp)
	movq	-40(%rbp), %rax
	movl	-20(%rbp), %ecx
	addl	$17, %ecx
	movslq	%ecx, %rcx
	movw	(%rax,%rcx,2), %ax
	movw	%ax, -2(%rbp)
	movq	-16(%rbp), %rax
	addq	$51640, %rax            # imm = 0xC9B8
	movzwl	-2(%rbp), %ecx
	shlq	$4, %rcx
	addq	%rcx, %rax
	movl	(%rax), %eax
	addl	-32(%rbp), %eax
	movl	%eax, -32(%rbp)
	movq	-16(%rbp), %rax
	addq	$51640, %rax            # imm = 0xC9B8
	movzwl	-2(%rbp), %ecx
	shlq	$4, %rcx
	addq	%rcx, %rax
	movl	4(%rax), %eax
	addl	-28(%rbp), %eax
	movl	%eax, -28(%rbp)
	movq	-16(%rbp), %rax
	addq	$51640, %rax            # imm = 0xC9B8
	movzwl	-2(%rbp), %ecx
	shlq	$4, %rcx
	addq	%rcx, %rax
	movl	8(%rax), %eax
	addl	-24(%rbp), %eax
	movl	%eax, -24(%rbp)
	movq	-40(%rbp), %rax
	movl	-20(%rbp), %ecx
	addl	$18, %ecx
	movslq	%ecx, %rcx
	movw	(%rax,%rcx,2), %ax
	movw	%ax, -2(%rbp)
	movq	-16(%rbp), %rax
	addq	$51640, %rax            # imm = 0xC9B8
	movzwl	-2(%rbp), %ecx
	shlq	$4, %rcx
	addq	%rcx, %rax
	movl	(%rax), %eax
	addl	-32(%rbp), %eax
	movl	%eax, -32(%rbp)
	movq	-16(%rbp), %rax
	addq	$51640, %rax            # imm = 0xC9B8
	movzwl	-2(%rbp), %ecx
	shlq	$4, %rcx
	addq	%rcx, %rax
	movl	4(%rax), %eax
	addl	-28(%rbp), %eax
	movl	%eax, -28(%rbp)
	movq	-16(%rbp), %rax
	addq	$51640, %rax            # imm = 0xC9B8
	movzwl	-2(%rbp), %ecx
	shlq	$4, %rcx
	addq	%rcx, %rax
	movl	8(%rax), %eax
	addl	-24(%rbp), %eax
	movl	%eax, -24(%rbp)
	movq	-40(%rbp), %rax
	movl	-20(%rbp), %ecx
	addl	$19, %ecx
	movslq	%ecx, %rcx
	movw	(%rax,%rcx,2), %ax
	movw	%ax, -2(%rbp)
	movq	-16(%rbp), %rax
	addq	$51640, %rax            # imm = 0xC9B8
	movzwl	-2(%rbp), %ecx
	shlq	$4, %rcx
	addq	%rcx, %rax
	movl	(%rax), %eax
	addl	-32(%rbp), %eax
	movl	%eax, -32(%rbp)
	movq	-16(%rbp), %rax
	addq	$51640, %rax            # imm = 0xC9B8
	movzwl	-2(%rbp), %ecx
	shlq	$4, %rcx
	addq	%rcx, %rax
	movl	4(%rax), %eax
	addl	-28(%rbp), %eax
	movl	%eax, -28(%rbp)
	movq	-16(%rbp), %rax
	addq	$51640, %rax            # imm = 0xC9B8
	movzwl	-2(%rbp), %ecx
	shlq	$4, %rcx
	addq	%rcx, %rax
	movl	8(%rax), %eax
	addl	-24(%rbp), %eax
	movl	%eax, -24(%rbp)
	movq	-40(%rbp), %rax
	movl	-20(%rbp), %ecx
	addl	$20, %ecx
	movslq	%ecx, %rcx
	movw	(%rax,%rcx,2), %ax
	movw	%ax, -2(%rbp)
	movq	-16(%rbp), %rax
	addq	$51640, %rax            # imm = 0xC9B8
	movzwl	-2(%rbp), %ecx
	shlq	$4, %rcx
	addq	%rcx, %rax
	movl	(%rax), %eax
	addl	-32(%rbp), %eax
	movl	%eax, -32(%rbp)
	movq	-16(%rbp), %rax
	addq	$51640, %rax            # imm = 0xC9B8
	movzwl	-2(%rbp), %ecx
	shlq	$4, %rcx
	addq	%rcx, %rax
	movl	4(%rax), %eax
	addl	-28(%rbp), %eax
	movl	%eax, -28(%rbp)
	movq	-16(%rbp), %rax
	addq	$51640, %rax            # imm = 0xC9B8
	movzwl	-2(%rbp), %ecx
	shlq	$4, %rcx
	addq	%rcx, %rax
	movl	8(%rax), %eax
	addl	-24(%rbp), %eax
	movl	%eax, -24(%rbp)
	movq	-40(%rbp), %rax
	movl	-20(%rbp), %ecx
	addl	$21, %ecx
	movslq	%ecx, %rcx
	movw	(%rax,%rcx,2), %ax
	movw	%ax, -2(%rbp)
	movq	-16(%rbp), %rax
	addq	$51640, %rax            # imm = 0xC9B8
	movzwl	-2(%rbp), %ecx
	shlq	$4, %rcx
	addq	%rcx, %rax
	movl	(%rax), %eax
	addl	-32(%rbp), %eax
	movl	%eax, -32(%rbp)
	movq	-16(%rbp), %rax
	addq	$51640, %rax            # imm = 0xC9B8
	movzwl	-2(%rbp), %ecx
	shlq	$4, %rcx
	addq	%rcx, %rax
	movl	4(%rax), %eax
	addl	-28(%rbp), %eax
	movl	%eax, -28(%rbp)
	movq	-16(%rbp), %rax
	addq	$51640, %rax            # imm = 0xC9B8
	movzwl	-2(%rbp), %ecx
	shlq	$4, %rcx
	addq	%rcx, %rax
	movl	8(%rax), %eax
	addl	-24(%rbp), %eax
	movl	%eax, -24(%rbp)
	movq	-40(%rbp), %rax
	movl	-20(%rbp), %ecx
	addl	$22, %ecx
	movslq	%ecx, %rcx
	movw	(%rax,%rcx,2), %ax
	movw	%ax, -2(%rbp)
	movq	-16(%rbp), %rax
	addq	$51640, %rax            # imm = 0xC9B8
	movzwl	-2(%rbp), %ecx
	shlq	$4, %rcx
	addq	%rcx, %rax
	movl	(%rax), %eax
	addl	-32(%rbp), %eax
	movl	%eax, -32(%rbp)
	movq	-16(%rbp), %rax
	addq	$51640, %rax            # imm = 0xC9B8
	movzwl	-2(%rbp), %ecx
	shlq	$4, %rcx
	addq	%rcx, %rax
	movl	4(%rax), %eax
	addl	-28(%rbp), %eax
	movl	%eax, -28(%rbp)
	movq	-16(%rbp), %rax
	addq	$51640, %rax            # imm = 0xC9B8
	movzwl	-2(%rbp), %ecx
	shlq	$4, %rcx
	addq	%rcx, %rax
	movl	8(%rax), %eax
	addl	-24(%rbp), %eax
	movl	%eax, -24(%rbp)
	movq	-40(%rbp), %rax
	movl	-20(%rbp), %ecx
	addl	$23, %ecx
	movslq	%ecx, %rcx
	movw	(%rax,%rcx,2), %ax
	movw	%ax, -2(%rbp)
	movq	-16(%rbp), %rax
	addq	$51640, %rax            # imm = 0xC9B8
	movzwl	-2(%rbp), %ecx
	shlq	$4, %rcx
	addq	%rcx, %rax
	movl	(%rax), %eax
	addl	-32(%rbp), %eax
	movl	%eax, -32(%rbp)
	movq	-16(%rbp), %rax
	addq	$51640, %rax            # imm = 0xC9B8
	movzwl	-2(%rbp), %ecx
	shlq	$4, %rcx
	addq	%rcx, %rax
	movl	4(%rax), %eax
	addl	-28(%rbp), %eax
	movl	%eax, -28(%rbp)
	movq	-16(%rbp), %rax
	addq	$51640, %rax            # imm = 0xC9B8
	movzwl	-2(%rbp), %ecx
	shlq	$4, %rcx
	addq	%rcx, %rax
	movl	8(%rax), %eax
	addl	-24(%rbp), %eax
	movl	%eax, -24(%rbp)
	movq	-40(%rbp), %rax
	movl	-20(%rbp), %ecx
	addl	$24, %ecx
	movslq	%ecx, %rcx
	movw	(%rax,%rcx,2), %ax
	movw	%ax, -2(%rbp)
	movq	-16(%rbp), %rax
	addq	$51640, %rax            # imm = 0xC9B8
	movzwl	-2(%rbp), %ecx
	shlq	$4, %rcx
	addq	%rcx, %rax
	movl	(%rax), %eax
	addl	-32(%rbp), %eax
	movl	%eax, -32(%rbp)
	movq	-16(%rbp), %rax
	addq	$51640, %rax            # imm = 0xC9B8
	movzwl	-2(%rbp), %ecx
	shlq	$4, %rcx
	addq	%rcx, %rax
	movl	4(%rax), %eax
	addl	-28(%rbp), %eax
	movl	%eax, -28(%rbp)
	movq	-16(%rbp), %rax
	addq	$51640, %rax            # imm = 0xC9B8
	movzwl	-2(%rbp), %ecx
	shlq	$4, %rcx
	addq	%rcx, %rax
	movl	8(%rax), %eax
	addl	-24(%rbp), %eax
	movl	%eax, -24(%rbp)
	movq	-40(%rbp), %rax
	movl	-20(%rbp), %ecx
	addl	$25, %ecx
	movslq	%ecx, %rcx
	movw	(%rax,%rcx,2), %ax
	movw	%ax, -2(%rbp)
	movq	-16(%rbp), %rax
	addq	$51640, %rax            # imm = 0xC9B8
	movzwl	-2(%rbp), %ecx
	shlq	$4, %rcx
	addq	%rcx, %rax
	movl	(%rax), %eax
	addl	-32(%rbp), %eax
	movl	%eax, -32(%rbp)
	movq	-16(%rbp), %rax
	addq	$51640, %rax            # imm = 0xC9B8
	movzwl	-2(%rbp), %ecx
	shlq	$4, %rcx
	addq	%rcx, %rax
	movl	4(%rax), %eax
	addl	-28(%rbp), %eax
	movl	%eax, -28(%rbp)
	movq	-16(%rbp), %rax
	addq	$51640, %rax            # imm = 0xC9B8
	movzwl	-2(%rbp), %ecx
	shlq	$4, %rcx
	addq	%rcx, %rax
	movl	8(%rax), %eax
	addl	-24(%rbp), %eax
	movl	%eax, -24(%rbp)
	movq	-40(%rbp), %rax
	movl	-20(%rbp), %ecx
	addl	$26, %ecx
	movslq	%ecx, %rcx
	movw	(%rax,%rcx,2), %ax
	movw	%ax, -2(%rbp)
	movq	-16(%rbp), %rax
	addq	$51640, %rax            # imm = 0xC9B8
	movzwl	-2(%rbp), %ecx
	shlq	$4, %rcx
	addq	%rcx, %rax
	movl	(%rax), %eax
	addl	-32(%rbp), %eax
	movl	%eax, -32(%rbp)
	movq	-16(%rbp), %rax
	addq	$51640, %rax            # imm = 0xC9B8
	movzwl	-2(%rbp), %ecx
	shlq	$4, %rcx
	addq	%rcx, %rax
	movl	4(%rax), %eax
	addl	-28(%rbp), %eax
	movl	%eax, -28(%rbp)
	movq	-16(%rbp), %rax
	addq	$51640, %rax            # imm = 0xC9B8
	movzwl	-2(%rbp), %ecx
	shlq	$4, %rcx
	addq	%rcx, %rax
	movl	8(%rax), %eax
	addl	-24(%rbp), %eax
	movl	%eax, -24(%rbp)
	movq	-40(%rbp), %rax
	movl	-20(%rbp), %ecx
	addl	$27, %ecx
	movslq	%ecx, %rcx
	movw	(%rax,%rcx,2), %ax
	movw	%ax, -2(%rbp)
	movq	-16(%rbp), %rax
	addq	$51640, %rax            # imm = 0xC9B8
	movzwl	-2(%rbp), %ecx
	shlq	$4, %rcx
	addq	%rcx, %rax
	movl	(%rax), %eax
	addl	-32(%rbp), %eax
	movl	%eax, -32(%rbp)
	movq	-16(%rbp), %rax
	addq	$51640, %rax            # imm = 0xC9B8
	movzwl	-2(%rbp), %ecx
	shlq	$4, %rcx
	addq	%rcx, %rax
	movl	4(%rax), %eax
	addl	-28(%rbp), %eax
	movl	%eax, -28(%rbp)
	movq	-16(%rbp), %rax
	addq	$51640, %rax            # imm = 0xC9B8
	movzwl	-2(%rbp), %ecx
	shlq	$4, %rcx
	addq	%rcx, %rax
	movl	8(%rax), %eax
	addl	-24(%rbp), %eax
	movl	%eax, -24(%rbp)
	movq	-40(%rbp), %rax
	movl	-20(%rbp), %ecx
	addl	$28, %ecx
	movslq	%ecx, %rcx
	movw	(%rax,%rcx,2), %ax
	movw	%ax, -2(%rbp)
	movq	-16(%rbp), %rax
	addq	$51640, %rax            # imm = 0xC9B8
	movzwl	-2(%rbp), %ecx
	shlq	$4, %rcx
	addq	%rcx, %rax
	movl	(%rax), %eax
	addl	-32(%rbp), %eax
	movl	%eax, -32(%rbp)
	movq	-16(%rbp), %rax
	addq	$51640, %rax            # imm = 0xC9B8
	movzwl	-2(%rbp), %ecx
	shlq	$4, %rcx
	addq	%rcx, %rax
	movl	4(%rax), %eax
	addl	-28(%rbp), %eax
	movl	%eax, -28(%rbp)
	movq	-16(%rbp), %rax
	addq	$51640, %rax            # imm = 0xC9B8
	movzwl	-2(%rbp), %ecx
	shlq	$4, %rcx
	addq	%rcx, %rax
	movl	8(%rax), %eax
	addl	-24(%rbp), %eax
	movl	%eax, -24(%rbp)
	movq	-40(%rbp), %rax
	movl	-20(%rbp), %ecx
	addl	$29, %ecx
	movslq	%ecx, %rcx
	movw	(%rax,%rcx,2), %ax
	movw	%ax, -2(%rbp)
	movq	-16(%rbp), %rax
	addq	$51640, %rax            # imm = 0xC9B8
	movzwl	-2(%rbp), %ecx
	shlq	$4, %rcx
	addq	%rcx, %rax
	movl	(%rax), %eax
	addl	-32(%rbp), %eax
	movl	%eax, -32(%rbp)
	movq	-16(%rbp), %rax
	addq	$51640, %rax            # imm = 0xC9B8
	movzwl	-2(%rbp), %ecx
	shlq	$4, %rcx
	addq	%rcx, %rax
	movl	4(%rax), %eax
	addl	-28(%rbp), %eax
	movl	%eax, -28(%rbp)
	movq	-16(%rbp), %rax
	addq	$51640, %rax            # imm = 0xC9B8
	movzwl	-2(%rbp), %ecx
	shlq	$4, %rcx
	addq	%rcx, %rax
	movl	8(%rax), %eax
	addl	-24(%rbp), %eax
	movl	%eax, -24(%rbp)
	movq	-40(%rbp), %rax
	movl	-20(%rbp), %ecx
	addl	$30, %ecx
	movslq	%ecx, %rcx
	movw	(%rax,%rcx,2), %ax
	movw	%ax, -2(%rbp)
	movq	-16(%rbp), %rax
	addq	$51640, %rax            # imm = 0xC9B8
	movzwl	-2(%rbp), %ecx
	shlq	$4, %rcx
	addq	%rcx, %rax
	movl	(%rax), %eax
	addl	-32(%rbp), %eax
	movl	%eax, -32(%rbp)
	movq	-16(%rbp), %rax
	addq	$51640, %rax            # imm = 0xC9B8
	movzwl	-2(%rbp), %ecx
	shlq	$4, %rcx
	addq	%rcx, %rax
	movl	4(%rax), %eax
	addl	-28(%rbp), %eax
	movl	%eax, -28(%rbp)
	movq	-16(%rbp), %rax
	addq	$51640, %rax            # imm = 0xC9B8
	movzwl	-2(%rbp), %ecx
	shlq	$4, %rcx
	addq	%rcx, %rax
	movl	8(%rax), %eax
	addl	-24(%rbp), %eax
	movl	%eax, -24(%rbp)
	movq	-40(%rbp), %rax
	movl	-20(%rbp), %ecx
	addl	$31, %ecx
	movslq	%ecx, %rcx
	movw	(%rax,%rcx,2), %ax
	movw	%ax, -2(%rbp)
	movq	-16(%rbp), %rax
	addq	$51640, %rax            # imm = 0xC9B8
	movzwl	-2(%rbp), %ecx
	shlq	$4, %rcx
	addq	%rcx, %rax
	movl	(%rax), %eax
	addl	-32(%rbp), %eax
	movl	%eax, -32(%rbp)
	movq	-16(%rbp), %rax
	addq	$51640, %rax            # imm = 0xC9B8
	movzwl	-2(%rbp), %ecx
	shlq	$4, %rcx
	addq	%rcx, %rax
	movl	4(%rax), %eax
	addl	-28(%rbp), %eax
	movl	%eax, -28(%rbp)
	movq	-16(%rbp), %rax
	addq	$51640, %rax            # imm = 0xC9B8
	movzwl	-2(%rbp), %ecx
	shlq	$4, %rcx
	addq	%rcx, %rax
	movl	8(%rax), %eax
	addl	-24(%rbp), %eax
	movl	%eax, -24(%rbp)
	movq	-40(%rbp), %rax
	movl	-20(%rbp), %ecx
	addl	$32, %ecx
	movslq	%ecx, %rcx
	movw	(%rax,%rcx,2), %ax
	movw	%ax, -2(%rbp)
	movq	-16(%rbp), %rax
	addq	$51640, %rax            # imm = 0xC9B8
	movzwl	-2(%rbp), %ecx
	shlq	$4, %rcx
	addq	%rcx, %rax
	movl	(%rax), %eax
	addl	-32(%rbp), %eax
	movl	%eax, -32(%rbp)
	movq	-16(%rbp), %rax
	addq	$51640, %rax            # imm = 0xC9B8
	movzwl	-2(%rbp), %ecx
	shlq	$4, %rcx
	addq	%rcx, %rax
	movl	4(%rax), %eax
	addl	-28(%rbp), %eax
	movl	%eax, -28(%rbp)
	movq	-16(%rbp), %rax
	addq	$51640, %rax            # imm = 0xC9B8
	movzwl	-2(%rbp), %ecx
	shlq	$4, %rcx
	addq	%rcx, %rax
	movl	8(%rax), %eax
	addl	-24(%rbp), %eax
	movl	%eax, -24(%rbp)
	movq	-40(%rbp), %rax
	movl	-20(%rbp), %ecx
	addl	$33, %ecx
	movslq	%ecx, %rcx
	movw	(%rax,%rcx,2), %ax
	movw	%ax, -2(%rbp)
	movq	-16(%rbp), %rax
	addq	$51640, %rax            # imm = 0xC9B8
	movzwl	-2(%rbp), %ecx
	shlq	$4, %rcx
	addq	%rcx, %rax
	movl	(%rax), %eax
	addl	-32(%rbp), %eax
	movl	%eax, -32(%rbp)
	movq	-16(%rbp), %rax
	addq	$51640, %rax            # imm = 0xC9B8
	movzwl	-2(%rbp), %ecx
	shlq	$4, %rcx
	addq	%rcx, %rax
	movl	4(%rax), %eax
	addl	-28(%rbp), %eax
	movl	%eax, -28(%rbp)
	movq	-16(%rbp), %rax
	addq	$51640, %rax            # imm = 0xC9B8
	movzwl	-2(%rbp), %ecx
	shlq	$4, %rcx
	addq	%rcx, %rax
	movl	8(%rax), %eax
	addl	-24(%rbp), %eax
	movl	%eax, -24(%rbp)
	movq	-40(%rbp), %rax
	movl	-20(%rbp), %ecx
	addl	$34, %ecx
	movslq	%ecx, %rcx
	movw	(%rax,%rcx,2), %ax
	movw	%ax, -2(%rbp)
	movq	-16(%rbp), %rax
	addq	$51640, %rax            # imm = 0xC9B8
	movzwl	-2(%rbp), %ecx
	shlq	$4, %rcx
	addq	%rcx, %rax
	movl	(%rax), %eax
	addl	-32(%rbp), %eax
	movl	%eax, -32(%rbp)
	movq	-16(%rbp), %rax
	addq	$51640, %rax            # imm = 0xC9B8
	movzwl	-2(%rbp), %ecx
	shlq	$4, %rcx
	addq	%rcx, %rax
	movl	4(%rax), %eax
	addl	-28(%rbp), %eax
	movl	%eax, -28(%rbp)
	movq	-16(%rbp), %rax
	addq	$51640, %rax            # imm = 0xC9B8
	movzwl	-2(%rbp), %ecx
	shlq	$4, %rcx
	addq	%rcx, %rax
	movl	8(%rax), %eax
	addl	-24(%rbp), %eax
	movl	%eax, -24(%rbp)
	movq	-40(%rbp), %rax
	movl	-20(%rbp), %ecx
	addl	$35, %ecx
	movslq	%ecx, %rcx
	movw	(%rax,%rcx,2), %ax
	movw	%ax, -2(%rbp)
	movq	-16(%rbp), %rax
	addq	$51640, %rax            # imm = 0xC9B8
	movzwl	-2(%rbp), %ecx
	shlq	$4, %rcx
	addq	%rcx, %rax
	movl	(%rax), %eax
	addl	-32(%rbp), %eax
	movl	%eax, -32(%rbp)
	movq	-16(%rbp), %rax
	addq	$51640, %rax            # imm = 0xC9B8
	movzwl	-2(%rbp), %ecx
	shlq	$4, %rcx
	addq	%rcx, %rax
	movl	4(%rax), %eax
	addl	-28(%rbp), %eax
	movl	%eax, -28(%rbp)
	movq	-16(%rbp), %rax
	addq	$51640, %rax            # imm = 0xC9B8
	movzwl	-2(%rbp), %ecx
	shlq	$4, %rcx
	addq	%rcx, %rax
	movl	8(%rax), %eax
	addl	-24(%rbp), %eax
	movl	%eax, -24(%rbp)
	movq	-40(%rbp), %rax
	movl	-20(%rbp), %ecx
	addl	$36, %ecx
	movslq	%ecx, %rcx
	movw	(%rax,%rcx,2), %ax
	movw	%ax, -2(%rbp)
	movq	-16(%rbp), %rax
	addq	$51640, %rax            # imm = 0xC9B8
	movzwl	-2(%rbp), %ecx
	shlq	$4, %rcx
	addq	%rcx, %rax
	movl	(%rax), %eax
	addl	-32(%rbp), %eax
	movl	%eax, -32(%rbp)
	movq	-16(%rbp), %rax
	addq	$51640, %rax            # imm = 0xC9B8
	movzwl	-2(%rbp), %ecx
	shlq	$4, %rcx
	addq	%rcx, %rax
	movl	4(%rax), %eax
	addl	-28(%rbp), %eax
	movl	%eax, -28(%rbp)
	movq	-16(%rbp), %rax
	addq	$51640, %rax            # imm = 0xC9B8
	movzwl	-2(%rbp), %ecx
	shlq	$4, %rcx
	addq	%rcx, %rax
	movl	8(%rax), %eax
	addl	-24(%rbp), %eax
	movl	%eax, -24(%rbp)
	movq	-40(%rbp), %rax
	movl	-20(%rbp), %ecx
	addl	$37, %ecx
	movslq	%ecx, %rcx
	movw	(%rax,%rcx,2), %ax
	movw	%ax, -2(%rbp)
	movq	-16(%rbp), %rax
	addq	$51640, %rax            # imm = 0xC9B8
	movzwl	-2(%rbp), %ecx
	shlq	$4, %rcx
	addq	%rcx, %rax
	movl	(%rax), %eax
	addl	-32(%rbp), %eax
	movl	%eax, -32(%rbp)
	movq	-16(%rbp), %rax
	addq	$51640, %rax            # imm = 0xC9B8
	movzwl	-2(%rbp), %ecx
	shlq	$4, %rcx
	addq	%rcx, %rax
	movl	4(%rax), %eax
	addl	-28(%rbp), %eax
	movl	%eax, -28(%rbp)
	movq	-16(%rbp), %rax
	addq	$51640, %rax            # imm = 0xC9B8
	movzwl	-2(%rbp), %ecx
	shlq	$4, %rcx
	addq	%rcx, %rax
	movl	8(%rax), %eax
	addl	-24(%rbp), %eax
	movl	%eax, -24(%rbp)
	movq	-40(%rbp), %rax
	movl	-20(%rbp), %ecx
	addl	$38, %ecx
	movslq	%ecx, %rcx
	movw	(%rax,%rcx,2), %ax
	movw	%ax, -2(%rbp)
	movq	-16(%rbp), %rax
	addq	$51640, %rax            # imm = 0xC9B8
	movzwl	-2(%rbp), %ecx
	shlq	$4, %rcx
	addq	%rcx, %rax
	movl	(%rax), %eax
	addl	-32(%rbp), %eax
	movl	%eax, -32(%rbp)
	movq	-16(%rbp), %rax
	addq	$51640, %rax            # imm = 0xC9B8
	movzwl	-2(%rbp), %ecx
	shlq	$4, %rcx
	addq	%rcx, %rax
	movl	4(%rax), %eax
	addl	-28(%rbp), %eax
	movl	%eax, -28(%rbp)
	movq	-16(%rbp), %rax
	addq	$51640, %rax            # imm = 0xC9B8
	movzwl	-2(%rbp), %ecx
	shlq	$4, %rcx
	addq	%rcx, %rax
	movl	8(%rax), %eax
	addl	-24(%rbp), %eax
	movl	%eax, -24(%rbp)
	movq	-40(%rbp), %rax
	movl	-20(%rbp), %ecx
	addl	$39, %ecx
	movslq	%ecx, %rcx
	movw	(%rax,%rcx,2), %ax
	movw	%ax, -2(%rbp)
	movq	-16(%rbp), %rax
	addq	$51640, %rax            # imm = 0xC9B8
	movzwl	-2(%rbp), %ecx
	shlq	$4, %rcx
	addq	%rcx, %rax
	movl	(%rax), %eax
	addl	-32(%rbp), %eax
	movl	%eax, -32(%rbp)
	movq	-16(%rbp), %rax
	addq	$51640, %rax            # imm = 0xC9B8
	movzwl	-2(%rbp), %ecx
	shlq	$4, %rcx
	addq	%rcx, %rax
	movl	4(%rax), %eax
	addl	-28(%rbp), %eax
	movl	%eax, -28(%rbp)
	movq	-16(%rbp), %rax
	addq	$51640, %rax            # imm = 0xC9B8
	movzwl	-2(%rbp), %ecx
	shlq	$4, %rcx
	addq	%rcx, %rax
	movl	8(%rax), %eax
	addl	-24(%rbp), %eax
	movl	%eax, -24(%rbp)
	movq	-40(%rbp), %rax
	movl	-20(%rbp), %ecx
	addl	$40, %ecx
	movslq	%ecx, %rcx
	movw	(%rax,%rcx,2), %ax
	movw	%ax, -2(%rbp)
	movq	-16(%rbp), %rax
	addq	$51640, %rax            # imm = 0xC9B8
	movzwl	-2(%rbp), %ecx
	shlq	$4, %rcx
	addq	%rcx, %rax
	movl	(%rax), %eax
	addl	-32(%rbp), %eax
	movl	%eax, -32(%rbp)
	movq	-16(%rbp), %rax
	addq	$51640, %rax            # imm = 0xC9B8
	movzwl	-2(%rbp), %ecx
	shlq	$4, %rcx
	addq	%rcx, %rax
	movl	4(%rax), %eax
	addl	-28(%rbp), %eax
	movl	%eax, -28(%rbp)
	movq	-16(%rbp), %rax
	addq	$51640, %rax            # imm = 0xC9B8
	movzwl	-2(%rbp), %ecx
	shlq	$4, %rcx
	addq	%rcx, %rax
	movl	8(%rax), %eax
	addl	-24(%rbp), %eax
	movl	%eax, -24(%rbp)
	movq	-40(%rbp), %rax
	movl	-20(%rbp), %ecx
	addl	$41, %ecx
	movslq	%ecx, %rcx
	movw	(%rax,%rcx,2), %ax
	movw	%ax, -2(%rbp)
	movq	-16(%rbp), %rax
	addq	$51640, %rax            # imm = 0xC9B8
	movzwl	-2(%rbp), %ecx
	shlq	$4, %rcx
	addq	%rcx, %rax
	movl	(%rax), %eax
	addl	-32(%rbp), %eax
	movl	%eax, -32(%rbp)
	movq	-16(%rbp), %rax
	addq	$51640, %rax            # imm = 0xC9B8
	movzwl	-2(%rbp), %ecx
	shlq	$4, %rcx
	addq	%rcx, %rax
	movl	4(%rax), %eax
	addl	-28(%rbp), %eax
	movl	%eax, -28(%rbp)
	movq	-16(%rbp), %rax
	addq	$51640, %rax            # imm = 0xC9B8
	movzwl	-2(%rbp), %ecx
	shlq	$4, %rcx
	addq	%rcx, %rax
	movl	8(%rax), %eax
	addl	-24(%rbp), %eax
	movl	%eax, -24(%rbp)
	movq	-40(%rbp), %rax
	movl	-20(%rbp), %ecx
	addl	$42, %ecx
	movslq	%ecx, %rcx
	movw	(%rax,%rcx,2), %ax
	movw	%ax, -2(%rbp)
	movq	-16(%rbp), %rax
	addq	$51640, %rax            # imm = 0xC9B8
	movzwl	-2(%rbp), %ecx
	shlq	$4, %rcx
	addq	%rcx, %rax
	movl	(%rax), %eax
	addl	-32(%rbp), %eax
	movl	%eax, -32(%rbp)
	movq	-16(%rbp), %rax
	addq	$51640, %rax            # imm = 0xC9B8
	movzwl	-2(%rbp), %ecx
	shlq	$4, %rcx
	addq	%rcx, %rax
	movl	4(%rax), %eax
	addl	-28(%rbp), %eax
	movl	%eax, -28(%rbp)
	movq	-16(%rbp), %rax
	addq	$51640, %rax            # imm = 0xC9B8
	movzwl	-2(%rbp), %ecx
	shlq	$4, %rcx
	addq	%rcx, %rax
	movl	8(%rax), %eax
	addl	-24(%rbp), %eax
	movl	%eax, -24(%rbp)
	movq	-40(%rbp), %rax
	movl	-20(%rbp), %ecx
	addl	$43, %ecx
	movslq	%ecx, %rcx
	movw	(%rax,%rcx,2), %ax
	movw	%ax, -2(%rbp)
	movq	-16(%rbp), %rax
	addq	$51640, %rax            # imm = 0xC9B8
	movzwl	-2(%rbp), %ecx
	shlq	$4, %rcx
	addq	%rcx, %rax
	movl	(%rax), %eax
	addl	-32(%rbp), %eax
	movl	%eax, -32(%rbp)
	movq	-16(%rbp), %rax
	addq	$51640, %rax            # imm = 0xC9B8
	movzwl	-2(%rbp), %ecx
	shlq	$4, %rcx
	addq	%rcx, %rax
	movl	4(%rax), %eax
	addl	-28(%rbp), %eax
	movl	%eax, -28(%rbp)
	movq	-16(%rbp), %rax
	addq	$51640, %rax            # imm = 0xC9B8
	movzwl	-2(%rbp), %ecx
	shlq	$4, %rcx
	addq	%rcx, %rax
	movl	8(%rax), %eax
	addl	-24(%rbp), %eax
	movl	%eax, -24(%rbp)
	movq	-40(%rbp), %rax
	movl	-20(%rbp), %ecx
	addl	$44, %ecx
	movslq	%ecx, %rcx
	movw	(%rax,%rcx,2), %ax
	movw	%ax, -2(%rbp)
	movq	-16(%rbp), %rax
	addq	$51640, %rax            # imm = 0xC9B8
	movzwl	-2(%rbp), %ecx
	shlq	$4, %rcx
	addq	%rcx, %rax
	movl	(%rax), %eax
	addl	-32(%rbp), %eax
	movl	%eax, -32(%rbp)
	movq	-16(%rbp), %rax
	addq	$51640, %rax            # imm = 0xC9B8
	movzwl	-2(%rbp), %ecx
	shlq	$4, %rcx
	addq	%rcx, %rax
	movl	4(%rax), %eax
	addl	-28(%rbp), %eax
	movl	%eax, -28(%rbp)
	movq	-16(%rbp), %rax
	addq	$51640, %rax            # imm = 0xC9B8
	movzwl	-2(%rbp), %ecx
	shlq	$4, %rcx
	addq	%rcx, %rax
	movl	8(%rax), %eax
	addl	-24(%rbp), %eax
	movl	%eax, -24(%rbp)
	movq	-40(%rbp), %rax
	movl	-20(%rbp), %ecx
	addl	$45, %ecx
	movslq	%ecx, %rcx
	movw	(%rax,%rcx,2), %ax
	movw	%ax, -2(%rbp)
	movq	-16(%rbp), %rax
	addq	$51640, %rax            # imm = 0xC9B8
	movzwl	-2(%rbp), %ecx
	shlq	$4, %rcx
	addq	%rcx, %rax
	movl	(%rax), %eax
	addl	-32(%rbp), %eax
	movl	%eax, -32(%rbp)
	movq	-16(%rbp), %rax
	addq	$51640, %rax            # imm = 0xC9B8
	movzwl	-2(%rbp), %ecx
	shlq	$4, %rcx
	addq	%rcx, %rax
	movl	4(%rax), %eax
	addl	-28(%rbp), %eax
	movl	%eax, -28(%rbp)
	movq	-16(%rbp), %rax
	addq	$51640, %rax            # imm = 0xC9B8
	movzwl	-2(%rbp), %ecx
	shlq	$4, %rcx
	addq	%rcx, %rax
	movl	8(%rax), %eax
	addl	-24(%rbp), %eax
	movl	%eax, -24(%rbp)
	movq	-40(%rbp), %rax
	movl	-20(%rbp), %ecx
	addl	$46, %ecx
	movslq	%ecx, %rcx
	movw	(%rax,%rcx,2), %ax
	movw	%ax, -2(%rbp)
	movq	-16(%rbp), %rax
	addq	$51640, %rax            # imm = 0xC9B8
	movzwl	-2(%rbp), %ecx
	shlq	$4, %rcx
	addq	%rcx, %rax
	movl	(%rax), %eax
	addl	-32(%rbp), %eax
	movl	%eax, -32(%rbp)
	movq	-16(%rbp), %rax
	addq	$51640, %rax            # imm = 0xC9B8
	movzwl	-2(%rbp), %ecx
	shlq	$4, %rcx
	addq	%rcx, %rax
	movl	4(%rax), %eax
	addl	-28(%rbp), %eax
	movl	%eax, -28(%rbp)
	movq	-16(%rbp), %rax
	addq	$51640, %rax            # imm = 0xC9B8
	movzwl	-2(%rbp), %ecx
	shlq	$4, %rcx
	addq	%rcx, %rax
	movl	8(%rax), %eax
	addl	-24(%rbp), %eax
	movl	%eax, -24(%rbp)
	movq	-40(%rbp), %rax
	movl	-20(%rbp), %ecx
	addl	$47, %ecx
	movslq	%ecx, %rcx
	movw	(%rax,%rcx,2), %ax
	movw	%ax, -2(%rbp)
	movq	-16(%rbp), %rax
	addq	$51640, %rax            # imm = 0xC9B8
	movzwl	-2(%rbp), %ecx
	shlq	$4, %rcx
	addq	%rcx, %rax
	movl	(%rax), %eax
	addl	-32(%rbp), %eax
	movl	%eax, -32(%rbp)
	movq	-16(%rbp), %rax
	addq	$51640, %rax            # imm = 0xC9B8
	movzwl	-2(%rbp), %ecx
	shlq	$4, %rcx
	addq	%rcx, %rax
	movl	4(%rax), %eax
	addl	-28(%rbp), %eax
	movl	%eax, -28(%rbp)
	movq	-16(%rbp), %rax
	addq	$51640, %rax            # imm = 0xC9B8
	movzwl	-2(%rbp), %ecx
	shlq	$4, %rcx
	addq	%rcx, %rax
	movl	8(%rax), %eax
	addl	-24(%rbp), %eax
	movl	%eax, -24(%rbp)
	movq	-40(%rbp), %rax
	movl	-20(%rbp), %ecx
	addl	$48, %ecx
	movslq	%ecx, %rcx
	movw	(%rax,%rcx,2), %ax
	movw	%ax, -2(%rbp)
	movq	-16(%rbp), %rax
	addq	$51640, %rax            # imm = 0xC9B8
	movzwl	-2(%rbp), %ecx
	shlq	$4, %rcx
	addq	%rcx, %rax
	movl	(%rax), %eax
	addl	-32(%rbp), %eax
	movl	%eax, -32(%rbp)
	movq	-16(%rbp), %rax
	addq	$51640, %rax            # imm = 0xC9B8
	movzwl	-2(%rbp), %ecx
	shlq	$4, %rcx
	addq	%rcx, %rax
	movl	4(%rax), %eax
	addl	-28(%rbp), %eax
	movl	%eax, -28(%rbp)
	movq	-16(%rbp), %rax
	addq	$51640, %rax            # imm = 0xC9B8
	movzwl	-2(%rbp), %ecx
	shlq	$4, %rcx
	addq	%rcx, %rax
	movl	8(%rax), %eax
	addl	-24(%rbp), %eax
	movl	%eax, -24(%rbp)
	movq	-40(%rbp), %rax
	movl	-20(%rbp), %ecx
	addl	$49, %ecx
	movslq	%ecx, %rcx
	movw	(%rax,%rcx,2), %ax
	movw	%ax, -2(%rbp)
	movq	-16(%rbp), %rax
	addq	$51640, %rax            # imm = 0xC9B8
	movzwl	-2(%rbp), %ecx
	shlq	$4, %rcx
	addq	%rcx, %rax
	movl	(%rax), %eax
	addl	-32(%rbp), %eax
	movl	%eax, -32(%rbp)
	movq	-16(%rbp), %rax
	addq	$51640, %rax            # imm = 0xC9B8
	movzwl	-2(%rbp), %ecx
	shlq	$4, %rcx
	addq	%rcx, %rax
	movl	4(%rax), %eax
	addl	-28(%rbp), %eax
	movl	%eax, -28(%rbp)
	movq	-16(%rbp), %rax
	addq	$51640, %rax            # imm = 0xC9B8
	movzwl	-2(%rbp), %ecx
	shlq	$4, %rcx
	addq	%rcx, %rax
	movl	8(%rax), %eax
	addl	-24(%rbp), %eax
	movl	%eax, -24(%rbp)
	movl	-32(%rbp), %eax
	andl	$65535, %eax            # imm = 0xFFFF
	movw	%ax, -162(%rbp)
	movl	-32(%rbp), %eax
	shrl	$16, %eax
	movw	%ax, -160(%rbp)
	movl	-28(%rbp), %eax
	andl	$65535, %eax            # imm = 0xFFFF
	movw	%ax, -158(%rbp)
	movl	-28(%rbp), %eax
	shrl	$16, %eax
	movw	%ax, -156(%rbp)
	movl	-24(%rbp), %eax
	andl	$65535, %eax            # imm = 0xFFFF
	movw	%ax, -154(%rbp)
	movl	-24(%rbp), %eax
	shrl	$16, %eax
	movw	%ax, -152(%rbp)
	jmp	.LBB18_88
.LBB18_79:                              # %if.else1136
                                        #   in Loop: Header=BB18_68 Depth=2
	movl	-20(%rbp), %eax
	movl	%eax, -44(%rbp)
.LBB18_80:                              # %for.cond1137
                                        #   Parent Loop BB18_48 Depth=1
                                        #     Parent Loop BB18_68 Depth=2
                                        # =>    This Loop Header: Depth=3
                                        #         Child Loop BB18_82 Depth 4
	movl	-44(%rbp), %eax
	cmpl	-60(%rbp), %eax
	jg	.LBB18_87
# %bb.81:                               # %for.body1140
                                        #   in Loop: Header=BB18_80 Depth=3
	movq	-40(%rbp), %rax
	movslq	-44(%rbp), %rcx
	movw	(%rax,%rcx,2), %ax
	movw	%ax, -150(%rbp)
	movl	$0, -48(%rbp)
.LBB18_82:                              # %for.cond1144
                                        #   Parent Loop BB18_48 Depth=1
                                        #     Parent Loop BB18_68 Depth=2
                                        #       Parent Loop BB18_80 Depth=3
                                        # =>      This Inner Loop Header: Depth=4
	movl	-48(%rbp), %eax
	cmpl	-84(%rbp), %eax
	jge	.LBB18_85
# %bb.83:                               # %for.body1147
                                        #   in Loop: Header=BB18_82 Depth=4
	movq	-16(%rbp), %rax
	addq	$37708, %rax            # imm = 0x934C
	movslq	-48(%rbp), %rcx
	imulq	$258, %rcx, %rcx        # imm = 0x102
	addq	%rcx, %rax
	movzwl	-150(%rbp), %ecx
	movzbl	(%rax,%rcx), %eax
	movslq	-48(%rbp), %rcx
	movzwl	-162(%rbp,%rcx,2), %edx
	addl	%eax, %edx
	movw	%dx, -162(%rbp,%rcx,2)
# %bb.84:                               # %for.inc1159
                                        #   in Loop: Header=BB18_82 Depth=4
	movl	-48(%rbp), %eax
	addl	$1, %eax
	movl	%eax, -48(%rbp)
	jmp	.LBB18_82
.LBB18_85:                              # %for.end1161
                                        #   in Loop: Header=BB18_80 Depth=3
	jmp	.LBB18_86
.LBB18_86:                              # %for.inc1162
                                        #   in Loop: Header=BB18_80 Depth=3
	movl	-44(%rbp), %eax
	addl	$1, %eax
	movl	%eax, -44(%rbp)
	jmp	.LBB18_80
.LBB18_87:                              # %for.end1164
                                        #   in Loop: Header=BB18_68 Depth=2
	jmp	.LBB18_88
.LBB18_88:                              # %if.end1165
                                        #   in Loop: Header=BB18_68 Depth=2
	movl	$999999999, -148(%rbp)  # imm = 0x3B9AC9FF
	movl	$-1, -52(%rbp)
	movl	$0, -48(%rbp)
.LBB18_89:                              # %for.cond1166
                                        #   Parent Loop BB18_48 Depth=1
                                        #     Parent Loop BB18_68 Depth=2
                                        # =>    This Inner Loop Header: Depth=3
	movl	-48(%rbp), %eax
	cmpl	-84(%rbp), %eax
	jge	.LBB18_94
# %bb.90:                               # %for.body1169
                                        #   in Loop: Header=BB18_89 Depth=3
	movslq	-48(%rbp), %rax
	movzwl	-162(%rbp,%rax,2), %eax
	cmpl	-148(%rbp), %eax
	jge	.LBB18_92
# %bb.91:                               # %if.then1175
                                        #   in Loop: Header=BB18_89 Depth=3
	movslq	-48(%rbp), %rax
	movzwl	-162(%rbp,%rax,2), %eax
	movl	%eax, -148(%rbp)
	movl	-48(%rbp), %eax
	movl	%eax, -52(%rbp)
.LBB18_92:                              # %if.end1179
                                        #   in Loop: Header=BB18_89 Depth=3
	jmp	.LBB18_93
.LBB18_93:                              # %for.inc1180
                                        #   in Loop: Header=BB18_89 Depth=3
	movl	-48(%rbp), %eax
	addl	$1, %eax
	movl	%eax, -48(%rbp)
	jmp	.LBB18_89
.LBB18_94:                              # %for.end1182
                                        #   in Loop: Header=BB18_68 Depth=2
	movl	-148(%rbp), %eax
	addl	-140(%rbp), %eax
	movl	%eax, -140(%rbp)
	movslq	-52(%rbp), %rax
	movl	-224(%rbp,%rax,4), %ecx
	addl	$1, %ecx
	movl	%ecx, -224(%rbp,%rax,4)
	movl	-52(%rbp), %eax
	movq	-16(%rbp), %rcx
	movslq	-100(%rbp), %rdx
	movb	%al, 1704(%rcx,%rdx)
	movl	-100(%rbp), %eax
	addl	$1, %eax
	movl	%eax, -100(%rbp)
	cmpl	$6, -84(%rbp)
	jne	.LBB18_97
# %bb.95:                               # %land.lhs.true1193
                                        #   in Loop: Header=BB18_68 Depth=2
	movl	-60(%rbp), %eax
	subl	-20(%rbp), %eax
	addl	$1, %eax
	movl	$50, %ecx
	cmpl	%eax, %ecx
	jne	.LBB18_97
# %bb.96:                               # %if.then1198
                                        #   in Loop: Header=BB18_68 Depth=2
	movq	-16(%rbp), %rax
	addq	$45448, %rax            # imm = 0xB188
	movslq	-52(%rbp), %rcx
	imulq	$1032, %rcx, %rcx       # imm = 0x408
	addq	%rcx, %rax
	movq	-40(%rbp), %rcx
	movl	-20(%rbp), %edx
	addl	$0, %edx
	movslq	%edx, %rdx
	movzwl	(%rcx,%rdx,2), %ecx
	movl	(%rax,%rcx,4), %edx
	addl	$1, %edx
	movl	%edx, (%rax,%rcx,4)
	movq	-16(%rbp), %rax
	addq	$45448, %rax            # imm = 0xB188
	movslq	-52(%rbp), %rcx
	imulq	$1032, %rcx, %rcx       # imm = 0x408
	addq	%rcx, %rax
	movq	-40(%rbp), %rcx
	movl	-20(%rbp), %edx
	addl	$1, %edx
	movslq	%edx, %rdx
	movzwl	(%rcx,%rdx,2), %ecx
	movl	(%rax,%rcx,4), %edx
	addl	$1, %edx
	movl	%edx, (%rax,%rcx,4)
	movq	-16(%rbp), %rax
	addq	$45448, %rax            # imm = 0xB188
	movslq	-52(%rbp), %rcx
	imulq	$1032, %rcx, %rcx       # imm = 0x408
	addq	%rcx, %rax
	movq	-40(%rbp), %rcx
	movl	-20(%rbp), %edx
	addl	$2, %edx
	movslq	%edx, %rdx
	movzwl	(%rcx,%rdx,2), %ecx
	movl	(%rax,%rcx,4), %edx
	addl	$1, %edx
	movl	%edx, (%rax,%rcx,4)
	movq	-16(%rbp), %rax
	addq	$45448, %rax            # imm = 0xB188
	movslq	-52(%rbp), %rcx
	imulq	$1032, %rcx, %rcx       # imm = 0x408
	addq	%rcx, %rax
	movq	-40(%rbp), %rcx
	movl	-20(%rbp), %edx
	addl	$3, %edx
	movslq	%edx, %rdx
	movzwl	(%rcx,%rdx,2), %ecx
	movl	(%rax,%rcx,4), %edx
	addl	$1, %edx
	movl	%edx, (%rax,%rcx,4)
	movq	-16(%rbp), %rax
	addq	$45448, %rax            # imm = 0xB188
	movslq	-52(%rbp), %rcx
	imulq	$1032, %rcx, %rcx       # imm = 0x408
	addq	%rcx, %rax
	movq	-40(%rbp), %rcx
	movl	-20(%rbp), %edx
	addl	$4, %edx
	movslq	%edx, %rdx
	movzwl	(%rcx,%rdx,2), %ecx
	movl	(%rax,%rcx,4), %edx
	addl	$1, %edx
	movl	%edx, (%rax,%rcx,4)
	movq	-16(%rbp), %rax
	addq	$45448, %rax            # imm = 0xB188
	movslq	-52(%rbp), %rcx
	imulq	$1032, %rcx, %rcx       # imm = 0x408
	addq	%rcx, %rax
	movq	-40(%rbp), %rcx
	movl	-20(%rbp), %edx
	addl	$5, %edx
	movslq	%edx, %rdx
	movzwl	(%rcx,%rdx,2), %ecx
	movl	(%rax,%rcx,4), %edx
	addl	$1, %edx
	movl	%edx, (%rax,%rcx,4)
	movq	-16(%rbp), %rax
	addq	$45448, %rax            # imm = 0xB188
	movslq	-52(%rbp), %rcx
	imulq	$1032, %rcx, %rcx       # imm = 0x408
	addq	%rcx, %rax
	movq	-40(%rbp), %rcx
	movl	-20(%rbp), %edx
	addl	$6, %edx
	movslq	%edx, %rdx
	movzwl	(%rcx,%rdx,2), %ecx
	movl	(%rax,%rcx,4), %edx
	addl	$1, %edx
	movl	%edx, (%rax,%rcx,4)
	movq	-16(%rbp), %rax
	addq	$45448, %rax            # imm = 0xB188
	movslq	-52(%rbp), %rcx
	imulq	$1032, %rcx, %rcx       # imm = 0x408
	addq	%rcx, %rax
	movq	-40(%rbp), %rcx
	movl	-20(%rbp), %edx
	addl	$7, %edx
	movslq	%edx, %rdx
	movzwl	(%rcx,%rdx,2), %ecx
	movl	(%rax,%rcx,4), %edx
	addl	$1, %edx
	movl	%edx, (%rax,%rcx,4)
	movq	-16(%rbp), %rax
	addq	$45448, %rax            # imm = 0xB188
	movslq	-52(%rbp), %rcx
	imulq	$1032, %rcx, %rcx       # imm = 0x408
	addq	%rcx, %rax
	movq	-40(%rbp), %rcx
	movl	-20(%rbp), %edx
	addl	$8, %edx
	movslq	%edx, %rdx
	movzwl	(%rcx,%rdx,2), %ecx
	movl	(%rax,%rcx,4), %edx
	addl	$1, %edx
	movl	%edx, (%rax,%rcx,4)
	movq	-16(%rbp), %rax
	addq	$45448, %rax            # imm = 0xB188
	movslq	-52(%rbp), %rcx
	imulq	$1032, %rcx, %rcx       # imm = 0x408
	addq	%rcx, %rax
	movq	-40(%rbp), %rcx
	movl	-20(%rbp), %edx
	addl	$9, %edx
	movslq	%edx, %rdx
	movzwl	(%rcx,%rdx,2), %ecx
	movl	(%rax,%rcx,4), %edx
	addl	$1, %edx
	movl	%edx, (%rax,%rcx,4)
	movq	-16(%rbp), %rax
	addq	$45448, %rax            # imm = 0xB188
	movslq	-52(%rbp), %rcx
	imulq	$1032, %rcx, %rcx       # imm = 0x408
	addq	%rcx, %rax
	movq	-40(%rbp), %rcx
	movl	-20(%rbp), %edx
	addl	$10, %edx
	movslq	%edx, %rdx
	movzwl	(%rcx,%rdx,2), %ecx
	movl	(%rax,%rcx,4), %edx
	addl	$1, %edx
	movl	%edx, (%rax,%rcx,4)
	movq	-16(%rbp), %rax
	addq	$45448, %rax            # imm = 0xB188
	movslq	-52(%rbp), %rcx
	imulq	$1032, %rcx, %rcx       # imm = 0x408
	addq	%rcx, %rax
	movq	-40(%rbp), %rcx
	movl	-20(%rbp), %edx
	addl	$11, %edx
	movslq	%edx, %rdx
	movzwl	(%rcx,%rdx,2), %ecx
	movl	(%rax,%rcx,4), %edx
	addl	$1, %edx
	movl	%edx, (%rax,%rcx,4)
	movq	-16(%rbp), %rax
	addq	$45448, %rax            # imm = 0xB188
	movslq	-52(%rbp), %rcx
	imulq	$1032, %rcx, %rcx       # imm = 0x408
	addq	%rcx, %rax
	movq	-40(%rbp), %rcx
	movl	-20(%rbp), %edx
	addl	$12, %edx
	movslq	%edx, %rdx
	movzwl	(%rcx,%rdx,2), %ecx
	movl	(%rax,%rcx,4), %edx
	addl	$1, %edx
	movl	%edx, (%rax,%rcx,4)
	movq	-16(%rbp), %rax
	addq	$45448, %rax            # imm = 0xB188
	movslq	-52(%rbp), %rcx
	imulq	$1032, %rcx, %rcx       # imm = 0x408
	addq	%rcx, %rax
	movq	-40(%rbp), %rcx
	movl	-20(%rbp), %edx
	addl	$13, %edx
	movslq	%edx, %rdx
	movzwl	(%rcx,%rdx,2), %ecx
	movl	(%rax,%rcx,4), %edx
	addl	$1, %edx
	movl	%edx, (%rax,%rcx,4)
	movq	-16(%rbp), %rax
	addq	$45448, %rax            # imm = 0xB188
	movslq	-52(%rbp), %rcx
	imulq	$1032, %rcx, %rcx       # imm = 0x408
	addq	%rcx, %rax
	movq	-40(%rbp), %rcx
	movl	-20(%rbp), %edx
	addl	$14, %edx
	movslq	%edx, %rdx
	movzwl	(%rcx,%rdx,2), %ecx
	movl	(%rax,%rcx,4), %edx
	addl	$1, %edx
	movl	%edx, (%rax,%rcx,4)
	movq	-16(%rbp), %rax
	addq	$45448, %rax            # imm = 0xB188
	movslq	-52(%rbp), %rcx
	imulq	$1032, %rcx, %rcx       # imm = 0x408
	addq	%rcx, %rax
	movq	-40(%rbp), %rcx
	movl	-20(%rbp), %edx
	addl	$15, %edx
	movslq	%edx, %rdx
	movzwl	(%rcx,%rdx,2), %ecx
	movl	(%rax,%rcx,4), %edx
	addl	$1, %edx
	movl	%edx, (%rax,%rcx,4)
	movq	-16(%rbp), %rax
	addq	$45448, %rax            # imm = 0xB188
	movslq	-52(%rbp), %rcx
	imulq	$1032, %rcx, %rcx       # imm = 0x408
	addq	%rcx, %rax
	movq	-40(%rbp), %rcx
	movl	-20(%rbp), %edx
	addl	$16, %edx
	movslq	%edx, %rdx
	movzwl	(%rcx,%rdx,2), %ecx
	movl	(%rax,%rcx,4), %edx
	addl	$1, %edx
	movl	%edx, (%rax,%rcx,4)
	movq	-16(%rbp), %rax
	addq	$45448, %rax            # imm = 0xB188
	movslq	-52(%rbp), %rcx
	imulq	$1032, %rcx, %rcx       # imm = 0x408
	addq	%rcx, %rax
	movq	-40(%rbp), %rcx
	movl	-20(%rbp), %edx
	addl	$17, %edx
	movslq	%edx, %rdx
	movzwl	(%rcx,%rdx,2), %ecx
	movl	(%rax,%rcx,4), %edx
	addl	$1, %edx
	movl	%edx, (%rax,%rcx,4)
	movq	-16(%rbp), %rax
	addq	$45448, %rax            # imm = 0xB188
	movslq	-52(%rbp), %rcx
	imulq	$1032, %rcx, %rcx       # imm = 0x408
	addq	%rcx, %rax
	movq	-40(%rbp), %rcx
	movl	-20(%rbp), %edx
	addl	$18, %edx
	movslq	%edx, %rdx
	movzwl	(%rcx,%rdx,2), %ecx
	movl	(%rax,%rcx,4), %edx
	addl	$1, %edx
	movl	%edx, (%rax,%rcx,4)
	movq	-16(%rbp), %rax
	addq	$45448, %rax            # imm = 0xB188
	movslq	-52(%rbp), %rcx
	imulq	$1032, %rcx, %rcx       # imm = 0x408
	addq	%rcx, %rax
	movq	-40(%rbp), %rcx
	movl	-20(%rbp), %edx
	addl	$19, %edx
	movslq	%edx, %rdx
	movzwl	(%rcx,%rdx,2), %ecx
	movl	(%rax,%rcx,4), %edx
	addl	$1, %edx
	movl	%edx, (%rax,%rcx,4)
	movq	-16(%rbp), %rax
	addq	$45448, %rax            # imm = 0xB188
	movslq	-52(%rbp), %rcx
	imulq	$1032, %rcx, %rcx       # imm = 0x408
	addq	%rcx, %rax
	movq	-40(%rbp), %rcx
	movl	-20(%rbp), %edx
	addl	$20, %edx
	movslq	%edx, %rdx
	movzwl	(%rcx,%rdx,2), %ecx
	movl	(%rax,%rcx,4), %edx
	addl	$1, %edx
	movl	%edx, (%rax,%rcx,4)
	movq	-16(%rbp), %rax
	addq	$45448, %rax            # imm = 0xB188
	movslq	-52(%rbp), %rcx
	imulq	$1032, %rcx, %rcx       # imm = 0x408
	addq	%rcx, %rax
	movq	-40(%rbp), %rcx
	movl	-20(%rbp), %edx
	addl	$21, %edx
	movslq	%edx, %rdx
	movzwl	(%rcx,%rdx,2), %ecx
	movl	(%rax,%rcx,4), %edx
	addl	$1, %edx
	movl	%edx, (%rax,%rcx,4)
	movq	-16(%rbp), %rax
	addq	$45448, %rax            # imm = 0xB188
	movslq	-52(%rbp), %rcx
	imulq	$1032, %rcx, %rcx       # imm = 0x408
	addq	%rcx, %rax
	movq	-40(%rbp), %rcx
	movl	-20(%rbp), %edx
	addl	$22, %edx
	movslq	%edx, %rdx
	movzwl	(%rcx,%rdx,2), %ecx
	movl	(%rax,%rcx,4), %edx
	addl	$1, %edx
	movl	%edx, (%rax,%rcx,4)
	movq	-16(%rbp), %rax
	addq	$45448, %rax            # imm = 0xB188
	movslq	-52(%rbp), %rcx
	imulq	$1032, %rcx, %rcx       # imm = 0x408
	addq	%rcx, %rax
	movq	-40(%rbp), %rcx
	movl	-20(%rbp), %edx
	addl	$23, %edx
	movslq	%edx, %rdx
	movzwl	(%rcx,%rdx,2), %ecx
	movl	(%rax,%rcx,4), %edx
	addl	$1, %edx
	movl	%edx, (%rax,%rcx,4)
	movq	-16(%rbp), %rax
	addq	$45448, %rax            # imm = 0xB188
	movslq	-52(%rbp), %rcx
	imulq	$1032, %rcx, %rcx       # imm = 0x408
	addq	%rcx, %rax
	movq	-40(%rbp), %rcx
	movl	-20(%rbp), %edx
	addl	$24, %edx
	movslq	%edx, %rdx
	movzwl	(%rcx,%rdx,2), %ecx
	movl	(%rax,%rcx,4), %edx
	addl	$1, %edx
	movl	%edx, (%rax,%rcx,4)
	movq	-16(%rbp), %rax
	addq	$45448, %rax            # imm = 0xB188
	movslq	-52(%rbp), %rcx
	imulq	$1032, %rcx, %rcx       # imm = 0x408
	addq	%rcx, %rax
	movq	-40(%rbp), %rcx
	movl	-20(%rbp), %edx
	addl	$25, %edx
	movslq	%edx, %rdx
	movzwl	(%rcx,%rdx,2), %ecx
	movl	(%rax,%rcx,4), %edx
	addl	$1, %edx
	movl	%edx, (%rax,%rcx,4)
	movq	-16(%rbp), %rax
	addq	$45448, %rax            # imm = 0xB188
	movslq	-52(%rbp), %rcx
	imulq	$1032, %rcx, %rcx       # imm = 0x408
	addq	%rcx, %rax
	movq	-40(%rbp), %rcx
	movl	-20(%rbp), %edx
	addl	$26, %edx
	movslq	%edx, %rdx
	movzwl	(%rcx,%rdx,2), %ecx
	movl	(%rax,%rcx,4), %edx
	addl	$1, %edx
	movl	%edx, (%rax,%rcx,4)
	movq	-16(%rbp), %rax
	addq	$45448, %rax            # imm = 0xB188
	movslq	-52(%rbp), %rcx
	imulq	$1032, %rcx, %rcx       # imm = 0x408
	addq	%rcx, %rax
	movq	-40(%rbp), %rcx
	movl	-20(%rbp), %edx
	addl	$27, %edx
	movslq	%edx, %rdx
	movzwl	(%rcx,%rdx,2), %ecx
	movl	(%rax,%rcx,4), %edx
	addl	$1, %edx
	movl	%edx, (%rax,%rcx,4)
	movq	-16(%rbp), %rax
	addq	$45448, %rax            # imm = 0xB188
	movslq	-52(%rbp), %rcx
	imulq	$1032, %rcx, %rcx       # imm = 0x408
	addq	%rcx, %rax
	movq	-40(%rbp), %rcx
	movl	-20(%rbp), %edx
	addl	$28, %edx
	movslq	%edx, %rdx
	movzwl	(%rcx,%rdx,2), %ecx
	movl	(%rax,%rcx,4), %edx
	addl	$1, %edx
	movl	%edx, (%rax,%rcx,4)
	movq	-16(%rbp), %rax
	addq	$45448, %rax            # imm = 0xB188
	movslq	-52(%rbp), %rcx
	imulq	$1032, %rcx, %rcx       # imm = 0x408
	addq	%rcx, %rax
	movq	-40(%rbp), %rcx
	movl	-20(%rbp), %edx
	addl	$29, %edx
	movslq	%edx, %rdx
	movzwl	(%rcx,%rdx,2), %ecx
	movl	(%rax,%rcx,4), %edx
	addl	$1, %edx
	movl	%edx, (%rax,%rcx,4)
	movq	-16(%rbp), %rax
	addq	$45448, %rax            # imm = 0xB188
	movslq	-52(%rbp), %rcx
	imulq	$1032, %rcx, %rcx       # imm = 0x408
	addq	%rcx, %rax
	movq	-40(%rbp), %rcx
	movl	-20(%rbp), %edx
	addl	$30, %edx
	movslq	%edx, %rdx
	movzwl	(%rcx,%rdx,2), %ecx
	movl	(%rax,%rcx,4), %edx
	addl	$1, %edx
	movl	%edx, (%rax,%rcx,4)
	movq	-16(%rbp), %rax
	addq	$45448, %rax            # imm = 0xB188
	movslq	-52(%rbp), %rcx
	imulq	$1032, %rcx, %rcx       # imm = 0x408
	addq	%rcx, %rax
	movq	-40(%rbp), %rcx
	movl	-20(%rbp), %edx
	addl	$31, %edx
	movslq	%edx, %rdx
	movzwl	(%rcx,%rdx,2), %ecx
	movl	(%rax,%rcx,4), %edx
	addl	$1, %edx
	movl	%edx, (%rax,%rcx,4)
	movq	-16(%rbp), %rax
	addq	$45448, %rax            # imm = 0xB188
	movslq	-52(%rbp), %rcx
	imulq	$1032, %rcx, %rcx       # imm = 0x408
	addq	%rcx, %rax
	movq	-40(%rbp), %rcx
	movl	-20(%rbp), %edx
	addl	$32, %edx
	movslq	%edx, %rdx
	movzwl	(%rcx,%rdx,2), %ecx
	movl	(%rax,%rcx,4), %edx
	addl	$1, %edx
	movl	%edx, (%rax,%rcx,4)
	movq	-16(%rbp), %rax
	addq	$45448, %rax            # imm = 0xB188
	movslq	-52(%rbp), %rcx
	imulq	$1032, %rcx, %rcx       # imm = 0x408
	addq	%rcx, %rax
	movq	-40(%rbp), %rcx
	movl	-20(%rbp), %edx
	addl	$33, %edx
	movslq	%edx, %rdx
	movzwl	(%rcx,%rdx,2), %ecx
	movl	(%rax,%rcx,4), %edx
	addl	$1, %edx
	movl	%edx, (%rax,%rcx,4)
	movq	-16(%rbp), %rax
	addq	$45448, %rax            # imm = 0xB188
	movslq	-52(%rbp), %rcx
	imulq	$1032, %rcx, %rcx       # imm = 0x408
	addq	%rcx, %rax
	movq	-40(%rbp), %rcx
	movl	-20(%rbp), %edx
	addl	$34, %edx
	movslq	%edx, %rdx
	movzwl	(%rcx,%rdx,2), %ecx
	movl	(%rax,%rcx,4), %edx
	addl	$1, %edx
	movl	%edx, (%rax,%rcx,4)
	movq	-16(%rbp), %rax
	addq	$45448, %rax            # imm = 0xB188
	movslq	-52(%rbp), %rcx
	imulq	$1032, %rcx, %rcx       # imm = 0x408
	addq	%rcx, %rax
	movq	-40(%rbp), %rcx
	movl	-20(%rbp), %edx
	addl	$35, %edx
	movslq	%edx, %rdx
	movzwl	(%rcx,%rdx,2), %ecx
	movl	(%rax,%rcx,4), %edx
	addl	$1, %edx
	movl	%edx, (%rax,%rcx,4)
	movq	-16(%rbp), %rax
	addq	$45448, %rax            # imm = 0xB188
	movslq	-52(%rbp), %rcx
	imulq	$1032, %rcx, %rcx       # imm = 0x408
	addq	%rcx, %rax
	movq	-40(%rbp), %rcx
	movl	-20(%rbp), %edx
	addl	$36, %edx
	movslq	%edx, %rdx
	movzwl	(%rcx,%rdx,2), %ecx
	movl	(%rax,%rcx,4), %edx
	addl	$1, %edx
	movl	%edx, (%rax,%rcx,4)
	movq	-16(%rbp), %rax
	addq	$45448, %rax            # imm = 0xB188
	movslq	-52(%rbp), %rcx
	imulq	$1032, %rcx, %rcx       # imm = 0x408
	addq	%rcx, %rax
	movq	-40(%rbp), %rcx
	movl	-20(%rbp), %edx
	addl	$37, %edx
	movslq	%edx, %rdx
	movzwl	(%rcx,%rdx,2), %ecx
	movl	(%rax,%rcx,4), %edx
	addl	$1, %edx
	movl	%edx, (%rax,%rcx,4)
	movq	-16(%rbp), %rax
	addq	$45448, %rax            # imm = 0xB188
	movslq	-52(%rbp), %rcx
	imulq	$1032, %rcx, %rcx       # imm = 0x408
	addq	%rcx, %rax
	movq	-40(%rbp), %rcx
	movl	-20(%rbp), %edx
	addl	$38, %edx
	movslq	%edx, %rdx
	movzwl	(%rcx,%rdx,2), %ecx
	movl	(%rax,%rcx,4), %edx
	addl	$1, %edx
	movl	%edx, (%rax,%rcx,4)
	movq	-16(%rbp), %rax
	addq	$45448, %rax            # imm = 0xB188
	movslq	-52(%rbp), %rcx
	imulq	$1032, %rcx, %rcx       # imm = 0x408
	addq	%rcx, %rax
	movq	-40(%rbp), %rcx
	movl	-20(%rbp), %edx
	addl	$39, %edx
	movslq	%edx, %rdx
	movzwl	(%rcx,%rdx,2), %ecx
	movl	(%rax,%rcx,4), %edx
	addl	$1, %edx
	movl	%edx, (%rax,%rcx,4)
	movq	-16(%rbp), %rax
	addq	$45448, %rax            # imm = 0xB188
	movslq	-52(%rbp), %rcx
	imulq	$1032, %rcx, %rcx       # imm = 0x408
	addq	%rcx, %rax
	movq	-40(%rbp), %rcx
	movl	-20(%rbp), %edx
	addl	$40, %edx
	movslq	%edx, %rdx
	movzwl	(%rcx,%rdx,2), %ecx
	movl	(%rax,%rcx,4), %edx
	addl	$1, %edx
	movl	%edx, (%rax,%rcx,4)
	movq	-16(%rbp), %rax
	addq	$45448, %rax            # imm = 0xB188
	movslq	-52(%rbp), %rcx
	imulq	$1032, %rcx, %rcx       # imm = 0x408
	addq	%rcx, %rax
	movq	-40(%rbp), %rcx
	movl	-20(%rbp), %edx
	addl	$41, %edx
	movslq	%edx, %rdx
	movzwl	(%rcx,%rdx,2), %ecx
	movl	(%rax,%rcx,4), %edx
	addl	$1, %edx
	movl	%edx, (%rax,%rcx,4)
	movq	-16(%rbp), %rax
	addq	$45448, %rax            # imm = 0xB188
	movslq	-52(%rbp), %rcx
	imulq	$1032, %rcx, %rcx       # imm = 0x408
	addq	%rcx, %rax
	movq	-40(%rbp), %rcx
	movl	-20(%rbp), %edx
	addl	$42, %edx
	movslq	%edx, %rdx
	movzwl	(%rcx,%rdx,2), %ecx
	movl	(%rax,%rcx,4), %edx
	addl	$1, %edx
	movl	%edx, (%rax,%rcx,4)
	movq	-16(%rbp), %rax
	addq	$45448, %rax            # imm = 0xB188
	movslq	-52(%rbp), %rcx
	imulq	$1032, %rcx, %rcx       # imm = 0x408
	addq	%rcx, %rax
	movq	-40(%rbp), %rcx
	movl	-20(%rbp), %edx
	addl	$43, %edx
	movslq	%edx, %rdx
	movzwl	(%rcx,%rdx,2), %ecx
	movl	(%rax,%rcx,4), %edx
	addl	$1, %edx
	movl	%edx, (%rax,%rcx,4)
	movq	-16(%rbp), %rax
	addq	$45448, %rax            # imm = 0xB188
	movslq	-52(%rbp), %rcx
	imulq	$1032, %rcx, %rcx       # imm = 0x408
	addq	%rcx, %rax
	movq	-40(%rbp), %rcx
	movl	-20(%rbp), %edx
	addl	$44, %edx
	movslq	%edx, %rdx
	movzwl	(%rcx,%rdx,2), %ecx
	movl	(%rax,%rcx,4), %edx
	addl	$1, %edx
	movl	%edx, (%rax,%rcx,4)
	movq	-16(%rbp), %rax
	addq	$45448, %rax            # imm = 0xB188
	movslq	-52(%rbp), %rcx
	imulq	$1032, %rcx, %rcx       # imm = 0x408
	addq	%rcx, %rax
	movq	-40(%rbp), %rcx
	movl	-20(%rbp), %edx
	addl	$45, %edx
	movslq	%edx, %rdx
	movzwl	(%rcx,%rdx,2), %ecx
	movl	(%rax,%rcx,4), %edx
	addl	$1, %edx
	movl	%edx, (%rax,%rcx,4)
	movq	-16(%rbp), %rax
	addq	$45448, %rax            # imm = 0xB188
	movslq	-52(%rbp), %rcx
	imulq	$1032, %rcx, %rcx       # imm = 0x408
	addq	%rcx, %rax
	movq	-40(%rbp), %rcx
	movl	-20(%rbp), %edx
	addl	$46, %edx
	movslq	%edx, %rdx
	movzwl	(%rcx,%rdx,2), %ecx
	movl	(%rax,%rcx,4), %edx
	addl	$1, %edx
	movl	%edx, (%rax,%rcx,4)
	movq	-16(%rbp), %rax
	addq	$45448, %rax            # imm = 0xB188
	movslq	-52(%rbp), %rcx
	imulq	$1032, %rcx, %rcx       # imm = 0x408
	addq	%rcx, %rax
	movq	-40(%rbp), %rcx
	movl	-20(%rbp), %edx
	addl	$47, %edx
	movslq	%edx, %rdx
	movzwl	(%rcx,%rdx,2), %ecx
	movl	(%rax,%rcx,4), %edx
	addl	$1, %edx
	movl	%edx, (%rax,%rcx,4)
	movq	-16(%rbp), %rax
	addq	$45448, %rax            # imm = 0xB188
	movslq	-52(%rbp), %rcx
	imulq	$1032, %rcx, %rcx       # imm = 0x408
	addq	%rcx, %rax
	movq	-40(%rbp), %rcx
	movl	-20(%rbp), %edx
	addl	$48, %edx
	movslq	%edx, %rdx
	movzwl	(%rcx,%rdx,2), %ecx
	movl	(%rax,%rcx,4), %edx
	addl	$1, %edx
	movl	%edx, (%rax,%rcx,4)
	movq	-16(%rbp), %rax
	addq	$45448, %rax            # imm = 0xB188
	movslq	-52(%rbp), %rcx
	imulq	$1032, %rcx, %rcx       # imm = 0x408
	addq	%rcx, %rax
	movq	-40(%rbp), %rcx
	movl	-20(%rbp), %edx
	addl	$49, %edx
	movslq	%edx, %rdx
	movzwl	(%rcx,%rdx,2), %ecx
	movl	(%rax,%rcx,4), %edx
	addl	$1, %edx
	movl	%edx, (%rax,%rcx,4)
	jmp	.LBB18_102
.LBB18_97:                              # %if.else1649
                                        #   in Loop: Header=BB18_68 Depth=2
	movl	-20(%rbp), %eax
	movl	%eax, -44(%rbp)
.LBB18_98:                              # %for.cond1650
                                        #   Parent Loop BB18_48 Depth=1
                                        #     Parent Loop BB18_68 Depth=2
                                        # =>    This Inner Loop Header: Depth=3
	movl	-44(%rbp), %eax
	cmpl	-60(%rbp), %eax
	jg	.LBB18_101
# %bb.99:                               # %for.body1653
                                        #   in Loop: Header=BB18_98 Depth=3
	movq	-16(%rbp), %rax
	addq	$45448, %rax            # imm = 0xB188
	movslq	-52(%rbp), %rcx
	imulq	$1032, %rcx, %rcx       # imm = 0x408
	addq	%rcx, %rax
	movq	-40(%rbp), %rcx
	movslq	-44(%rbp), %rdx
	movzwl	(%rcx,%rdx,2), %ecx
	movl	(%rax,%rcx,4), %edx
	addl	$1, %edx
	movl	%edx, (%rax,%rcx,4)
# %bb.100:                              # %for.inc1662
                                        #   in Loop: Header=BB18_98 Depth=3
	movl	-44(%rbp), %eax
	addl	$1, %eax
	movl	%eax, -44(%rbp)
	jmp	.LBB18_98
.LBB18_101:                             # %for.end1664
                                        #   in Loop: Header=BB18_68 Depth=2
	jmp	.LBB18_102
.LBB18_102:                             # %if.end1665
                                        #   in Loop: Header=BB18_68 Depth=2
	movl	-60(%rbp), %eax
	addl	$1, %eax
	movl	%eax, -20(%rbp)
	jmp	.LBB18_68
.LBB18_103:                             # %while.end1667
                                        #   in Loop: Header=BB18_48 Depth=1
	movq	-16(%rbp), %rax
	cmpl	$3, 656(%rax)
	jl	.LBB18_109
# %bb.104:                              # %if.then1671
                                        #   in Loop: Header=BB18_48 Depth=1
	movq	stderr, %rdi
	movl	-132(%rbp), %ecx
	addl	$1, %ecx
	movl	-140(%rbp), %eax
	cltd
	movl	$8, %esi
	idivl	%esi
	movabsq	$.L.str.4, %rsi
	movl	%ecx, %edx
	movl	%eax, %ecx
	movb	$0, %al
	callq	fprintf
	movl	$0, -48(%rbp)
.LBB18_105:                             # %for.cond1675
                                        #   Parent Loop BB18_48 Depth=1
                                        # =>  This Inner Loop Header: Depth=2
	movl	-48(%rbp), %eax
	cmpl	-84(%rbp), %eax
	jge	.LBB18_108
# %bb.106:                              # %for.body1678
                                        #   in Loop: Header=BB18_105 Depth=2
	movq	stderr, %rdi
	movslq	-48(%rbp), %rax
	movl	-224(%rbp,%rax,4), %edx
	movabsq	$.L.str.5, %rsi
	movb	$0, %al
	callq	fprintf
# %bb.107:                              # %for.inc1682
                                        #   in Loop: Header=BB18_105 Depth=2
	movl	-48(%rbp), %eax
	addl	$1, %eax
	movl	%eax, -48(%rbp)
	jmp	.LBB18_105
.LBB18_108:                             # %for.end1684
                                        #   in Loop: Header=BB18_48 Depth=1
	movq	stderr, %rdi
	movabsq	$.L.str.6, %rsi
	movb	$0, %al
	callq	fprintf
.LBB18_109:                             # %if.end1686
                                        #   in Loop: Header=BB18_48 Depth=1
	movl	$0, -48(%rbp)
.LBB18_110:                             # %for.cond1687
                                        #   Parent Loop BB18_48 Depth=1
                                        # =>  This Inner Loop Header: Depth=2
	movl	-48(%rbp), %eax
	cmpl	-84(%rbp), %eax
	jge	.LBB18_113
# %bb.111:                              # %for.body1690
                                        #   in Loop: Header=BB18_110 Depth=2
	movq	-16(%rbp), %rdi
	addq	$37708, %rdi            # imm = 0x934C
	movslq	-48(%rbp), %rax
	imulq	$258, %rax, %rax        # imm = 0x102
	addq	%rax, %rdi
	movq	-16(%rbp), %rsi
	addq	$45448, %rsi            # imm = 0xB188
	movslq	-48(%rbp), %rax
	imulq	$1032, %rax, %rax       # imm = 0x408
	addq	%rax, %rsi
	movl	-104(%rbp), %edx
	movl	$17, %ecx
	callq	BZ2_hbMakeCodeLengths
# %bb.112:                              # %for.inc1699
                                        #   in Loop: Header=BB18_110 Depth=2
	movl	-48(%rbp), %eax
	addl	$1, %eax
	movl	%eax, -48(%rbp)
	jmp	.LBB18_110
.LBB18_113:                             # %for.end1701
                                        #   in Loop: Header=BB18_48 Depth=1
	jmp	.LBB18_114
.LBB18_114:                             # %for.inc1702
                                        #   in Loop: Header=BB18_48 Depth=1
	movl	-132(%rbp), %eax
	addl	$1, %eax
	movl	%eax, -132(%rbp)
	jmp	.LBB18_48
.LBB18_115:                             # %for.end1704
	cmpl	$8, -84(%rbp)
	jl	.LBB18_117
# %bb.116:                              # %if.then1707
	movl	$3002, %edi             # imm = 0xBBA
	callq	BZ2_bz__AssertH__fail
.LBB18_117:                             # %if.end1708
	cmpl	$32768, -100(%rbp)      # imm = 0x8000
	jge	.LBB18_119
# %bb.118:                              # %land.lhs.true1711
	cmpl	$18002, -100(%rbp)      # imm = 0x4652
	jle	.LBB18_120
.LBB18_119:                             # %if.then1714
	movl	$3003, %edi             # imm = 0xBBB
	callq	BZ2_bz__AssertH__fail
.LBB18_120:                             # %if.end1715
	movl	$0, -44(%rbp)
.LBB18_121:                             # %for.cond1716
                                        # =>This Inner Loop Header: Depth=1
	movl	-44(%rbp), %eax
	cmpl	-84(%rbp), %eax
	jge	.LBB18_124
# %bb.122:                              # %for.body1719
                                        #   in Loop: Header=BB18_121 Depth=1
	movl	-44(%rbp), %eax
	movslq	-44(%rbp), %rcx
	movb	%al, -168(%rbp,%rcx)
# %bb.123:                              # %for.inc1723
                                        #   in Loop: Header=BB18_121 Depth=1
	movl	-44(%rbp), %eax
	addl	$1, %eax
	movl	%eax, -44(%rbp)
	jmp	.LBB18_121
.LBB18_124:                             # %for.end1725
	movl	$0, -44(%rbp)
.LBB18_125:                             # %for.cond1726
                                        # =>This Loop Header: Depth=1
                                        #     Child Loop BB18_127 Depth 2
	movl	-44(%rbp), %eax
	cmpl	-100(%rbp), %eax
	jge	.LBB18_131
# %bb.126:                              # %for.body1729
                                        #   in Loop: Header=BB18_125 Depth=1
	movq	-16(%rbp), %rax
	movslq	-44(%rbp), %rcx
	movb	1704(%rax,%rcx), %al
	movb	%al, -121(%rbp)
	movl	$0, -88(%rbp)
	movslq	-88(%rbp), %rax
	movb	-168(%rbp,%rax), %al
	movb	%al, -89(%rbp)
.LBB18_127:                             # %while.cond1735
                                        #   Parent Loop BB18_125 Depth=1
                                        # =>  This Inner Loop Header: Depth=2
	movzbl	-121(%rbp), %eax
	movzbl	-89(%rbp), %ecx
	cmpl	%ecx, %eax
	je	.LBB18_129
# %bb.128:                              # %while.body1740
                                        #   in Loop: Header=BB18_127 Depth=2
	movl	-88(%rbp), %eax
	addl	$1, %eax
	movl	%eax, -88(%rbp)
	movb	-89(%rbp), %al
	movb	%al, -122(%rbp)
	movslq	-88(%rbp), %rax
	movb	-168(%rbp,%rax), %al
	movb	%al, -89(%rbp)
	movb	-122(%rbp), %al
	movslq	-88(%rbp), %rcx
	movb	%al, -168(%rbp,%rcx)
	jmp	.LBB18_127
.LBB18_129:                             # %while.end1746
                                        #   in Loop: Header=BB18_125 Depth=1
	movb	-89(%rbp), %al
	movb	%al, -168(%rbp)
	movl	-88(%rbp), %eax
	movq	-16(%rbp), %rcx
	movslq	-44(%rbp), %rdx
	movb	%al, 19706(%rcx,%rdx)
# %bb.130:                              # %for.inc1751
                                        #   in Loop: Header=BB18_125 Depth=1
	movl	-44(%rbp), %eax
	addl	$1, %eax
	movl	%eax, -44(%rbp)
	jmp	.LBB18_125
.LBB18_131:                             # %for.end1753
	movl	$0, -48(%rbp)
.LBB18_132:                             # %for.cond1754
                                        # =>This Loop Header: Depth=1
                                        #     Child Loop BB18_134 Depth 2
	movl	-48(%rbp), %eax
	cmpl	-84(%rbp), %eax
	jge	.LBB18_147
# %bb.133:                              # %for.body1757
                                        #   in Loop: Header=BB18_132 Depth=1
	movl	$32, -136(%rbp)
	movl	$0, -128(%rbp)
	movl	$0, -44(%rbp)
.LBB18_134:                             # %for.cond1758
                                        #   Parent Loop BB18_132 Depth=1
                                        # =>  This Inner Loop Header: Depth=2
	movl	-44(%rbp), %eax
	cmpl	-104(%rbp), %eax
	jge	.LBB18_141
# %bb.135:                              # %for.body1761
                                        #   in Loop: Header=BB18_134 Depth=2
	movq	-16(%rbp), %rax
	addq	$37708, %rax            # imm = 0x934C
	movslq	-48(%rbp), %rcx
	imulq	$258, %rcx, %rcx        # imm = 0x102
	addq	%rcx, %rax
	movslq	-44(%rbp), %rcx
	movzbl	(%rax,%rcx), %eax
	cmpl	-128(%rbp), %eax
	jle	.LBB18_137
# %bb.136:                              # %if.then1770
                                        #   in Loop: Header=BB18_134 Depth=2
	movq	-16(%rbp), %rax
	addq	$37708, %rax            # imm = 0x934C
	movslq	-48(%rbp), %rcx
	imulq	$258, %rcx, %rcx        # imm = 0x102
	addq	%rcx, %rax
	movslq	-44(%rbp), %rcx
	movzbl	(%rax,%rcx), %eax
	movl	%eax, -128(%rbp)
.LBB18_137:                             # %if.end1777
                                        #   in Loop: Header=BB18_134 Depth=2
	movq	-16(%rbp), %rax
	addq	$37708, %rax            # imm = 0x934C
	movslq	-48(%rbp), %rcx
	imulq	$258, %rcx, %rcx        # imm = 0x102
	addq	%rcx, %rax
	movslq	-44(%rbp), %rcx
	movzbl	(%rax,%rcx), %eax
	cmpl	-136(%rbp), %eax
	jge	.LBB18_139
# %bb.138:                              # %if.then1786
                                        #   in Loop: Header=BB18_134 Depth=2
	movq	-16(%rbp), %rax
	addq	$37708, %rax            # imm = 0x934C
	movslq	-48(%rbp), %rcx
	imulq	$258, %rcx, %rcx        # imm = 0x102
	addq	%rcx, %rax
	movslq	-44(%rbp), %rcx
	movzbl	(%rax,%rcx), %eax
	movl	%eax, -136(%rbp)
.LBB18_139:                             # %if.end1793
                                        #   in Loop: Header=BB18_134 Depth=2
	jmp	.LBB18_140
.LBB18_140:                             # %for.inc1794
                                        #   in Loop: Header=BB18_134 Depth=2
	movl	-44(%rbp), %eax
	addl	$1, %eax
	movl	%eax, -44(%rbp)
	jmp	.LBB18_134
.LBB18_141:                             # %for.end1796
                                        #   in Loop: Header=BB18_132 Depth=1
	cmpl	$17, -128(%rbp)
	jle	.LBB18_143
# %bb.142:                              # %if.then1799
                                        #   in Loop: Header=BB18_132 Depth=1
	movl	$3004, %edi             # imm = 0xBBC
	callq	BZ2_bz__AssertH__fail
.LBB18_143:                             # %if.end1800
                                        #   in Loop: Header=BB18_132 Depth=1
	cmpl	$1, -136(%rbp)
	jge	.LBB18_145
# %bb.144:                              # %if.then1803
                                        #   in Loop: Header=BB18_132 Depth=1
	movl	$3005, %edi             # imm = 0xBBD
	callq	BZ2_bz__AssertH__fail
.LBB18_145:                             # %if.end1804
                                        #   in Loop: Header=BB18_132 Depth=1
	movq	-16(%rbp), %rdi
	addq	$39256, %rdi            # imm = 0x9958
	movslq	-48(%rbp), %rax
	imulq	$1032, %rax, %rax       # imm = 0x408
	addq	%rax, %rdi
	movq	-16(%rbp), %rsi
	addq	$37708, %rsi            # imm = 0x934C
	movslq	-48(%rbp), %rax
	imulq	$258, %rax, %rax        # imm = 0x102
	addq	%rax, %rsi
	movl	-136(%rbp), %edx
	movl	-128(%rbp), %ecx
	movl	-104(%rbp), %r8d
	callq	BZ2_hbAssignCodes
# %bb.146:                              # %for.inc1812
                                        #   in Loop: Header=BB18_132 Depth=1
	movl	-48(%rbp), %eax
	addl	$1, %eax
	movl	%eax, -48(%rbp)
	jmp	.LBB18_132
.LBB18_147:                             # %for.end1814
	movl	$0, -44(%rbp)
.LBB18_148:                             # %for.cond1815
                                        # =>This Loop Header: Depth=1
                                        #     Child Loop BB18_150 Depth 2
	cmpl	$16, -44(%rbp)
	jge	.LBB18_157
# %bb.149:                              # %for.body1818
                                        #   in Loop: Header=BB18_148 Depth=1
	movslq	-44(%rbp), %rax
	movb	$0, -192(%rbp,%rax)
	movl	$0, -88(%rbp)
.LBB18_150:                             # %for.cond1821
                                        #   Parent Loop BB18_148 Depth=1
                                        # =>  This Inner Loop Header: Depth=2
	cmpl	$16, -88(%rbp)
	jge	.LBB18_155
# %bb.151:                              # %for.body1824
                                        #   in Loop: Header=BB18_150 Depth=2
	movq	-16(%rbp), %rax
	movl	-44(%rbp), %ecx
	shll	$4, %ecx
	addl	-88(%rbp), %ecx
	movslq	%ecx, %rcx
	cmpb	$0, 128(%rax,%rcx)
	je	.LBB18_153
# %bb.152:                              # %if.then1829
                                        #   in Loop: Header=BB18_150 Depth=2
	movslq	-44(%rbp), %rax
	movb	$1, -192(%rbp,%rax)
.LBB18_153:                             # %if.end1832
                                        #   in Loop: Header=BB18_150 Depth=2
	jmp	.LBB18_154
.LBB18_154:                             # %for.inc1833
                                        #   in Loop: Header=BB18_150 Depth=2
	movl	-88(%rbp), %eax
	addl	$1, %eax
	movl	%eax, -88(%rbp)
	jmp	.LBB18_150
.LBB18_155:                             # %for.end1835
                                        #   in Loop: Header=BB18_148 Depth=1
	jmp	.LBB18_156
.LBB18_156:                             # %for.inc1836
                                        #   in Loop: Header=BB18_148 Depth=1
	movl	-44(%rbp), %eax
	addl	$1, %eax
	movl	%eax, -44(%rbp)
	jmp	.LBB18_148
.LBB18_157:                             # %for.end1838
	movq	-16(%rbp), %rax
	movl	116(%rax), %eax
	movl	%eax, -116(%rbp)
	movl	$0, -44(%rbp)
.LBB18_158:                             # %for.cond1839
                                        # =>This Inner Loop Header: Depth=1
	cmpl	$16, -44(%rbp)
	jge	.LBB18_164
# %bb.159:                              # %for.body1842
                                        #   in Loop: Header=BB18_158 Depth=1
	movslq	-44(%rbp), %rax
	cmpb	$0, -192(%rbp,%rax)
	je	.LBB18_161
# %bb.160:                              # %if.then1846
                                        #   in Loop: Header=BB18_158 Depth=1
	movq	-16(%rbp), %rdi
	movl	$1, %esi
	movl	$1, %edx
	callq	bsW
	jmp	.LBB18_162
.LBB18_161:                             # %if.else1847
                                        #   in Loop: Header=BB18_158 Depth=1
	movq	-16(%rbp), %rdi
	movl	$1, %esi
	xorl	%edx, %edx
	callq	bsW
.LBB18_162:                             # %if.end1848
                                        #   in Loop: Header=BB18_158 Depth=1
	jmp	.LBB18_163
.LBB18_163:                             # %for.inc1849
                                        #   in Loop: Header=BB18_158 Depth=1
	movl	-44(%rbp), %eax
	addl	$1, %eax
	movl	%eax, -44(%rbp)
	jmp	.LBB18_158
.LBB18_164:                             # %for.end1851
	movl	$0, -44(%rbp)
.LBB18_165:                             # %for.cond1852
                                        # =>This Loop Header: Depth=1
                                        #     Child Loop BB18_168 Depth 2
	cmpl	$16, -44(%rbp)
	jge	.LBB18_177
# %bb.166:                              # %for.body1855
                                        #   in Loop: Header=BB18_165 Depth=1
	movslq	-44(%rbp), %rax
	cmpb	$0, -192(%rbp,%rax)
	je	.LBB18_175
# %bb.167:                              # %if.then1859
                                        #   in Loop: Header=BB18_165 Depth=1
	movl	$0, -88(%rbp)
.LBB18_168:                             # %for.cond1860
                                        #   Parent Loop BB18_165 Depth=1
                                        # =>  This Inner Loop Header: Depth=2
	cmpl	$16, -88(%rbp)
	jge	.LBB18_174
# %bb.169:                              # %for.body1863
                                        #   in Loop: Header=BB18_168 Depth=2
	movq	-16(%rbp), %rax
	movl	-44(%rbp), %ecx
	shll	$4, %ecx
	addl	-88(%rbp), %ecx
	movslq	%ecx, %rcx
	cmpb	$0, 128(%rax,%rcx)
	je	.LBB18_171
# %bb.170:                              # %if.then1870
                                        #   in Loop: Header=BB18_168 Depth=2
	movq	-16(%rbp), %rdi
	movl	$1, %esi
	movl	$1, %edx
	callq	bsW
	jmp	.LBB18_172
.LBB18_171:                             # %if.else1871
                                        #   in Loop: Header=BB18_168 Depth=2
	movq	-16(%rbp), %rdi
	movl	$1, %esi
	xorl	%edx, %edx
	callq	bsW
.LBB18_172:                             # %if.end1872
                                        #   in Loop: Header=BB18_168 Depth=2
	jmp	.LBB18_173
.LBB18_173:                             # %for.inc1873
                                        #   in Loop: Header=BB18_168 Depth=2
	movl	-88(%rbp), %eax
	addl	$1, %eax
	movl	%eax, -88(%rbp)
	jmp	.LBB18_168
.LBB18_174:                             # %for.end1875
                                        #   in Loop: Header=BB18_165 Depth=1
	jmp	.LBB18_175
.LBB18_175:                             # %if.end1876
                                        #   in Loop: Header=BB18_165 Depth=1
	jmp	.LBB18_176
.LBB18_176:                             # %for.inc1877
                                        #   in Loop: Header=BB18_165 Depth=1
	movl	-44(%rbp), %eax
	addl	$1, %eax
	movl	%eax, -44(%rbp)
	jmp	.LBB18_165
.LBB18_177:                             # %for.end1879
	movq	-16(%rbp), %rax
	cmpl	$3, 656(%rax)
	jl	.LBB18_179
# %bb.178:                              # %if.then1883
	movq	stderr, %rdi
	movq	-16(%rbp), %rax
	movl	116(%rax), %edx
	subl	-116(%rbp), %edx
	movabsq	$.L.str.7, %rsi
	movb	$0, %al
	callq	fprintf
.LBB18_179:                             # %if.end1887
	movq	-16(%rbp), %rax
	movl	116(%rax), %eax
	movl	%eax, -116(%rbp)
	movq	-16(%rbp), %rdi
	movl	-84(%rbp), %edx
	movl	$3, %esi
	callq	bsW
	movq	-16(%rbp), %rdi
	movl	-100(%rbp), %edx
	movl	$15, %esi
	callq	bsW
	movl	$0, -44(%rbp)
.LBB18_180:                             # %for.cond1889
                                        # =>This Loop Header: Depth=1
                                        #     Child Loop BB18_182 Depth 2
	movl	-44(%rbp), %eax
	cmpl	-100(%rbp), %eax
	jge	.LBB18_187
# %bb.181:                              # %for.body1892
                                        #   in Loop: Header=BB18_180 Depth=1
	movl	$0, -88(%rbp)
.LBB18_182:                             # %for.cond1893
                                        #   Parent Loop BB18_180 Depth=1
                                        # =>  This Inner Loop Header: Depth=2
	movl	-88(%rbp), %eax
	movq	-16(%rbp), %rcx
	movslq	-44(%rbp), %rdx
	movzbl	19706(%rcx,%rdx), %ecx
	cmpl	%ecx, %eax
	jge	.LBB18_185
# %bb.183:                              # %for.body1900
                                        #   in Loop: Header=BB18_182 Depth=2
	movq	-16(%rbp), %rdi
	movl	$1, %esi
	movl	$1, %edx
	callq	bsW
# %bb.184:                              # %for.inc1901
                                        #   in Loop: Header=BB18_182 Depth=2
	movl	-88(%rbp), %eax
	addl	$1, %eax
	movl	%eax, -88(%rbp)
	jmp	.LBB18_182
.LBB18_185:                             # %for.end1903
                                        #   in Loop: Header=BB18_180 Depth=1
	movq	-16(%rbp), %rdi
	movl	$1, %esi
	xorl	%edx, %edx
	callq	bsW
# %bb.186:                              # %for.inc1904
                                        #   in Loop: Header=BB18_180 Depth=1
	movl	-44(%rbp), %eax
	addl	$1, %eax
	movl	%eax, -44(%rbp)
	jmp	.LBB18_180
.LBB18_187:                             # %for.end1906
	movq	-16(%rbp), %rax
	cmpl	$3, 656(%rax)
	jl	.LBB18_189
# %bb.188:                              # %if.then1910
	movq	stderr, %rdi
	movq	-16(%rbp), %rax
	movl	116(%rax), %edx
	subl	-116(%rbp), %edx
	movabsq	$.L.str.8, %rsi
	movb	$0, %al
	callq	fprintf
.LBB18_189:                             # %if.end1914
	movq	-16(%rbp), %rax
	movl	116(%rax), %eax
	movl	%eax, -116(%rbp)
	movl	$0, -48(%rbp)
.LBB18_190:                             # %for.cond1916
                                        # =>This Loop Header: Depth=1
                                        #     Child Loop BB18_192 Depth 2
                                        #       Child Loop BB18_194 Depth 3
                                        #       Child Loop BB18_197 Depth 3
	movl	-48(%rbp), %eax
	cmpl	-84(%rbp), %eax
	jge	.LBB18_203
# %bb.191:                              # %for.body1919
                                        #   in Loop: Header=BB18_190 Depth=1
	movq	-16(%rbp), %rax
	addq	$37708, %rax            # imm = 0x934C
	movslq	-48(%rbp), %rcx
	imulq	$258, %rcx, %rcx        # imm = 0x102
	addq	%rcx, %rax
	movzbl	(%rax), %eax
	movl	%eax, -120(%rbp)
	movq	-16(%rbp), %rdi
	movl	-120(%rbp), %edx
	movl	$5, %esi
	callq	bsW
	movl	$0, -44(%rbp)
.LBB18_192:                             # %for.cond1925
                                        #   Parent Loop BB18_190 Depth=1
                                        # =>  This Loop Header: Depth=2
                                        #       Child Loop BB18_194 Depth 3
                                        #       Child Loop BB18_197 Depth 3
	movl	-44(%rbp), %eax
	cmpl	-104(%rbp), %eax
	jge	.LBB18_201
# %bb.193:                              # %for.body1928
                                        #   in Loop: Header=BB18_192 Depth=2
	jmp	.LBB18_194
.LBB18_194:                             # %while.cond1929
                                        #   Parent Loop BB18_190 Depth=1
                                        #     Parent Loop BB18_192 Depth=2
                                        # =>    This Inner Loop Header: Depth=3
	movl	-120(%rbp), %eax
	movq	-16(%rbp), %rcx
	addq	$37708, %rcx            # imm = 0x934C
	movslq	-48(%rbp), %rdx
	imulq	$258, %rdx, %rdx        # imm = 0x102
	addq	%rdx, %rcx
	movslq	-44(%rbp), %rdx
	movzbl	(%rcx,%rdx), %ecx
	cmpl	%ecx, %eax
	jge	.LBB18_196
# %bb.195:                              # %while.body1938
                                        #   in Loop: Header=BB18_194 Depth=3
	movq	-16(%rbp), %rdi
	movl	$2, %esi
	movl	$2, %edx
	callq	bsW
	movl	-120(%rbp), %eax
	addl	$1, %eax
	movl	%eax, -120(%rbp)
	jmp	.LBB18_194
.LBB18_196:                             # %while.end1940
                                        #   in Loop: Header=BB18_192 Depth=2
	jmp	.LBB18_197
.LBB18_197:                             # %while.cond1941
                                        #   Parent Loop BB18_190 Depth=1
                                        #     Parent Loop BB18_192 Depth=2
                                        # =>    This Inner Loop Header: Depth=3
	movl	-120(%rbp), %eax
	movq	-16(%rbp), %rcx
	addq	$37708, %rcx            # imm = 0x934C
	movslq	-48(%rbp), %rdx
	imulq	$258, %rdx, %rdx        # imm = 0x102
	addq	%rdx, %rcx
	movslq	-44(%rbp), %rdx
	movzbl	(%rcx,%rdx), %ecx
	cmpl	%ecx, %eax
	jle	.LBB18_199
# %bb.198:                              # %while.body1950
                                        #   in Loop: Header=BB18_197 Depth=3
	movq	-16(%rbp), %rdi
	movl	$2, %esi
	movl	$3, %edx
	callq	bsW
	movl	-120(%rbp), %eax
	addl	$-1, %eax
	movl	%eax, -120(%rbp)
	jmp	.LBB18_197
.LBB18_199:                             # %while.end1952
                                        #   in Loop: Header=BB18_192 Depth=2
	movq	-16(%rbp), %rdi
	movl	$1, %esi
	xorl	%edx, %edx
	callq	bsW
# %bb.200:                              # %for.inc1953
                                        #   in Loop: Header=BB18_192 Depth=2
	movl	-44(%rbp), %eax
	addl	$1, %eax
	movl	%eax, -44(%rbp)
	jmp	.LBB18_192
.LBB18_201:                             # %for.end1955
                                        #   in Loop: Header=BB18_190 Depth=1
	jmp	.LBB18_202
.LBB18_202:                             # %for.inc1956
                                        #   in Loop: Header=BB18_190 Depth=1
	movl	-48(%rbp), %eax
	addl	$1, %eax
	movl	%eax, -48(%rbp)
	jmp	.LBB18_190
.LBB18_203:                             # %for.end1958
	movq	-16(%rbp), %rax
