	.text
	.file	"huffman.c"
	.globl	BZ2_hbMakeCodeLengths   # -- Begin function BZ2_hbMakeCodeLengths
	.p2align	4, 0x90
	.type	BZ2_hbMakeCodeLengths,@function
BZ2_hbMakeCodeLengths:                  # @BZ2_hbMakeCodeLengths
	.cfi_startproc
# %bb.0:                                # %rand_bb
	pushq	%rbp
	.cfi_def_cfa_offset 16
	.cfi_offset %rbp, -16
	movq	%rsp, %rbp
	.cfi_def_cfa_register %rbp
	pushq	%r15
	pushq	%r14
	pushq	%r12
	pushq	%rbx
	.cfi_offset %rbx, -48
	.cfi_offset %r12, -40
	.cfi_offset %r14, -32
	.cfi_offset %r15, -24
	movl	%ecx, %r14d
	movl	%edx, %r15d
	movq	%rsi, %r12
	movq	%rdi, %rbx
	callq	get_urand
	cmpl	$0, %eax
	jne	.LBB0_17
# %bb.1:                                # %func_BZ2_hbMakeCodeLengths.1
	movq	%rbx, %rdi
	movq	%r12, %rsi
	movl	%r15d, %edx
	movl	%r14d, %ecx
	callq	BZ2_hbMakeCodeLengths.1
	popq	%rbx
	popq	%r12
	popq	%r14
	popq	%r15
	popq	%rbp
	.cfi_def_cfa %rsp, 8
	retq
.LBB0_2:                                # %func_BZ2_hbMakeCodeLengths.5
	.cfi_def_cfa %rbp, 16
	movq	%rbx, %rdi
	movq	%r12, %rsi
	movl	%r15d, %edx
	movl	%r14d, %ecx
	callq	BZ2_hbMakeCodeLengths.5
	popq	%rbx
	popq	%r12
	popq	%r14
	popq	%r15
	popq	%rbp
	.cfi_def_cfa %rsp, 8
	retq
.LBB0_3:                                # %func_BZ2_hbMakeCodeLengths.6
	.cfi_def_cfa %rbp, 16
	movq	%rbx, %rdi
	movq	%r12, %rsi
	movl	%r15d, %edx
	movl	%r14d, %ecx
	callq	BZ2_hbMakeCodeLengths.6
	popq	%rbx
	popq	%r12
	popq	%r14
	popq	%r15
	popq	%rbp
	.cfi_def_cfa %rsp, 8
	retq
.LBB0_4:                                # %func_BZ2_hbMakeCodeLengths.8
	.cfi_def_cfa %rbp, 16
	movq	%rbx, %rdi
	movq	%r12, %rsi
	movl	%r15d, %edx
	movl	%r14d, %ecx
	callq	BZ2_hbMakeCodeLengths.8
	popq	%rbx
	popq	%r12
	popq	%r14
	popq	%r15
	popq	%rbp
	.cfi_def_cfa %rsp, 8
	retq
.LBB0_5:                                # %func_BZ2_hbMakeCodeLengths.10
	.cfi_def_cfa %rbp, 16
	movq	%rbx, %rdi
	movq	%r12, %rsi
	movl	%r15d, %edx
	movl	%r14d, %ecx
	callq	BZ2_hbMakeCodeLengths.10
	popq	%rbx
	popq	%r12
	popq	%r14
	popq	%r15
	popq	%rbp
	.cfi_def_cfa %rsp, 8
	retq
.LBB0_6:                                # %func_BZ2_hbMakeCodeLengths.19
	.cfi_def_cfa %rbp, 16
	movq	%rbx, %rdi
	movq	%r12, %rsi
	movl	%r15d, %edx
	movl	%r14d, %ecx
	callq	BZ2_hbMakeCodeLengths.19
	popq	%rbx
	popq	%r12
	popq	%r14
	popq	%r15
	popq	%rbp
	.cfi_def_cfa %rsp, 8
	retq
.LBB0_7:                                # %func_BZ2_hbMakeCodeLengths.21
	.cfi_def_cfa %rbp, 16
	movq	%rbx, %rdi
	movq	%r12, %rsi
	movl	%r15d, %edx
	movl	%r14d, %ecx
	callq	BZ2_hbMakeCodeLengths.21
	popq	%rbx
	popq	%r12
	popq	%r14
	popq	%r15
	popq	%rbp
	.cfi_def_cfa %rsp, 8
	retq
.LBB0_8:                                # %func_BZ2_hbMakeCodeLengths.22
	.cfi_def_cfa %rbp, 16
	movq	%rbx, %rdi
	movq	%r12, %rsi
	movl	%r15d, %edx
	movl	%r14d, %ecx
	callq	BZ2_hbMakeCodeLengths.22
	popq	%rbx
	popq	%r12
	popq	%r14
	popq	%r15
	popq	%rbp
	.cfi_def_cfa %rsp, 8
	retq
.LBB0_9:                                # %func_BZ2_hbMakeCodeLengths.23
	.cfi_def_cfa %rbp, 16
	movq	%rbx, %rdi
	movq	%r12, %rsi
	movl	%r15d, %edx
	movl	%r14d, %ecx
	callq	BZ2_hbMakeCodeLengths.23
	popq	%rbx
	popq	%r12
	popq	%r14
	popq	%r15
	popq	%rbp
	.cfi_def_cfa %rsp, 8
	retq
.LBB0_10:                               # %func_BZ2_hbMakeCodeLengths.31
	.cfi_def_cfa %rbp, 16
	movq	%rbx, %rdi
	movq	%r12, %rsi
	movl	%r15d, %edx
	movl	%r14d, %ecx
	callq	BZ2_hbMakeCodeLengths.31
	popq	%rbx
	popq	%r12
	popq	%r14
	popq	%r15
	popq	%rbp
	.cfi_def_cfa %rsp, 8
	retq
.LBB0_11:                               # %func_BZ2_hbMakeCodeLengths.39
	.cfi_def_cfa %rbp, 16
	movq	%rbx, %rdi
	movq	%r12, %rsi
	movl	%r15d, %edx
	movl	%r14d, %ecx
	callq	BZ2_hbMakeCodeLengths.39
	popq	%rbx
	popq	%r12
	popq	%r14
	popq	%r15
	popq	%rbp
	.cfi_def_cfa %rsp, 8
	retq
.LBB0_12:                               # %func_BZ2_hbMakeCodeLengths.40
	.cfi_def_cfa %rbp, 16
	movq	%rbx, %rdi
	movq	%r12, %rsi
	movl	%r15d, %edx
	movl	%r14d, %ecx
	callq	BZ2_hbMakeCodeLengths.40
	popq	%rbx
	popq	%r12
	popq	%r14
	popq	%r15
	popq	%rbp
	.cfi_def_cfa %rsp, 8
	retq
.LBB0_13:                               # %func_BZ2_hbMakeCodeLengths.42
	.cfi_def_cfa %rbp, 16
	movq	%rbx, %rdi
	movq	%r12, %rsi
	movl	%r15d, %edx
	movl	%r14d, %ecx
	callq	BZ2_hbMakeCodeLengths.42
	popq	%rbx
	popq	%r12
	popq	%r14
	popq	%r15
	popq	%rbp
	.cfi_def_cfa %rsp, 8
	retq
.LBB0_14:                               # %func_BZ2_hbMakeCodeLengths.44
	.cfi_def_cfa %rbp, 16
	movq	%rbx, %rdi
	movq	%r12, %rsi
	movl	%r15d, %edx
	movl	%r14d, %ecx
	callq	BZ2_hbMakeCodeLengths.44
	popq	%rbx
	popq	%r12
	popq	%r14
	popq	%r15
	popq	%rbp
	.cfi_def_cfa %rsp, 8
	retq
.LBB0_15:                               # %func_BZ2_hbMakeCodeLengths.46
	.cfi_def_cfa %rbp, 16
	movq	%rbx, %rdi
	movq	%r12, %rsi
	movl	%r15d, %edx
	movl	%r14d, %ecx
	callq	BZ2_hbMakeCodeLengths.46
	popq	%rbx
	popq	%r12
	popq	%r14
	popq	%r15
	popq	%rbp
	.cfi_def_cfa %rsp, 8
	retq
.LBB0_16:                               # %func_BZ2_hbMakeCodeLengths.48
	.cfi_def_cfa %rbp, 16
	movq	%rbx, %rdi
	movq	%r12, %rsi
	movl	%r15d, %edx
	movl	%r14d, %ecx
	callq	BZ2_hbMakeCodeLengths.48
	popq	%rbx
	popq	%r12
	popq	%r14
	popq	%r15
	popq	%rbp
	.cfi_def_cfa %rsp, 8
	retq
.LBB0_17:                               # %ctrl0
	.cfi_def_cfa %rbp, 16
	cmpl	$1, %eax
	je	.LBB0_2
# %bb.18:                               # %ctrl1
	cmpl	$2, %eax
	je	.LBB0_3
# %bb.19:                               # %ctrl2
	cmpl	$3, %eax
	je	.LBB0_4
# %bb.20:                               # %ctrl3
	cmpl	$4, %eax
	je	.LBB0_5
# %bb.21:                               # %ctrl4
	cmpl	$5, %eax
	je	.LBB0_6
# %bb.22:                               # %ctrl5
	cmpl	$6, %eax
	je	.LBB0_7
# %bb.23:                               # %ctrl6
	cmpl	$7, %eax
	je	.LBB0_8
# %bb.24:                               # %ctrl7
	cmpl	$8, %eax
	je	.LBB0_9
# %bb.25:                               # %ctrl8
	cmpl	$9, %eax
	je	.LBB0_10
# %bb.26:                               # %ctrl9
	cmpl	$10, %eax
	je	.LBB0_11
# %bb.27:                               # %ctrl10
	cmpl	$11, %eax
	je	.LBB0_12
# %bb.28:                               # %ctrl11
	cmpl	$12, %eax
	je	.LBB0_13
# %bb.29:                               # %ctrl12
	cmpl	$13, %eax
	je	.LBB0_14
# %bb.30:                               # %ctrl13
	cmpl	$14, %eax
	je	.LBB0_15
	jmp	.LBB0_16
.Lfunc_end0:
	.size	BZ2_hbMakeCodeLengths, .Lfunc_end0-BZ2_hbMakeCodeLengths
	.cfi_endproc
                                        # -- End function
	.globl	BZ2_hbAssignCodes       # -- Begin function BZ2_hbAssignCodes
	.p2align	4, 0x90
	.type	BZ2_hbAssignCodes,@function
BZ2_hbAssignCodes:                      # @BZ2_hbAssignCodes
	.cfi_startproc
# %bb.0:                                # %rand_bb
	pushq	%rbp
	.cfi_def_cfa_offset 16
	.cfi_offset %rbp, -16
	movq	%rsp, %rbp
	.cfi_def_cfa_register %rbp
	pushq	%r15
	pushq	%r14
	pushq	%r13
	pushq	%r12
	pushq	%rbx
	pushq	%rax
	.cfi_offset %rbx, -56
	.cfi_offset %r12, -48
	.cfi_offset %r13, -40
	.cfi_offset %r14, -32
	.cfi_offset %r15, -24
	movl	%r8d, %r14d
	movl	%ecx, %r15d
	movl	%edx, %r12d
	movq	%rsi, %r13
	movq	%rdi, %rbx
	callq	get_urand
	cmpl	$0, %eax
	jne	.LBB1_17
# %bb.1:                                # %func_BZ2_hbAssignCodes.3
	movq	%rbx, %rdi
	movq	%r13, %rsi
	movl	%r12d, %edx
	movl	%r15d, %ecx
	movl	%r14d, %r8d
	callq	BZ2_hbAssignCodes.3
	addq	$8, %rsp
	popq	%rbx
	popq	%r12
	popq	%r13
	popq	%r14
	popq	%r15
	popq	%rbp
	.cfi_def_cfa %rsp, 8
	retq
.LBB1_2:                                # %func_BZ2_hbAssignCodes.7
	.cfi_def_cfa %rbp, 16
	movq	%rbx, %rdi
	movq	%r13, %rsi
	movl	%r12d, %edx
	movl	%r15d, %ecx
	movl	%r14d, %r8d
	callq	BZ2_hbAssignCodes.7
	addq	$8, %rsp
	popq	%rbx
	popq	%r12
	popq	%r13
	popq	%r14
	popq	%r15
	popq	%rbp
	.cfi_def_cfa %rsp, 8
	retq
.LBB1_3:                                # %func_BZ2_hbAssignCodes.9
	.cfi_def_cfa %rbp, 16
	movq	%rbx, %rdi
	movq	%r13, %rsi
	movl	%r12d, %edx
	movl	%r15d, %ecx
	movl	%r14d, %r8d
	callq	BZ2_hbAssignCodes.9
	addq	$8, %rsp
	popq	%rbx
	popq	%r12
	popq	%r13
	popq	%r14
	popq	%r15
	popq	%rbp
	.cfi_def_cfa %rsp, 8
	retq
.LBB1_4:                                # %func_BZ2_hbAssignCodes.12
	.cfi_def_cfa %rbp, 16
	movq	%rbx, %rdi
	movq	%r13, %rsi
	movl	%r12d, %edx
	movl	%r15d, %ecx
	movl	%r14d, %r8d
	callq	BZ2_hbAssignCodes.12
	addq	$8, %rsp
	popq	%rbx
	popq	%r12
	popq	%r13
	popq	%r14
	popq	%r15
	popq	%rbp
	.cfi_def_cfa %rsp, 8
	retq
.LBB1_5:                                # %func_BZ2_hbAssignCodes.13
	.cfi_def_cfa %rbp, 16
	movq	%rbx, %rdi
	movq	%r13, %rsi
	movl	%r12d, %edx
	movl	%r15d, %ecx
	movl	%r14d, %r8d
	callq	BZ2_hbAssignCodes.13
	addq	$8, %rsp
	popq	%rbx
	popq	%r12
	popq	%r13
	popq	%r14
	popq	%r15
	popq	%rbp
	.cfi_def_cfa %rsp, 8
	retq
.LBB1_6:                                # %func_BZ2_hbAssignCodes.15
	.cfi_def_cfa %rbp, 16
	movq	%rbx, %rdi
	movq	%r13, %rsi
	movl	%r12d, %edx
	movl	%r15d, %ecx
	movl	%r14d, %r8d
	callq	BZ2_hbAssignCodes.15
	addq	$8, %rsp
	popq	%rbx
	popq	%r12
	popq	%r13
	popq	%r14
	popq	%r15
	popq	%rbp
	.cfi_def_cfa %rsp, 8
	retq
.LBB1_7:                                # %func_BZ2_hbAssignCodes.16
	.cfi_def_cfa %rbp, 16
	movq	%rbx, %rdi
	movq	%r13, %rsi
	movl	%r12d, %edx
	movl	%r15d, %ecx
	movl	%r14d, %r8d
	callq	BZ2_hbAssignCodes.16
	addq	$8, %rsp
	popq	%rbx
	popq	%r12
	popq	%r13
	popq	%r14
	popq	%r15
	popq	%rbp
	.cfi_def_cfa %rsp, 8
	retq
.LBB1_8:                                # %func_BZ2_hbAssignCodes.18
	.cfi_def_cfa %rbp, 16
	movq	%rbx, %rdi
	movq	%r13, %rsi
	movl	%r12d, %edx
	movl	%r15d, %ecx
	movl	%r14d, %r8d
	callq	BZ2_hbAssignCodes.18
	addq	$8, %rsp
	popq	%rbx
	popq	%r12
	popq	%r13
	popq	%r14
	popq	%r15
	popq	%rbp
	.cfi_def_cfa %rsp, 8
	retq
.LBB1_9:                                # %func_BZ2_hbAssignCodes.25
	.cfi_def_cfa %rbp, 16
	movq	%rbx, %rdi
	movq	%r13, %rsi
	movl	%r12d, %edx
	movl	%r15d, %ecx
	movl	%r14d, %r8d
	callq	BZ2_hbAssignCodes.25
	addq	$8, %rsp
	popq	%rbx
	popq	%r12
	popq	%r13
	popq	%r14
	popq	%r15
	popq	%rbp
	.cfi_def_cfa %rsp, 8
	retq
.LBB1_10:                               # %func_BZ2_hbAssignCodes.28
	.cfi_def_cfa %rbp, 16
	movq	%rbx, %rdi
	movq	%r13, %rsi
	movl	%r12d, %edx
	movl	%r15d, %ecx
	movl	%r14d, %r8d
	callq	BZ2_hbAssignCodes.28
	addq	$8, %rsp
	popq	%rbx
	popq	%r12
	popq	%r13
	popq	%r14
	popq	%r15
	popq	%rbp
	.cfi_def_cfa %rsp, 8
	retq
.LBB1_11:                               # %func_BZ2_hbAssignCodes.29
	.cfi_def_cfa %rbp, 16
	movq	%rbx, %rdi
	movq	%r13, %rsi
	movl	%r12d, %edx
	movl	%r15d, %ecx
	movl	%r14d, %r8d
	callq	BZ2_hbAssignCodes.29
	addq	$8, %rsp
	popq	%rbx
	popq	%r12
	popq	%r13
	popq	%r14
	popq	%r15
	popq	%rbp
	.cfi_def_cfa %rsp, 8
	retq
.LBB1_12:                               # %func_BZ2_hbAssignCodes.32
	.cfi_def_cfa %rbp, 16
	movq	%rbx, %rdi
	movq	%r13, %rsi
	movl	%r12d, %edx
	movl	%r15d, %ecx
	movl	%r14d, %r8d
	callq	BZ2_hbAssignCodes.32
	addq	$8, %rsp
	popq	%rbx
	popq	%r12
	popq	%r13
	popq	%r14
	popq	%r15
	popq	%rbp
	.cfi_def_cfa %rsp, 8
	retq
.LBB1_13:                               # %func_BZ2_hbAssignCodes.33
	.cfi_def_cfa %rbp, 16
	movq	%rbx, %rdi
	movq	%r13, %rsi
	movl	%r12d, %edx
	movl	%r15d, %ecx
	movl	%r14d, %r8d
	callq	BZ2_hbAssignCodes.33
	addq	$8, %rsp
	popq	%rbx
	popq	%r12
	popq	%r13
	popq	%r14
	popq	%r15
	popq	%rbp
	.cfi_def_cfa %rsp, 8
	retq
.LBB1_14:                               # %func_BZ2_hbAssignCodes.34
	.cfi_def_cfa %rbp, 16
	movq	%rbx, %rdi
	movq	%r13, %rsi
	movl	%r12d, %edx
	movl	%r15d, %ecx
	movl	%r14d, %r8d
	callq	BZ2_hbAssignCodes.34
	addq	$8, %rsp
	popq	%rbx
	popq	%r12
	popq	%r13
	popq	%r14
	popq	%r15
	popq	%rbp
	.cfi_def_cfa %rsp, 8
	retq
.LBB1_15:                               # %func_BZ2_hbAssignCodes.35
	.cfi_def_cfa %rbp, 16
	movq	%rbx, %rdi
	movq	%r13, %rsi
	movl	%r12d, %edx
	movl	%r15d, %ecx
	movl	%r14d, %r8d
	callq	BZ2_hbAssignCodes.35
	addq	$8, %rsp
	popq	%rbx
	popq	%r12
	popq	%r13
	popq	%r14
	popq	%r15
	popq	%rbp
	.cfi_def_cfa %rsp, 8
	retq
.LBB1_16:                               # %func_BZ2_hbAssignCodes.38
	.cfi_def_cfa %rbp, 16
	movq	%rbx, %rdi
	movq	%r13, %rsi
	movl	%r12d, %edx
	movl	%r15d, %ecx
	movl	%r14d, %r8d
	callq	BZ2_hbAssignCodes.38
	addq	$8, %rsp
	popq	%rbx
	popq	%r12
	popq	%r13
	popq	%r14
	popq	%r15
	popq	%rbp
	.cfi_def_cfa %rsp, 8
	retq
.LBB1_17:                               # %ctrl0
	.cfi_def_cfa %rbp, 16
	cmpl	$1, %eax
	je	.LBB1_2
# %bb.18:                               # %ctrl1
	cmpl	$2, %eax
	je	.LBB1_3
# %bb.19:                               # %ctrl2
	cmpl	$3, %eax
	je	.LBB1_4
# %bb.20:                               # %ctrl3
	cmpl	$4, %eax
	je	.LBB1_5
# %bb.21:                               # %ctrl4
	cmpl	$5, %eax
	je	.LBB1_6
# %bb.22:                               # %ctrl5
	cmpl	$6, %eax
	je	.LBB1_7
# %bb.23:                               # %ctrl6
	cmpl	$7, %eax
	je	.LBB1_8
# %bb.24:                               # %ctrl7
	cmpl	$8, %eax
	je	.LBB1_9
# %bb.25:                               # %ctrl8
	cmpl	$9, %eax
	je	.LBB1_10
# %bb.26:                               # %ctrl9
	cmpl	$10, %eax
	je	.LBB1_11
# %bb.27:                               # %ctrl10
	cmpl	$11, %eax
	je	.LBB1_12
# %bb.28:                               # %ctrl11
	cmpl	$12, %eax
	je	.LBB1_13
# %bb.29:                               # %ctrl12
	cmpl	$13, %eax
	je	.LBB1_14
# %bb.30:                               # %ctrl13
	cmpl	$14, %eax
	je	.LBB1_15
	jmp	.LBB1_16
.Lfunc_end1:
	.size	BZ2_hbAssignCodes, .Lfunc_end1-BZ2_hbAssignCodes
	.cfi_endproc
                                        # -- End function
	.globl	BZ2_hbCreateDecodeTables # -- Begin function BZ2_hbCreateDecodeTables
	.p2align	4, 0x90
	.type	BZ2_hbCreateDecodeTables,@function
BZ2_hbCreateDecodeTables:               # @BZ2_hbCreateDecodeTables
	.cfi_startproc
# %bb.0:                                # %rand_bb
	pushq	%rbp
	.cfi_def_cfa_offset 16
	.cfi_offset %rbp, -16
	movq	%rsp, %rbp
	.cfi_def_cfa_register %rbp
	pushq	%r15
	pushq	%r14
	pushq	%r13
	pushq	%r12
	pushq	%rbx
	subq	$24, %rsp
	.cfi_offset %rbx, -56
	.cfi_offset %r12, -48
	.cfi_offset %r13, -40
	.cfi_offset %r14, -32
	.cfi_offset %r15, -24
	movl	%r9d, -44(%rbp)         # 4-byte Spill
	movl	%r8d, %r13d
	movq	%rcx, %rbx
	movq	%rdx, %r14
	movq	%rsi, %r15
	movq	%rdi, %r12
	callq	get_urand
	cmpl	$0, %eax
	jne	.LBB2_17
# %bb.1:                                # %func_BZ2_hbCreateDecodeTables.2
	movq	%r12, %rdi
	movq	%r15, %rsi
	movq	%r14, %rdx
	movq	%rbx, %rcx
	movl	%r13d, %r8d
	movl	-44(%rbp), %r9d         # 4-byte Reload
	movl	16(%rbp), %eax
	movl	%eax, (%rsp)
	callq	BZ2_hbCreateDecodeTables.2
	addq	$24, %rsp
	popq	%rbx
	popq	%r12
	popq	%r13
	popq	%r14
	popq	%r15
	popq	%rbp
	.cfi_def_cfa %rsp, 8
	retq
.LBB2_2:                                # %func_BZ2_hbCreateDecodeTables.4
	.cfi_def_cfa %rbp, 16
	movq	%r15, %rsi
	movl	%r12d, %r9d
	movl	16(%rbp), %eax
	movl	%eax, (%rsp)
	callq	BZ2_hbCreateDecodeTables.4
	addq	$24, %rsp
	popq	%rbx
	popq	%r12
	popq	%r13
	popq	%r14
	popq	%r15
	popq	%rbp
	.cfi_def_cfa %rsp, 8
	retq
.LBB2_3:                                # %func_BZ2_hbCreateDecodeTables.11
	.cfi_def_cfa %rbp, 16
	movq	%r10, %rdi
	movq	%rbx, %rdx
	movq	%r14, %rcx
	movl	%r13d, %r8d
	movl	%r11d, (%rsp)
	callq	BZ2_hbCreateDecodeTables.11
	addq	$24, %rsp
	popq	%rbx
	popq	%r12
	popq	%r13
	popq	%r14
	popq	%r15
	popq	%rbp
	.cfi_def_cfa %rsp, 8
	retq
.LBB2_4:                                # %func_BZ2_hbCreateDecodeTables.14
	.cfi_def_cfa %rbp, 16
	movq	%r10, %rdi
	movq	-56(%rbp), %rsi         # 8-byte Reload
	movq	%rbx, %rdx
	movq	%r14, %rcx
	movl	%r13d, %r8d
	movl	-44(%rbp), %r9d         # 4-byte Reload
	movl	%r11d, (%rsp)
	callq	BZ2_hbCreateDecodeTables.14
	addq	$24, %rsp
	popq	%rbx
	popq	%r12
	popq	%r13
	popq	%r14
	popq	%r15
	popq	%rbp
	.cfi_def_cfa %rsp, 8
	retq
.LBB2_5:                                # %func_BZ2_hbCreateDecodeTables.17
	.cfi_def_cfa %rbp, 16
	movq	%r10, %rdi
	movq	-56(%rbp), %rsi         # 8-byte Reload
	movq	%rbx, %rdx
	movq	%r14, %rcx
	movl	%r9d, %r8d
	movl	-44(%rbp), %r9d         # 4-byte Reload
	movl	%r11d, (%rsp)
	callq	BZ2_hbCreateDecodeTables.17
	addq	$24, %rsp
	popq	%rbx
	popq	%r12
	popq	%r13
	popq	%r14
	popq	%r15
	popq	%rbp
	.cfi_def_cfa %rsp, 8
	retq
.LBB2_6:                                # %func_BZ2_hbCreateDecodeTables.20
	.cfi_def_cfa %rbp, 16
	movq	%r10, %rdi
	movq	-56(%rbp), %rsi         # 8-byte Reload
	movq	%rbx, %rdx
	movq	%r13, %rcx
	movl	%r9d, %r8d
	movl	-44(%rbp), %r9d         # 4-byte Reload
	movl	%r11d, (%rsp)
	callq	BZ2_hbCreateDecodeTables.20
	addq	$24, %rsp
	popq	%rbx
	popq	%r12
	popq	%r13
	popq	%r14
	popq	%r15
	popq	%rbp
	.cfi_def_cfa %rsp, 8
	retq
.LBB2_7:                                # %func_BZ2_hbCreateDecodeTables.24
	.cfi_def_cfa %rbp, 16
	movq	%r10, %rdi
	movq	-56(%rbp), %rsi         # 8-byte Reload
	movq	%r14, %rdx
	movq	%r13, %rcx
	movl	%r9d, %r8d
	movl	-44(%rbp), %r9d         # 4-byte Reload
	movl	%r11d, (%rsp)
	callq	BZ2_hbCreateDecodeTables.24
	addq	$24, %rsp
	popq	%rbx
	popq	%r12
	popq	%r13
	popq	%r14
	popq	%r15
	popq	%rbp
	.cfi_def_cfa %rsp, 8
	retq
.LBB2_8:                                # %func_BZ2_hbCreateDecodeTables.26
	.cfi_def_cfa %rbp, 16
	movq	%r10, %rdi
	movq	%rbx, %rsi
	movq	%r14, %rdx
	movq	%r13, %rcx
	movl	%r9d, %r8d
	movl	-44(%rbp), %r9d         # 4-byte Reload
	movl	%r11d, (%rsp)
	callq	BZ2_hbCreateDecodeTables.26
	addq	$24, %rsp
	popq	%rbx
	popq	%r12
	popq	%r13
	popq	%r14
	popq	%r15
	popq	%rbp
	.cfi_def_cfa %rsp, 8
	retq
.LBB2_9:                                # %func_BZ2_hbCreateDecodeTables.27
	.cfi_def_cfa %rbp, 16
	movq	%r10, %rdi
	movq	%rbx, %rsi
	movq	%r14, %rdx
	movq	%r13, %rcx
	movl	%r9d, %r8d
	movl	-44(%rbp), %r9d         # 4-byte Reload
	movl	%r11d, (%rsp)
	callq	BZ2_hbCreateDecodeTables.27
	addq	$24, %rsp
	popq	%rbx
	popq	%r12
	popq	%r13
	popq	%r14
	popq	%r15
	popq	%rbp
	.cfi_def_cfa %rsp, 8
	retq
.LBB2_10:                               # %func_BZ2_hbCreateDecodeTables.30
	.cfi_def_cfa %rbp, 16
	movq	%r10, %rdi
	movq	%rbx, %rsi
	movq	%r14, %rdx
	movq	%r13, %rcx
	movl	%r9d, %r8d
	movl	-44(%rbp), %r9d         # 4-byte Reload
	movl	%r11d, (%rsp)
	callq	BZ2_hbCreateDecodeTables.30
	addq	$24, %rsp
	popq	%rbx
	popq	%r12
	popq	%r13
	popq	%r14
	popq	%r15
	popq	%rbp
	.cfi_def_cfa %rsp, 8
	retq
.LBB2_11:                               # %func_BZ2_hbCreateDecodeTables.36
	.cfi_def_cfa %rbp, 16
	movq	%r10, %rdi
	movq	%rbx, %rsi
	movq	%r14, %rdx
	movq	%r13, %rcx
	movl	%r9d, %r8d
	movl	-44(%rbp), %r9d         # 4-byte Reload
	movl	%r11d, (%rsp)
	callq	BZ2_hbCreateDecodeTables.36
	addq	$24, %rsp
	popq	%rbx
	popq	%r12
	popq	%r13
	popq	%r14
	popq	%r15
	popq	%rbp
	.cfi_def_cfa %rsp, 8
	retq
.LBB2_12:                               # %func_BZ2_hbCreateDecodeTables.37
	.cfi_def_cfa %rbp, 16
	movq	%r10, %rdi
	movq	%rbx, %rsi
	movq	%r14, %rdx
	movq	%r13, %rcx
	movl	%r9d, %r8d
	movl	-44(%rbp), %r9d         # 4-byte Reload
	movl	%r11d, (%rsp)
	callq	BZ2_hbCreateDecodeTables.37
	addq	$24, %rsp
	popq	%rbx
	popq	%r12
	popq	%r13
	popq	%r14
	popq	%r15
	popq	%rbp
	.cfi_def_cfa %rsp, 8
	retq
.LBB2_13:                               # %func_BZ2_hbCreateDecodeTables.41
	.cfi_def_cfa %rbp, 16
	movq	%r10, %rdi
	movq	%rbx, %rsi
	movq	%r14, %rdx
	movq	%r13, %rcx
	movl	%r9d, %r8d
	movl	-44(%rbp), %r9d         # 4-byte Reload
	movl	%r11d, (%rsp)
	callq	BZ2_hbCreateDecodeTables.41
	addq	$24, %rsp
	popq	%rbx
	popq	%r12
	popq	%r13
	popq	%r14
	popq	%r15
	popq	%rbp
	.cfi_def_cfa %rsp, 8
	retq
.LBB2_14:                               # %func_BZ2_hbCreateDecodeTables.43
	.cfi_def_cfa %rbp, 16
	movq	%r10, %rdi
	movq	%rbx, %rsi
	movq	%r14, %rdx
	movq	%r13, %rcx
	movl	%r9d, %r8d
	movl	-44(%rbp), %r9d         # 4-byte Reload
	movl	%r11d, (%rsp)
	callq	BZ2_hbCreateDecodeTables.43
	addq	$24, %rsp
	popq	%rbx
	popq	%r12
	popq	%r13
	popq	%r14
	popq	%r15
	popq	%rbp
	.cfi_def_cfa %rsp, 8
	retq
.LBB2_15:                               # %func_BZ2_hbCreateDecodeTables.45
	.cfi_def_cfa %rbp, 16
	movq	%r15, %rsi
	movl	%r12d, %r9d
	movl	16(%rbp), %eax
	movl	%eax, (%rsp)
	callq	BZ2_hbCreateDecodeTables.45
	addq	$24, %rsp
	popq	%rbx
	popq	%r12
	popq	%r13
	popq	%r14
	popq	%r15
	popq	%rbp
	.cfi_def_cfa %rsp, 8
	retq
.LBB2_16:                               # %func_BZ2_hbCreateDecodeTables.47
	.cfi_def_cfa %rbp, 16
	movq	%r15, %rsi
	movl	%r12d, %r9d
	movl	16(%rbp), %eax
	movl	%eax, (%rsp)
	callq	BZ2_hbCreateDecodeTables.47
	addq	$24, %rsp
	popq	%rbx
	popq	%r12
	popq	%r13
	popq	%r14
	popq	%r15
	popq	%rbp
	.cfi_def_cfa %rsp, 8
	retq
.LBB2_17:                               # %ctrl0
	.cfi_def_cfa %rbp, 16
	movq	%r12, %rdi
	movq	%r14, %rdx
	movq	%rbx, %rcx
	movl	%r13d, %r8d
	movl	-44(%rbp), %r12d        # 4-byte Reload
	cmpl	$1, %eax
	je	.LBB2_2
# %bb.18:                               # %ctrl1
	cmpl	$2, %eax
	movl	16(%rbp), %r11d
	movl	%r12d, %r9d
	movl	%r8d, %r13d
	movq	%rcx, %r14
	movq	%rdx, %rbx
	movq	%r15, %rsi
	movq	%rdi, %r10
	je	.LBB2_3
# %bb.19:                               # %ctrl2
	movq	%rsi, -56(%rbp)         # 8-byte Spill
	cmpl	$3, %eax
	je	.LBB2_4
# %bb.20:                               # %ctrl3
	cmpl	$4, %eax
	movl	%r13d, %r9d
	je	.LBB2_5
# %bb.21:                               # %ctrl4
	cmpl	$5, %eax
	movq	%r14, %r13
	je	.LBB2_6
# %bb.22:                               # %ctrl5
	cmpl	$6, %eax
	movq	%rbx, %r14
	je	.LBB2_7
# %bb.23:                               # %ctrl6
	cmpl	$7, %eax
	movq	-56(%rbp), %rbx         # 8-byte Reload
	je	.LBB2_8
# %bb.24:                               # %ctrl7
	cmpl	$8, %eax
	je	.LBB2_9
# %bb.25:                               # %ctrl8
	cmpl	$9, %eax
	je	.LBB2_10
# %bb.26:                               # %ctrl9
	cmpl	$10, %eax
	je	.LBB2_11
# %bb.27:                               # %ctrl10
	cmpl	$11, %eax
	je	.LBB2_12
# %bb.28:                               # %ctrl11
	cmpl	$12, %eax
	je	.LBB2_13
# %bb.29:                               # %ctrl12
	cmpl	$13, %eax
	je	.LBB2_14
# %bb.30:                               # %ctrl13
	cmpl	$14, %eax
	je	.LBB2_15
	jmp	.LBB2_16
.Lfunc_end2:
	.size	BZ2_hbCreateDecodeTables, .Lfunc_end2-BZ2_hbCreateDecodeTables
	.cfi_endproc
                                        # -- End function
	.globl	BZ2_hbMakeCodeLengths.1 # -- Begin function BZ2_hbMakeCodeLengths.1
	.p2align	4, 0x90
	.type	BZ2_hbMakeCodeLengths.1,@function
BZ2_hbMakeCodeLengths.1:                # @BZ2_hbMakeCodeLengths.1
	.cfi_startproc
# %bb.0:                                # %entry
	pushq	%rbp
	.cfi_def_cfa_offset 16
	.cfi_offset %rbp, -16
	movq	%rsp, %rbp
	.cfi_def_cfa_register %rbp
	subq	$5280, %rsp             # imm = 0x14A0
	movl	$1819623992, -84(%rbp)  # imm = 0x6C754238
	movq	%rdi, -104(%rbp)
	movq	%rsi, -96(%rbp)
	movl	%edx, -40(%rbp)
	movl	%ecx, -80(%rbp)
	movl	$0, -4(%rbp)
.LBB3_1:                                # %for.cond
                                        # =>This Inner Loop Header: Depth=1
	movl	-4(%rbp), %eax
	cmpl	-40(%rbp), %eax
	jge	.LBB3_7
# %bb.2:                                # %for.body
                                        #   in Loop: Header=BB3_1 Depth=1
	movq	-96(%rbp), %rax
	movslq	-4(%rbp), %rcx
	cmpl	$0, (%rax,%rcx,4)
	jne	.LBB3_4
# %bb.3:                                # %cond.true
                                        #   in Loop: Header=BB3_1 Depth=1
	movl	$1, %eax
	jmp	.LBB3_5
.LBB3_4:                                # %cond.false
                                        #   in Loop: Header=BB3_1 Depth=1
	movq	-96(%rbp), %rax
	movslq	-4(%rbp), %rcx
	movl	(%rax,%rcx,4), %eax
.LBB3_5:                                # %cond.end
                                        #   in Loop: Header=BB3_1 Depth=1
	shll	$8, %eax
	movl	-4(%rbp), %ecx
	addl	$1, %ecx
	movslq	%ecx, %rcx
	movl	%eax, -3216(%rbp,%rcx,4)
# %bb.6:                                # %for.inc
                                        #   in Loop: Header=BB3_1 Depth=1
	movl	-4(%rbp), %eax
	addl	$1, %eax
	movl	%eax, -4(%rbp)
	jmp	.LBB3_1
.LBB3_7:                                # %for.end
	jmp	.LBB3_8
.LBB3_8:                                # %while.body
                                        # =>This Loop Header: Depth=1
                                        #     Child Loop BB3_9 Depth 2
                                        #       Child Loop BB3_11 Depth 3
                                        #     Child Loop BB3_18 Depth 2
                                        #       Child Loop BB3_20 Depth 3
                                        #       Child Loop BB3_29 Depth 3
                                        #       Child Loop BB3_41 Depth 3
                                        #     Child Loop BB3_47 Depth 2
                                        #       Child Loop BB3_49 Depth 3
                                        #     Child Loop BB3_58 Depth 2
	movl	-40(%rbp), %eax
	movl	%eax, -36(%rbp)
	movl	$0, -8(%rbp)
	movl	$0, -1152(%rbp)
	movl	$0, -3216(%rbp)
	movl	$-2, -5280(%rbp)
	movl	$1, -4(%rbp)
.LBB3_9:                                # %for.cond9
                                        #   Parent Loop BB3_8 Depth=1
                                        # =>  This Loop Header: Depth=2
                                        #       Child Loop BB3_11 Depth 3
	movl	-4(%rbp), %eax
	cmpl	-40(%rbp), %eax
	jg	.LBB3_15
# %bb.10:                               # %for.body11
                                        #   in Loop: Header=BB3_9 Depth=2
	movslq	-4(%rbp), %rax
	movl	$-1, -5280(%rbp,%rax,4)
	movl	-8(%rbp), %eax
	addl	$1, %eax
	movl	%eax, -8(%rbp)
	movl	-4(%rbp), %eax
	movslq	-8(%rbp), %rcx
	movl	%eax, -1152(%rbp,%rcx,4)
	movl	-8(%rbp), %eax
	movl	%eax, -28(%rbp)
	movslq	-28(%rbp), %rax
	movl	-1152(%rbp,%rax,4), %eax
	movl	%eax, -64(%rbp)
.LBB3_11:                               # %while.cond19
                                        #   Parent Loop BB3_8 Depth=1
                                        #     Parent Loop BB3_9 Depth=2
                                        # =>    This Inner Loop Header: Depth=3
	movslq	-64(%rbp), %rax
	movl	-3216(%rbp,%rax,4), %eax
	movl	-28(%rbp), %ecx
	sarl	$1, %ecx
	movslq	%ecx, %rcx
	movslq	-1152(%rbp,%rcx,4), %rcx
	cmpl	-3216(%rbp,%rcx,4), %eax
	jge	.LBB3_13
# %bb.12:                               # %while.body27
                                        #   in Loop: Header=BB3_11 Depth=3
	movl	-28(%rbp), %eax
	sarl	$1, %eax
	cltq
	movl	-1152(%rbp,%rax,4), %eax
	movslq	-28(%rbp), %rcx
	movl	%eax, -1152(%rbp,%rcx,4)
	movl	-28(%rbp), %eax
	sarl	$1, %eax
	movl	%eax, -28(%rbp)
	jmp	.LBB3_11
.LBB3_13:                               # %while.end
                                        #   in Loop: Header=BB3_9 Depth=2
	movl	-64(%rbp), %eax
	movslq	-28(%rbp), %rcx
	movl	%eax, -1152(%rbp,%rcx,4)
# %bb.14:                               # %for.inc36
                                        #   in Loop: Header=BB3_9 Depth=2
	movl	-4(%rbp), %eax
	addl	$1, %eax
	movl	%eax, -4(%rbp)
	jmp	.LBB3_9
.LBB3_15:                               # %for.end38
                                        #   in Loop: Header=BB3_8 Depth=1
	cmpl	$260, -8(%rbp)          # imm = 0x104
	jl	.LBB3_17
# %bb.16:                               # %if.then
                                        #   in Loop: Header=BB3_8 Depth=1
	movl	$2001, %edi             # imm = 0x7D1
	callq	BZ2_bz__AssertH__fail
.LBB3_17:                               # %if.end
                                        #   in Loop: Header=BB3_8 Depth=1
	jmp	.LBB3_18
.LBB3_18:                               # %while.cond40
                                        #   Parent Loop BB3_8 Depth=1
                                        # =>  This Loop Header: Depth=2
                                        #       Child Loop BB3_20 Depth 3
                                        #       Child Loop BB3_29 Depth 3
                                        #       Child Loop BB3_41 Depth 3
	cmpl	$1, -8(%rbp)
	jle	.LBB3_44
# %bb.19:                               # %while.body42
                                        #   in Loop: Header=BB3_18 Depth=2
	movl	-1148(%rbp), %eax
	movl	%eax, -56(%rbp)
	movslq	-8(%rbp), %rax
	movl	-1152(%rbp,%rax,4), %eax
	movl	%eax, -1148(%rbp)
	movl	-8(%rbp), %eax
	addl	$-1, %eax
	movl	%eax, -8(%rbp)
	movl	$1, -48(%rbp)
	movslq	-48(%rbp), %rax
	movl	-1152(%rbp,%rax,4), %eax
	movl	%eax, -76(%rbp)
.LBB3_20:                               # %while.body52
                                        #   Parent Loop BB3_8 Depth=1
                                        #     Parent Loop BB3_18 Depth=2
                                        # =>    This Inner Loop Header: Depth=3
	movl	-48(%rbp), %eax
	shll	$1, %eax
	movl	%eax, -16(%rbp)
	movl	-16(%rbp), %eax
	cmpl	-8(%rbp), %eax
	jle	.LBB3_22
# %bb.21:                               # %if.then55
                                        #   in Loop: Header=BB3_18 Depth=2
	jmp	.LBB3_28
.LBB3_22:                               # %if.end56
                                        #   in Loop: Header=BB3_20 Depth=3
	movl	-16(%rbp), %eax
	cmpl	-8(%rbp), %eax
	jge	.LBB3_25
# %bb.23:                               # %land.lhs.true
                                        #   in Loop: Header=BB3_20 Depth=3
	movl	-16(%rbp), %eax
	addl	$1, %eax
	cltq
	movslq	-1152(%rbp,%rax,4), %rax
	movl	-3216(%rbp,%rax,4), %eax
	movslq	-16(%rbp), %rcx
	movslq	-1152(%rbp,%rcx,4), %rcx
	cmpl	-3216(%rbp,%rcx,4), %eax
	jge	.LBB3_25
# %bb.24:                               # %if.then68
                                        #   in Loop: Header=BB3_20 Depth=3
	movl	-16(%rbp), %eax
	addl	$1, %eax
	movl	%eax, -16(%rbp)
.LBB3_25:                               # %if.end70
                                        #   in Loop: Header=BB3_20 Depth=3
	movslq	-76(%rbp), %rax
	movl	-3216(%rbp,%rax,4), %eax
	movslq	-16(%rbp), %rcx
	movslq	-1152(%rbp,%rcx,4), %rcx
	cmpl	-3216(%rbp,%rcx,4), %eax
	jge	.LBB3_27
# %bb.26:                               # %if.then78
                                        #   in Loop: Header=BB3_18 Depth=2
	jmp	.LBB3_28
.LBB3_27:                               # %if.end79
                                        #   in Loop: Header=BB3_20 Depth=3
	movslq	-16(%rbp), %rax
	movl	-1152(%rbp,%rax,4), %eax
	movslq	-48(%rbp), %rcx
	movl	%eax, -1152(%rbp,%rcx,4)
	movl	-16(%rbp), %eax
	movl	%eax, -48(%rbp)
	jmp	.LBB3_20
.LBB3_28:                               # %while.end84
                                        #   in Loop: Header=BB3_18 Depth=2
	movl	-76(%rbp), %eax
	movslq	-48(%rbp), %rcx
	movl	%eax, -1152(%rbp,%rcx,4)
	movl	-1148(%rbp), %eax
	movl	%eax, -52(%rbp)
	movslq	-8(%rbp), %rax
	movl	-1152(%rbp,%rax,4), %eax
	movl	%eax, -1148(%rbp)
	movl	-8(%rbp), %eax
	addl	$-1, %eax
	movl	%eax, -8(%rbp)
	movl	$1, -44(%rbp)
	movslq	-44(%rbp), %rax
	movl	-1152(%rbp,%rax,4), %eax
	movl	%eax, -68(%rbp)
.LBB3_29:                               # %while.body98
                                        #   Parent Loop BB3_8 Depth=1
                                        #     Parent Loop BB3_18 Depth=2
                                        # =>    This Inner Loop Header: Depth=3
	movl	-44(%rbp), %eax
	shll	$1, %eax
	movl	%eax, -20(%rbp)
	movl	-20(%rbp), %eax
	cmpl	-8(%rbp), %eax
	jle	.LBB3_31
# %bb.30:                               # %if.then101
                                        #   in Loop: Header=BB3_18 Depth=2
	jmp	.LBB3_37
.LBB3_31:                               # %if.end102
                                        #   in Loop: Header=BB3_29 Depth=3
	movl	-20(%rbp), %eax
	cmpl	-8(%rbp), %eax
	jge	.LBB3_34
# %bb.32:                               # %land.lhs.true104
                                        #   in Loop: Header=BB3_29 Depth=3
	movl	-20(%rbp), %eax
	addl	$1, %eax
	cltq
	movslq	-1152(%rbp,%rax,4), %rax
	movl	-3216(%rbp,%rax,4), %eax
	movslq	-20(%rbp), %rcx
	movslq	-1152(%rbp,%rcx,4), %rcx
	cmpl	-3216(%rbp,%rcx,4), %eax
	jge	.LBB3_34
# %bb.33:                               # %if.then115
                                        #   in Loop: Header=BB3_29 Depth=3
	movl	-20(%rbp), %eax
	addl	$1, %eax
	movl	%eax, -20(%rbp)
.LBB3_34:                               # %if.end117
                                        #   in Loop: Header=BB3_29 Depth=3
	movslq	-68(%rbp), %rax
	movl	-3216(%rbp,%rax,4), %eax
	movslq	-20(%rbp), %rcx
	movslq	-1152(%rbp,%rcx,4), %rcx
	cmpl	-3216(%rbp,%rcx,4), %eax
	jge	.LBB3_36
# %bb.35:                               # %if.then125
                                        #   in Loop: Header=BB3_18 Depth=2
	jmp	.LBB3_37
.LBB3_36:                               # %if.end126
                                        #   in Loop: Header=BB3_29 Depth=3
	movslq	-20(%rbp), %rax
	movl	-1152(%rbp,%rax,4), %eax
	movslq	-44(%rbp), %rcx
	movl	%eax, -1152(%rbp,%rcx,4)
	movl	-20(%rbp), %eax
	movl	%eax, -44(%rbp)
	jmp	.LBB3_29
.LBB3_37:                               # %while.end131
                                        #   in Loop: Header=BB3_18 Depth=2
	movl	-68(%rbp), %eax
	movslq	-44(%rbp), %rcx
	movl	%eax, -1152(%rbp,%rcx,4)
	movl	-36(%rbp), %eax
	addl	$1, %eax
	movl	%eax, -36(%rbp)
	movl	-36(%rbp), %eax
	movslq	-52(%rbp), %rcx
	movl	%eax, -5280(%rbp,%rcx,4)
	movslq	-56(%rbp), %rcx
	movl	%eax, -5280(%rbp,%rcx,4)
	movslq	-56(%rbp), %rax
	movl	-3216(%rbp,%rax,4), %eax
	andl	$-256, %eax
	movslq	-52(%rbp), %rcx
	movl	-3216(%rbp,%rcx,4), %ecx
	andl	$-256, %ecx
	addl	%ecx, %eax
	movslq	-56(%rbp), %rcx
	movl	-3216(%rbp,%rcx,4), %ecx
	andl	$255, %ecx
	movslq	-52(%rbp), %rdx
	movl	-3216(%rbp,%rdx,4), %edx
	andl	$255, %edx
	cmpl	%edx, %ecx
	jle	.LBB3_39
# %bb.38:                               # %cond.true152
                                        #   in Loop: Header=BB3_18 Depth=2
	movslq	-56(%rbp), %rcx
	movl	-3216(%rbp,%rcx,4), %ecx
	andl	$255, %ecx
	jmp	.LBB3_40
.LBB3_39:                               # %cond.false156
                                        #   in Loop: Header=BB3_18 Depth=2
	movslq	-52(%rbp), %rcx
	movl	-3216(%rbp,%rcx,4), %ecx
	andl	$255, %ecx
.LBB3_40:                               # %cond.end160
                                        #   in Loop: Header=BB3_18 Depth=2
	addl	$1, %ecx
	orl	%ecx, %eax
	movslq	-36(%rbp), %rcx
	movl	%eax, -3216(%rbp,%rcx,4)
	movslq	-36(%rbp), %rax
	movl	$-1, -5280(%rbp,%rax,4)
	movl	-8(%rbp), %eax
	addl	$1, %eax
	movl	%eax, -8(%rbp)
	movl	-36(%rbp), %eax
	movslq	-8(%rbp), %rcx
	movl	%eax, -1152(%rbp,%rcx,4)
	movl	-8(%rbp), %eax
	movl	%eax, -32(%rbp)
	movslq	-32(%rbp), %rax
	movl	-1152(%rbp,%rax,4), %eax
	movl	%eax, -72(%rbp)
.LBB3_41:                               # %while.cond174
                                        #   Parent Loop BB3_8 Depth=1
                                        #     Parent Loop BB3_18 Depth=2
                                        # =>    This Inner Loop Header: Depth=3
	movslq	-72(%rbp), %rax
	movl	-3216(%rbp,%rax,4), %eax
	movl	-32(%rbp), %ecx
	sarl	$1, %ecx
	movslq	%ecx, %rcx
	movslq	-1152(%rbp,%rcx,4), %rcx
	cmpl	-3216(%rbp,%rcx,4), %eax
	jge	.LBB3_43
# %bb.42:                               # %while.body183
                                        #   in Loop: Header=BB3_41 Depth=3
	movl	-32(%rbp), %eax
	sarl	$1, %eax
	cltq
	movl	-1152(%rbp,%rax,4), %eax
	movslq	-32(%rbp), %rcx
	movl	%eax, -1152(%rbp,%rcx,4)
	movl	-32(%rbp), %eax
	sarl	$1, %eax
	movl	%eax, -32(%rbp)
	jmp	.LBB3_41
.LBB3_43:                               # %while.end190
                                        #   in Loop: Header=BB3_18 Depth=2
	movl	-72(%rbp), %eax
	movslq	-32(%rbp), %rcx
	movl	%eax, -1152(%rbp,%rcx,4)
	jmp	.LBB3_18
.LBB3_44:                               # %while.end193
                                        #   in Loop: Header=BB3_8 Depth=1
	cmpl	$516, -36(%rbp)         # imm = 0x204
	jl	.LBB3_46
# %bb.45:                               # %if.then195
                                        #   in Loop: Header=BB3_8 Depth=1
	movl	$2002, %edi             # imm = 0x7D2
	callq	BZ2_bz__AssertH__fail
.LBB3_46:                               # %if.end196
                                        #   in Loop: Header=BB3_8 Depth=1
	movb	$0, -9(%rbp)
	movl	$1, -4(%rbp)
.LBB3_47:                               # %for.cond197
                                        #   Parent Loop BB3_8 Depth=1
                                        # =>  This Loop Header: Depth=2
                                        #       Child Loop BB3_49 Depth 3
	movl	-4(%rbp), %eax
	cmpl	-40(%rbp), %eax
	jg	.LBB3_55
# %bb.48:                               # %for.body199
                                        #   in Loop: Header=BB3_47 Depth=2
	movl	$0, -24(%rbp)
	movl	-4(%rbp), %eax
	movl	%eax, -60(%rbp)
.LBB3_49:                               # %while.cond200
                                        #   Parent Loop BB3_8 Depth=1
                                        #     Parent Loop BB3_47 Depth=2
                                        # =>    This Inner Loop Header: Depth=3
	movslq	-60(%rbp), %rax
	cmpl	$0, -5280(%rbp,%rax,4)
	jl	.LBB3_51
# %bb.50:                               # %while.body204
                                        #   in Loop: Header=BB3_49 Depth=3
	movslq	-60(%rbp), %rax
	movl	-5280(%rbp,%rax,4), %eax
	movl	%eax, -60(%rbp)
	movl	-24(%rbp), %eax
	addl	$1, %eax
	movl	%eax, -24(%rbp)
	jmp	.LBB3_49
.LBB3_51:                               # %while.end208
                                        #   in Loop: Header=BB3_47 Depth=2
	movl	-24(%rbp), %eax
	movq	-104(%rbp), %rcx
	movl	-4(%rbp), %edx
	subl	$1, %edx
	movslq	%edx, %rdx
	movb	%al, (%rcx,%rdx)
	movl	-24(%rbp), %eax
	cmpl	-80(%rbp), %eax
	jle	.LBB3_53
# %bb.52:                               # %if.then213
                                        #   in Loop: Header=BB3_47 Depth=2
	movb	$1, -9(%rbp)
.LBB3_53:                               # %if.end214
                                        #   in Loop: Header=BB3_47 Depth=2
	jmp	.LBB3_54
.LBB3_54:                               # %for.inc215
                                        #   in Loop: Header=BB3_47 Depth=2
	movl	-4(%rbp), %eax
	addl	$1, %eax
	movl	%eax, -4(%rbp)
	jmp	.LBB3_47
.LBB3_55:                               # %for.end217
                                        #   in Loop: Header=BB3_8 Depth=1
	cmpb	$0, -9(%rbp)
	jne	.LBB3_57
# %bb.56:                               # %if.then218
	jmp	.LBB3_62
.LBB3_57:                               # %if.end219
                                        #   in Loop: Header=BB3_8 Depth=1
	movl	$1, -4(%rbp)
.LBB3_58:                               # %for.cond220
                                        #   Parent Loop BB3_8 Depth=1
                                        # =>  This Inner Loop Header: Depth=2
	movl	-4(%rbp), %eax
	cmpl	-40(%rbp), %eax
	jg	.LBB3_61
# %bb.59:                               # %for.body223
                                        #   in Loop: Header=BB3_58 Depth=2
	movslq	-4(%rbp), %rax
	movl	-3216(%rbp,%rax,4), %eax
	sarl	$8, %eax
	movl	%eax, -24(%rbp)
	movl	-24(%rbp), %eax
	cltd
	movl	$2, %ecx
	idivl	%ecx
	addl	$1, %eax
	movl	%eax, -24(%rbp)
	movl	-24(%rbp), %eax
	shll	$8, %eax
	movslq	-4(%rbp), %rcx
	movl	%eax, -3216(%rbp,%rcx,4)
# %bb.60:                               # %for.inc231
                                        #   in Loop: Header=BB3_58 Depth=2
	movl	-4(%rbp), %eax
	addl	$1, %eax
	movl	%eax, -4(%rbp)
	jmp	.LBB3_58
.LBB3_61:                               # %for.end233
                                        #   in Loop: Header=BB3_8 Depth=1
	jmp	.LBB3_8
.LBB3_62:                               # %while.end234
	cmpl	$1819623992, -84(%rbp)  # imm = 0x6C754238
	jne	.LBB3_64
.LBB3_63:
	addq	$5280, %rsp             # imm = 0x14A0
	popq	%rbp
	.cfi_def_cfa %rsp, 8
	retq
.LBB3_64:                               # %func_exit
	.cfi_def_cfa %rbp, 16
	callq	detect_breach
	jmp	.LBB3_63
.Lfunc_end3:
	.size	BZ2_hbMakeCodeLengths.1, .Lfunc_end3-BZ2_hbMakeCodeLengths.1
	.cfi_endproc
                                        # -- End function
	.globl	BZ2_hbCreateDecodeTables.2 # -- Begin function BZ2_hbCreateDecodeTables.2
	.p2align	4, 0x90
	.type	BZ2_hbCreateDecodeTables.2,@function
BZ2_hbCreateDecodeTables.2:             # @BZ2_hbCreateDecodeTables.2
	.cfi_startproc
# %bb.0:                                # %entry
	pushq	%rbp
	.cfi_def_cfa_offset 16
	.cfi_offset %rbp, -16
	movq	%rsp, %rbp
	.cfi_def_cfa_register %rbp
	subq	$80, %rsp
	movl	16(%rbp), %eax
	movl	$396289214, -52(%rbp)   # imm = 0x179EE4BE
	movq	%rdi, -48(%rbp)
	movq	%rsi, -24(%rbp)
	movq	%rdx, -72(%rbp)
	movq	%rcx, -64(%rbp)
	movl	%r8d, -36(%rbp)
	movl	%r9d, -28(%rbp)
	movl	$0, -32(%rbp)
	movl	-36(%rbp), %eax
	movl	%eax, -4(%rbp)
.LBB4_1:                                # %for.cond
                                        # =>This Loop Header: Depth=1
                                        #     Child Loop BB4_3 Depth 2
	movl	-4(%rbp), %eax
	cmpl	-28(%rbp), %eax
	jg	.LBB4_10
# %bb.2:                                # %for.body
                                        #   in Loop: Header=BB4_1 Depth=1
	movl	$0, -8(%rbp)
.LBB4_3:                                # %for.cond1
                                        #   Parent Loop BB4_1 Depth=1
                                        # =>  This Inner Loop Header: Depth=2
	movl	-8(%rbp), %eax
	cmpl	16(%rbp), %eax
	jge	.LBB4_8
# %bb.4:                                # %for.body3
                                        #   in Loop: Header=BB4_3 Depth=2
	movq	-64(%rbp), %rax
	movslq	-8(%rbp), %rcx
	movzbl	(%rax,%rcx), %eax
	cmpl	-4(%rbp), %eax
	jne	.LBB4_6
# %bb.5:                                # %if.then
                                        #   in Loop: Header=BB4_3 Depth=2
	movl	-8(%rbp), %eax
	movq	-72(%rbp), %rcx
	movslq	-32(%rbp), %rdx
	movl	%eax, (%rcx,%rdx,4)
	movl	-32(%rbp), %eax
	addl	$1, %eax
	movl	%eax, -32(%rbp)
.LBB4_6:                                # %if.end
                                        #   in Loop: Header=BB4_3 Depth=2
	jmp	.LBB4_7
.LBB4_7:                                # %for.inc
                                        #   in Loop: Header=BB4_3 Depth=2
	movl	-8(%rbp), %eax
	addl	$1, %eax
	movl	%eax, -8(%rbp)
	jmp	.LBB4_3
.LBB4_8:                                # %for.end
                                        #   in Loop: Header=BB4_1 Depth=1
	jmp	.LBB4_9
.LBB4_9:                                # %for.inc9
                                        #   in Loop: Header=BB4_1 Depth=1
	movl	-4(%rbp), %eax
	addl	$1, %eax
	movl	%eax, -4(%rbp)
	jmp	.LBB4_1
.LBB4_10:                               # %for.end11
	movl	$0, -4(%rbp)
.LBB4_11:                               # %for.cond12
                                        # =>This Inner Loop Header: Depth=1
	cmpl	$23, -4(%rbp)
	jge	.LBB4_14
# %bb.12:                               # %for.body15
                                        #   in Loop: Header=BB4_11 Depth=1
	movq	-24(%rbp), %rax
	movslq	-4(%rbp), %rcx
	movl	$0, (%rax,%rcx,4)
# %bb.13:                               # %for.inc18
                                        #   in Loop: Header=BB4_11 Depth=1
	movl	-4(%rbp), %eax
	addl	$1, %eax
	movl	%eax, -4(%rbp)
	jmp	.LBB4_11
.LBB4_14:                               # %for.end20
	movl	$0, -4(%rbp)
.LBB4_15:                               # %for.cond21
                                        # =>This Inner Loop Header: Depth=1
	movl	-4(%rbp), %eax
	cmpl	16(%rbp), %eax
	jge	.LBB4_18
# %bb.16:                               # %for.body24
                                        #   in Loop: Header=BB4_15 Depth=1
	movq	-24(%rbp), %rax
	movq	-64(%rbp), %rcx
	movslq	-4(%rbp), %rdx
	movzbl	(%rcx,%rdx), %ecx
	addl	$1, %ecx
	movslq	%ecx, %rcx
	movl	(%rax,%rcx,4), %edx
	addl	$1, %edx
	movl	%edx, (%rax,%rcx,4)
# %bb.17:                               # %for.inc31
                                        #   in Loop: Header=BB4_15 Depth=1
	movl	-4(%rbp), %eax
	addl	$1, %eax
	movl	%eax, -4(%rbp)
	jmp	.LBB4_15
.LBB4_18:                               # %for.end33
	movl	$1, -4(%rbp)
.LBB4_19:                               # %for.cond34
                                        # =>This Inner Loop Header: Depth=1
	cmpl	$23, -4(%rbp)
	jge	.LBB4_22
# %bb.20:                               # %for.body37
                                        #   in Loop: Header=BB4_19 Depth=1
	movq	-24(%rbp), %rax
	movl	-4(%rbp), %ecx
	subl	$1, %ecx
	movslq	%ecx, %rcx
	movl	(%rax,%rcx,4), %eax
	movq	-24(%rbp), %rcx
	movslq	-4(%rbp), %rdx
	addl	(%rcx,%rdx,4), %eax
	movl	%eax, (%rcx,%rdx,4)
# %bb.21:                               # %for.inc43
                                        #   in Loop: Header=BB4_19 Depth=1
	movl	-4(%rbp), %eax
	addl	$1, %eax
	movl	%eax, -4(%rbp)
	jmp	.LBB4_19
.LBB4_22:                               # %for.end45
	movl	$0, -4(%rbp)
.LBB4_23:                               # %for.cond46
                                        # =>This Inner Loop Header: Depth=1
	cmpl	$23, -4(%rbp)
	jge	.LBB4_26
# %bb.24:                               # %for.body49
                                        #   in Loop: Header=BB4_23 Depth=1
	movq	-48(%rbp), %rax
	movslq	-4(%rbp), %rcx
	movl	$0, (%rax,%rcx,4)
# %bb.25:                               # %for.inc52
                                        #   in Loop: Header=BB4_23 Depth=1
	movl	-4(%rbp), %eax
	addl	$1, %eax
	movl	%eax, -4(%rbp)
	jmp	.LBB4_23
.LBB4_26:                               # %for.end54
	movl	$0, -12(%rbp)
	movl	-36(%rbp), %eax
	movl	%eax, -4(%rbp)
.LBB4_27:                               # %for.cond55
                                        # =>This Inner Loop Header: Depth=1
	movl	-4(%rbp), %eax
	cmpl	-28(%rbp), %eax
	jg	.LBB4_30
# %bb.28:                               # %for.body58
                                        #   in Loop: Header=BB4_27 Depth=1
	movq	-24(%rbp), %rax
	movl	-4(%rbp), %ecx
	addl	$1, %ecx
	movslq	%ecx, %rcx
	movl	(%rax,%rcx,4), %eax
	movq	-24(%rbp), %rcx
	movslq	-4(%rbp), %rdx
	subl	(%rcx,%rdx,4), %eax
	addl	-12(%rbp), %eax
	movl	%eax, -12(%rbp)
	movl	-12(%rbp), %eax
	subl	$1, %eax
	movq	-48(%rbp), %rcx
	movslq	-4(%rbp), %rdx
	movl	%eax, (%rcx,%rdx,4)
	movl	-12(%rbp), %eax
	shll	$1, %eax
	movl	%eax, -12(%rbp)
# %bb.29:                               # %for.inc69
                                        #   in Loop: Header=BB4_27 Depth=1
	movl	-4(%rbp), %eax
	addl	$1, %eax
	movl	%eax, -4(%rbp)
	jmp	.LBB4_27
.LBB4_30:                               # %for.end71
	movl	-36(%rbp), %eax
	addl	$1, %eax
	movl	%eax, -4(%rbp)
.LBB4_31:                               # %for.cond73
                                        # =>This Inner Loop Header: Depth=1
	movl	-4(%rbp), %eax
	cmpl	-28(%rbp), %eax
	jg	.LBB4_34
# %bb.32:                               # %for.body76
                                        #   in Loop: Header=BB4_31 Depth=1
	movq	-48(%rbp), %rax
	movl	-4(%rbp), %ecx
	subl	$1, %ecx
	movslq	%ecx, %rcx
	movl	(%rax,%rcx,4), %eax
	addl	$1, %eax
	shll	$1, %eax
	movq	-24(%rbp), %rcx
	movslq	-4(%rbp), %rdx
	subl	(%rcx,%rdx,4), %eax
	movq	-24(%rbp), %rcx
	movslq	-4(%rbp), %rdx
	movl	%eax, (%rcx,%rdx,4)
# %bb.33:                               # %for.inc87
                                        #   in Loop: Header=BB4_31 Depth=1
	movl	-4(%rbp), %eax
	addl	$1, %eax
	movl	%eax, -4(%rbp)
	jmp	.LBB4_31
.LBB4_34:                               # %for.end89
	cmpl	$396289214, -52(%rbp)   # imm = 0x179EE4BE
	jne	.LBB4_36
.LBB4_35:
	addq	$80, %rsp
	popq	%rbp
	.cfi_def_cfa %rsp, 8
	retq
.LBB4_36:                               # %func_exit
	.cfi_def_cfa %rbp, 16
	callq	detect_breach
	jmp	.LBB4_35
.Lfunc_end4:
	.size	BZ2_hbCreateDecodeTables.2, .Lfunc_end4-BZ2_hbCreateDecodeTables.2
	.cfi_endproc
                                        # -- End function
	.globl	BZ2_hbAssignCodes.3     # -- Begin function BZ2_hbAssignCodes.3
	.p2align	4, 0x90
	.type	BZ2_hbAssignCodes.3,@function
BZ2_hbAssignCodes.3:                    # @BZ2_hbAssignCodes.3
	.cfi_startproc
# %bb.0:                                # %entry
	pushq	%rbp
	.cfi_def_cfa_offset 16
	.cfi_offset %rbp, -16
	movq	%rsp, %rbp
	.cfi_def_cfa_register %rbp
	subq	$48, %rsp
	movl	$2091956426, -28(%rbp)  # imm = 0x7CB0B8CA
	movq	%rdi, -48(%rbp)
	movq	%rsi, -40(%rbp)
	movl	%edx, -24(%rbp)
	movl	%ecx, -20(%rbp)
	movl	%r8d, -16(%rbp)
	movl	$0, -8(%rbp)
	movl	-24(%rbp), %eax
	movl	%eax, -12(%rbp)
.LBB5_1:                                # %for.cond
                                        # =>This Loop Header: Depth=1
                                        #     Child Loop BB5_3 Depth 2
	movl	-12(%rbp), %eax
	cmpl	-20(%rbp), %eax
	jg	.LBB5_10
# %bb.2:                                # %for.body
                                        #   in Loop: Header=BB5_1 Depth=1
	movl	$0, -4(%rbp)
.LBB5_3:                                # %for.cond1
                                        #   Parent Loop BB5_1 Depth=1
                                        # =>  This Inner Loop Header: Depth=2
	movl	-4(%rbp), %eax
	cmpl	-16(%rbp), %eax
	jge	.LBB5_8
# %bb.4:                                # %for.body3
                                        #   in Loop: Header=BB5_3 Depth=2
	movq	-40(%rbp), %rax
	movslq	-4(%rbp), %rcx
	movzbl	(%rax,%rcx), %eax
	cmpl	-12(%rbp), %eax
	jne	.LBB5_6
# %bb.5:                                # %if.then
                                        #   in Loop: Header=BB5_3 Depth=2
	movl	-8(%rbp), %eax
	movq	-48(%rbp), %rcx
	movslq	-4(%rbp), %rdx
	movl	%eax, (%rcx,%rdx,4)
	movl	-8(%rbp), %eax
	addl	$1, %eax
	movl	%eax, -8(%rbp)
.LBB5_6:                                # %if.end
                                        #   in Loop: Header=BB5_3 Depth=2
	jmp	.LBB5_7
.LBB5_7:                                # %for.inc
                                        #   in Loop: Header=BB5_3 Depth=2
	movl	-4(%rbp), %eax
	addl	$1, %eax
	movl	%eax, -4(%rbp)
	jmp	.LBB5_3
.LBB5_8:                                # %for.end
                                        #   in Loop: Header=BB5_1 Depth=1
	movl	-8(%rbp), %eax
	shll	$1, %eax
	movl	%eax, -8(%rbp)
# %bb.9:                                # %for.inc9
                                        #   in Loop: Header=BB5_1 Depth=1
	movl	-12(%rbp), %eax
	addl	$1, %eax
	movl	%eax, -12(%rbp)
	jmp	.LBB5_1
.LBB5_10:                               # %for.end11
	cmpl	$2091956426, -28(%rbp)  # imm = 0x7CB0B8CA
	jne	.LBB5_12
.LBB5_11:
	addq	$48, %rsp
	popq	%rbp
	.cfi_def_cfa %rsp, 8
	retq
.LBB5_12:                               # %func_exit
	.cfi_def_cfa %rbp, 16
	callq	detect_breach
	jmp	.LBB5_11
.Lfunc_end5:
	.size	BZ2_hbAssignCodes.3, .Lfunc_end5-BZ2_hbAssignCodes.3
	.cfi_endproc
                                        # -- End function
	.globl	BZ2_hbCreateDecodeTables.4 # -- Begin function BZ2_hbCreateDecodeTables.4
	.p2align	4, 0x90
	.type	BZ2_hbCreateDecodeTables.4,@function
BZ2_hbCreateDecodeTables.4:             # @BZ2_hbCreateDecodeTables.4
	.cfi_startproc
# %bb.0:                                # %entry
	pushq	%rbp
	.cfi_def_cfa_offset 16
	.cfi_offset %rbp, -16
	movq	%rsp, %rbp
	.cfi_def_cfa_register %rbp
	subq	$80, %rsp
	movl	16(%rbp), %eax
	movl	$962022255, -52(%rbp)   # imm = 0x39574B6F
	movq	%rdi, -48(%rbp)
	movq	%rsi, -24(%rbp)
	movq	%rdx, -72(%rbp)
	movq	%rcx, -64(%rbp)
	movl	%r8d, -36(%rbp)
	movl	%r9d, -32(%rbp)
	movl	$0, -28(%rbp)
	movl	-36(%rbp), %eax
	movl	%eax, -4(%rbp)
.LBB6_1:                                # %for.cond
                                        # =>This Loop Header: Depth=1
                                        #     Child Loop BB6_3 Depth 2
	movl	-4(%rbp), %eax
	cmpl	-32(%rbp), %eax
	jg	.LBB6_10
# %bb.2:                                # %for.body
                                        #   in Loop: Header=BB6_1 Depth=1
	movl	$0, -8(%rbp)
.LBB6_3:                                # %for.cond1
                                        #   Parent Loop BB6_1 Depth=1
                                        # =>  This Inner Loop Header: Depth=2
	movl	-8(%rbp), %eax
	cmpl	16(%rbp), %eax
	jge	.LBB6_8
# %bb.4:                                # %for.body3
                                        #   in Loop: Header=BB6_3 Depth=2
	movq	-64(%rbp), %rax
	movslq	-8(%rbp), %rcx
	movzbl	(%rax,%rcx), %eax
	cmpl	-4(%rbp), %eax
	jne	.LBB6_6
# %bb.5:                                # %if.then
                                        #   in Loop: Header=BB6_3 Depth=2
	movl	-8(%rbp), %eax
	movq	-72(%rbp), %rcx
	movslq	-28(%rbp), %rdx
	movl	%eax, (%rcx,%rdx,4)
	movl	-28(%rbp), %eax
	addl	$1, %eax
	movl	%eax, -28(%rbp)
.LBB6_6:                                # %if.end
                                        #   in Loop: Header=BB6_3 Depth=2
	jmp	.LBB6_7
.LBB6_7:                                # %for.inc
                                        #   in Loop: Header=BB6_3 Depth=2
	movl	-8(%rbp), %eax
	addl	$1, %eax
	movl	%eax, -8(%rbp)
	jmp	.LBB6_3
.LBB6_8:                                # %for.end
                                        #   in Loop: Header=BB6_1 Depth=1
	jmp	.LBB6_9
.LBB6_9:                                # %for.inc9
                                        #   in Loop: Header=BB6_1 Depth=1
	movl	-4(%rbp), %eax
	addl	$1, %eax
	movl	%eax, -4(%rbp)
	jmp	.LBB6_1
.LBB6_10:                               # %for.end11
	movl	$0, -4(%rbp)
.LBB6_11:                               # %for.cond12
                                        # =>This Inner Loop Header: Depth=1
	cmpl	$23, -4(%rbp)
	jge	.LBB6_14
# %bb.12:                               # %for.body15
                                        #   in Loop: Header=BB6_11 Depth=1
	movq	-24(%rbp), %rax
	movslq	-4(%rbp), %rcx
	movl	$0, (%rax,%rcx,4)
# %bb.13:                               # %for.inc18
                                        #   in Loop: Header=BB6_11 Depth=1
	movl	-4(%rbp), %eax
	addl	$1, %eax
	movl	%eax, -4(%rbp)
	jmp	.LBB6_11
.LBB6_14:                               # %for.end20
	movl	$0, -4(%rbp)
.LBB6_15:                               # %for.cond21
                                        # =>This Inner Loop Header: Depth=1
	movl	-4(%rbp), %eax
	cmpl	16(%rbp), %eax
	jge	.LBB6_18
# %bb.16:                               # %for.body24
                                        #   in Loop: Header=BB6_15 Depth=1
	movq	-24(%rbp), %rax
	movq	-64(%rbp), %rcx
	movslq	-4(%rbp), %rdx
	movzbl	(%rcx,%rdx), %ecx
	addl	$1, %ecx
	movslq	%ecx, %rcx
	movl	(%rax,%rcx,4), %edx
	addl	$1, %edx
	movl	%edx, (%rax,%rcx,4)
# %bb.17:                               # %for.inc31
                                        #   in Loop: Header=BB6_15 Depth=1
	movl	-4(%rbp), %eax
	addl	$1, %eax
	movl	%eax, -4(%rbp)
	jmp	.LBB6_15
.LBB6_18:                               # %for.end33
	movl	$1, -4(%rbp)
.LBB6_19:                               # %for.cond34
                                        # =>This Inner Loop Header: Depth=1
	cmpl	$23, -4(%rbp)
	jge	.LBB6_22
# %bb.20:                               # %for.body37
                                        #   in Loop: Header=BB6_19 Depth=1
	movq	-24(%rbp), %rax
	movl	-4(%rbp), %ecx
	subl	$1, %ecx
	movslq	%ecx, %rcx
	movl	(%rax,%rcx,4), %eax
	movq	-24(%rbp), %rcx
	movslq	-4(%rbp), %rdx
	addl	(%rcx,%rdx,4), %eax
	movl	%eax, (%rcx,%rdx,4)
# %bb.21:                               # %for.inc43
                                        #   in Loop: Header=BB6_19 Depth=1
	movl	-4(%rbp), %eax
	addl	$1, %eax
	movl	%eax, -4(%rbp)
	jmp	.LBB6_19
.LBB6_22:                               # %for.end45
	movl	$0, -4(%rbp)
.LBB6_23:                               # %for.cond46
                                        # =>This Inner Loop Header: Depth=1
	cmpl	$23, -4(%rbp)
	jge	.LBB6_26
# %bb.24:                               # %for.body49
                                        #   in Loop: Header=BB6_23 Depth=1
	movq	-48(%rbp), %rax
	movslq	-4(%rbp), %rcx
	movl	$0, (%rax,%rcx,4)
# %bb.25:                               # %for.inc52
                                        #   in Loop: Header=BB6_23 Depth=1
	movl	-4(%rbp), %eax
	addl	$1, %eax
	movl	%eax, -4(%rbp)
	jmp	.LBB6_23
.LBB6_26:                               # %for.end54
	movl	$0, -12(%rbp)
	movl	-36(%rbp), %eax
	movl	%eax, -4(%rbp)
.LBB6_27:                               # %for.cond55
                                        # =>This Inner Loop Header: Depth=1
	movl	-4(%rbp), %eax
	cmpl	-32(%rbp), %eax
	jg	.LBB6_30
# %bb.28:                               # %for.body58
                                        #   in Loop: Header=BB6_27 Depth=1
	movq	-24(%rbp), %rax
	movl	-4(%rbp), %ecx
	addl	$1, %ecx
	movslq	%ecx, %rcx
	movl	(%rax,%rcx,4), %eax
	movq	-24(%rbp), %rcx
	movslq	-4(%rbp), %rdx
	subl	(%rcx,%rdx,4), %eax
	addl	-12(%rbp), %eax
	movl	%eax, -12(%rbp)
	movl	-12(%rbp), %eax
	subl	$1, %eax
	movq	-48(%rbp), %rcx
	movslq	-4(%rbp), %rdx
	movl	%eax, (%rcx,%rdx,4)
	movl	-12(%rbp), %eax
	shll	$1, %eax
	movl	%eax, -12(%rbp)
# %bb.29:                               # %for.inc69
                                        #   in Loop: Header=BB6_27 Depth=1
	movl	-4(%rbp), %eax
	addl	$1, %eax
	movl	%eax, -4(%rbp)
	jmp	.LBB6_27
.LBB6_30:                               # %for.end71
	movl	-36(%rbp), %eax
	addl	$1, %eax
	movl	%eax, -4(%rbp)
.LBB6_31:                               # %for.cond73
                                        # =>This Inner Loop Header: Depth=1
	movl	-4(%rbp), %eax
	cmpl	-32(%rbp), %eax
	jg	.LBB6_34
# %bb.32:                               # %for.body76
                                        #   in Loop: Header=BB6_31 Depth=1
	movq	-48(%rbp), %rax
	movl	-4(%rbp), %ecx
	subl	$1, %ecx
	movslq	%ecx, %rcx
	movl	(%rax,%rcx,4), %eax
	addl	$1, %eax
	shll	$1, %eax
	movq	-24(%rbp), %rcx
	movslq	-4(%rbp), %rdx
	subl	(%rcx,%rdx,4), %eax
	movq	-24(%rbp), %rcx
	movslq	-4(%rbp), %rdx
	movl	%eax, (%rcx,%rdx,4)
# %bb.33:                               # %for.inc87
                                        #   in Loop: Header=BB6_31 Depth=1
	movl	-4(%rbp), %eax
	addl	$1, %eax
	movl	%eax, -4(%rbp)
	jmp	.LBB6_31
.LBB6_34:                               # %for.end89
	cmpl	$962022255, -52(%rbp)   # imm = 0x39574B6F
	jne	.LBB6_36
.LBB6_35:
	addq	$80, %rsp
	popq	%rbp
	.cfi_def_cfa %rsp, 8
	retq
.LBB6_36:                               # %func_exit
	.cfi_def_cfa %rbp, 16
	callq	detect_breach
	jmp	.LBB6_35
.Lfunc_end6:
	.size	BZ2_hbCreateDecodeTables.4, .Lfunc_end6-BZ2_hbCreateDecodeTables.4
	.cfi_endproc
                                        # -- End function
	.globl	BZ2_hbMakeCodeLengths.5 # -- Begin function BZ2_hbMakeCodeLengths.5
	.p2align	4, 0x90
	.type	BZ2_hbMakeCodeLengths.5,@function
BZ2_hbMakeCodeLengths.5:                # @BZ2_hbMakeCodeLengths.5
	.cfi_startproc
# %bb.0:                                # %entry
	pushq	%rbp
	.cfi_def_cfa_offset 16
	.cfi_offset %rbp, -16
	movq	%rsp, %rbp
	.cfi_def_cfa_register %rbp
	subq	$5280, %rsp             # imm = 0x14A0
	movl	$1949999058, -84(%rbp)  # imm = 0x743A9FD2
	movq	%rdi, -104(%rbp)
	movq	%rsi, -96(%rbp)
	movl	%edx, -48(%rbp)
	movl	%ecx, -80(%rbp)
	movl	$0, -4(%rbp)
.LBB7_1:                                # %for.cond
                                        # =>This Inner Loop Header: Depth=1
	movl	-4(%rbp), %eax
	cmpl	-48(%rbp), %eax
	jge	.LBB7_7
# %bb.2:                                # %for.body
                                        #   in Loop: Header=BB7_1 Depth=1
	movq	-96(%rbp), %rax
	movslq	-4(%rbp), %rcx
	cmpl	$0, (%rax,%rcx,4)
	jne	.LBB7_4
# %bb.3:                                # %cond.true
                                        #   in Loop: Header=BB7_1 Depth=1
	movl	$1, %eax
	jmp	.LBB7_5
.LBB7_4:                                # %cond.false
                                        #   in Loop: Header=BB7_1 Depth=1
	movq	-96(%rbp), %rax
	movslq	-4(%rbp), %rcx
	movl	(%rax,%rcx,4), %eax
.LBB7_5:                                # %cond.end
                                        #   in Loop: Header=BB7_1 Depth=1
	shll	$8, %eax
	movl	-4(%rbp), %ecx
	addl	$1, %ecx
	movslq	%ecx, %rcx
	movl	%eax, -3216(%rbp,%rcx,4)
# %bb.6:                                # %for.inc
                                        #   in Loop: Header=BB7_1 Depth=1
	movl	-4(%rbp), %eax
	addl	$1, %eax
	movl	%eax, -4(%rbp)
	jmp	.LBB7_1
.LBB7_7:                                # %for.end
	jmp	.LBB7_8
.LBB7_8:                                # %while.body
                                        # =>This Loop Header: Depth=1
                                        #     Child Loop BB7_9 Depth 2
                                        #       Child Loop BB7_11 Depth 3
                                        #     Child Loop BB7_18 Depth 2
                                        #       Child Loop BB7_20 Depth 3
                                        #       Child Loop BB7_29 Depth 3
                                        #       Child Loop BB7_41 Depth 3
                                        #     Child Loop BB7_47 Depth 2
                                        #       Child Loop BB7_49 Depth 3
                                        #     Child Loop BB7_58 Depth 2
	movl	-48(%rbp), %eax
	movl	%eax, -32(%rbp)
	movl	$0, -8(%rbp)
	movl	$0, -1152(%rbp)
	movl	$0, -3216(%rbp)
	movl	$-2, -5280(%rbp)
	movl	$1, -4(%rbp)
.LBB7_9:                                # %for.cond9
                                        #   Parent Loop BB7_8 Depth=1
                                        # =>  This Loop Header: Depth=2
                                        #       Child Loop BB7_11 Depth 3
	movl	-4(%rbp), %eax
	cmpl	-48(%rbp), %eax
	jg	.LBB7_15
# %bb.10:                               # %for.body11
                                        #   in Loop: Header=BB7_9 Depth=2
	movslq	-4(%rbp), %rax
	movl	$-1, -5280(%rbp,%rax,4)
	movl	-8(%rbp), %eax
	addl	$1, %eax
	movl	%eax, -8(%rbp)
	movl	-4(%rbp), %eax
	movslq	-8(%rbp), %rcx
	movl	%eax, -1152(%rbp,%rcx,4)
	movl	-8(%rbp), %eax
	movl	%eax, -28(%rbp)
	movslq	-28(%rbp), %rax
	movl	-1152(%rbp,%rax,4), %eax
	movl	%eax, -76(%rbp)
.LBB7_11:                               # %while.cond19
                                        #   Parent Loop BB7_8 Depth=1
                                        #     Parent Loop BB7_9 Depth=2
                                        # =>    This Inner Loop Header: Depth=3
	movslq	-76(%rbp), %rax
	movl	-3216(%rbp,%rax,4), %eax
	movl	-28(%rbp), %ecx
	sarl	$1, %ecx
	movslq	%ecx, %rcx
	movslq	-1152(%rbp,%rcx,4), %rcx
	cmpl	-3216(%rbp,%rcx,4), %eax
	jge	.LBB7_13
# %bb.12:                               # %while.body27
                                        #   in Loop: Header=BB7_11 Depth=3
	movl	-28(%rbp), %eax
	sarl	$1, %eax
	cltq
	movl	-1152(%rbp,%rax,4), %eax
	movslq	-28(%rbp), %rcx
	movl	%eax, -1152(%rbp,%rcx,4)
	movl	-28(%rbp), %eax
	sarl	$1, %eax
	movl	%eax, -28(%rbp)
	jmp	.LBB7_11
.LBB7_13:                               # %while.end
                                        #   in Loop: Header=BB7_9 Depth=2
	movl	-76(%rbp), %eax
	movslq	-28(%rbp), %rcx
	movl	%eax, -1152(%rbp,%rcx,4)
# %bb.14:                               # %for.inc36
                                        #   in Loop: Header=BB7_9 Depth=2
	movl	-4(%rbp), %eax
	addl	$1, %eax
	movl	%eax, -4(%rbp)
	jmp	.LBB7_9
.LBB7_15:                               # %for.end38
                                        #   in Loop: Header=BB7_8 Depth=1
	cmpl	$260, -8(%rbp)          # imm = 0x104
	jl	.LBB7_17
# %bb.16:                               # %if.then
                                        #   in Loop: Header=BB7_8 Depth=1
	movl	$2001, %edi             # imm = 0x7D1
	callq	BZ2_bz__AssertH__fail
.LBB7_17:                               # %if.end
                                        #   in Loop: Header=BB7_8 Depth=1
	jmp	.LBB7_18
.LBB7_18:                               # %while.cond40
                                        #   Parent Loop BB7_8 Depth=1
                                        # =>  This Loop Header: Depth=2
                                        #       Child Loop BB7_20 Depth 3
                                        #       Child Loop BB7_29 Depth 3
                                        #       Child Loop BB7_41 Depth 3
	cmpl	$1, -8(%rbp)
	jle	.LBB7_44
# %bb.19:                               # %while.body42
                                        #   in Loop: Header=BB7_18 Depth=2
	movl	-1148(%rbp), %eax
	movl	%eax, -56(%rbp)
	movslq	-8(%rbp), %rax
	movl	-1152(%rbp,%rax,4), %eax
	movl	%eax, -1148(%rbp)
	movl	-8(%rbp), %eax
	addl	$-1, %eax
	movl	%eax, -8(%rbp)
	movl	$1, -44(%rbp)
	movslq	-44(%rbp), %rax
	movl	-1152(%rbp,%rax,4), %eax
	movl	%eax, -68(%rbp)
.LBB7_20:                               # %while.body52
                                        #   Parent Loop BB7_8 Depth=1
                                        #     Parent Loop BB7_18 Depth=2
                                        # =>    This Inner Loop Header: Depth=3
	movl	-44(%rbp), %eax
	shll	$1, %eax
	movl	%eax, -16(%rbp)
	movl	-16(%rbp), %eax
	cmpl	-8(%rbp), %eax
	jle	.LBB7_22
# %bb.21:                               # %if.then55
                                        #   in Loop: Header=BB7_18 Depth=2
	jmp	.LBB7_28
.LBB7_22:                               # %if.end56
                                        #   in Loop: Header=BB7_20 Depth=3
	movl	-16(%rbp), %eax
	cmpl	-8(%rbp), %eax
	jge	.LBB7_25
# %bb.23:                               # %land.lhs.true
                                        #   in Loop: Header=BB7_20 Depth=3
	movl	-16(%rbp), %eax
	addl	$1, %eax
	cltq
	movslq	-1152(%rbp,%rax,4), %rax
	movl	-3216(%rbp,%rax,4), %eax
	movslq	-16(%rbp), %rcx
	movslq	-1152(%rbp,%rcx,4), %rcx
	cmpl	-3216(%rbp,%rcx,4), %eax
	jge	.LBB7_25
# %bb.24:                               # %if.then68
                                        #   in Loop: Header=BB7_20 Depth=3
	movl	-16(%rbp), %eax
	addl	$1, %eax
	movl	%eax, -16(%rbp)
.LBB7_25:                               # %if.end70
                                        #   in Loop: Header=BB7_20 Depth=3
	movslq	-68(%rbp), %rax
	movl	-3216(%rbp,%rax,4), %eax
	movslq	-16(%rbp), %rcx
	movslq	-1152(%rbp,%rcx,4), %rcx
	cmpl	-3216(%rbp,%rcx,4), %eax
	jge	.LBB7_27
# %bb.26:                               # %if.then78
                                        #   in Loop: Header=BB7_18 Depth=2
	jmp	.LBB7_28
.LBB7_27:                               # %if.end79
                                        #   in Loop: Header=BB7_20 Depth=3
	movslq	-16(%rbp), %rax
	movl	-1152(%rbp,%rax,4), %eax
	movslq	-44(%rbp), %rcx
	movl	%eax, -1152(%rbp,%rcx,4)
	movl	-16(%rbp), %eax
	movl	%eax, -44(%rbp)
	jmp	.LBB7_20
.LBB7_28:                               # %while.end84
                                        #   in Loop: Header=BB7_18 Depth=2
	movl	-68(%rbp), %eax
	movslq	-44(%rbp), %rcx
	movl	%eax, -1152(%rbp,%rcx,4)
	movl	-1148(%rbp), %eax
	movl	%eax, -52(%rbp)
	movslq	-8(%rbp), %rax
	movl	-1152(%rbp,%rax,4), %eax
	movl	%eax, -1148(%rbp)
	movl	-8(%rbp), %eax
	addl	$-1, %eax
	movl	%eax, -8(%rbp)
	movl	$1, -40(%rbp)
	movslq	-40(%rbp), %rax
	movl	-1152(%rbp,%rax,4), %eax
	movl	%eax, -64(%rbp)
.LBB7_29:                               # %while.body98
                                        #   Parent Loop BB7_8 Depth=1
                                        #     Parent Loop BB7_18 Depth=2
                                        # =>    This Inner Loop Header: Depth=3
	movl	-40(%rbp), %eax
	shll	$1, %eax
	movl	%eax, -20(%rbp)
	movl	-20(%rbp), %eax
	cmpl	-8(%rbp), %eax
	jle	.LBB7_31
# %bb.30:                               # %if.then101
                                        #   in Loop: Header=BB7_18 Depth=2
	jmp	.LBB7_37
.LBB7_31:                               # %if.end102
                                        #   in Loop: Header=BB7_29 Depth=3
	movl	-20(%rbp), %eax
	cmpl	-8(%rbp), %eax
	jge	.LBB7_34
# %bb.32:                               # %land.lhs.true104
                                        #   in Loop: Header=BB7_29 Depth=3
	movl	-20(%rbp), %eax
	addl	$1, %eax
	cltq
	movslq	-1152(%rbp,%rax,4), %rax
	movl	-3216(%rbp,%rax,4), %eax
	movslq	-20(%rbp), %rcx
	movslq	-1152(%rbp,%rcx,4), %rcx
	cmpl	-3216(%rbp,%rcx,4), %eax
	jge	.LBB7_34
# %bb.33:                               # %if.then115
                                        #   in Loop: Header=BB7_29 Depth=3
	movl	-20(%rbp), %eax
	addl	$1, %eax
	movl	%eax, -20(%rbp)
.LBB7_34:                               # %if.end117
                                        #   in Loop: Header=BB7_29 Depth=3
	movslq	-64(%rbp), %rax
	movl	-3216(%rbp,%rax,4), %eax
	movslq	-20(%rbp), %rcx
	movslq	-1152(%rbp,%rcx,4), %rcx
	cmpl	-3216(%rbp,%rcx,4), %eax
	jge	.LBB7_36
# %bb.35:                               # %if.then125
                                        #   in Loop: Header=BB7_18 Depth=2
	jmp	.LBB7_37
.LBB7_36:                               # %if.end126
                                        #   in Loop: Header=BB7_29 Depth=3
	movslq	-20(%rbp), %rax
	movl	-1152(%rbp,%rax,4), %eax
	movslq	-40(%rbp), %rcx
	movl	%eax, -1152(%rbp,%rcx,4)
	movl	-20(%rbp), %eax
	movl	%eax, -40(%rbp)
	jmp	.LBB7_29
.LBB7_37:                               # %while.end131
                                        #   in Loop: Header=BB7_18 Depth=2
	movl	-64(%rbp), %eax
	movslq	-40(%rbp), %rcx
	movl	%eax, -1152(%rbp,%rcx,4)
	movl	-32(%rbp), %eax
	addl	$1, %eax
	movl	%eax, -32(%rbp)
	movl	-32(%rbp), %eax
	movslq	-52(%rbp), %rcx
	movl	%eax, -5280(%rbp,%rcx,4)
	movslq	-56(%rbp), %rcx
	movl	%eax, -5280(%rbp,%rcx,4)
	movslq	-56(%rbp), %rax
	movl	-3216(%rbp,%rax,4), %eax
	andl	$-256, %eax
	movslq	-52(%rbp), %rcx
	movl	-3216(%rbp,%rcx,4), %ecx
	andl	$-256, %ecx
	addl	%ecx, %eax
	movslq	-56(%rbp), %rcx
	movl	-3216(%rbp,%rcx,4), %ecx
	andl	$255, %ecx
	movslq	-52(%rbp), %rdx
	movl	-3216(%rbp,%rdx,4), %edx
	andl	$255, %edx
	cmpl	%edx, %ecx
	jle	.LBB7_39
# %bb.38:                               # %cond.true152
                                        #   in Loop: Header=BB7_18 Depth=2
	movslq	-56(%rbp), %rcx
	movl	-3216(%rbp,%rcx,4), %ecx
	andl	$255, %ecx
	jmp	.LBB7_40
.LBB7_39:                               # %cond.false156
                                        #   in Loop: Header=BB7_18 Depth=2
	movslq	-52(%rbp), %rcx
	movl	-3216(%rbp,%rcx,4), %ecx
	andl	$255, %ecx
.LBB7_40:                               # %cond.end160
                                        #   in Loop: Header=BB7_18 Depth=2
	addl	$1, %ecx
	orl	%ecx, %eax
	movslq	-32(%rbp), %rcx
	movl	%eax, -3216(%rbp,%rcx,4)
	movslq	-32(%rbp), %rax
	movl	$-1, -5280(%rbp,%rax,4)
	movl	-8(%rbp), %eax
	addl	$1, %eax
	movl	%eax, -8(%rbp)
	movl	-32(%rbp), %eax
	movslq	-8(%rbp), %rcx
	movl	%eax, -1152(%rbp,%rcx,4)
	movl	-8(%rbp), %eax
	movl	%eax, -36(%rbp)
	movslq	-36(%rbp), %rax
	movl	-1152(%rbp,%rax,4), %eax
	movl	%eax, -72(%rbp)
.LBB7_41:                               # %while.cond174
                                        #   Parent Loop BB7_8 Depth=1
                                        #     Parent Loop BB7_18 Depth=2
                                        # =>    This Inner Loop Header: Depth=3
	movslq	-72(%rbp), %rax
	movl	-3216(%rbp,%rax,4), %eax
	movl	-36(%rbp), %ecx
	sarl	$1, %ecx
	movslq	%ecx, %rcx
	movslq	-1152(%rbp,%rcx,4), %rcx
	cmpl	-3216(%rbp,%rcx,4), %eax
	jge	.LBB7_43
# %bb.42:                               # %while.body183
                                        #   in Loop: Header=BB7_41 Depth=3
	movl	-36(%rbp), %eax
	sarl	$1, %eax
	cltq
	movl	-1152(%rbp,%rax,4), %eax
	movslq	-36(%rbp), %rcx
	movl	%eax, -1152(%rbp,%rcx,4)
	movl	-36(%rbp), %eax
	sarl	$1, %eax
	movl	%eax, -36(%rbp)
	jmp	.LBB7_41
.LBB7_43:                               # %while.end190
                                        #   in Loop: Header=BB7_18 Depth=2
	movl	-72(%rbp), %eax
	movslq	-36(%rbp), %rcx
	movl	%eax, -1152(%rbp,%rcx,4)
	jmp	.LBB7_18
.LBB7_44:                               # %while.end193
                                        #   in Loop: Header=BB7_8 Depth=1
	cmpl	$516, -32(%rbp)         # imm = 0x204
	jl	.LBB7_46
# %bb.45:                               # %if.then195
                                        #   in Loop: Header=BB7_8 Depth=1
	movl	$2002, %edi             # imm = 0x7D2
	callq	BZ2_bz__AssertH__fail
.LBB7_46:                               # %if.end196
                                        #   in Loop: Header=BB7_8 Depth=1
	movb	$0, -9(%rbp)
	movl	$1, -4(%rbp)
.LBB7_47:                               # %for.cond197
                                        #   Parent Loop BB7_8 Depth=1
                                        # =>  This Loop Header: Depth=2
                                        #       Child Loop BB7_49 Depth 3
	movl	-4(%rbp), %eax
	cmpl	-48(%rbp), %eax
	jg	.LBB7_55
# %bb.48:                               # %for.body199
                                        #   in Loop: Header=BB7_47 Depth=2
	movl	$0, -24(%rbp)
	movl	-4(%rbp), %eax
	movl	%eax, -60(%rbp)
.LBB7_49:                               # %while.cond200
                                        #   Parent Loop BB7_8 Depth=1
                                        #     Parent Loop BB7_47 Depth=2
                                        # =>    This Inner Loop Header: Depth=3
	movslq	-60(%rbp), %rax
	cmpl	$0, -5280(%rbp,%rax,4)
	jl	.LBB7_51
# %bb.50:                               # %while.body204
                                        #   in Loop: Header=BB7_49 Depth=3
	movslq	-60(%rbp), %rax
	movl	-5280(%rbp,%rax,4), %eax
	movl	%eax, -60(%rbp)
	movl	-24(%rbp), %eax
	addl	$1, %eax
	movl	%eax, -24(%rbp)
	jmp	.LBB7_49
.LBB7_51:                               # %while.end208
                                        #   in Loop: Header=BB7_47 Depth=2
	movl	-24(%rbp), %eax
	movq	-104(%rbp), %rcx
	movl	-4(%rbp), %edx
	subl	$1, %edx
	movslq	%edx, %rdx
	movb	%al, (%rcx,%rdx)
	movl	-24(%rbp), %eax
	cmpl	-80(%rbp), %eax
	jle	.LBB7_53
# %bb.52:                               # %if.then213
                                        #   in Loop: Header=BB7_47 Depth=2
	movb	$1, -9(%rbp)
.LBB7_53:                               # %if.end214
                                        #   in Loop: Header=BB7_47 Depth=2
	jmp	.LBB7_54
.LBB7_54:                               # %for.inc215
                                        #   in Loop: Header=BB7_47 Depth=2
	movl	-4(%rbp), %eax
	addl	$1, %eax
	movl	%eax, -4(%rbp)
	jmp	.LBB7_47
.LBB7_55:                               # %for.end217
                                        #   in Loop: Header=BB7_8 Depth=1
	cmpb	$0, -9(%rbp)
	jne	.LBB7_57
# %bb.56:                               # %if.then218
	jmp	.LBB7_62
.LBB7_57:                               # %if.end219
                                        #   in Loop: Header=BB7_8 Depth=1
	movl	$1, -4(%rbp)
.LBB7_58:                               # %for.cond220
                                        #   Parent Loop BB7_8 Depth=1
                                        # =>  This Inner Loop Header: Depth=2
	movl	-4(%rbp), %eax
	cmpl	-48(%rbp), %eax
	jg	.LBB7_61
# %bb.59:                               # %for.body223
                                        #   in Loop: Header=BB7_58 Depth=2
	movslq	-4(%rbp), %rax
	movl	-3216(%rbp,%rax,4), %eax
	sarl	$8, %eax
	movl	%eax, -24(%rbp)
	movl	-24(%rbp), %eax
	cltd
	movl	$2, %ecx
	idivl	%ecx
	addl	$1, %eax
	movl	%eax, -24(%rbp)
	movl	-24(%rbp), %eax
	shll	$8, %eax
	movslq	-4(%rbp), %rcx
	movl	%eax, -3216(%rbp,%rcx,4)
# %bb.60:                               # %for.inc231
                                        #   in Loop: Header=BB7_58 Depth=2
	movl	-4(%rbp), %eax
	addl	$1, %eax
	movl	%eax, -4(%rbp)
	jmp	.LBB7_58
.LBB7_61:                               # %for.end233
                                        #   in Loop: Header=BB7_8 Depth=1
	jmp	.LBB7_8
.LBB7_62:                               # %while.end234
	cmpl	$1949999058, -84(%rbp)  # imm = 0x743A9FD2
	jne	.LBB7_64
.LBB7_63:
	addq	$5280, %rsp             # imm = 0x14A0
	popq	%rbp
	.cfi_def_cfa %rsp, 8
	retq
.LBB7_64:                               # %func_exit
	.cfi_def_cfa %rbp, 16
	callq	detect_breach
	jmp	.LBB7_63
.Lfunc_end7:
	.size	BZ2_hbMakeCodeLengths.5, .Lfunc_end7-BZ2_hbMakeCodeLengths.5
	.cfi_endproc
                                        # -- End function
	.globl	BZ2_hbMakeCodeLengths.6 # -- Begin function BZ2_hbMakeCodeLengths.6
	.p2align	4, 0x90
	.type	BZ2_hbMakeCodeLengths.6,@function
BZ2_hbMakeCodeLengths.6:                # @BZ2_hbMakeCodeLengths.6
	.cfi_startproc
# %bb.0:                                # %entry
	pushq	%rbp
	.cfi_def_cfa_offset 16
	.cfi_offset %rbp, -16
	movq	%rsp, %rbp
	.cfi_def_cfa_register %rbp
	subq	$5280, %rsp             # imm = 0x14A0
	movl	$738474687, -80(%rbp)   # imm = 0x2C043ABF
	movq	%rdi, -104(%rbp)
	movq	%rsi, -96(%rbp)
	movl	%edx, -44(%rbp)
	movl	%ecx, -84(%rbp)
	movl	$0, -4(%rbp)
.LBB8_1:                                # %for.cond
                                        # =>This Inner Loop Header: Depth=1
	movl	-4(%rbp), %eax
	cmpl	-44(%rbp), %eax
	jge	.LBB8_7
# %bb.2:                                # %for.body
                                        #   in Loop: Header=BB8_1 Depth=1
	movq	-96(%rbp), %rax
	movslq	-4(%rbp), %rcx
	cmpl	$0, (%rax,%rcx,4)
	jne	.LBB8_4
# %bb.3:                                # %cond.true
                                        #   in Loop: Header=BB8_1 Depth=1
	movl	$1, %eax
	jmp	.LBB8_5
.LBB8_4:                                # %cond.false
                                        #   in Loop: Header=BB8_1 Depth=1
	movq	-96(%rbp), %rax
	movslq	-4(%rbp), %rcx
	movl	(%rax,%rcx,4), %eax
.LBB8_5:                                # %cond.end
                                        #   in Loop: Header=BB8_1 Depth=1
	shll	$8, %eax
	movl	-4(%rbp), %ecx
	addl	$1, %ecx
	movslq	%ecx, %rcx
	movl	%eax, -3216(%rbp,%rcx,4)
# %bb.6:                                # %for.inc
                                        #   in Loop: Header=BB8_1 Depth=1
	movl	-4(%rbp), %eax
	addl	$1, %eax
	movl	%eax, -4(%rbp)
	jmp	.LBB8_1
.LBB8_7:                                # %for.end
	jmp	.LBB8_8
.LBB8_8:                                # %while.body
                                        # =>This Loop Header: Depth=1
                                        #     Child Loop BB8_9 Depth 2
                                        #       Child Loop BB8_11 Depth 3
                                        #     Child Loop BB8_18 Depth 2
                                        #       Child Loop BB8_20 Depth 3
                                        #       Child Loop BB8_29 Depth 3
                                        #       Child Loop BB8_41 Depth 3
                                        #     Child Loop BB8_47 Depth 2
                                        #       Child Loop BB8_49 Depth 3
                                        #     Child Loop BB8_58 Depth 2
	movl	-44(%rbp), %eax
	movl	%eax, -32(%rbp)
	movl	$0, -8(%rbp)
	movl	$0, -1152(%rbp)
	movl	$0, -3216(%rbp)
	movl	$-2, -5280(%rbp)
	movl	$1, -4(%rbp)
.LBB8_9:                                # %for.cond9
                                        #   Parent Loop BB8_8 Depth=1
                                        # =>  This Loop Header: Depth=2
                                        #       Child Loop BB8_11 Depth 3
	movl	-4(%rbp), %eax
	cmpl	-44(%rbp), %eax
	jg	.LBB8_15
# %bb.10:                               # %for.body11
                                        #   in Loop: Header=BB8_9 Depth=2
	movslq	-4(%rbp), %rax
	movl	$-1, -5280(%rbp,%rax,4)
	movl	-8(%rbp), %eax
	addl	$1, %eax
	movl	%eax, -8(%rbp)
	movl	-4(%rbp), %eax
	movslq	-8(%rbp), %rcx
	movl	%eax, -1152(%rbp,%rcx,4)
	movl	-8(%rbp), %eax
	movl	%eax, -36(%rbp)
	movslq	-36(%rbp), %rax
	movl	-1152(%rbp,%rax,4), %eax
	movl	%eax, -64(%rbp)
.LBB8_11:                               # %while.cond19
                                        #   Parent Loop BB8_8 Depth=1
                                        #     Parent Loop BB8_9 Depth=2
                                        # =>    This Inner Loop Header: Depth=3
	movslq	-64(%rbp), %rax
	movl	-3216(%rbp,%rax,4), %eax
	movl	-36(%rbp), %ecx
	sarl	$1, %ecx
	movslq	%ecx, %rcx
	movslq	-1152(%rbp,%rcx,4), %rcx
	cmpl	-3216(%rbp,%rcx,4), %eax
	jge	.LBB8_13
# %bb.12:                               # %while.body27
                                        #   in Loop: Header=BB8_11 Depth=3
	movl	-36(%rbp), %eax
	sarl	$1, %eax
	cltq
	movl	-1152(%rbp,%rax,4), %eax
	movslq	-36(%rbp), %rcx
	movl	%eax, -1152(%rbp,%rcx,4)
	movl	-36(%rbp), %eax
	sarl	$1, %eax
	movl	%eax, -36(%rbp)
	jmp	.LBB8_11
.LBB8_13:                               # %while.end
                                        #   in Loop: Header=BB8_9 Depth=2
	movl	-64(%rbp), %eax
	movslq	-36(%rbp), %rcx
	movl	%eax, -1152(%rbp,%rcx,4)
# %bb.14:                               # %for.inc36
                                        #   in Loop: Header=BB8_9 Depth=2
	movl	-4(%rbp), %eax
	addl	$1, %eax
	movl	%eax, -4(%rbp)
	jmp	.LBB8_9
.LBB8_15:                               # %for.end38
                                        #   in Loop: Header=BB8_8 Depth=1
	cmpl	$260, -8(%rbp)          # imm = 0x104
	jl	.LBB8_17
# %bb.16:                               # %if.then
                                        #   in Loop: Header=BB8_8 Depth=1
	movl	$2001, %edi             # imm = 0x7D1
	callq	BZ2_bz__AssertH__fail
.LBB8_17:                               # %if.end
                                        #   in Loop: Header=BB8_8 Depth=1
	jmp	.LBB8_18
.LBB8_18:                               # %while.cond40
                                        #   Parent Loop BB8_8 Depth=1
                                        # =>  This Loop Header: Depth=2
                                        #       Child Loop BB8_20 Depth 3
                                        #       Child Loop BB8_29 Depth 3
                                        #       Child Loop BB8_41 Depth 3
	cmpl	$1, -8(%rbp)
	jle	.LBB8_44
# %bb.19:                               # %while.body42
                                        #   in Loop: Header=BB8_18 Depth=2
	movl	-1148(%rbp), %eax
	movl	%eax, -56(%rbp)
	movslq	-8(%rbp), %rax
	movl	-1152(%rbp,%rax,4), %eax
	movl	%eax, -1148(%rbp)
	movl	-8(%rbp), %eax
	addl	$-1, %eax
	movl	%eax, -8(%rbp)
	movl	$1, -48(%rbp)
	movslq	-48(%rbp), %rax
	movl	-1152(%rbp,%rax,4), %eax
	movl	%eax, -68(%rbp)
.LBB8_20:                               # %while.body52
                                        #   Parent Loop BB8_8 Depth=1
                                        #     Parent Loop BB8_18 Depth=2
                                        # =>    This Inner Loop Header: Depth=3
	movl	-48(%rbp), %eax
	shll	$1, %eax
	movl	%eax, -16(%rbp)
	movl	-16(%rbp), %eax
	cmpl	-8(%rbp), %eax
	jle	.LBB8_22
# %bb.21:                               # %if.then55
                                        #   in Loop: Header=BB8_18 Depth=2
	jmp	.LBB8_28
.LBB8_22:                               # %if.end56
                                        #   in Loop: Header=BB8_20 Depth=3
	movl	-16(%rbp), %eax
	cmpl	-8(%rbp), %eax
	jge	.LBB8_25
# %bb.23:                               # %land.lhs.true
                                        #   in Loop: Header=BB8_20 Depth=3
	movl	-16(%rbp), %eax
	addl	$1, %eax
	cltq
	movslq	-1152(%rbp,%rax,4), %rax
	movl	-3216(%rbp,%rax,4), %eax
	movslq	-16(%rbp), %rcx
	movslq	-1152(%rbp,%rcx,4), %rcx
	cmpl	-3216(%rbp,%rcx,4), %eax
	jge	.LBB8_25
# %bb.24:                               # %if.then68
                                        #   in Loop: Header=BB8_20 Depth=3
	movl	-16(%rbp), %eax
	addl	$1, %eax
	movl	%eax, -16(%rbp)
.LBB8_25:                               # %if.end70
                                        #   in Loop: Header=BB8_20 Depth=3
	movslq	-68(%rbp), %rax
	movl	-3216(%rbp,%rax,4), %eax
	movslq	-16(%rbp), %rcx
	movslq	-1152(%rbp,%rcx,4), %rcx
	cmpl	-3216(%rbp,%rcx,4), %eax
	jge	.LBB8_27
# %bb.26:                               # %if.then78
                                        #   in Loop: Header=BB8_18 Depth=2
	jmp	.LBB8_28
.LBB8_27:                               # %if.end79
                                        #   in Loop: Header=BB8_20 Depth=3
	movslq	-16(%rbp), %rax
	movl	-1152(%rbp,%rax,4), %eax
	movslq	-48(%rbp), %rcx
	movl	%eax, -1152(%rbp,%rcx,4)
	movl	-16(%rbp), %eax
	movl	%eax, -48(%rbp)
	jmp	.LBB8_20
.LBB8_28:                               # %while.end84
                                        #   in Loop: Header=BB8_18 Depth=2
	movl	-68(%rbp), %eax
	movslq	-48(%rbp), %rcx
	movl	%eax, -1152(%rbp,%rcx,4)
	movl	-1148(%rbp), %eax
	movl	%eax, -52(%rbp)
	movslq	-8(%rbp), %rax
	movl	-1152(%rbp,%rax,4), %eax
	movl	%eax, -1148(%rbp)
	movl	-8(%rbp), %eax
	addl	$-1, %eax
	movl	%eax, -8(%rbp)
	movl	$1, -40(%rbp)
	movslq	-40(%rbp), %rax
	movl	-1152(%rbp,%rax,4), %eax
	movl	%eax, -72(%rbp)
.LBB8_29:                               # %while.body98
                                        #   Parent Loop BB8_8 Depth=1
                                        #     Parent Loop BB8_18 Depth=2
                                        # =>    This Inner Loop Header: Depth=3
	movl	-40(%rbp), %eax
	shll	$1, %eax
	movl	%eax, -20(%rbp)
	movl	-20(%rbp), %eax
	cmpl	-8(%rbp), %eax
	jle	.LBB8_31
# %bb.30:                               # %if.then101
                                        #   in Loop: Header=BB8_18 Depth=2
	jmp	.LBB8_37
.LBB8_31:                               # %if.end102
                                        #   in Loop: Header=BB8_29 Depth=3
	movl	-20(%rbp), %eax
	cmpl	-8(%rbp), %eax
	jge	.LBB8_34
# %bb.32:                               # %land.lhs.true104
                                        #   in Loop: Header=BB8_29 Depth=3
	movl	-20(%rbp), %eax
	addl	$1, %eax
	cltq
	movslq	-1152(%rbp,%rax,4), %rax
	movl	-3216(%rbp,%rax,4), %eax
	movslq	-20(%rbp), %rcx
	movslq	-1152(%rbp,%rcx,4), %rcx
	cmpl	-3216(%rbp,%rcx,4), %eax
	jge	.LBB8_34
# %bb.33:                               # %if.then115
                                        #   in Loop: Header=BB8_29 Depth=3
	movl	-20(%rbp), %eax
	addl	$1, %eax
	movl	%eax, -20(%rbp)
.LBB8_34:                               # %if.end117
                                        #   in Loop: Header=BB8_29 Depth=3
	movslq	-72(%rbp), %rax
	movl	-3216(%rbp,%rax,4), %eax
	movslq	-20(%rbp), %rcx
	movslq	-1152(%rbp,%rcx,4), %rcx
	cmpl	-3216(%rbp,%rcx,4), %eax
	jge	.LBB8_36
# %bb.35:                               # %if.then125
                                        #   in Loop: Header=BB8_18 Depth=2
	jmp	.LBB8_37
.LBB8_36:                               # %if.end126
                                        #   in Loop: Header=BB8_29 Depth=3
	movslq	-20(%rbp), %rax
	movl	-1152(%rbp,%rax,4), %eax
	movslq	-40(%rbp), %rcx
	movl	%eax, -1152(%rbp,%rcx,4)
	movl	-20(%rbp), %eax
	movl	%eax, -40(%rbp)
	jmp	.LBB8_29
.LBB8_37:                               # %while.end131
                                        #   in Loop: Header=BB8_18 Depth=2
	movl	-72(%rbp), %eax
	movslq	-40(%rbp), %rcx
	movl	%eax, -1152(%rbp,%rcx,4)
	movl	-32(%rbp), %eax
	addl	$1, %eax
	movl	%eax, -32(%rbp)
	movl	-32(%rbp), %eax
	movslq	-52(%rbp), %rcx
	movl	%eax, -5280(%rbp,%rcx,4)
	movslq	-56(%rbp), %rcx
	movl	%eax, -5280(%rbp,%rcx,4)
	movslq	-56(%rbp), %rax
	movl	-3216(%rbp,%rax,4), %eax
	andl	$-256, %eax
	movslq	-52(%rbp), %rcx
	movl	-3216(%rbp,%rcx,4), %ecx
	andl	$-256, %ecx
	addl	%ecx, %eax
	movslq	-56(%rbp), %rcx
	movl	-3216(%rbp,%rcx,4), %ecx
	andl	$255, %ecx
	movslq	-52(%rbp), %rdx
	movl	-3216(%rbp,%rdx,4), %edx
	andl	$255, %edx
	cmpl	%edx, %ecx
	jle	.LBB8_39
# %bb.38:                               # %cond.true152
                                        #   in Loop: Header=BB8_18 Depth=2
	movslq	-56(%rbp), %rcx
	movl	-3216(%rbp,%rcx,4), %ecx
	andl	$255, %ecx
	jmp	.LBB8_40
.LBB8_39:                               # %cond.false156
                                        #   in Loop: Header=BB8_18 Depth=2
	movslq	-52(%rbp), %rcx
	movl	-3216(%rbp,%rcx,4), %ecx
	andl	$255, %ecx
.LBB8_40:                               # %cond.end160
                                        #   in Loop: Header=BB8_18 Depth=2
	addl	$1, %ecx
	orl	%ecx, %eax
	movslq	-32(%rbp), %rcx
	movl	%eax, -3216(%rbp,%rcx,4)
	movslq	-32(%rbp), %rax
	movl	$-1, -5280(%rbp,%rax,4)
	movl	-8(%rbp), %eax
	addl	$1, %eax
	movl	%eax, -8(%rbp)
	movl	-32(%rbp), %eax
	movslq	-8(%rbp), %rcx
	movl	%eax, -1152(%rbp,%rcx,4)
	movl	-8(%rbp), %eax
	movl	%eax, -28(%rbp)
	movslq	-28(%rbp), %rax
	movl	-1152(%rbp,%rax,4), %eax
	movl	%eax, -76(%rbp)
.LBB8_41:                               # %while.cond174
                                        #   Parent Loop BB8_8 Depth=1
                                        #     Parent Loop BB8_18 Depth=2
                                        # =>    This Inner Loop Header: Depth=3
	movslq	-76(%rbp), %rax
	movl	-3216(%rbp,%rax,4), %eax
	movl	-28(%rbp), %ecx
	sarl	$1, %ecx
	movslq	%ecx, %rcx
	movslq	-1152(%rbp,%rcx,4), %rcx
	cmpl	-3216(%rbp,%rcx,4), %eax
	jge	.LBB8_43
# %bb.42:                               # %while.body183
                                        #   in Loop: Header=BB8_41 Depth=3
	movl	-28(%rbp), %eax
	sarl	$1, %eax
	cltq
	movl	-1152(%rbp,%rax,4), %eax
	movslq	-28(%rbp), %rcx
	movl	%eax, -1152(%rbp,%rcx,4)
	movl	-28(%rbp), %eax
	sarl	$1, %eax
	movl	%eax, -28(%rbp)
	jmp	.LBB8_41
.LBB8_43:                               # %while.end190
                                        #   in Loop: Header=BB8_18 Depth=2
	movl	-76(%rbp), %eax
	movslq	-28(%rbp), %rcx
	movl	%eax, -1152(%rbp,%rcx,4)
	jmp	.LBB8_18
.LBB8_44:                               # %while.end193
                                        #   in Loop: Header=BB8_8 Depth=1
	cmpl	$516, -32(%rbp)         # imm = 0x204
	jl	.LBB8_46
# %bb.45:                               # %if.then195
                                        #   in Loop: Header=BB8_8 Depth=1
	movl	$2002, %edi             # imm = 0x7D2
	callq	BZ2_bz__AssertH__fail
.LBB8_46:                               # %if.end196
                                        #   in Loop: Header=BB8_8 Depth=1
	movb	$0, -9(%rbp)
	movl	$1, -4(%rbp)
.LBB8_47:                               # %for.cond197
                                        #   Parent Loop BB8_8 Depth=1
                                        # =>  This Loop Header: Depth=2
                                        #       Child Loop BB8_49 Depth 3
	movl	-4(%rbp), %eax
	cmpl	-44(%rbp), %eax
	jg	.LBB8_55
# %bb.48:                               # %for.body199
                                        #   in Loop: Header=BB8_47 Depth=2
	movl	$0, -24(%rbp)
	movl	-4(%rbp), %eax
	movl	%eax, -60(%rbp)
.LBB8_49:                               # %while.cond200
                                        #   Parent Loop BB8_8 Depth=1
                                        #     Parent Loop BB8_47 Depth=2
                                        # =>    This Inner Loop Header: Depth=3
	movslq	-60(%rbp), %rax
	cmpl	$0, -5280(%rbp,%rax,4)
	jl	.LBB8_51
# %bb.50:                               # %while.body204
                                        #   in Loop: Header=BB8_49 Depth=3
	movslq	-60(%rbp), %rax
	movl	-5280(%rbp,%rax,4), %eax
	movl	%eax, -60(%rbp)
	movl	-24(%rbp), %eax
	addl	$1, %eax
	movl	%eax, -24(%rbp)
	jmp	.LBB8_49
.LBB8_51:                               # %while.end208
                                        #   in Loop: Header=BB8_47 Depth=2
	movl	-24(%rbp), %eax
	movq	-104(%rbp), %rcx
	movl	-4(%rbp), %edx
	subl	$1, %edx
	movslq	%edx, %rdx
	movb	%al, (%rcx,%rdx)
	movl	-24(%rbp), %eax
	cmpl	-84(%rbp), %eax
	jle	.LBB8_53
# %bb.52:                               # %if.then213
                                        #   in Loop: Header=BB8_47 Depth=2
	movb	$1, -9(%rbp)
.LBB8_53:                               # %if.end214
                                        #   in Loop: Header=BB8_47 Depth=2
	jmp	.LBB8_54
.LBB8_54:                               # %for.inc215
                                        #   in Loop: Header=BB8_47 Depth=2
	movl	-4(%rbp), %eax
	addl	$1, %eax
	movl	%eax, -4(%rbp)
	jmp	.LBB8_47
.LBB8_55:                               # %for.end217
                                        #   in Loop: Header=BB8_8 Depth=1
	cmpb	$0, -9(%rbp)
	jne	.LBB8_57
# %bb.56:                               # %if.then218
	jmp	.LBB8_62
.LBB8_57:                               # %if.end219
                                        #   in Loop: Header=BB8_8 Depth=1
	movl	$1, -4(%rbp)
.LBB8_58:                               # %for.cond220
                                        #   Parent Loop BB8_8 Depth=1
                                        # =>  This Inner Loop Header: Depth=2
	movl	-4(%rbp), %eax
	cmpl	-44(%rbp), %eax
	jg	.LBB8_61
# %bb.59:                               # %for.body223
                                        #   in Loop: Header=BB8_58 Depth=2
	movslq	-4(%rbp), %rax
	movl	-3216(%rbp,%rax,4), %eax
	sarl	$8, %eax
	movl	%eax, -24(%rbp)
	movl	-24(%rbp), %eax
	cltd
	movl	$2, %ecx
	idivl	%ecx
	addl	$1, %eax
	movl	%eax, -24(%rbp)
	movl	-24(%rbp), %eax
	shll	$8, %eax
	movslq	-4(%rbp), %rcx
	movl	%eax, -3216(%rbp,%rcx,4)
# %bb.60:                               # %for.inc231
                                        #   in Loop: Header=BB8_58 Depth=2
	movl	-4(%rbp), %eax
	addl	$1, %eax
	movl	%eax, -4(%rbp)
	jmp	.LBB8_58
.LBB8_61:                               # %for.end233
                                        #   in Loop: Header=BB8_8 Depth=1
	jmp	.LBB8_8
.LBB8_62:                               # %while.end234
	cmpl	$738474687, -80(%rbp)   # imm = 0x2C043ABF
	jne	.LBB8_64
.LBB8_63:
	addq	$5280, %rsp             # imm = 0x14A0
	popq	%rbp
	.cfi_def_cfa %rsp, 8
	retq
.LBB8_64:                               # %func_exit
	.cfi_def_cfa %rbp, 16
	callq	detect_breach
	jmp	.LBB8_63
.Lfunc_end8:
	.size	BZ2_hbMakeCodeLengths.6, .Lfunc_end8-BZ2_hbMakeCodeLengths.6
	.cfi_endproc
                                        # -- End function
	.globl	BZ2_hbAssignCodes.7     # -- Begin function BZ2_hbAssignCodes.7
	.p2align	4, 0x90
	.type	BZ2_hbAssignCodes.7,@function
BZ2_hbAssignCodes.7:                    # @BZ2_hbAssignCodes.7
	.cfi_startproc
# %bb.0:                                # %entry
	pushq	%rbp
	.cfi_def_cfa_offset 16
	.cfi_offset %rbp, -16
	movq	%rsp, %rbp
	.cfi_def_cfa_register %rbp
	subq	$48, %rsp
	movl	$940037016, -20(%rbp)   # imm = 0x3807D398
	movq	%rdi, -48(%rbp)
	movq	%rsi, -40(%rbp)
	movl	%edx, -16(%rbp)
	movl	%ecx, -24(%rbp)
	movl	%r8d, -28(%rbp)
	movl	$0, -4(%rbp)
	movl	-16(%rbp), %eax
	movl	%eax, -12(%rbp)
.LBB9_1:                                # %for.cond
                                        # =>This Loop Header: Depth=1
                                        #     Child Loop BB9_3 Depth 2
	movl	-12(%rbp), %eax
	cmpl	-24(%rbp), %eax
	jg	.LBB9_10
# %bb.2:                                # %for.body
                                        #   in Loop: Header=BB9_1 Depth=1
	movl	$0, -8(%rbp)
.LBB9_3:                                # %for.cond1
                                        #   Parent Loop BB9_1 Depth=1
                                        # =>  This Inner Loop Header: Depth=2
	movl	-8(%rbp), %eax
	cmpl	-28(%rbp), %eax
	jge	.LBB9_8
# %bb.4:                                # %for.body3
                                        #   in Loop: Header=BB9_3 Depth=2
	movq	-40(%rbp), %rax
	movslq	-8(%rbp), %rcx
	movzbl	(%rax,%rcx), %eax
	cmpl	-12(%rbp), %eax
	jne	.LBB9_6
# %bb.5:                                # %if.then
                                        #   in Loop: Header=BB9_3 Depth=2
	movl	-4(%rbp), %eax
	movq	-48(%rbp), %rcx
	movslq	-8(%rbp), %rdx
	movl	%eax, (%rcx,%rdx,4)
	movl	-4(%rbp), %eax
	addl	$1, %eax
	movl	%eax, -4(%rbp)
.LBB9_6:                                # %if.end
                                        #   in Loop: Header=BB9_3 Depth=2
	jmp	.LBB9_7
.LBB9_7:                                # %for.inc
                                        #   in Loop: Header=BB9_3 Depth=2
	movl	-8(%rbp), %eax
	addl	$1, %eax
	movl	%eax, -8(%rbp)
	jmp	.LBB9_3
.LBB9_8:                                # %for.end
                                        #   in Loop: Header=BB9_1 Depth=1
	movl	-4(%rbp), %eax
	shll	$1, %eax
	movl	%eax, -4(%rbp)
# %bb.9:                                # %for.inc9
                                        #   in Loop: Header=BB9_1 Depth=1
	movl	-12(%rbp), %eax
	addl	$1, %eax
	movl	%eax, -12(%rbp)
	jmp	.LBB9_1
.LBB9_10:                               # %for.end11
	cmpl	$940037016, -20(%rbp)   # imm = 0x3807D398
	jne	.LBB9_12
.LBB9_11:
	addq	$48, %rsp
	popq	%rbp
	.cfi_def_cfa %rsp, 8
	retq
.LBB9_12:                               # %func_exit
	.cfi_def_cfa %rbp, 16
	callq	detect_breach
	jmp	.LBB9_11
.Lfunc_end9:
	.size	BZ2_hbAssignCodes.7, .Lfunc_end9-BZ2_hbAssignCodes.7
	.cfi_endproc
                                        # -- End function
	.globl	BZ2_hbMakeCodeLengths.8 # -- Begin function BZ2_hbMakeCodeLengths.8
	.p2align	4, 0x90
	.type	BZ2_hbMakeCodeLengths.8,@function
BZ2_hbMakeCodeLengths.8:                # @BZ2_hbMakeCodeLengths.8
	.cfi_startproc
# %bb.0:                                # %entry
	pushq	%rbp
	.cfi_def_cfa_offset 16
	.cfi_offset %rbp, -16
	movq	%rsp, %rbp
	.cfi_def_cfa_register %rbp
	subq	$5280, %rsp             # imm = 0x14A0
	movl	$491646155, -80(%rbp)   # imm = 0x1D4DECCB
	movq	%rdi, -104(%rbp)
	movq	%rsi, -96(%rbp)
	movl	%edx, -44(%rbp)
	movl	%ecx, -84(%rbp)
	movl	$0, -4(%rbp)
.LBB10_1:                               # %for.cond
                                        # =>This Inner Loop Header: Depth=1
	movl	-4(%rbp), %eax
	cmpl	-44(%rbp), %eax
	jge	.LBB10_7
# %bb.2:                                # %for.body
                                        #   in Loop: Header=BB10_1 Depth=1
	movq	-96(%rbp), %rax
	movslq	-4(%rbp), %rcx
	cmpl	$0, (%rax,%rcx,4)
	jne	.LBB10_4
# %bb.3:                                # %cond.true
                                        #   in Loop: Header=BB10_1 Depth=1
	movl	$1, %eax
	jmp	.LBB10_5
.LBB10_4:                               # %cond.false
                                        #   in Loop: Header=BB10_1 Depth=1
	movq	-96(%rbp), %rax
	movslq	-4(%rbp), %rcx
	movl	(%rax,%rcx,4), %eax
.LBB10_5:                               # %cond.end
                                        #   in Loop: Header=BB10_1 Depth=1
	shll	$8, %eax
	movl	-4(%rbp), %ecx
	addl	$1, %ecx
	movslq	%ecx, %rcx
	movl	%eax, -3216(%rbp,%rcx,4)
# %bb.6:                                # %for.inc
                                        #   in Loop: Header=BB10_1 Depth=1
	movl	-4(%rbp), %eax
	addl	$1, %eax
	movl	%eax, -4(%rbp)
	jmp	.LBB10_1
.LBB10_7:                               # %for.end
	jmp	.LBB10_8
.LBB10_8:                               # %while.body
                                        # =>This Loop Header: Depth=1
                                        #     Child Loop BB10_9 Depth 2
                                        #       Child Loop BB10_11 Depth 3
                                        #     Child Loop BB10_18 Depth 2
                                        #       Child Loop BB10_20 Depth 3
                                        #       Child Loop BB10_29 Depth 3
                                        #       Child Loop BB10_41 Depth 3
                                        #     Child Loop BB10_47 Depth 2
                                        #       Child Loop BB10_49 Depth 3
                                        #     Child Loop BB10_58 Depth 2
	movl	-44(%rbp), %eax
	movl	%eax, -36(%rbp)
	movl	$0, -8(%rbp)
	movl	$0, -1152(%rbp)
	movl	$0, -3216(%rbp)
	movl	$-2, -5280(%rbp)
	movl	$1, -4(%rbp)
.LBB10_9:                               # %for.cond9
                                        #   Parent Loop BB10_8 Depth=1
                                        # =>  This Loop Header: Depth=2
                                        #       Child Loop BB10_11 Depth 3
	movl	-4(%rbp), %eax
	cmpl	-44(%rbp), %eax
	jg	.LBB10_15
# %bb.10:                               # %for.body11
                                        #   in Loop: Header=BB10_9 Depth=2
	movslq	-4(%rbp), %rax
	movl	$-1, -5280(%rbp,%rax,4)
	movl	-8(%rbp), %eax
	addl	$1, %eax
	movl	%eax, -8(%rbp)
	movl	-4(%rbp), %eax
	movslq	-8(%rbp), %rcx
	movl	%eax, -1152(%rbp,%rcx,4)
	movl	-8(%rbp), %eax
	movl	%eax, -28(%rbp)
	movslq	-28(%rbp), %rax
	movl	-1152(%rbp,%rax,4), %eax
	movl	%eax, -76(%rbp)
.LBB10_11:                              # %while.cond19
                                        #   Parent Loop BB10_8 Depth=1
                                        #     Parent Loop BB10_9 Depth=2
                                        # =>    This Inner Loop Header: Depth=3
	movslq	-76(%rbp), %rax
	movl	-3216(%rbp,%rax,4), %eax
	movl	-28(%rbp), %ecx
	sarl	$1, %ecx
	movslq	%ecx, %rcx
	movslq	-1152(%rbp,%rcx,4), %rcx
	cmpl	-3216(%rbp,%rcx,4), %eax
	jge	.LBB10_13
# %bb.12:                               # %while.body27
                                        #   in Loop: Header=BB10_11 Depth=3
	movl	-28(%rbp), %eax
	sarl	$1, %eax
	cltq
	movl	-1152(%rbp,%rax,4), %eax
	movslq	-28(%rbp), %rcx
	movl	%eax, -1152(%rbp,%rcx,4)
	movl	-28(%rbp), %eax
	sarl	$1, %eax
	movl	%eax, -28(%rbp)
	jmp	.LBB10_11
.LBB10_13:                              # %while.end
                                        #   in Loop: Header=BB10_9 Depth=2
	movl	-76(%rbp), %eax
	movslq	-28(%rbp), %rcx
	movl	%eax, -1152(%rbp,%rcx,4)
# %bb.14:                               # %for.inc36
                                        #   in Loop: Header=BB10_9 Depth=2
	movl	-4(%rbp), %eax
	addl	$1, %eax
	movl	%eax, -4(%rbp)
	jmp	.LBB10_9
.LBB10_15:                              # %for.end38
                                        #   in Loop: Header=BB10_8 Depth=1
	cmpl	$260, -8(%rbp)          # imm = 0x104
	jl	.LBB10_17
# %bb.16:                               # %if.then
                                        #   in Loop: Header=BB10_8 Depth=1
	movl	$2001, %edi             # imm = 0x7D1
	callq	BZ2_bz__AssertH__fail
.LBB10_17:                              # %if.end
                                        #   in Loop: Header=BB10_8 Depth=1
	jmp	.LBB10_18
.LBB10_18:                              # %while.cond40
                                        #   Parent Loop BB10_8 Depth=1
                                        # =>  This Loop Header: Depth=2
                                        #       Child Loop BB10_20 Depth 3
                                        #       Child Loop BB10_29 Depth 3
                                        #       Child Loop BB10_41 Depth 3
	cmpl	$1, -8(%rbp)
	jle	.LBB10_44
# %bb.19:                               # %while.body42
                                        #   in Loop: Header=BB10_18 Depth=2
	movl	-1148(%rbp), %eax
	movl	%eax, -56(%rbp)
	movslq	-8(%rbp), %rax
	movl	-1152(%rbp,%rax,4), %eax
	movl	%eax, -1148(%rbp)
	movl	-8(%rbp), %eax
	addl	$-1, %eax
	movl	%eax, -8(%rbp)
	movl	$1, -40(%rbp)
	movslq	-40(%rbp), %rax
	movl	-1152(%rbp,%rax,4), %eax
	movl	%eax, -64(%rbp)
.LBB10_20:                              # %while.body52
                                        #   Parent Loop BB10_8 Depth=1
                                        #     Parent Loop BB10_18 Depth=2
                                        # =>    This Inner Loop Header: Depth=3
	movl	-40(%rbp), %eax
	shll	$1, %eax
	movl	%eax, -16(%rbp)
	movl	-16(%rbp), %eax
	cmpl	-8(%rbp), %eax
	jle	.LBB10_22
# %bb.21:                               # %if.then55
                                        #   in Loop: Header=BB10_18 Depth=2
	jmp	.LBB10_28
.LBB10_22:                              # %if.end56
                                        #   in Loop: Header=BB10_20 Depth=3
	movl	-16(%rbp), %eax
	cmpl	-8(%rbp), %eax
	jge	.LBB10_25
# %bb.23:                               # %land.lhs.true
                                        #   in Loop: Header=BB10_20 Depth=3
	movl	-16(%rbp), %eax
	addl	$1, %eax
	cltq
	movslq	-1152(%rbp,%rax,4), %rax
	movl	-3216(%rbp,%rax,4), %eax
	movslq	-16(%rbp), %rcx
	movslq	-1152(%rbp,%rcx,4), %rcx
	cmpl	-3216(%rbp,%rcx,4), %eax
	jge	.LBB10_25
# %bb.24:                               # %if.then68
                                        #   in Loop: Header=BB10_20 Depth=3
	movl	-16(%rbp), %eax
	addl	$1, %eax
	movl	%eax, -16(%rbp)
.LBB10_25:                              # %if.end70
                                        #   in Loop: Header=BB10_20 Depth=3
	movslq	-64(%rbp), %rax
	movl	-3216(%rbp,%rax,4), %eax
	movslq	-16(%rbp), %rcx
	movslq	-1152(%rbp,%rcx,4), %rcx
	cmpl	-3216(%rbp,%rcx,4), %eax
	jge	.LBB10_27
# %bb.26:                               # %if.then78
                                        #   in Loop: Header=BB10_18 Depth=2
	jmp	.LBB10_28
.LBB10_27:                              # %if.end79
                                        #   in Loop: Header=BB10_20 Depth=3
	movslq	-16(%rbp), %rax
	movl	-1152(%rbp,%rax,4), %eax
	movslq	-40(%rbp), %rcx
	movl	%eax, -1152(%rbp,%rcx,4)
	movl	-16(%rbp), %eax
	movl	%eax, -40(%rbp)
	jmp	.LBB10_20
.LBB10_28:                              # %while.end84
                                        #   in Loop: Header=BB10_18 Depth=2
	movl	-64(%rbp), %eax
	movslq	-40(%rbp), %rcx
	movl	%eax, -1152(%rbp,%rcx,4)
	movl	-1148(%rbp), %eax
	movl	%eax, -52(%rbp)
	movslq	-8(%rbp), %rax
	movl	-1152(%rbp,%rax,4), %eax
	movl	%eax, -1148(%rbp)
	movl	-8(%rbp), %eax
	addl	$-1, %eax
	movl	%eax, -8(%rbp)
	movl	$1, -48(%rbp)
	movslq	-48(%rbp), %rax
	movl	-1152(%rbp,%rax,4), %eax
	movl	%eax, -68(%rbp)
.LBB10_29:                              # %while.body98
                                        #   Parent Loop BB10_8 Depth=1
                                        #     Parent Loop BB10_18 Depth=2
                                        # =>    This Inner Loop Header: Depth=3
	movl	-48(%rbp), %eax
	shll	$1, %eax
	movl	%eax, -20(%rbp)
	movl	-20(%rbp), %eax
	cmpl	-8(%rbp), %eax
	jle	.LBB10_31
# %bb.30:                               # %if.then101
                                        #   in Loop: Header=BB10_18 Depth=2
	jmp	.LBB10_37
.LBB10_31:                              # %if.end102
                                        #   in Loop: Header=BB10_29 Depth=3
	movl	-20(%rbp), %eax
	cmpl	-8(%rbp), %eax
	jge	.LBB10_34
# %bb.32:                               # %land.lhs.true104
                                        #   in Loop: Header=BB10_29 Depth=3
	movl	-20(%rbp), %eax
	addl	$1, %eax
	cltq
	movslq	-1152(%rbp,%rax,4), %rax
	movl	-3216(%rbp,%rax,4), %eax
	movslq	-20(%rbp), %rcx
	movslq	-1152(%rbp,%rcx,4), %rcx
	cmpl	-3216(%rbp,%rcx,4), %eax
	jge	.LBB10_34
# %bb.33:                               # %if.then115
                                        #   in Loop: Header=BB10_29 Depth=3
	movl	-20(%rbp), %eax
	addl	$1, %eax
	movl	%eax, -20(%rbp)
.LBB10_34:                              # %if.end117
                                        #   in Loop: Header=BB10_29 Depth=3
	movslq	-68(%rbp), %rax
	movl	-3216(%rbp,%rax,4), %eax
	movslq	-20(%rbp), %rcx
	movslq	-1152(%rbp,%rcx,4), %rcx
	cmpl	-3216(%rbp,%rcx,4), %eax
	jge	.LBB10_36
# %bb.35:                               # %if.then125
                                        #   in Loop: Header=BB10_18 Depth=2
	jmp	.LBB10_37
.LBB10_36:                              # %if.end126
                                        #   in Loop: Header=BB10_29 Depth=3
	movslq	-20(%rbp), %rax
	movl	-1152(%rbp,%rax,4), %eax
	movslq	-48(%rbp), %rcx
	movl	%eax, -1152(%rbp,%rcx,4)
	movl	-20(%rbp), %eax
	movl	%eax, -48(%rbp)
	jmp	.LBB10_29
.LBB10_37:                              # %while.end131
                                        #   in Loop: Header=BB10_18 Depth=2
	movl	-68(%rbp), %eax
	movslq	-48(%rbp), %rcx
	movl	%eax, -1152(%rbp,%rcx,4)
	movl	-36(%rbp), %eax
	addl	$1, %eax
	movl	%eax, -36(%rbp)
	movl	-36(%rbp), %eax
	movslq	-52(%rbp), %rcx
	movl	%eax, -5280(%rbp,%rcx,4)
	movslq	-56(%rbp), %rcx
	movl	%eax, -5280(%rbp,%rcx,4)
	movslq	-56(%rbp), %rax
	movl	-3216(%rbp,%rax,4), %eax
	andl	$-256, %eax
	movslq	-52(%rbp), %rcx
	movl	-3216(%rbp,%rcx,4), %ecx
	andl	$-256, %ecx
	addl	%ecx, %eax
	movslq	-56(%rbp), %rcx
	movl	-3216(%rbp,%rcx,4), %ecx
	andl	$255, %ecx
	movslq	-52(%rbp), %rdx
	movl	-3216(%rbp,%rdx,4), %edx
	andl	$255, %edx
	cmpl	%edx, %ecx
	jle	.LBB10_39
# %bb.38:                               # %cond.true152
                                        #   in Loop: Header=BB10_18 Depth=2
	movslq	-56(%rbp), %rcx
	movl	-3216(%rbp,%rcx,4), %ecx
	andl	$255, %ecx
	jmp	.LBB10_40
.LBB10_39:                              # %cond.false156
                                        #   in Loop: Header=BB10_18 Depth=2
	movslq	-52(%rbp), %rcx
	movl	-3216(%rbp,%rcx,4), %ecx
	andl	$255, %ecx
.LBB10_40:                              # %cond.end160
                                        #   in Loop: Header=BB10_18 Depth=2
	addl	$1, %ecx
	orl	%ecx, %eax
	movslq	-36(%rbp), %rcx
	movl	%eax, -3216(%rbp,%rcx,4)
	movslq	-36(%rbp), %rax
	movl	$-1, -5280(%rbp,%rax,4)
	movl	-8(%rbp), %eax
	addl	$1, %eax
	movl	%eax, -8(%rbp)
	movl	-36(%rbp), %eax
	movslq	-8(%rbp), %rcx
	movl	%eax, -1152(%rbp,%rcx,4)
	movl	-8(%rbp), %eax
	movl	%eax, -32(%rbp)
	movslq	-32(%rbp), %rax
	movl	-1152(%rbp,%rax,4), %eax
	movl	%eax, -72(%rbp)
.LBB10_41:                              # %while.cond174
                                        #   Parent Loop BB10_8 Depth=1
                                        #     Parent Loop BB10_18 Depth=2
                                        # =>    This Inner Loop Header: Depth=3
	movslq	-72(%rbp), %rax
	movl	-3216(%rbp,%rax,4), %eax
	movl	-32(%rbp), %ecx
	sarl	$1, %ecx
	movslq	%ecx, %rcx
	movslq	-1152(%rbp,%rcx,4), %rcx
	cmpl	-3216(%rbp,%rcx,4), %eax
	jge	.LBB10_43
# %bb.42:                               # %while.body183
                                        #   in Loop: Header=BB10_41 Depth=3
	movl	-32(%rbp), %eax
	sarl	$1, %eax
	cltq
	movl	-1152(%rbp,%rax,4), %eax
	movslq	-32(%rbp), %rcx
	movl	%eax, -1152(%rbp,%rcx,4)
	movl	-32(%rbp), %eax
	sarl	$1, %eax
	movl	%eax, -32(%rbp)
	jmp	.LBB10_41
.LBB10_43:                              # %while.end190
                                        #   in Loop: Header=BB10_18 Depth=2
	movl	-72(%rbp), %eax
	movslq	-32(%rbp), %rcx
	movl	%eax, -1152(%rbp,%rcx,4)
	jmp	.LBB10_18
.LBB10_44:                              # %while.end193
                                        #   in Loop: Header=BB10_8 Depth=1
	cmpl	$516, -36(%rbp)         # imm = 0x204
	jl	.LBB10_46
# %bb.45:                               # %if.then195
                                        #   in Loop: Header=BB10_8 Depth=1
	movl	$2002, %edi             # imm = 0x7D2
	callq	BZ2_bz__AssertH__fail
.LBB10_46:                              # %if.end196
                                        #   in Loop: Header=BB10_8 Depth=1
	movb	$0, -9(%rbp)
	movl	$1, -4(%rbp)
.LBB10_47:                              # %for.cond197
                                        #   Parent Loop BB10_8 Depth=1
                                        # =>  This Loop Header: Depth=2
                                        #       Child Loop BB10_49 Depth 3
	movl	-4(%rbp), %eax
	cmpl	-44(%rbp), %eax
	jg	.LBB10_55
# %bb.48:                               # %for.body199
                                        #   in Loop: Header=BB10_47 Depth=2
	movl	$0, -24(%rbp)
	movl	-4(%rbp), %eax
	movl	%eax, -60(%rbp)
.LBB10_49:                              # %while.cond200
                                        #   Parent Loop BB10_8 Depth=1
                                        #     Parent Loop BB10_47 Depth=2
                                        # =>    This Inner Loop Header: Depth=3
	movslq	-60(%rbp), %rax
	cmpl	$0, -5280(%rbp,%rax,4)
	jl	.LBB10_51
# %bb.50:                               # %while.body204
                                        #   in Loop: Header=BB10_49 Depth=3
	movslq	-60(%rbp), %rax
	movl	-5280(%rbp,%rax,4), %eax
	movl	%eax, -60(%rbp)
	movl	-24(%rbp), %eax
	addl	$1, %eax
	movl	%eax, -24(%rbp)
	jmp	.LBB10_49
.LBB10_51:                              # %while.end208
                                        #   in Loop: Header=BB10_47 Depth=2
	movl	-24(%rbp), %eax
	movq	-104(%rbp), %rcx
	movl	-4(%rbp), %edx
	subl	$1, %edx
	movslq	%edx, %rdx
	movb	%al, (%rcx,%rdx)
	movl	-24(%rbp), %eax
	cmpl	-84(%rbp), %eax
	jle	.LBB10_53
# %bb.52:                               # %if.then213
                                        #   in Loop: Header=BB10_47 Depth=2
	movb	$1, -9(%rbp)
.LBB10_53:                              # %if.end214
                                        #   in Loop: Header=BB10_47 Depth=2
	jmp	.LBB10_54
.LBB10_54:                              # %for.inc215
                                        #   in Loop: Header=BB10_47 Depth=2
	movl	-4(%rbp), %eax
	addl	$1, %eax
	movl	%eax, -4(%rbp)
	jmp	.LBB10_47
.LBB10_55:                              # %for.end217
                                        #   in Loop: Header=BB10_8 Depth=1
	cmpb	$0, -9(%rbp)
	jne	.LBB10_57
# %bb.56:                               # %if.then218
	jmp	.LBB10_62
.LBB10_57:                              # %if.end219
                                        #   in Loop: Header=BB10_8 Depth=1
	movl	$1, -4(%rbp)
.LBB10_58:                              # %for.cond220
                                        #   Parent Loop BB10_8 Depth=1
                                        # =>  This Inner Loop Header: Depth=2
	movl	-4(%rbp), %eax
	cmpl	-44(%rbp), %eax
	jg	.LBB10_61
# %bb.59:                               # %for.body223
                                        #   in Loop: Header=BB10_58 Depth=2
	movslq	-4(%rbp), %rax
	movl	-3216(%rbp,%rax,4), %eax
	sarl	$8, %eax
	movl	%eax, -24(%rbp)
	movl	-24(%rbp), %eax
	cltd
	movl	$2, %ecx
	idivl	%ecx
	addl	$1, %eax
	movl	%eax, -24(%rbp)
	movl	-24(%rbp), %eax
	shll	$8, %eax
	movslq	-4(%rbp), %rcx
	movl	%eax, -3216(%rbp,%rcx,4)
# %bb.60:                               # %for.inc231
                                        #   in Loop: Header=BB10_58 Depth=2
	movl	-4(%rbp), %eax
	addl	$1, %eax
	movl	%eax, -4(%rbp)
	jmp	.LBB10_58
.LBB10_61:                              # %for.end233
                                        #   in Loop: Header=BB10_8 Depth=1
	jmp	.LBB10_8
.LBB10_62:                              # %while.end234
	cmpl	$491646155, -80(%rbp)   # imm = 0x1D4DECCB
	jne	.LBB10_64
.LBB10_63:
	addq	$5280, %rsp             # imm = 0x14A0
	popq	%rbp
	.cfi_def_cfa %rsp, 8
	retq
.LBB10_64:                              # %func_exit
	.cfi_def_cfa %rbp, 16
	callq	detect_breach
	jmp	.LBB10_63
.Lfunc_end10:
	.size	BZ2_hbMakeCodeLengths.8, .Lfunc_end10-BZ2_hbMakeCodeLengths.8
	.cfi_endproc
                                        # -- End function
	.globl	BZ2_hbAssignCodes.9     # -- Begin function BZ2_hbAssignCodes.9
	.p2align	4, 0x90
	.type	BZ2_hbAssignCodes.9,@function
BZ2_hbAssignCodes.9:                    # @BZ2_hbAssignCodes.9
	.cfi_startproc
# %bb.0:                                # %entry
	pushq	%rbp
	.cfi_def_cfa_offset 16
	.cfi_offset %rbp, -16
	movq	%rsp, %rbp
	.cfi_def_cfa_register %rbp
	subq	$48, %rsp
	movl	$1645428369, -28(%rbp)  # imm = 0x62133E91
	movq	%rdi, -40(%rbp)
	movq	%rsi, -48(%rbp)
	movl	%edx, -16(%rbp)
	movl	%ecx, -24(%rbp)
	movl	%r8d, -20(%rbp)
	movl	$0, -8(%rbp)
	movl	-16(%rbp), %eax
	movl	%eax, -12(%rbp)
.LBB11_1:                               # %for.cond
                                        # =>This Loop Header: Depth=1
                                        #     Child Loop BB11_3 Depth 2
	movl	-12(%rbp), %eax
	cmpl	-24(%rbp), %eax
	jg	.LBB11_10
# %bb.2:                                # %for.body
                                        #   in Loop: Header=BB11_1 Depth=1
	movl	$0, -4(%rbp)
.LBB11_3:                               # %for.cond1
                                        #   Parent Loop BB11_1 Depth=1
                                        # =>  This Inner Loop Header: Depth=2
	movl	-4(%rbp), %eax
	cmpl	-20(%rbp), %eax
	jge	.LBB11_8
# %bb.4:                                # %for.body3
                                        #   in Loop: Header=BB11_3 Depth=2
	movq	-48(%rbp), %rax
	movslq	-4(%rbp), %rcx
	movzbl	(%rax,%rcx), %eax
	cmpl	-12(%rbp), %eax
	jne	.LBB11_6
# %bb.5:                                # %if.then
                                        #   in Loop: Header=BB11_3 Depth=2
	movl	-8(%rbp), %eax
	movq	-40(%rbp), %rcx
	movslq	-4(%rbp), %rdx
	movl	%eax, (%rcx,%rdx,4)
	movl	-8(%rbp), %eax
	addl	$1, %eax
	movl	%eax, -8(%rbp)
.LBB11_6:                               # %if.end
                                        #   in Loop: Header=BB11_3 Depth=2
	jmp	.LBB11_7
.LBB11_7:                               # %for.inc
                                        #   in Loop: Header=BB11_3 Depth=2
	movl	-4(%rbp), %eax
	addl	$1, %eax
	movl	%eax, -4(%rbp)
	jmp	.LBB11_3
.LBB11_8:                               # %for.end
                                        #   in Loop: Header=BB11_1 Depth=1
	movl	-8(%rbp), %eax
	shll	$1, %eax
	movl	%eax, -8(%rbp)
# %bb.9:                                # %for.inc9
                                        #   in Loop: Header=BB11_1 Depth=1
	movl	-12(%rbp), %eax
	addl	$1, %eax
	movl	%eax, -12(%rbp)
	jmp	.LBB11_1
.LBB11_10:                              # %for.end11
	cmpl	$1645428369, -28(%rbp)  # imm = 0x62133E91
	jne	.LBB11_12
.LBB11_11:
	addq	$48, %rsp
	popq	%rbp
	.cfi_def_cfa %rsp, 8
	retq
.LBB11_12:                              # %func_exit
	.cfi_def_cfa %rbp, 16
	callq	detect_breach
	jmp	.LBB11_11
.Lfunc_end11:
	.size	BZ2_hbAssignCodes.9, .Lfunc_end11-BZ2_hbAssignCodes.9
	.cfi_endproc
                                        # -- End function
	.globl	BZ2_hbMakeCodeLengths.10 # -- Begin function BZ2_hbMakeCodeLengths.10
	.p2align	4, 0x90
	.type	BZ2_hbMakeCodeLengths.10,@function
BZ2_hbMakeCodeLengths.10:               # @BZ2_hbMakeCodeLengths.10
	.cfi_startproc
# %bb.0:                                # %entry
	pushq	%rbp
	.cfi_def_cfa_offset 16
	.cfi_offset %rbp, -16
	movq	%rsp, %rbp
	.cfi_def_cfa_register %rbp
	subq	$5280, %rsp             # imm = 0x14A0
	movl	$2040390885, -84(%rbp)  # imm = 0x799DE4E5
	movq	%rdi, -104(%rbp)
	movq	%rsi, -96(%rbp)
	movl	%edx, -40(%rbp)
	movl	%ecx, -80(%rbp)
	movl	$0, -4(%rbp)
.LBB12_1:                               # %for.cond
                                        # =>This Inner Loop Header: Depth=1
	movl	-4(%rbp), %eax
	cmpl	-40(%rbp), %eax
	jge	.LBB12_7
# %bb.2:                                # %for.body
                                        #   in Loop: Header=BB12_1 Depth=1
	movq	-96(%rbp), %rax
	movslq	-4(%rbp), %rcx
	cmpl	$0, (%rax,%rcx,4)
	jne	.LBB12_4
# %bb.3:                                # %cond.true
                                        #   in Loop: Header=BB12_1 Depth=1
	movl	$1, %eax
	jmp	.LBB12_5
.LBB12_4:                               # %cond.false
                                        #   in Loop: Header=BB12_1 Depth=1
	movq	-96(%rbp), %rax
	movslq	-4(%rbp), %rcx
	movl	(%rax,%rcx,4), %eax
.LBB12_5:                               # %cond.end
                                        #   in Loop: Header=BB12_1 Depth=1
	shll	$8, %eax
	movl	-4(%rbp), %ecx
	addl	$1, %ecx
	movslq	%ecx, %rcx
	movl	%eax, -3216(%rbp,%rcx,4)
# %bb.6:                                # %for.inc
                                        #   in Loop: Header=BB12_1 Depth=1
	movl	-4(%rbp), %eax
	addl	$1, %eax
	movl	%eax, -4(%rbp)
	jmp	.LBB12_1
.LBB12_7:                               # %for.end
	jmp	.LBB12_8
.LBB12_8:                               # %while.body
                                        # =>This Loop Header: Depth=1
                                        #     Child Loop BB12_9 Depth 2
                                        #       Child Loop BB12_11 Depth 3
                                        #     Child Loop BB12_18 Depth 2
                                        #       Child Loop BB12_20 Depth 3
                                        #       Child Loop BB12_29 Depth 3
                                        #       Child Loop BB12_41 Depth 3
                                        #     Child Loop BB12_47 Depth 2
                                        #       Child Loop BB12_49 Depth 3
                                        #     Child Loop BB12_58 Depth 2
	movl	-40(%rbp), %eax
	movl	%eax, -28(%rbp)
	movl	$0, -8(%rbp)
	movl	$0, -1152(%rbp)
	movl	$0, -3216(%rbp)
	movl	$-2, -5280(%rbp)
	movl	$1, -4(%rbp)
.LBB12_9:                               # %for.cond9
                                        #   Parent Loop BB12_8 Depth=1
                                        # =>  This Loop Header: Depth=2
                                        #       Child Loop BB12_11 Depth 3
	movl	-4(%rbp), %eax
	cmpl	-40(%rbp), %eax
	jg	.LBB12_15
# %bb.10:                               # %for.body11
                                        #   in Loop: Header=BB12_9 Depth=2
	movslq	-4(%rbp), %rax
	movl	$-1, -5280(%rbp,%rax,4)
	movl	-8(%rbp), %eax
	addl	$1, %eax
	movl	%eax, -8(%rbp)
	movl	-4(%rbp), %eax
	movslq	-8(%rbp), %rcx
	movl	%eax, -1152(%rbp,%rcx,4)
	movl	-8(%rbp), %eax
	movl	%eax, -36(%rbp)
	movslq	-36(%rbp), %rax
	movl	-1152(%rbp,%rax,4), %eax
	movl	%eax, -76(%rbp)
.LBB12_11:                              # %while.cond19
                                        #   Parent Loop BB12_8 Depth=1
                                        #     Parent Loop BB12_9 Depth=2
                                        # =>    This Inner Loop Header: Depth=3
	movslq	-76(%rbp), %rax
	movl	-3216(%rbp,%rax,4), %eax
	movl	-36(%rbp), %ecx
	sarl	$1, %ecx
	movslq	%ecx, %rcx
	movslq	-1152(%rbp,%rcx,4), %rcx
	cmpl	-3216(%rbp,%rcx,4), %eax
	jge	.LBB12_13
# %bb.12:                               # %while.body27
                                        #   in Loop: Header=BB12_11 Depth=3
	movl	-36(%rbp), %eax
	sarl	$1, %eax
	cltq
	movl	-1152(%rbp,%rax,4), %eax
	movslq	-36(%rbp), %rcx
	movl	%eax, -1152(%rbp,%rcx,4)
	movl	-36(%rbp), %eax
	sarl	$1, %eax
	movl	%eax, -36(%rbp)
	jmp	.LBB12_11
.LBB12_13:                              # %while.end
                                        #   in Loop: Header=BB12_9 Depth=2
	movl	-76(%rbp), %eax
	movslq	-36(%rbp), %rcx
	movl	%eax, -1152(%rbp,%rcx,4)
# %bb.14:                               # %for.inc36
                                        #   in Loop: Header=BB12_9 Depth=2
	movl	-4(%rbp), %eax
	addl	$1, %eax
	movl	%eax, -4(%rbp)
	jmp	.LBB12_9
.LBB12_15:                              # %for.end38
                                        #   in Loop: Header=BB12_8 Depth=1
	cmpl	$260, -8(%rbp)          # imm = 0x104
	jl	.LBB12_17
# %bb.16:                               # %if.then
                                        #   in Loop: Header=BB12_8 Depth=1
	movl	$2001, %edi             # imm = 0x7D1
	callq	BZ2_bz__AssertH__fail
.LBB12_17:                              # %if.end
                                        #   in Loop: Header=BB12_8 Depth=1
	jmp	.LBB12_18
.LBB12_18:                              # %while.cond40
                                        #   Parent Loop BB12_8 Depth=1
                                        # =>  This Loop Header: Depth=2
                                        #       Child Loop BB12_20 Depth 3
                                        #       Child Loop BB12_29 Depth 3
                                        #       Child Loop BB12_41 Depth 3
	cmpl	$1, -8(%rbp)
	jle	.LBB12_44
# %bb.19:                               # %while.body42
                                        #   in Loop: Header=BB12_18 Depth=2
	movl	-1148(%rbp), %eax
	movl	%eax, -56(%rbp)
	movslq	-8(%rbp), %rax
	movl	-1152(%rbp,%rax,4), %eax
	movl	%eax, -1148(%rbp)
	movl	-8(%rbp), %eax
	addl	$-1, %eax
	movl	%eax, -8(%rbp)
	movl	$1, -48(%rbp)
	movslq	-48(%rbp), %rax
	movl	-1152(%rbp,%rax,4), %eax
	movl	%eax, -68(%rbp)
.LBB12_20:                              # %while.body52
                                        #   Parent Loop BB12_8 Depth=1
                                        #     Parent Loop BB12_18 Depth=2
                                        # =>    This Inner Loop Header: Depth=3
	movl	-48(%rbp), %eax
	shll	$1, %eax
	movl	%eax, -20(%rbp)
	movl	-20(%rbp), %eax
	cmpl	-8(%rbp), %eax
	jle	.LBB12_22
# %bb.21:                               # %if.then55
                                        #   in Loop: Header=BB12_18 Depth=2
	jmp	.LBB12_28
.LBB12_22:                              # %if.end56
                                        #   in Loop: Header=BB12_20 Depth=3
	movl	-20(%rbp), %eax
	cmpl	-8(%rbp), %eax
	jge	.LBB12_25
# %bb.23:                               # %land.lhs.true
                                        #   in Loop: Header=BB12_20 Depth=3
	movl	-20(%rbp), %eax
	addl	$1, %eax
	cltq
	movslq	-1152(%rbp,%rax,4), %rax
	movl	-3216(%rbp,%rax,4), %eax
	movslq	-20(%rbp), %rcx
	movslq	-1152(%rbp,%rcx,4), %rcx
	cmpl	-3216(%rbp,%rcx,4), %eax
	jge	.LBB12_25
# %bb.24:                               # %if.then68
                                        #   in Loop: Header=BB12_20 Depth=3
	movl	-20(%rbp), %eax
	addl	$1, %eax
	movl	%eax, -20(%rbp)
.LBB12_25:                              # %if.end70
                                        #   in Loop: Header=BB12_20 Depth=3
	movslq	-68(%rbp), %rax
	movl	-3216(%rbp,%rax,4), %eax
	movslq	-20(%rbp), %rcx
	movslq	-1152(%rbp,%rcx,4), %rcx
	cmpl	-3216(%rbp,%rcx,4), %eax
	jge	.LBB12_27
# %bb.26:                               # %if.then78
                                        #   in Loop: Header=BB12_18 Depth=2
	jmp	.LBB12_28
.LBB12_27:                              # %if.end79
                                        #   in Loop: Header=BB12_20 Depth=3
	movslq	-20(%rbp), %rax
	movl	-1152(%rbp,%rax,4), %eax
	movslq	-48(%rbp), %rcx
	movl	%eax, -1152(%rbp,%rcx,4)
	movl	-20(%rbp), %eax
	movl	%eax, -48(%rbp)
	jmp	.LBB12_20
.LBB12_28:                              # %while.end84
                                        #   in Loop: Header=BB12_18 Depth=2
	movl	-68(%rbp), %eax
	movslq	-48(%rbp), %rcx
	movl	%eax, -1152(%rbp,%rcx,4)
	movl	-1148(%rbp), %eax
	movl	%eax, -52(%rbp)
	movslq	-8(%rbp), %rax
	movl	-1152(%rbp,%rax,4), %eax
	movl	%eax, -1148(%rbp)
	movl	-8(%rbp), %eax
	addl	$-1, %eax
	movl	%eax, -8(%rbp)
	movl	$1, -44(%rbp)
	movslq	-44(%rbp), %rax
	movl	-1152(%rbp,%rax,4), %eax
	movl	%eax, -72(%rbp)
.LBB12_29:                              # %while.body98
                                        #   Parent Loop BB12_8 Depth=1
                                        #     Parent Loop BB12_18 Depth=2
                                        # =>    This Inner Loop Header: Depth=3
	movl	-44(%rbp), %eax
	shll	$1, %eax
	movl	%eax, -16(%rbp)
	movl	-16(%rbp), %eax
	cmpl	-8(%rbp), %eax
	jle	.LBB12_31
# %bb.30:                               # %if.then101
                                        #   in Loop: Header=BB12_18 Depth=2
	jmp	.LBB12_37
.LBB12_31:                              # %if.end102
                                        #   in Loop: Header=BB12_29 Depth=3
	movl	-16(%rbp), %eax
	cmpl	-8(%rbp), %eax
	jge	.LBB12_34
# %bb.32:                               # %land.lhs.true104
                                        #   in Loop: Header=BB12_29 Depth=3
	movl	-16(%rbp), %eax
	addl	$1, %eax
	cltq
	movslq	-1152(%rbp,%rax,4), %rax
	movl	-3216(%rbp,%rax,4), %eax
	movslq	-16(%rbp), %rcx
	movslq	-1152(%rbp,%rcx,4), %rcx
	cmpl	-3216(%rbp,%rcx,4), %eax
	jge	.LBB12_34
# %bb.33:                               # %if.then115
                                        #   in Loop: Header=BB12_29 Depth=3
	movl	-16(%rbp), %eax
	addl	$1, %eax
	movl	%eax, -16(%rbp)
.LBB12_34:                              # %if.end117
                                        #   in Loop: Header=BB12_29 Depth=3
	movslq	-72(%rbp), %rax
	movl	-3216(%rbp,%rax,4), %eax
	movslq	-16(%rbp), %rcx
	movslq	-1152(%rbp,%rcx,4), %rcx
	cmpl	-3216(%rbp,%rcx,4), %eax
	jge	.LBB12_36
# %bb.35:                               # %if.then125
                                        #   in Loop: Header=BB12_18 Depth=2
	jmp	.LBB12_37
.LBB12_36:                              # %if.end126
                                        #   in Loop: Header=BB12_29 Depth=3
	movslq	-16(%rbp), %rax
	movl	-1152(%rbp,%rax,4), %eax
	movslq	-44(%rbp), %rcx
	movl	%eax, -1152(%rbp,%rcx,4)
	movl	-16(%rbp), %eax
	movl	%eax, -44(%rbp)
	jmp	.LBB12_29
.LBB12_37:                              # %while.end131
                                        #   in Loop: Header=BB12_18 Depth=2
	movl	-72(%rbp), %eax
	movslq	-44(%rbp), %rcx
	movl	%eax, -1152(%rbp,%rcx,4)
	movl	-28(%rbp), %eax
	addl	$1, %eax
	movl	%eax, -28(%rbp)
	movl	-28(%rbp), %eax
	movslq	-52(%rbp), %rcx
	movl	%eax, -5280(%rbp,%rcx,4)
	movslq	-56(%rbp), %rcx
	movl	%eax, -5280(%rbp,%rcx,4)
	movslq	-56(%rbp), %rax
	movl	-3216(%rbp,%rax,4), %eax
	andl	$-256, %eax
	movslq	-52(%rbp), %rcx
	movl	-3216(%rbp,%rcx,4), %ecx
	andl	$-256, %ecx
	addl	%ecx, %eax
	movslq	-56(%rbp), %rcx
	movl	-3216(%rbp,%rcx,4), %ecx
	andl	$255, %ecx
	movslq	-52(%rbp), %rdx
	movl	-3216(%rbp,%rdx,4), %edx
	andl	$255, %edx
	cmpl	%edx, %ecx
	jle	.LBB12_39
# %bb.38:                               # %cond.true152
                                        #   in Loop: Header=BB12_18 Depth=2
	movslq	-56(%rbp), %rcx
	movl	-3216(%rbp,%rcx,4), %ecx
	andl	$255, %ecx
	jmp	.LBB12_40
.LBB12_39:                              # %cond.false156
                                        #   in Loop: Header=BB12_18 Depth=2
	movslq	-52(%rbp), %rcx
	movl	-3216(%rbp,%rcx,4), %ecx
	andl	$255, %ecx
.LBB12_40:                              # %cond.end160
                                        #   in Loop: Header=BB12_18 Depth=2
	addl	$1, %ecx
	orl	%ecx, %eax
	movslq	-28(%rbp), %rcx
	movl	%eax, -3216(%rbp,%rcx,4)
	movslq	-28(%rbp), %rax
	movl	$-1, -5280(%rbp,%rax,4)
	movl	-8(%rbp), %eax
	addl	$1, %eax
	movl	%eax, -8(%rbp)
	movl	-28(%rbp), %eax
	movslq	-8(%rbp), %rcx
	movl	%eax, -1152(%rbp,%rcx,4)
	movl	-8(%rbp), %eax
	movl	%eax, -32(%rbp)
	movslq	-32(%rbp), %rax
	movl	-1152(%rbp,%rax,4), %eax
	movl	%eax, -64(%rbp)
.LBB12_41:                              # %while.cond174
                                        #   Parent Loop BB12_8 Depth=1
                                        #     Parent Loop BB12_18 Depth=2
                                        # =>    This Inner Loop Header: Depth=3
	movslq	-64(%rbp), %rax
	movl	-3216(%rbp,%rax,4), %eax
	movl	-32(%rbp), %ecx
	sarl	$1, %ecx
	movslq	%ecx, %rcx
	movslq	-1152(%rbp,%rcx,4), %rcx
	cmpl	-3216(%rbp,%rcx,4), %eax
	jge	.LBB12_43
# %bb.42:                               # %while.body183
                                        #   in Loop: Header=BB12_41 Depth=3
	movl	-32(%rbp), %eax
	sarl	$1, %eax
	cltq
	movl	-1152(%rbp,%rax,4), %eax
	movslq	-32(%rbp), %rcx
	movl	%eax, -1152(%rbp,%rcx,4)
	movl	-32(%rbp), %eax
	sarl	$1, %eax
	movl	%eax, -32(%rbp)
	jmp	.LBB12_41
.LBB12_43:                              # %while.end190
                                        #   in Loop: Header=BB12_18 Depth=2
	movl	-64(%rbp), %eax
	movslq	-32(%rbp), %rcx
	movl	%eax, -1152(%rbp,%rcx,4)
	jmp	.LBB12_18
.LBB12_44:                              # %while.end193
                                        #   in Loop: Header=BB12_8 Depth=1
	cmpl	$516, -28(%rbp)         # imm = 0x204
	jl	.LBB12_46
# %bb.45:                               # %if.then195
                                        #   in Loop: Header=BB12_8 Depth=1
	movl	$2002, %edi             # imm = 0x7D2
	callq	BZ2_bz__AssertH__fail
.LBB12_46:                              # %if.end196
                                        #   in Loop: Header=BB12_8 Depth=1
	movb	$0, -9(%rbp)
	movl	$1, -4(%rbp)
.LBB12_47:                              # %for.cond197
                                        #   Parent Loop BB12_8 Depth=1
                                        # =>  This Loop Header: Depth=2
                                        #       Child Loop BB12_49 Depth 3
	movl	-4(%rbp), %eax
	cmpl	-40(%rbp), %eax
	jg	.LBB12_55
# %bb.48:                               # %for.body199
                                        #   in Loop: Header=BB12_47 Depth=2
	movl	$0, -24(%rbp)
	movl	-4(%rbp), %eax
	movl	%eax, -60(%rbp)
.LBB12_49:                              # %while.cond200
                                        #   Parent Loop BB12_8 Depth=1
                                        #     Parent Loop BB12_47 Depth=2
                                        # =>    This Inner Loop Header: Depth=3
	movslq	-60(%rbp), %rax
	cmpl	$0, -5280(%rbp,%rax,4)
	jl	.LBB12_51
# %bb.50:                               # %while.body204
                                        #   in Loop: Header=BB12_49 Depth=3
	movslq	-60(%rbp), %rax
	movl	-5280(%rbp,%rax,4), %eax
	movl	%eax, -60(%rbp)
	movl	-24(%rbp), %eax
	addl	$1, %eax
	movl	%eax, -24(%rbp)
	jmp	.LBB12_49
.LBB12_51:                              # %while.end208
                                        #   in Loop: Header=BB12_47 Depth=2
	movl	-24(%rbp), %eax
	movq	-104(%rbp), %rcx
	movl	-4(%rbp), %edx
	subl	$1, %edx
	movslq	%edx, %rdx
	movb	%al, (%rcx,%rdx)
	movl	-24(%rbp), %eax
	cmpl	-80(%rbp), %eax
	jle	.LBB12_53
# %bb.52:                               # %if.then213
                                        #   in Loop: Header=BB12_47 Depth=2
	movb	$1, -9(%rbp)
.LBB12_53:                              # %if.end214
                                        #   in Loop: Header=BB12_47 Depth=2
	jmp	.LBB12_54
.LBB12_54:                              # %for.inc215
                                        #   in Loop: Header=BB12_47 Depth=2
	movl	-4(%rbp), %eax
	addl	$1, %eax
	movl	%eax, -4(%rbp)
	jmp	.LBB12_47
.LBB12_55:                              # %for.end217
                                        #   in Loop: Header=BB12_8 Depth=1
	cmpb	$0, -9(%rbp)
	jne	.LBB12_57
# %bb.56:                               # %if.then218
	jmp	.LBB12_62
.LBB12_57:                              # %if.end219
                                        #   in Loop: Header=BB12_8 Depth=1
	movl	$1, -4(%rbp)
.LBB12_58:                              # %for.cond220
                                        #   Parent Loop BB12_8 Depth=1
                                        # =>  This Inner Loop Header: Depth=2
	movl	-4(%rbp), %eax
	cmpl	-40(%rbp), %eax
	jg	.LBB12_61
# %bb.59:                               # %for.body223
                                        #   in Loop: Header=BB12_58 Depth=2
	movslq	-4(%rbp), %rax
	movl	-3216(%rbp,%rax,4), %eax
	sarl	$8, %eax
	movl	%eax, -24(%rbp)
	movl	-24(%rbp), %eax
	cltd
	movl	$2, %ecx
	idivl	%ecx
	addl	$1, %eax
	movl	%eax, -24(%rbp)
	movl	-24(%rbp), %eax
	shll	$8, %eax
	movslq	-4(%rbp), %rcx
	movl	%eax, -3216(%rbp,%rcx,4)
# %bb.60:                               # %for.inc231
                                        #   in Loop: Header=BB12_58 Depth=2
	movl	-4(%rbp), %eax
	addl	$1, %eax
	movl	%eax, -4(%rbp)
	jmp	.LBB12_58
.LBB12_61:                              # %for.end233
                                        #   in Loop: Header=BB12_8 Depth=1
	jmp	.LBB12_8
.LBB12_62:                              # %while.end234
	cmpl	$2040390885, -84(%rbp)  # imm = 0x799DE4E5
	jne	.LBB12_64
.LBB12_63:
	addq	$5280, %rsp             # imm = 0x14A0
	popq	%rbp
	.cfi_def_cfa %rsp, 8
	retq
.LBB12_64:                              # %func_exit
	.cfi_def_cfa %rbp, 16
	callq	detect_breach
	jmp	.LBB12_63
.Lfunc_end12:
	.size	BZ2_hbMakeCodeLengths.10, .Lfunc_end12-BZ2_hbMakeCodeLengths.10
	.cfi_endproc
                                        # -- End function
	.globl	BZ2_hbCreateDecodeTables.11 # -- Begin function BZ2_hbCreateDecodeTables.11
	.p2align	4, 0x90
	.type	BZ2_hbCreateDecodeTables.11,@function
BZ2_hbCreateDecodeTables.11:            # @BZ2_hbCreateDecodeTables.11
	.cfi_startproc
# %bb.0:                                # %entry
	pushq	%rbp
	.cfi_def_cfa_offset 16
	.cfi_offset %rbp, -16
	movq	%rsp, %rbp
	.cfi_def_cfa_register %rbp
	subq	$80, %rsp
	movl	16(%rbp), %eax
	movl	$102617448, -52(%rbp)   # imm = 0x61DD168
	movq	%rdi, -48(%rbp)
	movq	%rsi, -24(%rbp)
	movq	%rdx, -72(%rbp)
	movq	%rcx, -64(%rbp)
	movl	%r8d, -28(%rbp)
	movl	%r9d, -36(%rbp)
	movl	$0, -32(%rbp)
	movl	-28(%rbp), %eax
	movl	%eax, -4(%rbp)
.LBB13_1:                               # %for.cond
                                        # =>This Loop Header: Depth=1
                                        #     Child Loop BB13_3 Depth 2
	movl	-4(%rbp), %eax
	cmpl	-36(%rbp), %eax
	jg	.LBB13_10
# %bb.2:                                # %for.body
                                        #   in Loop: Header=BB13_1 Depth=1
	movl	$0, -8(%rbp)
.LBB13_3:                               # %for.cond1
                                        #   Parent Loop BB13_1 Depth=1
                                        # =>  This Inner Loop Header: Depth=2
	movl	-8(%rbp), %eax
	cmpl	16(%rbp), %eax
	jge	.LBB13_8
# %bb.4:                                # %for.body3
                                        #   in Loop: Header=BB13_3 Depth=2
	movq	-64(%rbp), %rax
	movslq	-8(%rbp), %rcx
	movzbl	(%rax,%rcx), %eax
	cmpl	-4(%rbp), %eax
	jne	.LBB13_6
# %bb.5:                                # %if.then
                                        #   in Loop: Header=BB13_3 Depth=2
	movl	-8(%rbp), %eax
	movq	-72(%rbp), %rcx
	movslq	-32(%rbp), %rdx
	movl	%eax, (%rcx,%rdx,4)
	movl	-32(%rbp), %eax
	addl	$1, %eax
	movl	%eax, -32(%rbp)
.LBB13_6:                               # %if.end
                                        #   in Loop: Header=BB13_3 Depth=2
	jmp	.LBB13_7
.LBB13_7:                               # %for.inc
                                        #   in Loop: Header=BB13_3 Depth=2
	movl	-8(%rbp), %eax
	addl	$1, %eax
	movl	%eax, -8(%rbp)
	jmp	.LBB13_3
.LBB13_8:                               # %for.end
                                        #   in Loop: Header=BB13_1 Depth=1
	jmp	.LBB13_9
.LBB13_9:                               # %for.inc9
                                        #   in Loop: Header=BB13_1 Depth=1
	movl	-4(%rbp), %eax
	addl	$1, %eax
	movl	%eax, -4(%rbp)
	jmp	.LBB13_1
.LBB13_10:                              # %for.end11
	movl	$0, -4(%rbp)
.LBB13_11:                              # %for.cond12
                                        # =>This Inner Loop Header: Depth=1
	cmpl	$23, -4(%rbp)
	jge	.LBB13_14
# %bb.12:                               # %for.body15
                                        #   in Loop: Header=BB13_11 Depth=1
	movq	-24(%rbp), %rax
	movslq	-4(%rbp), %rcx
	movl	$0, (%rax,%rcx,4)
# %bb.13:                               # %for.inc18
                                        #   in Loop: Header=BB13_11 Depth=1
	movl	-4(%rbp), %eax
	addl	$1, %eax
	movl	%eax, -4(%rbp)
	jmp	.LBB13_11
.LBB13_14:                              # %for.end20
	movl	$0, -4(%rbp)
.LBB13_15:                              # %for.cond21
                                        # =>This Inner Loop Header: Depth=1
	movl	-4(%rbp), %eax
	cmpl	16(%rbp), %eax
	jge	.LBB13_18
# %bb.16:                               # %for.body24
                                        #   in Loop: Header=BB13_15 Depth=1
	movq	-24(%rbp), %rax
	movq	-64(%rbp), %rcx
	movslq	-4(%rbp), %rdx
	movzbl	(%rcx,%rdx), %ecx
	addl	$1, %ecx
	movslq	%ecx, %rcx
	movl	(%rax,%rcx,4), %edx
	addl	$1, %edx
	movl	%edx, (%rax,%rcx,4)
# %bb.17:                               # %for.inc31
                                        #   in Loop: Header=BB13_15 Depth=1
	movl	-4(%rbp), %eax
	addl	$1, %eax
	movl	%eax, -4(%rbp)
	jmp	.LBB13_15
.LBB13_18:                              # %for.end33
	movl	$1, -4(%rbp)
.LBB13_19:                              # %for.cond34
                                        # =>This Inner Loop Header: Depth=1
	cmpl	$23, -4(%rbp)
	jge	.LBB13_22
# %bb.20:                               # %for.body37
                                        #   in Loop: Header=BB13_19 Depth=1
	movq	-24(%rbp), %rax
	movl	-4(%rbp), %ecx
	subl	$1, %ecx
	movslq	%ecx, %rcx
	movl	(%rax,%rcx,4), %eax
	movq	-24(%rbp), %rcx
	movslq	-4(%rbp), %rdx
	addl	(%rcx,%rdx,4), %eax
	movl	%eax, (%rcx,%rdx,4)
# %bb.21:                               # %for.inc43
                                        #   in Loop: Header=BB13_19 Depth=1
	movl	-4(%rbp), %eax
	addl	$1, %eax
	movl	%eax, -4(%rbp)
	jmp	.LBB13_19
.LBB13_22:                              # %for.end45
	movl	$0, -4(%rbp)
.LBB13_23:                              # %for.cond46
                                        # =>This Inner Loop Header: Depth=1
	cmpl	$23, -4(%rbp)
	jge	.LBB13_26
# %bb.24:                               # %for.body49
                                        #   in Loop: Header=BB13_23 Depth=1
	movq	-48(%rbp), %rax
	movslq	-4(%rbp), %rcx
	movl	$0, (%rax,%rcx,4)
# %bb.25:                               # %for.inc52
                                        #   in Loop: Header=BB13_23 Depth=1
	movl	-4(%rbp), %eax
	addl	$1, %eax
	movl	%eax, -4(%rbp)
	jmp	.LBB13_23
.LBB13_26:                              # %for.end54
	movl	$0, -12(%rbp)
	movl	-28(%rbp), %eax
	movl	%eax, -4(%rbp)
.LBB13_27:                              # %for.cond55
                                        # =>This Inner Loop Header: Depth=1
	movl	-4(%rbp), %eax
	cmpl	-36(%rbp), %eax
	jg	.LBB13_30
# %bb.28:                               # %for.body58
                                        #   in Loop: Header=BB13_27 Depth=1
	movq	-24(%rbp), %rax
	movl	-4(%rbp), %ecx
	addl	$1, %ecx
	movslq	%ecx, %rcx
	movl	(%rax,%rcx,4), %eax
	movq	-24(%rbp), %rcx
	movslq	-4(%rbp), %rdx
	subl	(%rcx,%rdx,4), %eax
	addl	-12(%rbp), %eax
	movl	%eax, -12(%rbp)
	movl	-12(%rbp), %eax
	subl	$1, %eax
	movq	-48(%rbp), %rcx
	movslq	-4(%rbp), %rdx
	movl	%eax, (%rcx,%rdx,4)
	movl	-12(%rbp), %eax
	shll	$1, %eax
	movl	%eax, -12(%rbp)
# %bb.29:                               # %for.inc69
                                        #   in Loop: Header=BB13_27 Depth=1
	movl	-4(%rbp), %eax
	addl	$1, %eax
	movl	%eax, -4(%rbp)
	jmp	.LBB13_27
.LBB13_30:                              # %for.end71
	movl	-28(%rbp), %eax
	addl	$1, %eax
	movl	%eax, -4(%rbp)
.LBB13_31:                              # %for.cond73
                                        # =>This Inner Loop Header: Depth=1
	movl	-4(%rbp), %eax
	cmpl	-36(%rbp), %eax
	jg	.LBB13_34
# %bb.32:                               # %for.body76
                                        #   in Loop: Header=BB13_31 Depth=1
	movq	-48(%rbp), %rax
	movl	-4(%rbp), %ecx
	subl	$1, %ecx
	movslq	%ecx, %rcx
	movl	(%rax,%rcx,4), %eax
	addl	$1, %eax
	shll	$1, %eax
	movq	-24(%rbp), %rcx
	movslq	-4(%rbp), %rdx
	subl	(%rcx,%rdx,4), %eax
	movq	-24(%rbp), %rcx
	movslq	-4(%rbp), %rdx
	movl	%eax, (%rcx,%rdx,4)
# %bb.33:                               # %for.inc87
                                        #   in Loop: Header=BB13_31 Depth=1
	movl	-4(%rbp), %eax
	addl	$1, %eax
	movl	%eax, -4(%rbp)
	jmp	.LBB13_31
.LBB13_34:                              # %for.end89
	cmpl	$102617448, -52(%rbp)   # imm = 0x61DD168
	jne	.LBB13_36
.LBB13_35:
	addq	$80, %rsp
	popq	%rbp
	.cfi_def_cfa %rsp, 8
	retq
.LBB13_36:                              # %func_exit
	.cfi_def_cfa %rbp, 16
	callq	detect_breach
	jmp	.LBB13_35
.Lfunc_end13:
	.size	BZ2_hbCreateDecodeTables.11, .Lfunc_end13-BZ2_hbCreateDecodeTables.11
	.cfi_endproc
                                        # -- End function
	.globl	BZ2_hbAssignCodes.12    # -- Begin function BZ2_hbAssignCodes.12
	.p2align	4, 0x90
	.type	BZ2_hbAssignCodes.12,@function
BZ2_hbAssignCodes.12:                   # @BZ2_hbAssignCodes.12
	.cfi_startproc
# %bb.0:                                # %entry
	pushq	%rbp
	.cfi_def_cfa_offset 16
	.cfi_offset %rbp, -16
	movq	%rsp, %rbp
	.cfi_def_cfa_register %rbp
	subq	$48, %rsp
	movl	$937525692, -20(%rbp)   # imm = 0x37E181BC
	movq	%rdi, -48(%rbp)
	movq	%rsi, -40(%rbp)
	movl	%edx, -16(%rbp)
	movl	%ecx, -28(%rbp)
	movl	%r8d, -24(%rbp)
	movl	$0, -4(%rbp)
	movl	-16(%rbp), %eax
	movl	%eax, -12(%rbp)
.LBB14_1:                               # %for.cond
                                        # =>This Loop Header: Depth=1
                                        #     Child Loop BB14_3 Depth 2
	movl	-12(%rbp), %eax
	cmpl	-28(%rbp), %eax
	jg	.LBB14_10
# %bb.2:                                # %for.body
                                        #   in Loop: Header=BB14_1 Depth=1
	movl	$0, -8(%rbp)
.LBB14_3:                               # %for.cond1
                                        #   Parent Loop BB14_1 Depth=1
                                        # =>  This Inner Loop Header: Depth=2
	movl	-8(%rbp), %eax
	cmpl	-24(%rbp), %eax
	jge	.LBB14_8
# %bb.4:                                # %for.body3
                                        #   in Loop: Header=BB14_3 Depth=2
	movq	-40(%rbp), %rax
	movslq	-8(%rbp), %rcx
	movzbl	(%rax,%rcx), %eax
	cmpl	-12(%rbp), %eax
	jne	.LBB14_6
# %bb.5:                                # %if.then
                                        #   in Loop: Header=BB14_3 Depth=2
	movl	-4(%rbp), %eax
	movq	-48(%rbp), %rcx
	movslq	-8(%rbp), %rdx
	movl	%eax, (%rcx,%rdx,4)
	movl	-4(%rbp), %eax
	addl	$1, %eax
	movl	%eax, -4(%rbp)
.LBB14_6:                               # %if.end
                                        #   in Loop: Header=BB14_3 Depth=2
	jmp	.LBB14_7
.LBB14_7:                               # %for.inc
                                        #   in Loop: Header=BB14_3 Depth=2
	movl	-8(%rbp), %eax
	addl	$1, %eax
	movl	%eax, -8(%rbp)
	jmp	.LBB14_3
.LBB14_8:                               # %for.end
                                        #   in Loop: Header=BB14_1 Depth=1
	movl	-4(%rbp), %eax
	shll	$1, %eax
	movl	%eax, -4(%rbp)
# %bb.9:                                # %for.inc9
                                        #   in Loop: Header=BB14_1 Depth=1
	movl	-12(%rbp), %eax
	addl	$1, %eax
	movl	%eax, -12(%rbp)
	jmp	.LBB14_1
.LBB14_10:                              # %for.end11
	cmpl	$937525692, -20(%rbp)   # imm = 0x37E181BC
	jne	.LBB14_12
.LBB14_11:
	addq	$48, %rsp
	popq	%rbp
	.cfi_def_cfa %rsp, 8
	retq
.LBB14_12:                              # %func_exit
	.cfi_def_cfa %rbp, 16
	callq	detect_breach
	jmp	.LBB14_11
.Lfunc_end14:
	.size	BZ2_hbAssignCodes.12, .Lfunc_end14-BZ2_hbAssignCodes.12
	.cfi_endproc
                                        # -- End function
	.globl	BZ2_hbAssignCodes.13    # -- Begin function BZ2_hbAssignCodes.13
	.p2align	4, 0x90
	.type	BZ2_hbAssignCodes.13,@function
BZ2_hbAssignCodes.13:                   # @BZ2_hbAssignCodes.13
	.cfi_startproc
# %bb.0:                                # %entry
	pushq	%rbp
	.cfi_def_cfa_offset 16
	.cfi_offset %rbp, -16
	movq	%rsp, %rbp
	.cfi_def_cfa_register %rbp
	subq	$48, %rsp
	movl	$1920345123, -24(%rbp)  # imm = 0x72762423
	movq	%rdi, -40(%rbp)
	movq	%rsi, -48(%rbp)
	movl	%edx, -20(%rbp)
	movl	%ecx, -28(%rbp)
	movl	%r8d, -16(%rbp)
	movl	$0, -8(%rbp)
	movl	-20(%rbp), %eax
	movl	%eax, -12(%rbp)
.LBB15_1:                               # %for.cond
                                        # =>This Loop Header: Depth=1
                                        #     Child Loop BB15_3 Depth 2
	movl	-12(%rbp), %eax
	cmpl	-28(%rbp), %eax
	jg	.LBB15_10
# %bb.2:                                # %for.body
                                        #   in Loop: Header=BB15_1 Depth=1
	movl	$0, -4(%rbp)
.LBB15_3:                               # %for.cond1
                                        #   Parent Loop BB15_1 Depth=1
                                        # =>  This Inner Loop Header: Depth=2
	movl	-4(%rbp), %eax
	cmpl	-16(%rbp), %eax
	jge	.LBB15_8
# %bb.4:                                # %for.body3
                                        #   in Loop: Header=BB15_3 Depth=2
	movq	-48(%rbp), %rax
	movslq	-4(%rbp), %rcx
	movzbl	(%rax,%rcx), %eax
	cmpl	-12(%rbp), %eax
	jne	.LBB15_6
# %bb.5:                                # %if.then
                                        #   in Loop: Header=BB15_3 Depth=2
	movl	-8(%rbp), %eax
	movq	-40(%rbp), %rcx
	movslq	-4(%rbp), %rdx
	movl	%eax, (%rcx,%rdx,4)
	movl	-8(%rbp), %eax
	addl	$1, %eax
	movl	%eax, -8(%rbp)
.LBB15_6:                               # %if.end
                                        #   in Loop: Header=BB15_3 Depth=2
	jmp	.LBB15_7
.LBB15_7:                               # %for.inc
                                        #   in Loop: Header=BB15_3 Depth=2
	movl	-4(%rbp), %eax
	addl	$1, %eax
	movl	%eax, -4(%rbp)
	jmp	.LBB15_3
.LBB15_8:                               # %for.end
                                        #   in Loop: Header=BB15_1 Depth=1
	movl	-8(%rbp), %eax
	shll	$1, %eax
	movl	%eax, -8(%rbp)
# %bb.9:                                # %for.inc9
                                        #   in Loop: Header=BB15_1 Depth=1
	movl	-12(%rbp), %eax
	addl	$1, %eax
	movl	%eax, -12(%rbp)
	jmp	.LBB15_1
.LBB15_10:                              # %for.end11
	cmpl	$1920345123, -24(%rbp)  # imm = 0x72762423
	jne	.LBB15_12
.LBB15_11:
	addq	$48, %rsp
	popq	%rbp
	.cfi_def_cfa %rsp, 8
	retq
.LBB15_12:                              # %func_exit
	.cfi_def_cfa %rbp, 16
	callq	detect_breach
	jmp	.LBB15_11
.Lfunc_end15:
	.size	BZ2_hbAssignCodes.13, .Lfunc_end15-BZ2_hbAssignCodes.13
	.cfi_endproc
                                        # -- End function
	.globl	BZ2_hbCreateDecodeTables.14 # -- Begin function BZ2_hbCreateDecodeTables.14
	.p2align	4, 0x90
	.type	BZ2_hbCreateDecodeTables.14,@function
BZ2_hbCreateDecodeTables.14:            # @BZ2_hbCreateDecodeTables.14
	.cfi_startproc
# %bb.0:                                # %entry
	pushq	%rbp
	.cfi_def_cfa_offset 16
	.cfi_offset %rbp, -16
	movq	%rsp, %rbp
	.cfi_def_cfa_register %rbp
	subq	$80, %rsp
	movl	16(%rbp), %eax
	movl	$509595406, -52(%rbp)   # imm = 0x1E5FCF0E
	movq	%rdi, -48(%rbp)
	movq	%rsi, -24(%rbp)
	movq	%rdx, -72(%rbp)
	movq	%rcx, -64(%rbp)
	movl	%r8d, -28(%rbp)
	movl	%r9d, -32(%rbp)
	movl	$0, -36(%rbp)
	movl	-28(%rbp), %eax
	movl	%eax, -4(%rbp)
.LBB16_1:                               # %for.cond
                                        # =>This Loop Header: Depth=1
                                        #     Child Loop BB16_3 Depth 2
	movl	-4(%rbp), %eax
	cmpl	-32(%rbp), %eax
	jg	.LBB16_10
# %bb.2:                                # %for.body
                                        #   in Loop: Header=BB16_1 Depth=1
	movl	$0, -12(%rbp)
.LBB16_3:                               # %for.cond1
                                        #   Parent Loop BB16_1 Depth=1
                                        # =>  This Inner Loop Header: Depth=2
	movl	-12(%rbp), %eax
	cmpl	16(%rbp), %eax
	jge	.LBB16_8
# %bb.4:                                # %for.body3
                                        #   in Loop: Header=BB16_3 Depth=2
	movq	-64(%rbp), %rax
	movslq	-12(%rbp), %rcx
	movzbl	(%rax,%rcx), %eax
	cmpl	-4(%rbp), %eax
	jne	.LBB16_6
# %bb.5:                                # %if.then
                                        #   in Loop: Header=BB16_3 Depth=2
	movl	-12(%rbp), %eax
	movq	-72(%rbp), %rcx
	movslq	-36(%rbp), %rdx
	movl	%eax, (%rcx,%rdx,4)
	movl	-36(%rbp), %eax
	addl	$1, %eax
	movl	%eax, -36(%rbp)
.LBB16_6:                               # %if.end
                                        #   in Loop: Header=BB16_3 Depth=2
	jmp	.LBB16_7
.LBB16_7:                               # %for.inc
                                        #   in Loop: Header=BB16_3 Depth=2
	movl	-12(%rbp), %eax
	addl	$1, %eax
	movl	%eax, -12(%rbp)
	jmp	.LBB16_3
.LBB16_8:                               # %for.end
                                        #   in Loop: Header=BB16_1 Depth=1
	jmp	.LBB16_9
.LBB16_9:                               # %for.inc9
                                        #   in Loop: Header=BB16_1 Depth=1
	movl	-4(%rbp), %eax
	addl	$1, %eax
	movl	%eax, -4(%rbp)
	jmp	.LBB16_1
.LBB16_10:                              # %for.end11
	movl	$0, -4(%rbp)
.LBB16_11:                              # %for.cond12
                                        # =>This Inner Loop Header: Depth=1
	cmpl	$23, -4(%rbp)
	jge	.LBB16_14
# %bb.12:                               # %for.body15
                                        #   in Loop: Header=BB16_11 Depth=1
	movq	-24(%rbp), %rax
	movslq	-4(%rbp), %rcx
	movl	$0, (%rax,%rcx,4)
# %bb.13:                               # %for.inc18
                                        #   in Loop: Header=BB16_11 Depth=1
	movl	-4(%rbp), %eax
	addl	$1, %eax
	movl	%eax, -4(%rbp)
	jmp	.LBB16_11
.LBB16_14:                              # %for.end20
	movl	$0, -4(%rbp)
.LBB16_15:                              # %for.cond21
                                        # =>This Inner Loop Header: Depth=1
	movl	-4(%rbp), %eax
	cmpl	16(%rbp), %eax
	jge	.LBB16_18
# %bb.16:                               # %for.body24
                                        #   in Loop: Header=BB16_15 Depth=1
	movq	-24(%rbp), %rax
	movq	-64(%rbp), %rcx
	movslq	-4(%rbp), %rdx
	movzbl	(%rcx,%rdx), %ecx
	addl	$1, %ecx
	movslq	%ecx, %rcx
	movl	(%rax,%rcx,4), %edx
	addl	$1, %edx
	movl	%edx, (%rax,%rcx,4)
# %bb.17:                               # %for.inc31
                                        #   in Loop: Header=BB16_15 Depth=1
	movl	-4(%rbp), %eax
	addl	$1, %eax
	movl	%eax, -4(%rbp)
	jmp	.LBB16_15
.LBB16_18:                              # %for.end33
	movl	$1, -4(%rbp)
.LBB16_19:                              # %for.cond34
                                        # =>This Inner Loop Header: Depth=1
	cmpl	$23, -4(%rbp)
	jge	.LBB16_22
# %bb.20:                               # %for.body37
                                        #   in Loop: Header=BB16_19 Depth=1
	movq	-24(%rbp), %rax
	movl	-4(%rbp), %ecx
	subl	$1, %ecx
	movslq	%ecx, %rcx
	movl	(%rax,%rcx,4), %eax
	movq	-24(%rbp), %rcx
	movslq	-4(%rbp), %rdx
	addl	(%rcx,%rdx,4), %eax
	movl	%eax, (%rcx,%rdx,4)
# %bb.21:                               # %for.inc43
                                        #   in Loop: Header=BB16_19 Depth=1
	movl	-4(%rbp), %eax
	addl	$1, %eax
	movl	%eax, -4(%rbp)
	jmp	.LBB16_19
.LBB16_22:                              # %for.end45
	movl	$0, -4(%rbp)
.LBB16_23:                              # %for.cond46
                                        # =>This Inner Loop Header: Depth=1
	cmpl	$23, -4(%rbp)
	jge	.LBB16_26
# %bb.24:                               # %for.body49
                                        #   in Loop: Header=BB16_23 Depth=1
	movq	-48(%rbp), %rax
	movslq	-4(%rbp), %rcx
	movl	$0, (%rax,%rcx,4)
# %bb.25:                               # %for.inc52
                                        #   in Loop: Header=BB16_23 Depth=1
	movl	-4(%rbp), %eax
	addl	$1, %eax
	movl	%eax, -4(%rbp)
	jmp	.LBB16_23
.LBB16_26:                              # %for.end54
	movl	$0, -8(%rbp)
	movl	-28(%rbp), %eax
	movl	%eax, -4(%rbp)
.LBB16_27:                              # %for.cond55
                                        # =>This Inner Loop Header: Depth=1
	movl	-4(%rbp), %eax
	cmpl	-32(%rbp), %eax
	jg	.LBB16_30
# %bb.28:                               # %for.body58
                                        #   in Loop: Header=BB16_27 Depth=1
	movq	-24(%rbp), %rax
	movl	-4(%rbp), %ecx
	addl	$1, %ecx
	movslq	%ecx, %rcx
	movl	(%rax,%rcx,4), %eax
	movq	-24(%rbp), %rcx
	movslq	-4(%rbp), %rdx
	subl	(%rcx,%rdx,4), %eax
	addl	-8(%rbp), %eax
	movl	%eax, -8(%rbp)
	movl	-8(%rbp), %eax
	subl	$1, %eax
	movq	-48(%rbp), %rcx
	movslq	-4(%rbp), %rdx
	movl	%eax, (%rcx,%rdx,4)
	movl	-8(%rbp), %eax
	shll	$1, %eax
	movl	%eax, -8(%rbp)
# %bb.29:                               # %for.inc69
                                        #   in Loop: Header=BB16_27 Depth=1
	movl	-4(%rbp), %eax
	addl	$1, %eax
	movl	%eax, -4(%rbp)
	jmp	.LBB16_27
.LBB16_30:                              # %for.end71
	movl	-28(%rbp), %eax
	addl	$1, %eax
	movl	%eax, -4(%rbp)
.LBB16_31:                              # %for.cond73
                                        # =>This Inner Loop Header: Depth=1
	movl	-4(%rbp), %eax
	cmpl	-32(%rbp), %eax
	jg	.LBB16_34
# %bb.32:                               # %for.body76
                                        #   in Loop: Header=BB16_31 Depth=1
	movq	-48(%rbp), %rax
	movl	-4(%rbp), %ecx
	subl	$1, %ecx
	movslq	%ecx, %rcx
	movl	(%rax,%rcx,4), %eax
	addl	$1, %eax
	shll	$1, %eax
	movq	-24(%rbp), %rcx
	movslq	-4(%rbp), %rdx
	subl	(%rcx,%rdx,4), %eax
	movq	-24(%rbp), %rcx
	movslq	-4(%rbp), %rdx
	movl	%eax, (%rcx,%rdx,4)
# %bb.33:                               # %for.inc87
                                        #   in Loop: Header=BB16_31 Depth=1
	movl	-4(%rbp), %eax
	addl	$1, %eax
	movl	%eax, -4(%rbp)
	jmp	.LBB16_31
.LBB16_34:                              # %for.end89
	cmpl	$509595406, -52(%rbp)   # imm = 0x1E5FCF0E
	jne	.LBB16_36
.LBB16_35:
	addq	$80, %rsp
	popq	%rbp
	.cfi_def_cfa %rsp, 8
	retq
.LBB16_36:                              # %func_exit
	.cfi_def_cfa %rbp, 16
	callq	detect_breach
	jmp	.LBB16_35
.Lfunc_end16:
	.size	BZ2_hbCreateDecodeTables.14, .Lfunc_end16-BZ2_hbCreateDecodeTables.14
	.cfi_endproc
                                        # -- End function
	.globl	BZ2_hbAssignCodes.15    # -- Begin function BZ2_hbAssignCodes.15
	.p2align	4, 0x90
	.type	BZ2_hbAssignCodes.15,@function
BZ2_hbAssignCodes.15:                   # @BZ2_hbAssignCodes.15
	.cfi_startproc
# %bb.0:                                # %entry
	pushq	%rbp
	.cfi_def_cfa_offset 16
	.cfi_offset %rbp, -16
	movq	%rsp, %rbp
	.cfi_def_cfa_register %rbp
	subq	$48, %rsp
	movl	$265750250, -28(%rbp)   # imm = 0xFD706EA
	movq	%rdi, -40(%rbp)
	movq	%rsi, -48(%rbp)
	movl	%edx, -16(%rbp)
	movl	%ecx, -20(%rbp)
	movl	%r8d, -24(%rbp)
	movl	$0, -4(%rbp)
	movl	-16(%rbp), %eax
	movl	%eax, -12(%rbp)
.LBB17_1:                               # %for.cond
                                        # =>This Loop Header: Depth=1
                                        #     Child Loop BB17_3 Depth 2
	movl	-12(%rbp), %eax
	cmpl	-20(%rbp), %eax
	jg	.LBB17_10
# %bb.2:                                # %for.body
                                        #   in Loop: Header=BB17_1 Depth=1
	movl	$0, -8(%rbp)
.LBB17_3:                               # %for.cond1
                                        #   Parent Loop BB17_1 Depth=1
                                        # =>  This Inner Loop Header: Depth=2
	movl	-8(%rbp), %eax
	cmpl	-24(%rbp), %eax
	jge	.LBB17_8
# %bb.4:                                # %for.body3
                                        #   in Loop: Header=BB17_3 Depth=2
	movq	-48(%rbp), %rax
	movslq	-8(%rbp), %rcx
	movzbl	(%rax,%rcx), %eax
	cmpl	-12(%rbp), %eax
	jne	.LBB17_6
# %bb.5:                                # %if.then
                                        #   in Loop: Header=BB17_3 Depth=2
	movl	-4(%rbp), %eax
	movq	-40(%rbp), %rcx
	movslq	-8(%rbp), %rdx
	movl	%eax, (%rcx,%rdx,4)
	movl	-4(%rbp), %eax
	addl	$1, %eax
	movl	%eax, -4(%rbp)
.LBB17_6:                               # %if.end
                                        #   in Loop: Header=BB17_3 Depth=2
	jmp	.LBB17_7
.LBB17_7:                               # %for.inc
                                        #   in Loop: Header=BB17_3 Depth=2
	movl	-8(%rbp), %eax
	addl	$1, %eax
	movl	%eax, -8(%rbp)
	jmp	.LBB17_3
.LBB17_8:                               # %for.end
                                        #   in Loop: Header=BB17_1 Depth=1
	movl	-4(%rbp), %eax
	shll	$1, %eax
	movl	%eax, -4(%rbp)
# %bb.9:                                # %for.inc9
                                        #   in Loop: Header=BB17_1 Depth=1
	movl	-12(%rbp), %eax
	addl	$1, %eax
	movl	%eax, -12(%rbp)
	jmp	.LBB17_1
.LBB17_10:                              # %for.end11
	cmpl	$265750250, -28(%rbp)   # imm = 0xFD706EA
	jne	.LBB17_12
.LBB17_11:
	addq	$48, %rsp
	popq	%rbp
	.cfi_def_cfa %rsp, 8
	retq
.LBB17_12:                              # %func_exit
	.cfi_def_cfa %rbp, 16
	callq	detect_breach
	jmp	.LBB17_11
.Lfunc_end17:
	.size	BZ2_hbAssignCodes.15, .Lfunc_end17-BZ2_hbAssignCodes.15
	.cfi_endproc
                                        # -- End function
	.globl	BZ2_hbAssignCodes.16    # -- Begin function BZ2_hbAssignCodes.16
	.p2align	4, 0x90
	.type	BZ2_hbAssignCodes.16,@function
BZ2_hbAssignCodes.16:                   # @BZ2_hbAssignCodes.16
	.cfi_startproc
# %bb.0:                                # %entry
	pushq	%rbp
	.cfi_def_cfa_offset 16
	.cfi_offset %rbp, -16
	movq	%rsp, %rbp
	.cfi_def_cfa_register %rbp
	subq	$48, %rsp
	movl	$2100725081, -24(%rbp)  # imm = 0x7D368559
	movq	%rdi, -40(%rbp)
	movq	%rsi, -48(%rbp)
	movl	%edx, -20(%rbp)
	movl	%ecx, -16(%rbp)
	movl	%r8d, -28(%rbp)
	movl	$0, -8(%rbp)
	movl	-20(%rbp), %eax
	movl	%eax, -12(%rbp)
.LBB18_1:                               # %for.cond
                                        # =>This Loop Header: Depth=1
                                        #     Child Loop BB18_3 Depth 2
	movl	-12(%rbp), %eax
	cmpl	-16(%rbp), %eax
	jg	.LBB18_10
# %bb.2:                                # %for.body
                                        #   in Loop: Header=BB18_1 Depth=1
	movl	$0, -4(%rbp)
.LBB18_3:                               # %for.cond1
                                        #   Parent Loop BB18_1 Depth=1
                                        # =>  This Inner Loop Header: Depth=2
	movl	-4(%rbp), %eax
	cmpl	-28(%rbp), %eax
	jge	.LBB18_8
# %bb.4:                                # %for.body3
                                        #   in Loop: Header=BB18_3 Depth=2
	movq	-48(%rbp), %rax
	movslq	-4(%rbp), %rcx
	movzbl	(%rax,%rcx), %eax
	cmpl	-12(%rbp), %eax
	jne	.LBB18_6
# %bb.5:                                # %if.then
                                        #   in Loop: Header=BB18_3 Depth=2
	movl	-8(%rbp), %eax
	movq	-40(%rbp), %rcx
	movslq	-4(%rbp), %rdx
	movl	%eax, (%rcx,%rdx,4)
	movl	-8(%rbp), %eax
	addl	$1, %eax
	movl	%eax, -8(%rbp)
.LBB18_6:                               # %if.end
                                        #   in Loop: Header=BB18_3 Depth=2
	jmp	.LBB18_7
.LBB18_7:                               # %for.inc
                                        #   in Loop: Header=BB18_3 Depth=2
	movl	-4(%rbp), %eax
	addl	$1, %eax
	movl	%eax, -4(%rbp)
	jmp	.LBB18_3
.LBB18_8:                               # %for.end
                                        #   in Loop: Header=BB18_1 Depth=1
	movl	-8(%rbp), %eax
	shll	$1, %eax
	movl	%eax, -8(%rbp)
# %bb.9:                                # %for.inc9
                                        #   in Loop: Header=BB18_1 Depth=1
	movl	-12(%rbp), %eax
	addl	$1, %eax
	movl	%eax, -12(%rbp)
	jmp	.LBB18_1
.LBB18_10:                              # %for.end11
	cmpl	$2100725081, -24(%rbp)  # imm = 0x7D368559
	jne	.LBB18_12
.LBB18_11:
	addq	$48, %rsp
	popq	%rbp
	.cfi_def_cfa %rsp, 8
	retq
.LBB18_12:                              # %func_exit
	.cfi_def_cfa %rbp, 16
	callq	detect_breach
	jmp	.LBB18_11
.Lfunc_end18:
	.size	BZ2_hbAssignCodes.16, .Lfunc_end18-BZ2_hbAssignCodes.16
	.cfi_endproc
                                        # -- End function
	.globl	BZ2_hbCreateDecodeTables.17 # -- Begin function BZ2_hbCreateDecodeTables.17
	.p2align	4, 0x90
	.type	BZ2_hbCreateDecodeTables.17,@function
BZ2_hbCreateDecodeTables.17:            # @BZ2_hbCreateDecodeTables.17
	.cfi_startproc
# %bb.0:                                # %entry
	pushq	%rbp
	.cfi_def_cfa_offset 16
	.cfi_offset %rbp, -16
	movq	%rsp, %rbp
	.cfi_def_cfa_register %rbp
	subq	$80, %rsp
	movl	16(%rbp), %eax
	movl	$1878873226, -52(%rbp)  # imm = 0x6FFD548A
	movq	%rdi, -48(%rbp)
	movq	%rsi, -24(%rbp)
	movq	%rdx, -72(%rbp)
	movq	%rcx, -64(%rbp)
	movl	%r8d, -32(%rbp)
	movl	%r9d, -28(%rbp)
	movl	$0, -36(%rbp)
	movl	-32(%rbp), %eax
	movl	%eax, -4(%rbp)
.LBB19_1:                               # %for.cond
                                        # =>This Loop Header: Depth=1
                                        #     Child Loop BB19_3 Depth 2
	movl	-4(%rbp), %eax
	cmpl	-28(%rbp), %eax
	jg	.LBB19_10
# %bb.2:                                # %for.body
                                        #   in Loop: Header=BB19_1 Depth=1
	movl	$0, -12(%rbp)
.LBB19_3:                               # %for.cond1
                                        #   Parent Loop BB19_1 Depth=1
                                        # =>  This Inner Loop Header: Depth=2
	movl	-12(%rbp), %eax
	cmpl	16(%rbp), %eax
	jge	.LBB19_8
# %bb.4:                                # %for.body3
                                        #   in Loop: Header=BB19_3 Depth=2
	movq	-64(%rbp), %rax
	movslq	-12(%rbp), %rcx
	movzbl	(%rax,%rcx), %eax
	cmpl	-4(%rbp), %eax
	jne	.LBB19_6
# %bb.5:                                # %if.then
                                        #   in Loop: Header=BB19_3 Depth=2
	movl	-12(%rbp), %eax
	movq	-72(%rbp), %rcx
	movslq	-36(%rbp), %rdx
	movl	%eax, (%rcx,%rdx,4)
	movl	-36(%rbp), %eax
	addl	$1, %eax
	movl	%eax, -36(%rbp)
.LBB19_6:                               # %if.end
                                        #   in Loop: Header=BB19_3 Depth=2
	jmp	.LBB19_7
.LBB19_7:                               # %for.inc
                                        #   in Loop: Header=BB19_3 Depth=2
	movl	-12(%rbp), %eax
	addl	$1, %eax
	movl	%eax, -12(%rbp)
	jmp	.LBB19_3
.LBB19_8:                               # %for.end
                                        #   in Loop: Header=BB19_1 Depth=1
	jmp	.LBB19_9
.LBB19_9:                               # %for.inc9
                                        #   in Loop: Header=BB19_1 Depth=1
	movl	-4(%rbp), %eax
	addl	$1, %eax
	movl	%eax, -4(%rbp)
	jmp	.LBB19_1
.LBB19_10:                              # %for.end11
	movl	$0, -4(%rbp)
.LBB19_11:                              # %for.cond12
                                        # =>This Inner Loop Header: Depth=1
	cmpl	$23, -4(%rbp)
	jge	.LBB19_14
# %bb.12:                               # %for.body15
                                        #   in Loop: Header=BB19_11 Depth=1
	movq	-24(%rbp), %rax
	movslq	-4(%rbp), %rcx
	movl	$0, (%rax,%rcx,4)
# %bb.13:                               # %for.inc18
                                        #   in Loop: Header=BB19_11 Depth=1
	movl	-4(%rbp), %eax
	addl	$1, %eax
	movl	%eax, -4(%rbp)
	jmp	.LBB19_11
.LBB19_14:                              # %for.end20
	movl	$0, -4(%rbp)
.LBB19_15:                              # %for.cond21
                                        # =>This Inner Loop Header: Depth=1
	movl	-4(%rbp), %eax
	cmpl	16(%rbp), %eax
	jge	.LBB19_18
# %bb.16:                               # %for.body24
                                        #   in Loop: Header=BB19_15 Depth=1
	movq	-24(%rbp), %rax
	movq	-64(%rbp), %rcx
	movslq	-4(%rbp), %rdx
	movzbl	(%rcx,%rdx), %ecx
	addl	$1, %ecx
	movslq	%ecx, %rcx
	movl	(%rax,%rcx,4), %edx
	addl	$1, %edx
	movl	%edx, (%rax,%rcx,4)
# %bb.17:                               # %for.inc31
                                        #   in Loop: Header=BB19_15 Depth=1
	movl	-4(%rbp), %eax
	addl	$1, %eax
	movl	%eax, -4(%rbp)
	jmp	.LBB19_15
.LBB19_18:                              # %for.end33
	movl	$1, -4(%rbp)
.LBB19_19:                              # %for.cond34
                                        # =>This Inner Loop Header: Depth=1
	cmpl	$23, -4(%rbp)
	jge	.LBB19_22
# %bb.20:                               # %for.body37
                                        #   in Loop: Header=BB19_19 Depth=1
	movq	-24(%rbp), %rax
	movl	-4(%rbp), %ecx
	subl	$1, %ecx
	movslq	%ecx, %rcx
	movl	(%rax,%rcx,4), %eax
	movq	-24(%rbp), %rcx
	movslq	-4(%rbp), %rdx
	addl	(%rcx,%rdx,4), %eax
	movl	%eax, (%rcx,%rdx,4)
# %bb.21:                               # %for.inc43
                                        #   in Loop: Header=BB19_19 Depth=1
	movl	-4(%rbp), %eax
	addl	$1, %eax
	movl	%eax, -4(%rbp)
	jmp	.LBB19_19
.LBB19_22:                              # %for.end45
	movl	$0, -4(%rbp)
.LBB19_23:                              # %for.cond46
                                        # =>This Inner Loop Header: Depth=1
	cmpl	$23, -4(%rbp)
	jge	.LBB19_26
# %bb.24:                               # %for.body49
                                        #   in Loop: Header=BB19_23 Depth=1
	movq	-48(%rbp), %rax
	movslq	-4(%rbp), %rcx
	movl	$0, (%rax,%rcx,4)
# %bb.25:                               # %for.inc52
                                        #   in Loop: Header=BB19_23 Depth=1
	movl	-4(%rbp), %eax
	addl	$1, %eax
	movl	%eax, -4(%rbp)
	jmp	.LBB19_23
.LBB19_26:                              # %for.end54
	movl	$0, -8(%rbp)
	movl	-32(%rbp), %eax
	movl	%eax, -4(%rbp)
.LBB19_27:                              # %for.cond55
                                        # =>This Inner Loop Header: Depth=1
	movl	-4(%rbp), %eax
	cmpl	-28(%rbp), %eax
	jg	.LBB19_30
# %bb.28:                               # %for.body58
                                        #   in Loop: Header=BB19_27 Depth=1
	movq	-24(%rbp), %rax
	movl	-4(%rbp), %ecx
	addl	$1, %ecx
	movslq	%ecx, %rcx
	movl	(%rax,%rcx,4), %eax
	movq	-24(%rbp), %rcx
	movslq	-4(%rbp), %rdx
	subl	(%rcx,%rdx,4), %eax
	addl	-8(%rbp), %eax
	movl	%eax, -8(%rbp)
	movl	-8(%rbp), %eax
	subl	$1, %eax
	movq	-48(%rbp), %rcx
	movslq	-4(%rbp), %rdx
	movl	%eax, (%rcx,%rdx,4)
	movl	-8(%rbp), %eax
	shll	$1, %eax
	movl	%eax, -8(%rbp)
# %bb.29:                               # %for.inc69
                                        #   in Loop: Header=BB19_27 Depth=1
	movl	-4(%rbp), %eax
	addl	$1, %eax
	movl	%eax, -4(%rbp)
	jmp	.LBB19_27
.LBB19_30:                              # %for.end71
	movl	-32(%rbp), %eax
	addl	$1, %eax
	movl	%eax, -4(%rbp)
.LBB19_31:                              # %for.cond73
                                        # =>This Inner Loop Header: Depth=1
	movl	-4(%rbp), %eax
	cmpl	-28(%rbp), %eax
	jg	.LBB19_34
# %bb.32:                               # %for.body76
                                        #   in Loop: Header=BB19_31 Depth=1
	movq	-48(%rbp), %rax
	movl	-4(%rbp), %ecx
	subl	$1, %ecx
	movslq	%ecx, %rcx
	movl	(%rax,%rcx,4), %eax
	addl	$1, %eax
	shll	$1, %eax
	movq	-24(%rbp), %rcx
	movslq	-4(%rbp), %rdx
	subl	(%rcx,%rdx,4), %eax
	movq	-24(%rbp), %rcx
	movslq	-4(%rbp), %rdx
	movl	%eax, (%rcx,%rdx,4)
# %bb.33:                               # %for.inc87
                                        #   in Loop: Header=BB19_31 Depth=1
	movl	-4(%rbp), %eax
	addl	$1, %eax
	movl	%eax, -4(%rbp)
	jmp	.LBB19_31
.LBB19_34:                              # %for.end89
	cmpl	$1878873226, -52(%rbp)  # imm = 0x6FFD548A
	jne	.LBB19_36
.LBB19_35:
	addq	$80, %rsp
	popq	%rbp
	.cfi_def_cfa %rsp, 8
	retq
.LBB19_36:                              # %func_exit
	.cfi_def_cfa %rbp, 16
	callq	detect_breach
	jmp	.LBB19_35
.Lfunc_end19:
	.size	BZ2_hbCreateDecodeTables.17, .Lfunc_end19-BZ2_hbCreateDecodeTables.17
	.cfi_endproc
                                        # -- End function
	.globl	BZ2_hbAssignCodes.18    # -- Begin function BZ2_hbAssignCodes.18
	.p2align	4, 0x90
	.type	BZ2_hbAssignCodes.18,@function
BZ2_hbAssignCodes.18:                   # @BZ2_hbAssignCodes.18
	.cfi_startproc
# %bb.0:                                # %entry
	pushq	%rbp
	.cfi_def_cfa_offset 16
	.cfi_offset %rbp, -16
	movq	%rsp, %rbp
	.cfi_def_cfa_register %rbp
	subq	$48, %rsp
	movl	$1334508853, -24(%rbp)  # imm = 0x4F8AFD35
	movq	%rdi, -40(%rbp)
	movq	%rsi, -48(%rbp)
	movl	%edx, -28(%rbp)
	movl	%ecx, -20(%rbp)
	movl	%r8d, -16(%rbp)
	movl	$0, -4(%rbp)
	movl	-28(%rbp), %eax
	movl	%eax, -12(%rbp)
.LBB20_1:                               # %for.cond
                                        # =>This Loop Header: Depth=1
                                        #     Child Loop BB20_3 Depth 2
	movl	-12(%rbp), %eax
	cmpl	-20(%rbp), %eax
	jg	.LBB20_10
# %bb.2:                                # %for.body
                                        #   in Loop: Header=BB20_1 Depth=1
	movl	$0, -8(%rbp)
.LBB20_3:                               # %for.cond1
                                        #   Parent Loop BB20_1 Depth=1
                                        # =>  This Inner Loop Header: Depth=2
	movl	-8(%rbp), %eax
	cmpl	-16(%rbp), %eax
	jge	.LBB20_8
# %bb.4:                                # %for.body3
                                        #   in Loop: Header=BB20_3 Depth=2
	movq	-48(%rbp), %rax
	movslq	-8(%rbp), %rcx
	movzbl	(%rax,%rcx), %eax
	cmpl	-12(%rbp), %eax
	jne	.LBB20_6
# %bb.5:                                # %if.then
                                        #   in Loop: Header=BB20_3 Depth=2
	movl	-4(%rbp), %eax
	movq	-40(%rbp), %rcx
	movslq	-8(%rbp), %rdx
	movl	%eax, (%rcx,%rdx,4)
	movl	-4(%rbp), %eax
	addl	$1, %eax
	movl	%eax, -4(%rbp)
.LBB20_6:                               # %if.end
                                        #   in Loop: Header=BB20_3 Depth=2
	jmp	.LBB20_7
.LBB20_7:                               # %for.inc
                                        #   in Loop: Header=BB20_3 Depth=2
	movl	-8(%rbp), %eax
	addl	$1, %eax
	movl	%eax, -8(%rbp)
	jmp	.LBB20_3
.LBB20_8:                               # %for.end
                                        #   in Loop: Header=BB20_1 Depth=1
	movl	-4(%rbp), %eax
	shll	$1, %eax
	movl	%eax, -4(%rbp)
# %bb.9:                                # %for.inc9
                                        #   in Loop: Header=BB20_1 Depth=1
	movl	-12(%rbp), %eax
	addl	$1, %eax
	movl	%eax, -12(%rbp)
	jmp	.LBB20_1
.LBB20_10:                              # %for.end11
	cmpl	$1334508853, -24(%rbp)  # imm = 0x4F8AFD35
	jne	.LBB20_12
.LBB20_11:
	addq	$48, %rsp
	popq	%rbp
	.cfi_def_cfa %rsp, 8
	retq
.LBB20_12:                              # %func_exit
	.cfi_def_cfa %rbp, 16
	callq	detect_breach
	jmp	.LBB20_11
.Lfunc_end20:
	.size	BZ2_hbAssignCodes.18, .Lfunc_end20-BZ2_hbAssignCodes.18
	.cfi_endproc
                                        # -- End function
	.globl	BZ2_hbMakeCodeLengths.19 # -- Begin function BZ2_hbMakeCodeLengths.19
	.p2align	4, 0x90
	.type	BZ2_hbMakeCodeLengths.19,@function
BZ2_hbMakeCodeLengths.19:               # @BZ2_hbMakeCodeLengths.19
	.cfi_startproc
# %bb.0:                                # %entry
	pushq	%rbp
	.cfi_def_cfa_offset 16
	.cfi_offset %rbp, -16
	movq	%rsp, %rbp
	.cfi_def_cfa_register %rbp
	subq	$5280, %rsp             # imm = 0x14A0
	movl	$710237954, -84(%rbp)   # imm = 0x2A555F02
	movq	%rdi, -104(%rbp)
	movq	%rsi, -96(%rbp)
	movl	%edx, -44(%rbp)
	movl	%ecx, -80(%rbp)
	movl	$0, -4(%rbp)
.LBB21_1:                               # %for.cond
                                        # =>This Inner Loop Header: Depth=1
	movl	-4(%rbp), %eax
	cmpl	-44(%rbp), %eax
	jge	.LBB21_7
# %bb.2:                                # %for.body
                                        #   in Loop: Header=BB21_1 Depth=1
	movq	-96(%rbp), %rax
	movslq	-4(%rbp), %rcx
	cmpl	$0, (%rax,%rcx,4)
	jne	.LBB21_4
# %bb.3:                                # %cond.true
                                        #   in Loop: Header=BB21_1 Depth=1
	movl	$1, %eax
	jmp	.LBB21_5
.LBB21_4:                               # %cond.false
                                        #   in Loop: Header=BB21_1 Depth=1
	movq	-96(%rbp), %rax
	movslq	-4(%rbp), %rcx
	movl	(%rax,%rcx,4), %eax
.LBB21_5:                               # %cond.end
                                        #   in Loop: Header=BB21_1 Depth=1
	shll	$8, %eax
	movl	-4(%rbp), %ecx
	addl	$1, %ecx
	movslq	%ecx, %rcx
	movl	%eax, -3216(%rbp,%rcx,4)
# %bb.6:                                # %for.inc
                                        #   in Loop: Header=BB21_1 Depth=1
	movl	-4(%rbp), %eax
	addl	$1, %eax
	movl	%eax, -4(%rbp)
	jmp	.LBB21_1
.LBB21_7:                               # %for.end
	jmp	.LBB21_8
.LBB21_8:                               # %while.body
                                        # =>This Loop Header: Depth=1
                                        #     Child Loop BB21_9 Depth 2
                                        #       Child Loop BB21_11 Depth 3
                                        #     Child Loop BB21_18 Depth 2
                                        #       Child Loop BB21_20 Depth 3
                                        #       Child Loop BB21_29 Depth 3
                                        #       Child Loop BB21_41 Depth 3
                                        #     Child Loop BB21_47 Depth 2
                                        #       Child Loop BB21_49 Depth 3
                                        #     Child Loop BB21_58 Depth 2
	movl	-44(%rbp), %eax
	movl	%eax, -32(%rbp)
	movl	$0, -8(%rbp)
	movl	$0, -1152(%rbp)
	movl	$0, -3216(%rbp)
	movl	$-2, -5280(%rbp)
	movl	$1, -4(%rbp)
.LBB21_9:                               # %for.cond9
                                        #   Parent Loop BB21_8 Depth=1
                                        # =>  This Loop Header: Depth=2
                                        #       Child Loop BB21_11 Depth 3
	movl	-4(%rbp), %eax
	cmpl	-44(%rbp), %eax
	jg	.LBB21_15
# %bb.10:                               # %for.body11
                                        #   in Loop: Header=BB21_9 Depth=2
	movslq	-4(%rbp), %rax
	movl	$-1, -5280(%rbp,%rax,4)
	movl	-8(%rbp), %eax
	addl	$1, %eax
	movl	%eax, -8(%rbp)
	movl	-4(%rbp), %eax
	movslq	-8(%rbp), %rcx
	movl	%eax, -1152(%rbp,%rcx,4)
	movl	-8(%rbp), %eax
	movl	%eax, -28(%rbp)
	movslq	-28(%rbp), %rax
	movl	-1152(%rbp,%rax,4), %eax
	movl	%eax, -72(%rbp)
.LBB21_11:                              # %while.cond19
                                        #   Parent Loop BB21_8 Depth=1
                                        #     Parent Loop BB21_9 Depth=2
                                        # =>    This Inner Loop Header: Depth=3
	movslq	-72(%rbp), %rax
	movl	-3216(%rbp,%rax,4), %eax
	movl	-28(%rbp), %ecx
	sarl	$1, %ecx
	movslq	%ecx, %rcx
	movslq	-1152(%rbp,%rcx,4), %rcx
	cmpl	-3216(%rbp,%rcx,4), %eax
	jge	.LBB21_13
# %bb.12:                               # %while.body27
                                        #   in Loop: Header=BB21_11 Depth=3
	movl	-28(%rbp), %eax
	sarl	$1, %eax
	cltq
	movl	-1152(%rbp,%rax,4), %eax
	movslq	-28(%rbp), %rcx
	movl	%eax, -1152(%rbp,%rcx,4)
	movl	-28(%rbp), %eax
	sarl	$1, %eax
	movl	%eax, -28(%rbp)
	jmp	.LBB21_11
.LBB21_13:                              # %while.end
                                        #   in Loop: Header=BB21_9 Depth=2
	movl	-72(%rbp), %eax
	movslq	-28(%rbp), %rcx
	movl	%eax, -1152(%rbp,%rcx,4)
# %bb.14:                               # %for.inc36
                                        #   in Loop: Header=BB21_9 Depth=2
	movl	-4(%rbp), %eax
	addl	$1, %eax
	movl	%eax, -4(%rbp)
	jmp	.LBB21_9
.LBB21_15:                              # %for.end38
                                        #   in Loop: Header=BB21_8 Depth=1
	cmpl	$260, -8(%rbp)          # imm = 0x104
	jl	.LBB21_17
# %bb.16:                               # %if.then
                                        #   in Loop: Header=BB21_8 Depth=1
	movl	$2001, %edi             # imm = 0x7D1
	callq	BZ2_bz__AssertH__fail
.LBB21_17:                              # %if.end
                                        #   in Loop: Header=BB21_8 Depth=1
	jmp	.LBB21_18
.LBB21_18:                              # %while.cond40
                                        #   Parent Loop BB21_8 Depth=1
                                        # =>  This Loop Header: Depth=2
                                        #       Child Loop BB21_20 Depth 3
                                        #       Child Loop BB21_29 Depth 3
                                        #       Child Loop BB21_41 Depth 3
	cmpl	$1, -8(%rbp)
	jle	.LBB21_44
# %bb.19:                               # %while.body42
                                        #   in Loop: Header=BB21_18 Depth=2
	movl	-1148(%rbp), %eax
	movl	%eax, -52(%rbp)
	movslq	-8(%rbp), %rax
	movl	-1152(%rbp,%rax,4), %eax
	movl	%eax, -1148(%rbp)
	movl	-8(%rbp), %eax
	addl	$-1, %eax
	movl	%eax, -8(%rbp)
	movl	$1, -48(%rbp)
	movslq	-48(%rbp), %rax
	movl	-1152(%rbp,%rax,4), %eax
	movl	%eax, -76(%rbp)
.LBB21_20:                              # %while.body52
                                        #   Parent Loop BB21_8 Depth=1
                                        #     Parent Loop BB21_18 Depth=2
                                        # =>    This Inner Loop Header: Depth=3
	movl	-48(%rbp), %eax
	shll	$1, %eax
	movl	%eax, -20(%rbp)
	movl	-20(%rbp), %eax
	cmpl	-8(%rbp), %eax
	jle	.LBB21_22
# %bb.21:                               # %if.then55
                                        #   in Loop: Header=BB21_18 Depth=2
	jmp	.LBB21_28
.LBB21_22:                              # %if.end56
                                        #   in Loop: Header=BB21_20 Depth=3
	movl	-20(%rbp), %eax
	cmpl	-8(%rbp), %eax
	jge	.LBB21_25
# %bb.23:                               # %land.lhs.true
                                        #   in Loop: Header=BB21_20 Depth=3
	movl	-20(%rbp), %eax
	addl	$1, %eax
	cltq
	movslq	-1152(%rbp,%rax,4), %rax
	movl	-3216(%rbp,%rax,4), %eax
	movslq	-20(%rbp), %rcx
	movslq	-1152(%rbp,%rcx,4), %rcx
	cmpl	-3216(%rbp,%rcx,4), %eax
	jge	.LBB21_25
# %bb.24:                               # %if.then68
                                        #   in Loop: Header=BB21_20 Depth=3
	movl	-20(%rbp), %eax
	addl	$1, %eax
	movl	%eax, -20(%rbp)
.LBB21_25:                              # %if.end70
                                        #   in Loop: Header=BB21_20 Depth=3
	movslq	-76(%rbp), %rax
	movl	-3216(%rbp,%rax,4), %eax
	movslq	-20(%rbp), %rcx
	movslq	-1152(%rbp,%rcx,4), %rcx
	cmpl	-3216(%rbp,%rcx,4), %eax
	jge	.LBB21_27
# %bb.26:                               # %if.then78
                                        #   in Loop: Header=BB21_18 Depth=2
	jmp	.LBB21_28
.LBB21_27:                              # %if.end79
                                        #   in Loop: Header=BB21_20 Depth=3
	movslq	-20(%rbp), %rax
	movl	-1152(%rbp,%rax,4), %eax
	movslq	-48(%rbp), %rcx
	movl	%eax, -1152(%rbp,%rcx,4)
	movl	-20(%rbp), %eax
	movl	%eax, -48(%rbp)
	jmp	.LBB21_20
.LBB21_28:                              # %while.end84
                                        #   in Loop: Header=BB21_18 Depth=2
	movl	-76(%rbp), %eax
	movslq	-48(%rbp), %rcx
	movl	%eax, -1152(%rbp,%rcx,4)
	movl	-1148(%rbp), %eax
	movl	%eax, -56(%rbp)
	movslq	-8(%rbp), %rax
	movl	-1152(%rbp,%rax,4), %eax
	movl	%eax, -1148(%rbp)
	movl	-8(%rbp), %eax
	addl	$-1, %eax
	movl	%eax, -8(%rbp)
	movl	$1, -40(%rbp)
	movslq	-40(%rbp), %rax
	movl	-1152(%rbp,%rax,4), %eax
	movl	%eax, -68(%rbp)
.LBB21_29:                              # %while.body98
                                        #   Parent Loop BB21_8 Depth=1
                                        #     Parent Loop BB21_18 Depth=2
                                        # =>    This Inner Loop Header: Depth=3
	movl	-40(%rbp), %eax
	shll	$1, %eax
	movl	%eax, -16(%rbp)
	movl	-16(%rbp), %eax
	cmpl	-8(%rbp), %eax
	jle	.LBB21_31
# %bb.30:                               # %if.then101
                                        #   in Loop: Header=BB21_18 Depth=2
	jmp	.LBB21_37
.LBB21_31:                              # %if.end102
                                        #   in Loop: Header=BB21_29 Depth=3
	movl	-16(%rbp), %eax
	cmpl	-8(%rbp), %eax
	jge	.LBB21_34
# %bb.32:                               # %land.lhs.true104
                                        #   in Loop: Header=BB21_29 Depth=3
	movl	-16(%rbp), %eax
	addl	$1, %eax
	cltq
	movslq	-1152(%rbp,%rax,4), %rax
	movl	-3216(%rbp,%rax,4), %eax
	movslq	-16(%rbp), %rcx
	movslq	-1152(%rbp,%rcx,4), %rcx
	cmpl	-3216(%rbp,%rcx,4), %eax
	jge	.LBB21_34
# %bb.33:                               # %if.then115
                                        #   in Loop: Header=BB21_29 Depth=3
	movl	-16(%rbp), %eax
	addl	$1, %eax
	movl	%eax, -16(%rbp)
.LBB21_34:                              # %if.end117
                                        #   in Loop: Header=BB21_29 Depth=3
	movslq	-68(%rbp), %rax
	movl	-3216(%rbp,%rax,4), %eax
	movslq	-16(%rbp), %rcx
	movslq	-1152(%rbp,%rcx,4), %rcx
	cmpl	-3216(%rbp,%rcx,4), %eax
	jge	.LBB21_36
# %bb.35:                               # %if.then125
                                        #   in Loop: Header=BB21_18 Depth=2
	jmp	.LBB21_37
.LBB21_36:                              # %if.end126
                                        #   in Loop: Header=BB21_29 Depth=3
	movslq	-16(%rbp), %rax
	movl	-1152(%rbp,%rax,4), %eax
	movslq	-40(%rbp), %rcx
	movl	%eax, -1152(%rbp,%rcx,4)
	movl	-16(%rbp), %eax
	movl	%eax, -40(%rbp)
	jmp	.LBB21_29
.LBB21_37:                              # %while.end131
                                        #   in Loop: Header=BB21_18 Depth=2
	movl	-68(%rbp), %eax
	movslq	-40(%rbp), %rcx
	movl	%eax, -1152(%rbp,%rcx,4)
	movl	-32(%rbp), %eax
	addl	$1, %eax
	movl	%eax, -32(%rbp)
	movl	-32(%rbp), %eax
	movslq	-56(%rbp), %rcx
	movl	%eax, -5280(%rbp,%rcx,4)
	movslq	-52(%rbp), %rcx
	movl	%eax, -5280(%rbp,%rcx,4)
	movslq	-52(%rbp), %rax
	movl	-3216(%rbp,%rax,4), %eax
	andl	$-256, %eax
	movslq	-56(%rbp), %rcx
	movl	-3216(%rbp,%rcx,4), %ecx
	andl	$-256, %ecx
	addl	%ecx, %eax
	movslq	-52(%rbp), %rcx
	movl	-3216(%rbp,%rcx,4), %ecx
	andl	$255, %ecx
	movslq	-56(%rbp), %rdx
	movl	-3216(%rbp,%rdx,4), %edx
	andl	$255, %edx
	cmpl	%edx, %ecx
	jle	.LBB21_39
# %bb.38:                               # %cond.true152
                                        #   in Loop: Header=BB21_18 Depth=2
	movslq	-52(%rbp), %rcx
	movl	-3216(%rbp,%rcx,4), %ecx
	andl	$255, %ecx
	jmp	.LBB21_40
.LBB21_39:                              # %cond.false156
                                        #   in Loop: Header=BB21_18 Depth=2
	movslq	-56(%rbp), %rcx
	movl	-3216(%rbp,%rcx,4), %ecx
	andl	$255, %ecx
.LBB21_40:                              # %cond.end160
                                        #   in Loop: Header=BB21_18 Depth=2
	addl	$1, %ecx
	orl	%ecx, %eax
	movslq	-32(%rbp), %rcx
	movl	%eax, -3216(%rbp,%rcx,4)
	movslq	-32(%rbp), %rax
	movl	$-1, -5280(%rbp,%rax,4)
	movl	-8(%rbp), %eax
	addl	$1, %eax
	movl	%eax, -8(%rbp)
	movl	-32(%rbp), %eax
	movslq	-8(%rbp), %rcx
	movl	%eax, -1152(%rbp,%rcx,4)
	movl	-8(%rbp), %eax
	movl	%eax, -36(%rbp)
	movslq	-36(%rbp), %rax
	movl	-1152(%rbp,%rax,4), %eax
	movl	%eax, -64(%rbp)
.LBB21_41:                              # %while.cond174
                                        #   Parent Loop BB21_8 Depth=1
                                        #     Parent Loop BB21_18 Depth=2
                                        # =>    This Inner Loop Header: Depth=3
	movslq	-64(%rbp), %rax
	movl	-3216(%rbp,%rax,4), %eax
	movl	-36(%rbp), %ecx
	sarl	$1, %ecx
	movslq	%ecx, %rcx
	movslq	-1152(%rbp,%rcx,4), %rcx
	cmpl	-3216(%rbp,%rcx,4), %eax
	jge	.LBB21_43
# %bb.42:                               # %while.body183
                                        #   in Loop: Header=BB21_41 Depth=3
	movl	-36(%rbp), %eax
	sarl	$1, %eax
	cltq
	movl	-1152(%rbp,%rax,4), %eax
	movslq	-36(%rbp), %rcx
	movl	%eax, -1152(%rbp,%rcx,4)
	movl	-36(%rbp), %eax
	sarl	$1, %eax
	movl	%eax, -36(%rbp)
	jmp	.LBB21_41
.LBB21_43:                              # %while.end190
                                        #   in Loop: Header=BB21_18 Depth=2
	movl	-64(%rbp), %eax
	movslq	-36(%rbp), %rcx
	movl	%eax, -1152(%rbp,%rcx,4)
	jmp	.LBB21_18
.LBB21_44:                              # %while.end193
                                        #   in Loop: Header=BB21_8 Depth=1
	cmpl	$516, -32(%rbp)         # imm = 0x204
	jl	.LBB21_46
# %bb.45:                               # %if.then195
                                        #   in Loop: Header=BB21_8 Depth=1
	movl	$2002, %edi             # imm = 0x7D2
	callq	BZ2_bz__AssertH__fail
.LBB21_46:                              # %if.end196
                                        #   in Loop: Header=BB21_8 Depth=1
	movb	$0, -9(%rbp)
	movl	$1, -4(%rbp)
.LBB21_47:                              # %for.cond197
                                        #   Parent Loop BB21_8 Depth=1
                                        # =>  This Loop Header: Depth=2
                                        #       Child Loop BB21_49 Depth 3
	movl	-4(%rbp), %eax
	cmpl	-44(%rbp), %eax
	jg	.LBB21_55
# %bb.48:                               # %for.body199
                                        #   in Loop: Header=BB21_47 Depth=2
	movl	$0, -24(%rbp)
	movl	-4(%rbp), %eax
	movl	%eax, -60(%rbp)
.LBB21_49:                              # %while.cond200
                                        #   Parent Loop BB21_8 Depth=1
                                        #     Parent Loop BB21_47 Depth=2
                                        # =>    This Inner Loop Header: Depth=3
	movslq	-60(%rbp), %rax
	cmpl	$0, -5280(%rbp,%rax,4)
	jl	.LBB21_51
# %bb.50:                               # %while.body204
                                        #   in Loop: Header=BB21_49 Depth=3
	movslq	-60(%rbp), %rax
	movl	-5280(%rbp,%rax,4), %eax
	movl	%eax, -60(%rbp)
	movl	-24(%rbp), %eax
	addl	$1, %eax
	movl	%eax, -24(%rbp)
	jmp	.LBB21_49
.LBB21_51:                              # %while.end208
                                        #   in Loop: Header=BB21_47 Depth=2
	movl	-24(%rbp), %eax
	movq	-104(%rbp), %rcx
	movl	-4(%rbp), %edx
	subl	$1, %edx
	movslq	%edx, %rdx
	movb	%al, (%rcx,%rdx)
	movl	-24(%rbp), %eax
	cmpl	-80(%rbp), %eax
	jle	.LBB21_53
# %bb.52:                               # %if.then213
                                        #   in Loop: Header=BB21_47 Depth=2
	movb	$1, -9(%rbp)
.LBB21_53:                              # %if.end214
                                        #   in Loop: Header=BB21_47 Depth=2
	jmp	.LBB21_54
.LBB21_54:                              # %for.inc215
                                        #   in Loop: Header=BB21_47 Depth=2
	movl	-4(%rbp), %eax
	addl	$1, %eax
	movl	%eax, -4(%rbp)
	jmp	.LBB21_47
.LBB21_55:                              # %for.end217
                                        #   in Loop: Header=BB21_8 Depth=1
	cmpb	$0, -9(%rbp)
	jne	.LBB21_57
# %bb.56:                               # %if.then218
	jmp	.LBB21_62
.LBB21_57:                              # %if.end219
                                        #   in Loop: Header=BB21_8 Depth=1
	movl	$1, -4(%rbp)
.LBB21_58:                              # %for.cond220
                                        #   Parent Loop BB21_8 Depth=1
                                        # =>  This Inner Loop Header: Depth=2
	movl	-4(%rbp), %eax
	cmpl	-44(%rbp), %eax
	jg	.LBB21_61
# %bb.59:                               # %for.body223
                                        #   in Loop: Header=BB21_58 Depth=2
	movslq	-4(%rbp), %rax
	movl	-3216(%rbp,%rax,4), %eax
	sarl	$8, %eax
	movl	%eax, -24(%rbp)
	movl	-24(%rbp), %eax
	cltd
	movl	$2, %ecx
	idivl	%ecx
	addl	$1, %eax
	movl	%eax, -24(%rbp)
	movl	-24(%rbp), %eax
	shll	$8, %eax
	movslq	-4(%rbp), %rcx
	movl	%eax, -3216(%rbp,%rcx,4)
# %bb.60:                               # %for.inc231
                                        #   in Loop: Header=BB21_58 Depth=2
	movl	-4(%rbp), %eax
	addl	$1, %eax
	movl	%eax, -4(%rbp)
	jmp	.LBB21_58
.LBB21_61:                              # %for.end233
                                        #   in Loop: Header=BB21_8 Depth=1
	jmp	.LBB21_8
.LBB21_62:                              # %while.end234
	cmpl	$710237954, -84(%rbp)   # imm = 0x2A555F02
	jne	.LBB21_64
.LBB21_63:
	addq	$5280, %rsp             # imm = 0x14A0
	popq	%rbp
	.cfi_def_cfa %rsp, 8
	retq
.LBB21_64:                              # %func_exit
	.cfi_def_cfa %rbp, 16
	callq	detect_breach
	jmp	.LBB21_63
.Lfunc_end21:
	.size	BZ2_hbMakeCodeLengths.19, .Lfunc_end21-BZ2_hbMakeCodeLengths.19
	.cfi_endproc
                                        # -- End function
	.globl	BZ2_hbCreateDecodeTables.20 # -- Begin function BZ2_hbCreateDecodeTables.20
	.p2align	4, 0x90
	.type	BZ2_hbCreateDecodeTables.20,@function
BZ2_hbCreateDecodeTables.20:            # @BZ2_hbCreateDecodeTables.20
	.cfi_startproc
# %bb.0:                                # %entry
	pushq	%rbp
	.cfi_def_cfa_offset 16
	.cfi_offset %rbp, -16
	movq	%rsp, %rbp
	.cfi_def_cfa_register %rbp
	subq	$80, %rsp
	movl	16(%rbp), %eax
	movl	$1541821668, -52(%rbp)  # imm = 0x5BE654E4
	movq	%rdi, -48(%rbp)
	movq	%rsi, -24(%rbp)
	movq	%rdx, -72(%rbp)
	movq	%rcx, -64(%rbp)
	movl	%r8d, -36(%rbp)
	movl	%r9d, -32(%rbp)
	movl	$0, -28(%rbp)
	movl	-36(%rbp), %eax
	movl	%eax, -4(%rbp)
.LBB22_1:                               # %for.cond
                                        # =>This Loop Header: Depth=1
                                        #     Child Loop BB22_3 Depth 2
	movl	-4(%rbp), %eax
	cmpl	-32(%rbp), %eax
	jg	.LBB22_10
# %bb.2:                                # %for.body
                                        #   in Loop: Header=BB22_1 Depth=1
	movl	$0, -12(%rbp)
.LBB22_3:                               # %for.cond1
                                        #   Parent Loop BB22_1 Depth=1
                                        # =>  This Inner Loop Header: Depth=2
	movl	-12(%rbp), %eax
	cmpl	16(%rbp), %eax
	jge	.LBB22_8
# %bb.4:                                # %for.body3
                                        #   in Loop: Header=BB22_3 Depth=2
	movq	-64(%rbp), %rax
	movslq	-12(%rbp), %rcx
	movzbl	(%rax,%rcx), %eax
	cmpl	-4(%rbp), %eax
	jne	.LBB22_6
# %bb.5:                                # %if.then
                                        #   in Loop: Header=BB22_3 Depth=2
	movl	-12(%rbp), %eax
	movq	-72(%rbp), %rcx
	movslq	-28(%rbp), %rdx
	movl	%eax, (%rcx,%rdx,4)
	movl	-28(%rbp), %eax
	addl	$1, %eax
	movl	%eax, -28(%rbp)
.LBB22_6:                               # %if.end
                                        #   in Loop: Header=BB22_3 Depth=2
	jmp	.LBB22_7
.LBB22_7:                               # %for.inc
                                        #   in Loop: Header=BB22_3 Depth=2
	movl	-12(%rbp), %eax
	addl	$1, %eax
	movl	%eax, -12(%rbp)
	jmp	.LBB22_3
.LBB22_8:                               # %for.end
                                        #   in Loop: Header=BB22_1 Depth=1
	jmp	.LBB22_9
.LBB22_9:                               # %for.inc9
                                        #   in Loop: Header=BB22_1 Depth=1
	movl	-4(%rbp), %eax
	addl	$1, %eax
	movl	%eax, -4(%rbp)
	jmp	.LBB22_1
.LBB22_10:                              # %for.end11
	movl	$0, -4(%rbp)
.LBB22_11:                              # %for.cond12
                                        # =>This Inner Loop Header: Depth=1
	cmpl	$23, -4(%rbp)
	jge	.LBB22_14
# %bb.12:                               # %for.body15
                                        #   in Loop: Header=BB22_11 Depth=1
	movq	-24(%rbp), %rax
	movslq	-4(%rbp), %rcx
	movl	$0, (%rax,%rcx,4)
# %bb.13:                               # %for.inc18
                                        #   in Loop: Header=BB22_11 Depth=1
	movl	-4(%rbp), %eax
	addl	$1, %eax
	movl	%eax, -4(%rbp)
	jmp	.LBB22_11
.LBB22_14:                              # %for.end20
	movl	$0, -4(%rbp)
.LBB22_15:                              # %for.cond21
                                        # =>This Inner Loop Header: Depth=1
	movl	-4(%rbp), %eax
	cmpl	16(%rbp), %eax
	jge	.LBB22_18
# %bb.16:                               # %for.body24
                                        #   in Loop: Header=BB22_15 Depth=1
	movq	-24(%rbp), %rax
	movq	-64(%rbp), %rcx
	movslq	-4(%rbp), %rdx
	movzbl	(%rcx,%rdx), %ecx
	addl	$1, %ecx
	movslq	%ecx, %rcx
	movl	(%rax,%rcx,4), %edx
	addl	$1, %edx
	movl	%edx, (%rax,%rcx,4)
# %bb.17:                               # %for.inc31
                                        #   in Loop: Header=BB22_15 Depth=1
	movl	-4(%rbp), %eax
	addl	$1, %eax
	movl	%eax, -4(%rbp)
	jmp	.LBB22_15
.LBB22_18:                              # %for.end33
	movl	$1, -4(%rbp)
.LBB22_19:                              # %for.cond34
                                        # =>This Inner Loop Header: Depth=1
	cmpl	$23, -4(%rbp)
	jge	.LBB22_22
# %bb.20:                               # %for.body37
                                        #   in Loop: Header=BB22_19 Depth=1
	movq	-24(%rbp), %rax
	movl	-4(%rbp), %ecx
	subl	$1, %ecx
	movslq	%ecx, %rcx
	movl	(%rax,%rcx,4), %eax
	movq	-24(%rbp), %rcx
	movslq	-4(%rbp), %rdx
	addl	(%rcx,%rdx,4), %eax
	movl	%eax, (%rcx,%rdx,4)
# %bb.21:                               # %for.inc43
                                        #   in Loop: Header=BB22_19 Depth=1
	movl	-4(%rbp), %eax
	addl	$1, %eax
	movl	%eax, -4(%rbp)
	jmp	.LBB22_19
.LBB22_22:                              # %for.end45
	movl	$0, -4(%rbp)
.LBB22_23:                              # %for.cond46
                                        # =>This Inner Loop Header: Depth=1
	cmpl	$23, -4(%rbp)
	jge	.LBB22_26
# %bb.24:                               # %for.body49
                                        #   in Loop: Header=BB22_23 Depth=1
	movq	-48(%rbp), %rax
	movslq	-4(%rbp), %rcx
	movl	$0, (%rax,%rcx,4)
# %bb.25:                               # %for.inc52
                                        #   in Loop: Header=BB22_23 Depth=1
	movl	-4(%rbp), %eax
	addl	$1, %eax
	movl	%eax, -4(%rbp)
	jmp	.LBB22_23
.LBB22_26:                              # %for.end54
	movl	$0, -8(%rbp)
	movl	-36(%rbp), %eax
	movl	%eax, -4(%rbp)
.LBB22_27:                              # %for.cond55
                                        # =>This Inner Loop Header: Depth=1
	movl	-4(%rbp), %eax
	cmpl	-32(%rbp), %eax
	jg	.LBB22_30
# %bb.28:                               # %for.body58
                                        #   in Loop: Header=BB22_27 Depth=1
	movq	-24(%rbp), %rax
	movl	-4(%rbp), %ecx
	addl	$1, %ecx
	movslq	%ecx, %rcx
	movl	(%rax,%rcx,4), %eax
	movq	-24(%rbp), %rcx
	movslq	-4(%rbp), %rdx
	subl	(%rcx,%rdx,4), %eax
	addl	-8(%rbp), %eax
	movl	%eax, -8(%rbp)
	movl	-8(%rbp), %eax
	subl	$1, %eax
	movq	-48(%rbp), %rcx
	movslq	-4(%rbp), %rdx
	movl	%eax, (%rcx,%rdx,4)
	movl	-8(%rbp), %eax
	shll	$1, %eax
	movl	%eax, -8(%rbp)
# %bb.29:                               # %for.inc69
                                        #   in Loop: Header=BB22_27 Depth=1
	movl	-4(%rbp), %eax
	addl	$1, %eax
	movl	%eax, -4(%rbp)
	jmp	.LBB22_27
.LBB22_30:                              # %for.end71
	movl	-36(%rbp), %eax
	addl	$1, %eax
	movl	%eax, -4(%rbp)
.LBB22_31:                              # %for.cond73
                                        # =>This Inner Loop Header: Depth=1
	movl	-4(%rbp), %eax
	cmpl	-32(%rbp), %eax
	jg	.LBB22_34
# %bb.32:                               # %for.body76
                                        #   in Loop: Header=BB22_31 Depth=1
	movq	-48(%rbp), %rax
	movl	-4(%rbp), %ecx
	subl	$1, %ecx
	movslq	%ecx, %rcx
	movl	(%rax,%rcx,4), %eax
	addl	$1, %eax
	shll	$1, %eax
	movq	-24(%rbp), %rcx
	movslq	-4(%rbp), %rdx
	subl	(%rcx,%rdx,4), %eax
	movq	-24(%rbp), %rcx
	movslq	-4(%rbp), %rdx
	movl	%eax, (%rcx,%rdx,4)
# %bb.33:                               # %for.inc87
                                        #   in Loop: Header=BB22_31 Depth=1
	movl	-4(%rbp), %eax
	addl	$1, %eax
	movl	%eax, -4(%rbp)
	jmp	.LBB22_31
.LBB22_34:                              # %for.end89
	cmpl	$1541821668, -52(%rbp)  # imm = 0x5BE654E4
	jne	.LBB22_36
.LBB22_35:
	addq	$80, %rsp
	popq	%rbp
	.cfi_def_cfa %rsp, 8
	retq
.LBB22_36:                              # %func_exit
	.cfi_def_cfa %rbp, 16
	callq	detect_breach
	jmp	.LBB22_35
.Lfunc_end22:
	.size	BZ2_hbCreateDecodeTables.20, .Lfunc_end22-BZ2_hbCreateDecodeTables.20
	.cfi_endproc
                                        # -- End function
	.globl	BZ2_hbMakeCodeLengths.21 # -- Begin function BZ2_hbMakeCodeLengths.21
	.p2align	4, 0x90
	.type	BZ2_hbMakeCodeLengths.21,@function
BZ2_hbMakeCodeLengths.21:               # @BZ2_hbMakeCodeLengths.21
	.cfi_startproc
# %bb.0:                                # %entry
	pushq	%rbp
	.cfi_def_cfa_offset 16
	.cfi_offset %rbp, -16
	movq	%rsp, %rbp
	.cfi_def_cfa_register %rbp
	subq	$5280, %rsp             # imm = 0x14A0
	movl	$1048013434, -84(%rbp)  # imm = 0x3E776A7A
	movq	%rdi, -104(%rbp)
	movq	%rsi, -96(%rbp)
	movl	%edx, -40(%rbp)
	movl	%ecx, -80(%rbp)
	movl	$0, -4(%rbp)
.LBB23_1:                               # %for.cond
                                        # =>This Inner Loop Header: Depth=1
	movl	-4(%rbp), %eax
	cmpl	-40(%rbp), %eax
	jge	.LBB23_7
# %bb.2:                                # %for.body
                                        #   in Loop: Header=BB23_1 Depth=1
	movq	-96(%rbp), %rax
	movslq	-4(%rbp), %rcx
	cmpl	$0, (%rax,%rcx,4)
	jne	.LBB23_4
# %bb.3:                                # %cond.true
                                        #   in Loop: Header=BB23_1 Depth=1
	movl	$1, %eax
	jmp	.LBB23_5
.LBB23_4:                               # %cond.false
                                        #   in Loop: Header=BB23_1 Depth=1
	movq	-96(%rbp), %rax
	movslq	-4(%rbp), %rcx
	movl	(%rax,%rcx,4), %eax
.LBB23_5:                               # %cond.end
                                        #   in Loop: Header=BB23_1 Depth=1
	shll	$8, %eax
	movl	-4(%rbp), %ecx
	addl	$1, %ecx
	movslq	%ecx, %rcx
	movl	%eax, -3216(%rbp,%rcx,4)
# %bb.6:                                # %for.inc
                                        #   in Loop: Header=BB23_1 Depth=1
	movl	-4(%rbp), %eax
	addl	$1, %eax
	movl	%eax, -4(%rbp)
	jmp	.LBB23_1
.LBB23_7:                               # %for.end
	jmp	.LBB23_8
.LBB23_8:                               # %while.body
                                        # =>This Loop Header: Depth=1
                                        #     Child Loop BB23_9 Depth 2
                                        #       Child Loop BB23_11 Depth 3
                                        #     Child Loop BB23_18 Depth 2
                                        #       Child Loop BB23_20 Depth 3
                                        #       Child Loop BB23_29 Depth 3
                                        #       Child Loop BB23_41 Depth 3
                                        #     Child Loop BB23_47 Depth 2
                                        #       Child Loop BB23_49 Depth 3
                                        #     Child Loop BB23_58 Depth 2
	movl	-40(%rbp), %eax
	movl	%eax, -36(%rbp)
	movl	$0, -8(%rbp)
	movl	$0, -1152(%rbp)
	movl	$0, -3216(%rbp)
	movl	$-2, -5280(%rbp)
	movl	$1, -4(%rbp)
.LBB23_9:                               # %for.cond9
                                        #   Parent Loop BB23_8 Depth=1
                                        # =>  This Loop Header: Depth=2
                                        #       Child Loop BB23_11 Depth 3
	movl	-4(%rbp), %eax
	cmpl	-40(%rbp), %eax
	jg	.LBB23_15
# %bb.10:                               # %for.body11
                                        #   in Loop: Header=BB23_9 Depth=2
	movslq	-4(%rbp), %rax
	movl	$-1, -5280(%rbp,%rax,4)
	movl	-8(%rbp), %eax
	addl	$1, %eax
	movl	%eax, -8(%rbp)
	movl	-4(%rbp), %eax
	movslq	-8(%rbp), %rcx
	movl	%eax, -1152(%rbp,%rcx,4)
	movl	-8(%rbp), %eax
	movl	%eax, -32(%rbp)
	movslq	-32(%rbp), %rax
	movl	-1152(%rbp,%rax,4), %eax
	movl	%eax, -68(%rbp)
.LBB23_11:                              # %while.cond19
                                        #   Parent Loop BB23_8 Depth=1
                                        #     Parent Loop BB23_9 Depth=2
                                        # =>    This Inner Loop Header: Depth=3
	movslq	-68(%rbp), %rax
	movl	-3216(%rbp,%rax,4), %eax
	movl	-32(%rbp), %ecx
	sarl	$1, %ecx
	movslq	%ecx, %rcx
	movslq	-1152(%rbp,%rcx,4), %rcx
	cmpl	-3216(%rbp,%rcx,4), %eax
	jge	.LBB23_13
# %bb.12:                               # %while.body27
                                        #   in Loop: Header=BB23_11 Depth=3
	movl	-32(%rbp), %eax
	sarl	$1, %eax
	cltq
	movl	-1152(%rbp,%rax,4), %eax
	movslq	-32(%rbp), %rcx
	movl	%eax, -1152(%rbp,%rcx,4)
	movl	-32(%rbp), %eax
	sarl	$1, %eax
	movl	%eax, -32(%rbp)
	jmp	.LBB23_11
.LBB23_13:                              # %while.end
                                        #   in Loop: Header=BB23_9 Depth=2
	movl	-68(%rbp), %eax
	movslq	-32(%rbp), %rcx
	movl	%eax, -1152(%rbp,%rcx,4)
# %bb.14:                               # %for.inc36
                                        #   in Loop: Header=BB23_9 Depth=2
	movl	-4(%rbp), %eax
	addl	$1, %eax
	movl	%eax, -4(%rbp)
	jmp	.LBB23_9
.LBB23_15:                              # %for.end38
                                        #   in Loop: Header=BB23_8 Depth=1
	cmpl	$260, -8(%rbp)          # imm = 0x104
	jl	.LBB23_17
# %bb.16:                               # %if.then
                                        #   in Loop: Header=BB23_8 Depth=1
	movl	$2001, %edi             # imm = 0x7D1
	callq	BZ2_bz__AssertH__fail
.LBB23_17:                              # %if.end
                                        #   in Loop: Header=BB23_8 Depth=1
	jmp	.LBB23_18
.LBB23_18:                              # %while.cond40
                                        #   Parent Loop BB23_8 Depth=1
                                        # =>  This Loop Header: Depth=2
                                        #       Child Loop BB23_20 Depth 3
                                        #       Child Loop BB23_29 Depth 3
                                        #       Child Loop BB23_41 Depth 3
	cmpl	$1, -8(%rbp)
	jle	.LBB23_44
# %bb.19:                               # %while.body42
                                        #   in Loop: Header=BB23_18 Depth=2
	movl	-1148(%rbp), %eax
	movl	%eax, -56(%rbp)
	movslq	-8(%rbp), %rax
	movl	-1152(%rbp,%rax,4), %eax
	movl	%eax, -1148(%rbp)
	movl	-8(%rbp), %eax
	addl	$-1, %eax
	movl	%eax, -8(%rbp)
	movl	$1, -44(%rbp)
	movslq	-44(%rbp), %rax
	movl	-1152(%rbp,%rax,4), %eax
	movl	%eax, -72(%rbp)
.LBB23_20:                              # %while.body52
                                        #   Parent Loop BB23_8 Depth=1
                                        #     Parent Loop BB23_18 Depth=2
                                        # =>    This Inner Loop Header: Depth=3
	movl	-44(%rbp), %eax
	shll	$1, %eax
	movl	%eax, -16(%rbp)
	movl	-16(%rbp), %eax
	cmpl	-8(%rbp), %eax
	jle	.LBB23_22
# %bb.21:                               # %if.then55
                                        #   in Loop: Header=BB23_18 Depth=2
	jmp	.LBB23_28
.LBB23_22:                              # %if.end56
                                        #   in Loop: Header=BB23_20 Depth=3
	movl	-16(%rbp), %eax
	cmpl	-8(%rbp), %eax
	jge	.LBB23_25
# %bb.23:                               # %land.lhs.true
                                        #   in Loop: Header=BB23_20 Depth=3
	movl	-16(%rbp), %eax
	addl	$1, %eax
	cltq
	movslq	-1152(%rbp,%rax,4), %rax
	movl	-3216(%rbp,%rax,4), %eax
	movslq	-16(%rbp), %rcx
	movslq	-1152(%rbp,%rcx,4), %rcx
	cmpl	-3216(%rbp,%rcx,4), %eax
	jge	.LBB23_25
# %bb.24:                               # %if.then68
                                        #   in Loop: Header=BB23_20 Depth=3
	movl	-16(%rbp), %eax
	addl	$1, %eax
	movl	%eax, -16(%rbp)
.LBB23_25:                              # %if.end70
                                        #   in Loop: Header=BB23_20 Depth=3
	movslq	-72(%rbp), %rax
	movl	-3216(%rbp,%rax,4), %eax
	movslq	-16(%rbp), %rcx
	movslq	-1152(%rbp,%rcx,4), %rcx
	cmpl	-3216(%rbp,%rcx,4), %eax
	jge	.LBB23_27
# %bb.26:                               # %if.then78
                                        #   in Loop: Header=BB23_18 Depth=2
	jmp	.LBB23_28
.LBB23_27:                              # %if.end79
                                        #   in Loop: Header=BB23_20 Depth=3
	movslq	-16(%rbp), %rax
	movl	-1152(%rbp,%rax,4), %eax
	movslq	-44(%rbp), %rcx
	movl	%eax, -1152(%rbp,%rcx,4)
	movl	-16(%rbp), %eax
	movl	%eax, -44(%rbp)
	jmp	.LBB23_20
.LBB23_28:                              # %while.end84
                                        #   in Loop: Header=BB23_18 Depth=2
	movl	-72(%rbp), %eax
	movslq	-44(%rbp), %rcx
	movl	%eax, -1152(%rbp,%rcx,4)
	movl	-1148(%rbp), %eax
	movl	%eax, -52(%rbp)
	movslq	-8(%rbp), %rax
	movl	-1152(%rbp,%rax,4), %eax
	movl	%eax, -1148(%rbp)
	movl	-8(%rbp), %eax
	addl	$-1, %eax
	movl	%eax, -8(%rbp)
	movl	$1, -48(%rbp)
	movslq	-48(%rbp), %rax
	movl	-1152(%rbp,%rax,4), %eax
	movl	%eax, -64(%rbp)
.LBB23_29:                              # %while.body98
                                        #   Parent Loop BB23_8 Depth=1
                                        #     Parent Loop BB23_18 Depth=2
                                        # =>    This Inner Loop Header: Depth=3
	movl	-48(%rbp), %eax
	shll	$1, %eax
	movl	%eax, -20(%rbp)
	movl	-20(%rbp), %eax
	cmpl	-8(%rbp), %eax
	jle	.LBB23_31
# %bb.30:                               # %if.then101
                                        #   in Loop: Header=BB23_18 Depth=2
	jmp	.LBB23_37
.LBB23_31:                              # %if.end102
                                        #   in Loop: Header=BB23_29 Depth=3
	movl	-20(%rbp), %eax
	cmpl	-8(%rbp), %eax
	jge	.LBB23_34
# %bb.32:                               # %land.lhs.true104
                                        #   in Loop: Header=BB23_29 Depth=3
	movl	-20(%rbp), %eax
	addl	$1, %eax
	cltq
	movslq	-1152(%rbp,%rax,4), %rax
	movl	-3216(%rbp,%rax,4), %eax
	movslq	-20(%rbp), %rcx
	movslq	-1152(%rbp,%rcx,4), %rcx
	cmpl	-3216(%rbp,%rcx,4), %eax
	jge	.LBB23_34
# %bb.33:                               # %if.then115
                                        #   in Loop: Header=BB23_29 Depth=3
	movl	-20(%rbp), %eax
	addl	$1, %eax
	movl	%eax, -20(%rbp)
.LBB23_34:                              # %if.end117
                                        #   in Loop: Header=BB23_29 Depth=3
	movslq	-64(%rbp), %rax
	movl	-3216(%rbp,%rax,4), %eax
	movslq	-20(%rbp), %rcx
	movslq	-1152(%rbp,%rcx,4), %rcx
	cmpl	-3216(%rbp,%rcx,4), %eax
	jge	.LBB23_36
# %bb.35:                               # %if.then125
                                        #   in Loop: Header=BB23_18 Depth=2
	jmp	.LBB23_37
.LBB23_36:                              # %if.end126
                                        #   in Loop: Header=BB23_29 Depth=3
	movslq	-20(%rbp), %rax
	movl	-1152(%rbp,%rax,4), %eax
	movslq	-48(%rbp), %rcx
	movl	%eax, -1152(%rbp,%rcx,4)
	movl	-20(%rbp), %eax
	movl	%eax, -48(%rbp)
	jmp	.LBB23_29
.LBB23_37:                              # %while.end131
                                        #   in Loop: Header=BB23_18 Depth=2
	movl	-64(%rbp), %eax
	movslq	-48(%rbp), %rcx
	movl	%eax, -1152(%rbp,%rcx,4)
	movl	-36(%rbp), %eax
	addl	$1, %eax
	movl	%eax, -36(%rbp)
	movl	-36(%rbp), %eax
	movslq	-52(%rbp), %rcx
	movl	%eax, -5280(%rbp,%rcx,4)
	movslq	-56(%rbp), %rcx
	movl	%eax, -5280(%rbp,%rcx,4)
	movslq	-56(%rbp), %rax
	movl	-3216(%rbp,%rax,4), %eax
	andl	$-256, %eax
	movslq	-52(%rbp), %rcx
	movl	-3216(%rbp,%rcx,4), %ecx
	andl	$-256, %ecx
	addl	%ecx, %eax
	movslq	-56(%rbp), %rcx
	movl	-3216(%rbp,%rcx,4), %ecx
	andl	$255, %ecx
	movslq	-52(%rbp), %rdx
	movl	-3216(%rbp,%rdx,4), %edx
	andl	$255, %edx
	cmpl	%edx, %ecx
	jle	.LBB23_39
# %bb.38:                               # %cond.true152
                                        #   in Loop: Header=BB23_18 Depth=2
	movslq	-56(%rbp), %rcx
	movl	-3216(%rbp,%rcx,4), %ecx
	andl	$255, %ecx
	jmp	.LBB23_40
.LBB23_39:                              # %cond.false156
                                        #   in Loop: Header=BB23_18 Depth=2
	movslq	-52(%rbp), %rcx
	movl	-3216(%rbp,%rcx,4), %ecx
	andl	$255, %ecx
.LBB23_40:                              # %cond.end160
                                        #   in Loop: Header=BB23_18 Depth=2
	addl	$1, %ecx
	orl	%ecx, %eax
	movslq	-36(%rbp), %rcx
	movl	%eax, -3216(%rbp,%rcx,4)
	movslq	-36(%rbp), %rax
	movl	$-1, -5280(%rbp,%rax,4)
	movl	-8(%rbp), %eax
	addl	$1, %eax
	movl	%eax, -8(%rbp)
	movl	-36(%rbp), %eax
	movslq	-8(%rbp), %rcx
	movl	%eax, -1152(%rbp,%rcx,4)
	movl	-8(%rbp), %eax
	movl	%eax, -28(%rbp)
	movslq	-28(%rbp), %rax
	movl	-1152(%rbp,%rax,4), %eax
	movl	%eax, -76(%rbp)
.LBB23_41:                              # %while.cond174
                                        #   Parent Loop BB23_8 Depth=1
                                        #     Parent Loop BB23_18 Depth=2
                                        # =>    This Inner Loop Header: Depth=3
	movslq	-76(%rbp), %rax
	movl	-3216(%rbp,%rax,4), %eax
	movl	-28(%rbp), %ecx
	sarl	$1, %ecx
	movslq	%ecx, %rcx
	movslq	-1152(%rbp,%rcx,4), %rcx
	cmpl	-3216(%rbp,%rcx,4), %eax
	jge	.LBB23_43
# %bb.42:                               # %while.body183
                                        #   in Loop: Header=BB23_41 Depth=3
	movl	-28(%rbp), %eax
	sarl	$1, %eax
	cltq
	movl	-1152(%rbp,%rax,4), %eax
	movslq	-28(%rbp), %rcx
	movl	%eax, -1152(%rbp,%rcx,4)
	movl	-28(%rbp), %eax
	sarl	$1, %eax
	movl	%eax, -28(%rbp)
	jmp	.LBB23_41
.LBB23_43:                              # %while.end190
                                        #   in Loop: Header=BB23_18 Depth=2
	movl	-76(%rbp), %eax
	movslq	-28(%rbp), %rcx
	movl	%eax, -1152(%rbp,%rcx,4)
	jmp	.LBB23_18
.LBB23_44:                              # %while.end193
                                        #   in Loop: Header=BB23_8 Depth=1
	cmpl	$516, -36(%rbp)         # imm = 0x204
	jl	.LBB23_46
# %bb.45:                               # %if.then195
                                        #   in Loop: Header=BB23_8 Depth=1
	movl	$2002, %edi             # imm = 0x7D2
	callq	BZ2_bz__AssertH__fail
.LBB23_46:                              # %if.end196
                                        #   in Loop: Header=BB23_8 Depth=1
	movb	$0, -9(%rbp)
	movl	$1, -4(%rbp)
.LBB23_47:                              # %for.cond197
                                        #   Parent Loop BB23_8 Depth=1
                                        # =>  This Loop Header: Depth=2
                                        #       Child Loop BB23_49 Depth 3
	movl	-4(%rbp), %eax
	cmpl	-40(%rbp), %eax
	jg	.LBB23_55
# %bb.48:                               # %for.body199
                                        #   in Loop: Header=BB23_47 Depth=2
	movl	$0, -24(%rbp)
	movl	-4(%rbp), %eax
	movl	%eax, -60(%rbp)
.LBB23_49:                              # %while.cond200
                                        #   Parent Loop BB23_8 Depth=1
                                        #     Parent Loop BB23_47 Depth=2
                                        # =>    This Inner Loop Header: Depth=3
	movslq	-60(%rbp), %rax
	cmpl	$0, -5280(%rbp,%rax,4)
	jl	.LBB23_51
# %bb.50:                               # %while.body204
                                        #   in Loop: Header=BB23_49 Depth=3
	movslq	-60(%rbp), %rax
	movl	-5280(%rbp,%rax,4), %eax
	movl	%eax, -60(%rbp)
	movl	-24(%rbp), %eax
	addl	$1, %eax
	movl	%eax, -24(%rbp)
	jmp	.LBB23_49
.LBB23_51:                              # %while.end208
                                        #   in Loop: Header=BB23_47 Depth=2
	movl	-24(%rbp), %eax
	movq	-104(%rbp), %rcx
	movl	-4(%rbp), %edx
	subl	$1, %edx
	movslq	%edx, %rdx
	movb	%al, (%rcx,%rdx)
	movl	-24(%rbp), %eax
	cmpl	-80(%rbp), %eax
	jle	.LBB23_53
# %bb.52:                               # %if.then213
                                        #   in Loop: Header=BB23_47 Depth=2
	movb	$1, -9(%rbp)
.LBB23_53:                              # %if.end214
                                        #   in Loop: Header=BB23_47 Depth=2
	jmp	.LBB23_54
.LBB23_54:                              # %for.inc215
                                        #   in Loop: Header=BB23_47 Depth=2
	movl	-4(%rbp), %eax
	addl	$1, %eax
	movl	%eax, -4(%rbp)
	jmp	.LBB23_47
.LBB23_55:                              # %for.end217
                                        #   in Loop: Header=BB23_8 Depth=1
	cmpb	$0, -9(%rbp)
	jne	.LBB23_57
# %bb.56:                               # %if.then218
	jmp	.LBB23_62
.LBB23_57:                              # %if.end219
                                        #   in Loop: Header=BB23_8 Depth=1
	movl	$1, -4(%rbp)
.LBB23_58:                              # %for.cond220
                                        #   Parent Loop BB23_8 Depth=1
                                        # =>  This Inner Loop Header: Depth=2
	movl	-4(%rbp), %eax
	cmpl	-40(%rbp), %eax
	jg	.LBB23_61
# %bb.59:                               # %for.body223
                                        #   in Loop: Header=BB23_58 Depth=2
	movslq	-4(%rbp), %rax
	movl	-3216(%rbp,%rax,4), %eax
	sarl	$8, %eax
	movl	%eax, -24(%rbp)
	movl	-24(%rbp), %eax
	cltd
	movl	$2, %ecx
	idivl	%ecx
	addl	$1, %eax
	movl	%eax, -24(%rbp)
	movl	-24(%rbp), %eax
	shll	$8, %eax
	movslq	-4(%rbp), %rcx
	movl	%eax, -3216(%rbp,%rcx,4)
# %bb.60:                               # %for.inc231
                                        #   in Loop: Header=BB23_58 Depth=2
	movl	-4(%rbp), %eax
	addl	$1, %eax
	movl	%eax, -4(%rbp)
	jmp	.LBB23_58
.LBB23_61:                              # %for.end233
                                        #   in Loop: Header=BB23_8 Depth=1
	jmp	.LBB23_8
.LBB23_62:                              # %while.end234
	cmpl	$1048013434, -84(%rbp)  # imm = 0x3E776A7A
	jne	.LBB23_64
.LBB23_63:
	addq	$5280, %rsp             # imm = 0x14A0
	popq	%rbp
	.cfi_def_cfa %rsp, 8
	retq
.LBB23_64:                              # %func_exit
	.cfi_def_cfa %rbp, 16
	callq	detect_breach
	jmp	.LBB23_63
.Lfunc_end23:
	.size	BZ2_hbMakeCodeLengths.21, .Lfunc_end23-BZ2_hbMakeCodeLengths.21
	.cfi_endproc
                                        # -- End function
	.globl	BZ2_hbMakeCodeLengths.22 # -- Begin function BZ2_hbMakeCodeLengths.22
	.p2align	4, 0x90
	.type	BZ2_hbMakeCodeLengths.22,@function
BZ2_hbMakeCodeLengths.22:               # @BZ2_hbMakeCodeLengths.22
	.cfi_startproc
# %bb.0:                                # %entry
	pushq	%rbp
	.cfi_def_cfa_offset 16
	.cfi_offset %rbp, -16
	movq	%rsp, %rbp
	.cfi_def_cfa_register %rbp
	subq	$5280, %rsp             # imm = 0x14A0
	movl	$1427439926, -80(%rbp)  # imm = 0x55150136
	movq	%rdi, -104(%rbp)
	movq	%rsi, -96(%rbp)
	movl	%edx, -48(%rbp)
	movl	%ecx, -84(%rbp)
	movl	$0, -4(%rbp)
.LBB24_1:                               # %for.cond
                                        # =>This Inner Loop Header: Depth=1
	movl	-4(%rbp), %eax
	cmpl	-48(%rbp), %eax
	jge	.LBB24_7
# %bb.2:                                # %for.body
                                        #   in Loop: Header=BB24_1 Depth=1
	movq	-96(%rbp), %rax
	movslq	-4(%rbp), %rcx
	cmpl	$0, (%rax,%rcx,4)
	jne	.LBB24_4
# %bb.3:                                # %cond.true
                                        #   in Loop: Header=BB24_1 Depth=1
	movl	$1, %eax
	jmp	.LBB24_5
.LBB24_4:                               # %cond.false
                                        #   in Loop: Header=BB24_1 Depth=1
	movq	-96(%rbp), %rax
	movslq	-4(%rbp), %rcx
	movl	(%rax,%rcx,4), %eax
.LBB24_5:                               # %cond.end
                                        #   in Loop: Header=BB24_1 Depth=1
	shll	$8, %eax
	movl	-4(%rbp), %ecx
	addl	$1, %ecx
	movslq	%ecx, %rcx
	movl	%eax, -3216(%rbp,%rcx,4)
# %bb.6:                                # %for.inc
                                        #   in Loop: Header=BB24_1 Depth=1
	movl	-4(%rbp), %eax
	addl	$1, %eax
	movl	%eax, -4(%rbp)
	jmp	.LBB24_1
.LBB24_7:                               # %for.end
	jmp	.LBB24_8
.LBB24_8:                               # %while.body
                                        # =>This Loop Header: Depth=1
                                        #     Child Loop BB24_9 Depth 2
                                        #       Child Loop BB24_11 Depth 3
                                        #     Child Loop BB24_18 Depth 2
                                        #       Child Loop BB24_20 Depth 3
                                        #       Child Loop BB24_29 Depth 3
                                        #       Child Loop BB24_41 Depth 3
                                        #     Child Loop BB24_47 Depth 2
                                        #       Child Loop BB24_49 Depth 3
                                        #     Child Loop BB24_58 Depth 2
	movl	-48(%rbp), %eax
	movl	%eax, -32(%rbp)
	movl	$0, -8(%rbp)
	movl	$0, -1152(%rbp)
	movl	$0, -3216(%rbp)
	movl	$-2, -5280(%rbp)
	movl	$1, -4(%rbp)
.LBB24_9:                               # %for.cond9
                                        #   Parent Loop BB24_8 Depth=1
                                        # =>  This Loop Header: Depth=2
                                        #       Child Loop BB24_11 Depth 3
	movl	-4(%rbp), %eax
	cmpl	-48(%rbp), %eax
	jg	.LBB24_15
# %bb.10:                               # %for.body11
                                        #   in Loop: Header=BB24_9 Depth=2
	movslq	-4(%rbp), %rax
	movl	$-1, -5280(%rbp,%rax,4)
	movl	-8(%rbp), %eax
	addl	$1, %eax
	movl	%eax, -8(%rbp)
	movl	-4(%rbp), %eax
	movslq	-8(%rbp), %rcx
	movl	%eax, -1152(%rbp,%rcx,4)
	movl	-8(%rbp), %eax
	movl	%eax, -36(%rbp)
	movslq	-36(%rbp), %rax
	movl	-1152(%rbp,%rax,4), %eax
	movl	%eax, -72(%rbp)
.LBB24_11:                              # %while.cond19
                                        #   Parent Loop BB24_8 Depth=1
                                        #     Parent Loop BB24_9 Depth=2
                                        # =>    This Inner Loop Header: Depth=3
	movslq	-72(%rbp), %rax
	movl	-3216(%rbp,%rax,4), %eax
	movl	-36(%rbp), %ecx
	sarl	$1, %ecx
	movslq	%ecx, %rcx
	movslq	-1152(%rbp,%rcx,4), %rcx
	cmpl	-3216(%rbp,%rcx,4), %eax
	jge	.LBB24_13
# %bb.12:                               # %while.body27
                                        #   in Loop: Header=BB24_11 Depth=3
	movl	-36(%rbp), %eax
	sarl	$1, %eax
	cltq
	movl	-1152(%rbp,%rax,4), %eax
	movslq	-36(%rbp), %rcx
	movl	%eax, -1152(%rbp,%rcx,4)
	movl	-36(%rbp), %eax
	sarl	$1, %eax
	movl	%eax, -36(%rbp)
	jmp	.LBB24_11
.LBB24_13:                              # %while.end
                                        #   in Loop: Header=BB24_9 Depth=2
	movl	-72(%rbp), %eax
	movslq	-36(%rbp), %rcx
	movl	%eax, -1152(%rbp,%rcx,4)
# %bb.14:                               # %for.inc36
                                        #   in Loop: Header=BB24_9 Depth=2
	movl	-4(%rbp), %eax
	addl	$1, %eax
	movl	%eax, -4(%rbp)
	jmp	.LBB24_9
.LBB24_15:                              # %for.end38
                                        #   in Loop: Header=BB24_8 Depth=1
	cmpl	$260, -8(%rbp)          # imm = 0x104
	jl	.LBB24_17
# %bb.16:                               # %if.then
                                        #   in Loop: Header=BB24_8 Depth=1
	movl	$2001, %edi             # imm = 0x7D1
	callq	BZ2_bz__AssertH__fail
.LBB24_17:                              # %if.end
                                        #   in Loop: Header=BB24_8 Depth=1
	jmp	.LBB24_18
.LBB24_18:                              # %while.cond40
                                        #   Parent Loop BB24_8 Depth=1
                                        # =>  This Loop Header: Depth=2
                                        #       Child Loop BB24_20 Depth 3
                                        #       Child Loop BB24_29 Depth 3
                                        #       Child Loop BB24_41 Depth 3
	cmpl	$1, -8(%rbp)
	jle	.LBB24_44
# %bb.19:                               # %while.body42
                                        #   in Loop: Header=BB24_18 Depth=2
	movl	-1148(%rbp), %eax
	movl	%eax, -52(%rbp)
	movslq	-8(%rbp), %rax
	movl	-1152(%rbp,%rax,4), %eax
	movl	%eax, -1148(%rbp)
	movl	-8(%rbp), %eax
	addl	$-1, %eax
	movl	%eax, -8(%rbp)
	movl	$1, -44(%rbp)
	movslq	-44(%rbp), %rax
	movl	-1152(%rbp,%rax,4), %eax
	movl	%eax, -64(%rbp)
.LBB24_20:                              # %while.body52
                                        #   Parent Loop BB24_8 Depth=1
                                        #     Parent Loop BB24_18 Depth=2
                                        # =>    This Inner Loop Header: Depth=3
	movl	-44(%rbp), %eax
	shll	$1, %eax
	movl	%eax, -20(%rbp)
	movl	-20(%rbp), %eax
	cmpl	-8(%rbp), %eax
	jle	.LBB24_22
# %bb.21:                               # %if.then55
                                        #   in Loop: Header=BB24_18 Depth=2
	jmp	.LBB24_28
.LBB24_22:                              # %if.end56
                                        #   in Loop: Header=BB24_20 Depth=3
	movl	-20(%rbp), %eax
	cmpl	-8(%rbp), %eax
	jge	.LBB24_25
# %bb.23:                               # %land.lhs.true
                                        #   in Loop: Header=BB24_20 Depth=3
	movl	-20(%rbp), %eax
	addl	$1, %eax
	cltq
	movslq	-1152(%rbp,%rax,4), %rax
	movl	-3216(%rbp,%rax,4), %eax
	movslq	-20(%rbp), %rcx
	movslq	-1152(%rbp,%rcx,4), %rcx
	cmpl	-3216(%rbp,%rcx,4), %eax
	jge	.LBB24_25
# %bb.24:                               # %if.then68
                                        #   in Loop: Header=BB24_20 Depth=3
	movl	-20(%rbp), %eax
	addl	$1, %eax
	movl	%eax, -20(%rbp)
.LBB24_25:                              # %if.end70
                                        #   in Loop: Header=BB24_20 Depth=3
	movslq	-64(%rbp), %rax
	movl	-3216(%rbp,%rax,4), %eax
	movslq	-20(%rbp), %rcx
	movslq	-1152(%rbp,%rcx,4), %rcx
	cmpl	-3216(%rbp,%rcx,4), %eax
	jge	.LBB24_27
# %bb.26:                               # %if.then78
                                        #   in Loop: Header=BB24_18 Depth=2
	jmp	.LBB24_28
.LBB24_27:                              # %if.end79
                                        #   in Loop: Header=BB24_20 Depth=3
	movslq	-20(%rbp), %rax
	movl	-1152(%rbp,%rax,4), %eax
	movslq	-44(%rbp), %rcx
	movl	%eax, -1152(%rbp,%rcx,4)
	movl	-20(%rbp), %eax
	movl	%eax, -44(%rbp)
	jmp	.LBB24_20
.LBB24_28:                              # %while.end84
                                        #   in Loop: Header=BB24_18 Depth=2
	movl	-64(%rbp), %eax
	movslq	-44(%rbp), %rcx
	movl	%eax, -1152(%rbp,%rcx,4)
	movl	-1148(%rbp), %eax
	movl	%eax, -56(%rbp)
	movslq	-8(%rbp), %rax
	movl	-1152(%rbp,%rax,4), %eax
	movl	%eax, -1148(%rbp)
	movl	-8(%rbp), %eax
	addl	$-1, %eax
	movl	%eax, -8(%rbp)
	movl	$1, -40(%rbp)
	movslq	-40(%rbp), %rax
	movl	-1152(%rbp,%rax,4), %eax
	movl	%eax, -76(%rbp)
.LBB24_29:                              # %while.body98
                                        #   Parent Loop BB24_8 Depth=1
                                        #     Parent Loop BB24_18 Depth=2
                                        # =>    This Inner Loop Header: Depth=3
	movl	-40(%rbp), %eax
	shll	$1, %eax
	movl	%eax, -16(%rbp)
	movl	-16(%rbp), %eax
	cmpl	-8(%rbp), %eax
	jle	.LBB24_31
# %bb.30:                               # %if.then101
                                        #   in Loop: Header=BB24_18 Depth=2
	jmp	.LBB24_37
.LBB24_31:                              # %if.end102
                                        #   in Loop: Header=BB24_29 Depth=3
	movl	-16(%rbp), %eax
	cmpl	-8(%rbp), %eax
	jge	.LBB24_34
# %bb.32:                               # %land.lhs.true104
                                        #   in Loop: Header=BB24_29 Depth=3
	movl	-16(%rbp), %eax
	addl	$1, %eax
	cltq
	movslq	-1152(%rbp,%rax,4), %rax
	movl	-3216(%rbp,%rax,4), %eax
	movslq	-16(%rbp), %rcx
	movslq	-1152(%rbp,%rcx,4), %rcx
	cmpl	-3216(%rbp,%rcx,4), %eax
	jge	.LBB24_34
# %bb.33:                               # %if.then115
                                        #   in Loop: Header=BB24_29 Depth=3
	movl	-16(%rbp), %eax
	addl	$1, %eax
	movl	%eax, -16(%rbp)
.LBB24_34:                              # %if.end117
                                        #   in Loop: Header=BB24_29 Depth=3
	movslq	-76(%rbp), %rax
	movl	-3216(%rbp,%rax,4), %eax
	movslq	-16(%rbp), %rcx
	movslq	-1152(%rbp,%rcx,4), %rcx
	cmpl	-3216(%rbp,%rcx,4), %eax
	jge	.LBB24_36
# %bb.35:                               # %if.then125
                                        #   in Loop: Header=BB24_18 Depth=2
	jmp	.LBB24_37
.LBB24_36:                              # %if.end126
                                        #   in Loop: Header=BB24_29 Depth=3
	movslq	-16(%rbp), %rax
	movl	-1152(%rbp,%rax,4), %eax
	movslq	-40(%rbp), %rcx
	movl	%eax, -1152(%rbp,%rcx,4)
	movl	-16(%rbp), %eax
	movl	%eax, -40(%rbp)
	jmp	.LBB24_29
.LBB24_37:                              # %while.end131
                                        #   in Loop: Header=BB24_18 Depth=2
	movl	-76(%rbp), %eax
	movslq	-40(%rbp), %rcx
	movl	%eax, -1152(%rbp,%rcx,4)
	movl	-32(%rbp), %eax
	addl	$1, %eax
	movl	%eax, -32(%rbp)
	movl	-32(%rbp), %eax
	movslq	-56(%rbp), %rcx
	movl	%eax, -5280(%rbp,%rcx,4)
	movslq	-52(%rbp), %rcx
	movl	%eax, -5280(%rbp,%rcx,4)
	movslq	-52(%rbp), %rax
	movl	-3216(%rbp,%rax,4), %eax
	andl	$-256, %eax
	movslq	-56(%rbp), %rcx
	movl	-3216(%rbp,%rcx,4), %ecx
	andl	$-256, %ecx
	addl	%ecx, %eax
	movslq	-52(%rbp), %rcx
	movl	-3216(%rbp,%rcx,4), %ecx
	andl	$255, %ecx
	movslq	-56(%rbp), %rdx
	movl	-3216(%rbp,%rdx,4), %edx
	andl	$255, %edx
	cmpl	%edx, %ecx
	jle	.LBB24_39
# %bb.38:                               # %cond.true152
                                        #   in Loop: Header=BB24_18 Depth=2
	movslq	-52(%rbp), %rcx
	movl	-3216(%rbp,%rcx,4), %ecx
	andl	$255, %ecx
	jmp	.LBB24_40
.LBB24_39:                              # %cond.false156
                                        #   in Loop: Header=BB24_18 Depth=2
	movslq	-56(%rbp), %rcx
	movl	-3216(%rbp,%rcx,4), %ecx
	andl	$255, %ecx
.LBB24_40:                              # %cond.end160
                                        #   in Loop: Header=BB24_18 Depth=2
	addl	$1, %ecx
	orl	%ecx, %eax
	movslq	-32(%rbp), %rcx
	movl	%eax, -3216(%rbp,%rcx,4)
	movslq	-32(%rbp), %rax
	movl	$-1, -5280(%rbp,%rax,4)
	movl	-8(%rbp), %eax
	addl	$1, %eax
	movl	%eax, -8(%rbp)
	movl	-32(%rbp), %eax
	movslq	-8(%rbp), %rcx
	movl	%eax, -1152(%rbp,%rcx,4)
	movl	-8(%rbp), %eax
	movl	%eax, -28(%rbp)
	movslq	-28(%rbp), %rax
	movl	-1152(%rbp,%rax,4), %eax
	movl	%eax, -68(%rbp)
.LBB24_41:                              # %while.cond174
                                        #   Parent Loop BB24_8 Depth=1
                                        #     Parent Loop BB24_18 Depth=2
                                        # =>    This Inner Loop Header: Depth=3
	movslq	-68(%rbp), %rax
	movl	-3216(%rbp,%rax,4), %eax
	movl	-28(%rbp), %ecx
	sarl	$1, %ecx
	movslq	%ecx, %rcx
	movslq	-1152(%rbp,%rcx,4), %rcx
	cmpl	-3216(%rbp,%rcx,4), %eax
	jge	.LBB24_43
# %bb.42:                               # %while.body183
                                        #   in Loop: Header=BB24_41 Depth=3
	movl	-28(%rbp), %eax
	sarl	$1, %eax
	cltq
	movl	-1152(%rbp,%rax,4), %eax
	movslq	-28(%rbp), %rcx
	movl	%eax, -1152(%rbp,%rcx,4)
	movl	-28(%rbp), %eax
	sarl	$1, %eax
	movl	%eax, -28(%rbp)
	jmp	.LBB24_41
.LBB24_43:                              # %while.end190
                                        #   in Loop: Header=BB24_18 Depth=2
	movl	-68(%rbp), %eax
	movslq	-28(%rbp), %rcx
	movl	%eax, -1152(%rbp,%rcx,4)
	jmp	.LBB24_18
.LBB24_44:                              # %while.end193
                                        #   in Loop: Header=BB24_8 Depth=1
	cmpl	$516, -32(%rbp)         # imm = 0x204
	jl	.LBB24_46
# %bb.45:                               # %if.then195
                                        #   in Loop: Header=BB24_8 Depth=1
	movl	$2002, %edi             # imm = 0x7D2
	callq	BZ2_bz__AssertH__fail
.LBB24_46:                              # %if.end196
                                        #   in Loop: Header=BB24_8 Depth=1
	movb	$0, -9(%rbp)
	movl	$1, -4(%rbp)
.LBB24_47:                              # %for.cond197
                                        #   Parent Loop BB24_8 Depth=1
                                        # =>  This Loop Header: Depth=2
                                        #       Child Loop BB24_49 Depth 3
	movl	-4(%rbp), %eax
	cmpl	-48(%rbp), %eax
	jg	.LBB24_55
# %bb.48:                               # %for.body199
                                        #   in Loop: Header=BB24_47 Depth=2
	movl	$0, -24(%rbp)
	movl	-4(%rbp), %eax
	movl	%eax, -60(%rbp)
.LBB24_49:                              # %while.cond200
                                        #   Parent Loop BB24_8 Depth=1
                                        #     Parent Loop BB24_47 Depth=2
                                        # =>    This Inner Loop Header: Depth=3
	movslq	-60(%rbp), %rax
	cmpl	$0, -5280(%rbp,%rax,4)
	jl	.LBB24_51
# %bb.50:                               # %while.body204
                                        #   in Loop: Header=BB24_49 Depth=3
	movslq	-60(%rbp), %rax
	movl	-5280(%rbp,%rax,4), %eax
	movl	%eax, -60(%rbp)
	movl	-24(%rbp), %eax
	addl	$1, %eax
	movl	%eax, -24(%rbp)
	jmp	.LBB24_49
.LBB24_51:                              # %while.end208
                                        #   in Loop: Header=BB24_47 Depth=2
	movl	-24(%rbp), %eax
	movq	-104(%rbp), %rcx
	movl	-4(%rbp), %edx
	subl	$1, %edx
	movslq	%edx, %rdx
	movb	%al, (%rcx,%rdx)
	movl	-24(%rbp), %eax
	cmpl	-84(%rbp), %eax
	jle	.LBB24_53
# %bb.52:                               # %if.then213
                                        #   in Loop: Header=BB24_47 Depth=2
	movb	$1, -9(%rbp)
.LBB24_53:                              # %if.end214
                                        #   in Loop: Header=BB24_47 Depth=2
	jmp	.LBB24_54
.LBB24_54:                              # %for.inc215
                                        #   in Loop: Header=BB24_47 Depth=2
	movl	-4(%rbp), %eax
	addl	$1, %eax
	movl	%eax, -4(%rbp)
	jmp	.LBB24_47
.LBB24_55:                              # %for.end217
                                        #   in Loop: Header=BB24_8 Depth=1
	cmpb	$0, -9(%rbp)
	jne	.LBB24_57
# %bb.56:                               # %if.then218
	jmp	.LBB24_62
.LBB24_57:                              # %if.end219
                                        #   in Loop: Header=BB24_8 Depth=1
	movl	$1, -4(%rbp)
.LBB24_58:                              # %for.cond220
                                        #   Parent Loop BB24_8 Depth=1
                                        # =>  This Inner Loop Header: Depth=2
	movl	-4(%rbp), %eax
	cmpl	-48(%rbp), %eax
	jg	.LBB24_61
# %bb.59:                               # %for.body223
                                        #   in Loop: Header=BB24_58 Depth=2
	movslq	-4(%rbp), %rax
	movl	-3216(%rbp,%rax,4), %eax
	sarl	$8, %eax
	movl	%eax, -24(%rbp)
	movl	-24(%rbp), %eax
	cltd
	movl	$2, %ecx
	idivl	%ecx
	addl	$1, %eax
	movl	%eax, -24(%rbp)
	movl	-24(%rbp), %eax
	shll	$8, %eax
	movslq	-4(%rbp), %rcx
	movl	%eax, -3216(%rbp,%rcx,4)
# %bb.60:                               # %for.inc231
                                        #   in Loop: Header=BB24_58 Depth=2
	movl	-4(%rbp), %eax
	addl	$1, %eax
	movl	%eax, -4(%rbp)
	jmp	.LBB24_58
.LBB24_61:                              # %for.end233
                                        #   in Loop: Header=BB24_8 Depth=1
	jmp	.LBB24_8
.LBB24_62:                              # %while.end234
	cmpl	$1427439926, -80(%rbp)  # imm = 0x55150136
	jne	.LBB24_64
.LBB24_63:
	addq	$5280, %rsp             # imm = 0x14A0
	popq	%rbp
	.cfi_def_cfa %rsp, 8
	retq
.LBB24_64:                              # %func_exit
	.cfi_def_cfa %rbp, 16
	callq	detect_breach
	jmp	.LBB24_63
.Lfunc_end24:
	.size	BZ2_hbMakeCodeLengths.22, .Lfunc_end24-BZ2_hbMakeCodeLengths.22
	.cfi_endproc
                                        # -- End function
	.globl	BZ2_hbMakeCodeLengths.23 # -- Begin function BZ2_hbMakeCodeLengths.23
	.p2align	4, 0x90
	.type	BZ2_hbMakeCodeLengths.23,@function
BZ2_hbMakeCodeLengths.23:               # @BZ2_hbMakeCodeLengths.23
	.cfi_startproc
# %bb.0:                                # %entry
	pushq	%rbp
	.cfi_def_cfa_offset 16
	.cfi_offset %rbp, -16
	movq	%rsp, %rbp
	.cfi_def_cfa_register %rbp
	subq	$5280, %rsp             # imm = 0x14A0
	movl	$681854930, -80(%rbp)   # imm = 0x28A447D2
	movq	%rdi, -104(%rbp)
	movq	%rsi, -96(%rbp)
	movl	%edx, -48(%rbp)
	movl	%ecx, -84(%rbp)
	movl	$0, -4(%rbp)
.LBB25_1:                               # %for.cond
                                        # =>This Inner Loop Header: Depth=1
	movl	-4(%rbp), %eax
	cmpl	-48(%rbp), %eax
	jge	.LBB25_7
# %bb.2:                                # %for.body
                                        #   in Loop: Header=BB25_1 Depth=1
	movq	-96(%rbp), %rax
	movslq	-4(%rbp), %rcx
	cmpl	$0, (%rax,%rcx,4)
	jne	.LBB25_4
# %bb.3:                                # %cond.true
                                        #   in Loop: Header=BB25_1 Depth=1
	movl	$1, %eax
	jmp	.LBB25_5
.LBB25_4:                               # %cond.false
                                        #   in Loop: Header=BB25_1 Depth=1
	movq	-96(%rbp), %rax
	movslq	-4(%rbp), %rcx
	movl	(%rax,%rcx,4), %eax
.LBB25_5:                               # %cond.end
                                        #   in Loop: Header=BB25_1 Depth=1
	shll	$8, %eax
	movl	-4(%rbp), %ecx
	addl	$1, %ecx
	movslq	%ecx, %rcx
	movl	%eax, -3216(%rbp,%rcx,4)
# %bb.6:                                # %for.inc
                                        #   in Loop: Header=BB25_1 Depth=1
	movl	-4(%rbp), %eax
	addl	$1, %eax
	movl	%eax, -4(%rbp)
	jmp	.LBB25_1
.LBB25_7:                               # %for.end
	jmp	.LBB25_8
.LBB25_8:                               # %while.body
                                        # =>This Loop Header: Depth=1
                                        #     Child Loop BB25_9 Depth 2
                                        #       Child Loop BB25_11 Depth 3
                                        #     Child Loop BB25_18 Depth 2
                                        #       Child Loop BB25_20 Depth 3
                                        #       Child Loop BB25_29 Depth 3
                                        #       Child Loop BB25_41 Depth 3
                                        #     Child Loop BB25_47 Depth 2
                                        #       Child Loop BB25_49 Depth 3
                                        #     Child Loop BB25_58 Depth 2
	movl	-48(%rbp), %eax
	movl	%eax, -36(%rbp)
	movl	$0, -8(%rbp)
	movl	$0, -1152(%rbp)
	movl	$0, -3216(%rbp)
	movl	$-2, -5280(%rbp)
	movl	$1, -4(%rbp)
.LBB25_9:                               # %for.cond9
                                        #   Parent Loop BB25_8 Depth=1
                                        # =>  This Loop Header: Depth=2
                                        #       Child Loop BB25_11 Depth 3
	movl	-4(%rbp), %eax
	cmpl	-48(%rbp), %eax
	jg	.LBB25_15
# %bb.10:                               # %for.body11
                                        #   in Loop: Header=BB25_9 Depth=2
	movslq	-4(%rbp), %rax
	movl	$-1, -5280(%rbp,%rax,4)
	movl	-8(%rbp), %eax
	addl	$1, %eax
	movl	%eax, -8(%rbp)
	movl	-4(%rbp), %eax
	movslq	-8(%rbp), %rcx
	movl	%eax, -1152(%rbp,%rcx,4)
	movl	-8(%rbp), %eax
	movl	%eax, -28(%rbp)
	movslq	-28(%rbp), %rax
	movl	-1152(%rbp,%rax,4), %eax
	movl	%eax, -76(%rbp)
.LBB25_11:                              # %while.cond19
                                        #   Parent Loop BB25_8 Depth=1
                                        #     Parent Loop BB25_9 Depth=2
                                        # =>    This Inner Loop Header: Depth=3
	movslq	-76(%rbp), %rax
	movl	-3216(%rbp,%rax,4), %eax
	movl	-28(%rbp), %ecx
	sarl	$1, %ecx
	movslq	%ecx, %rcx
	movslq	-1152(%rbp,%rcx,4), %rcx
	cmpl	-3216(%rbp,%rcx,4), %eax
	jge	.LBB25_13
# %bb.12:                               # %while.body27
                                        #   in Loop: Header=BB25_11 Depth=3
	movl	-28(%rbp), %eax
	sarl	$1, %eax
	cltq
	movl	-1152(%rbp,%rax,4), %eax
	movslq	-28(%rbp), %rcx
	movl	%eax, -1152(%rbp,%rcx,4)
	movl	-28(%rbp), %eax
	sarl	$1, %eax
	movl	%eax, -28(%rbp)
	jmp	.LBB25_11
.LBB25_13:                              # %while.end
                                        #   in Loop: Header=BB25_9 Depth=2
	movl	-76(%rbp), %eax
	movslq	-28(%rbp), %rcx
	movl	%eax, -1152(%rbp,%rcx,4)
# %bb.14:                               # %for.inc36
                                        #   in Loop: Header=BB25_9 Depth=2
	movl	-4(%rbp), %eax
	addl	$1, %eax
	movl	%eax, -4(%rbp)
	jmp	.LBB25_9
.LBB25_15:                              # %for.end38
                                        #   in Loop: Header=BB25_8 Depth=1
	cmpl	$260, -8(%rbp)          # imm = 0x104
	jl	.LBB25_17
# %bb.16:                               # %if.then
                                        #   in Loop: Header=BB25_8 Depth=1
	movl	$2001, %edi             # imm = 0x7D1
	callq	BZ2_bz__AssertH__fail
.LBB25_17:                              # %if.end
                                        #   in Loop: Header=BB25_8 Depth=1
	jmp	.LBB25_18
.LBB25_18:                              # %while.cond40
                                        #   Parent Loop BB25_8 Depth=1
                                        # =>  This Loop Header: Depth=2
                                        #       Child Loop BB25_20 Depth 3
                                        #       Child Loop BB25_29 Depth 3
                                        #       Child Loop BB25_41 Depth 3
	cmpl	$1, -8(%rbp)
	jle	.LBB25_44
# %bb.19:                               # %while.body42
                                        #   in Loop: Header=BB25_18 Depth=2
	movl	-1148(%rbp), %eax
	movl	%eax, -52(%rbp)
	movslq	-8(%rbp), %rax
	movl	-1152(%rbp,%rax,4), %eax
	movl	%eax, -1148(%rbp)
	movl	-8(%rbp), %eax
	addl	$-1, %eax
	movl	%eax, -8(%rbp)
	movl	$1, -40(%rbp)
	movslq	-40(%rbp), %rax
	movl	-1152(%rbp,%rax,4), %eax
	movl	%eax, -72(%rbp)
.LBB25_20:                              # %while.body52
                                        #   Parent Loop BB25_8 Depth=1
                                        #     Parent Loop BB25_18 Depth=2
                                        # =>    This Inner Loop Header: Depth=3
	movl	-40(%rbp), %eax
	shll	$1, %eax
	movl	%eax, -20(%rbp)
	movl	-20(%rbp), %eax
	cmpl	-8(%rbp), %eax
	jle	.LBB25_22
# %bb.21:                               # %if.then55
                                        #   in Loop: Header=BB25_18 Depth=2
	jmp	.LBB25_28
.LBB25_22:                              # %if.end56
                                        #   in Loop: Header=BB25_20 Depth=3
	movl	-20(%rbp), %eax
	cmpl	-8(%rbp), %eax
	jge	.LBB25_25
# %bb.23:                               # %land.lhs.true
                                        #   in Loop: Header=BB25_20 Depth=3
	movl	-20(%rbp), %eax
	addl	$1, %eax
	cltq
	movslq	-1152(%rbp,%rax,4), %rax
	movl	-3216(%rbp,%rax,4), %eax
	movslq	-20(%rbp), %rcx
	movslq	-1152(%rbp,%rcx,4), %rcx
	cmpl	-3216(%rbp,%rcx,4), %eax
	jge	.LBB25_25
# %bb.24:                               # %if.then68
                                        #   in Loop: Header=BB25_20 Depth=3
	movl	-20(%rbp), %eax
	addl	$1, %eax
	movl	%eax, -20(%rbp)
.LBB25_25:                              # %if.end70
                                        #   in Loop: Header=BB25_20 Depth=3
	movslq	-72(%rbp), %rax
	movl	-3216(%rbp,%rax,4), %eax
	movslq	-20(%rbp), %rcx
	movslq	-1152(%rbp,%rcx,4), %rcx
	cmpl	-3216(%rbp,%rcx,4), %eax
	jge	.LBB25_27
# %bb.26:                               # %if.then78
                                        #   in Loop: Header=BB25_18 Depth=2
	jmp	.LBB25_28
.LBB25_27:                              # %if.end79
                                        #   in Loop: Header=BB25_20 Depth=3
	movslq	-20(%rbp), %rax
	movl	-1152(%rbp,%rax,4), %eax
	movslq	-40(%rbp), %rcx
	movl	%eax, -1152(%rbp,%rcx,4)
	movl	-20(%rbp), %eax
	movl	%eax, -40(%rbp)
	jmp	.LBB25_20
.LBB25_28:                              # %while.end84
                                        #   in Loop: Header=BB25_18 Depth=2
	movl	-72(%rbp), %eax
	movslq	-40(%rbp), %rcx
	movl	%eax, -1152(%rbp,%rcx,4)
	movl	-1148(%rbp), %eax
	movl	%eax, -56(%rbp)
	movslq	-8(%rbp), %rax
	movl	-1152(%rbp,%rax,4), %eax
	movl	%eax, -1148(%rbp)
	movl	-8(%rbp), %eax
	addl	$-1, %eax
	movl	%eax, -8(%rbp)
	movl	$1, -44(%rbp)
	movslq	-44(%rbp), %rax
	movl	-1152(%rbp,%rax,4), %eax
	movl	%eax, -64(%rbp)
.LBB25_29:                              # %while.body98
                                        #   Parent Loop BB25_8 Depth=1
                                        #     Parent Loop BB25_18 Depth=2
                                        # =>    This Inner Loop Header: Depth=3
	movl	-44(%rbp), %eax
	shll	$1, %eax
	movl	%eax, -16(%rbp)
	movl	-16(%rbp), %eax
	cmpl	-8(%rbp), %eax
	jle	.LBB25_31
# %bb.30:                               # %if.then101
                                        #   in Loop: Header=BB25_18 Depth=2
	jmp	.LBB25_37
.LBB25_31:                              # %if.end102
                                        #   in Loop: Header=BB25_29 Depth=3
	movl	-16(%rbp), %eax
	cmpl	-8(%rbp), %eax
	jge	.LBB25_34
# %bb.32:                               # %land.lhs.true104
                                        #   in Loop: Header=BB25_29 Depth=3
	movl	-16(%rbp), %eax
	addl	$1, %eax
	cltq
	movslq	-1152(%rbp,%rax,4), %rax
	movl	-3216(%rbp,%rax,4), %eax
	movslq	-16(%rbp), %rcx
	movslq	-1152(%rbp,%rcx,4), %rcx
	cmpl	-3216(%rbp,%rcx,4), %eax
	jge	.LBB25_34
# %bb.33:                               # %if.then115
                                        #   in Loop: Header=BB25_29 Depth=3
	movl	-16(%rbp), %eax
	addl	$1, %eax
	movl	%eax, -16(%rbp)
.LBB25_34:                              # %if.end117
                                        #   in Loop: Header=BB25_29 Depth=3
	movslq	-64(%rbp), %rax
	movl	-3216(%rbp,%rax,4), %eax
	movslq	-16(%rbp), %rcx
	movslq	-1152(%rbp,%rcx,4), %rcx
	cmpl	-3216(%rbp,%rcx,4), %eax
	jge	.LBB25_36
# %bb.35:                               # %if.then125
                                        #   in Loop: Header=BB25_18 Depth=2
	jmp	.LBB25_37
.LBB25_36:                              # %if.end126
                                        #   in Loop: Header=BB25_29 Depth=3
	movslq	-16(%rbp), %rax
	movl	-1152(%rbp,%rax,4), %eax
	movslq	-44(%rbp), %rcx
	movl	%eax, -1152(%rbp,%rcx,4)
	movl	-16(%rbp), %eax
	movl	%eax, -44(%rbp)
	jmp	.LBB25_29
.LBB25_37:                              # %while.end131
                                        #   in Loop: Header=BB25_18 Depth=2
	movl	-64(%rbp), %eax
	movslq	-44(%rbp), %rcx
	movl	%eax, -1152(%rbp,%rcx,4)
	movl	-36(%rbp), %eax
	addl	$1, %eax
	movl	%eax, -36(%rbp)
	movl	-36(%rbp), %eax
	movslq	-56(%rbp), %rcx
	movl	%eax, -5280(%rbp,%rcx,4)
	movslq	-52(%rbp), %rcx
	movl	%eax, -5280(%rbp,%rcx,4)
	movslq	-52(%rbp), %rax
	movl	-3216(%rbp,%rax,4), %eax
	andl	$-256, %eax
	movslq	-56(%rbp), %rcx
	movl	-3216(%rbp,%rcx,4), %ecx
	andl	$-256, %ecx
	addl	%ecx, %eax
	movslq	-52(%rbp), %rcx
	movl	-3216(%rbp,%rcx,4), %ecx
	andl	$255, %ecx
	movslq	-56(%rbp), %rdx
	movl	-3216(%rbp,%rdx,4), %edx
	andl	$255, %edx
	cmpl	%edx, %ecx
	jle	.LBB25_39
# %bb.38:                               # %cond.true152
                                        #   in Loop: Header=BB25_18 Depth=2
	movslq	-52(%rbp), %rcx
	movl	-3216(%rbp,%rcx,4), %ecx
	andl	$255, %ecx
	jmp	.LBB25_40
.LBB25_39:                              # %cond.false156
                                        #   in Loop: Header=BB25_18 Depth=2
	movslq	-56(%rbp), %rcx
	movl	-3216(%rbp,%rcx,4), %ecx
	andl	$255, %ecx
.LBB25_40:                              # %cond.end160
                                        #   in Loop: Header=BB25_18 Depth=2
	addl	$1, %ecx
	orl	%ecx, %eax
	movslq	-36(%rbp), %rcx
	movl	%eax, -3216(%rbp,%rcx,4)
	movslq	-36(%rbp), %rax
	movl	$-1, -5280(%rbp,%rax,4)
	movl	-8(%rbp), %eax
	addl	$1, %eax
	movl	%eax, -8(%rbp)
	movl	-36(%rbp), %eax
	movslq	-8(%rbp), %rcx
	movl	%eax, -1152(%rbp,%rcx,4)
	movl	-8(%rbp), %eax
	movl	%eax, -32(%rbp)
	movslq	-32(%rbp), %rax
	movl	-1152(%rbp,%rax,4), %eax
	movl	%eax, -68(%rbp)
.LBB25_41:                              # %while.cond174
                                        #   Parent Loop BB25_8 Depth=1
                                        #     Parent Loop BB25_18 Depth=2
                                        # =>    This Inner Loop Header: Depth=3
	movslq	-68(%rbp), %rax
	movl	-3216(%rbp,%rax,4), %eax
	movl	-32(%rbp), %ecx
	sarl	$1, %ecx
	movslq	%ecx, %rcx
	movslq	-1152(%rbp,%rcx,4), %rcx
	cmpl	-3216(%rbp,%rcx,4), %eax
	jge	.LBB25_43
# %bb.42:                               # %while.body183
                                        #   in Loop: Header=BB25_41 Depth=3
	movl	-32(%rbp), %eax
	sarl	$1, %eax
	cltq
	movl	-1152(%rbp,%rax,4), %eax
	movslq	-32(%rbp), %rcx
	movl	%eax, -1152(%rbp,%rcx,4)
	movl	-32(%rbp), %eax
	sarl	$1, %eax
	movl	%eax, -32(%rbp)
	jmp	.LBB25_41
.LBB25_43:                              # %while.end190
                                        #   in Loop: Header=BB25_18 Depth=2
	movl	-68(%rbp), %eax
	movslq	-32(%rbp), %rcx
	movl	%eax, -1152(%rbp,%rcx,4)
	jmp	.LBB25_18
.LBB25_44:                              # %while.end193
                                        #   in Loop: Header=BB25_8 Depth=1
	cmpl	$516, -36(%rbp)         # imm = 0x204
	jl	.LBB25_46
# %bb.45:                               # %if.then195
                                        #   in Loop: Header=BB25_8 Depth=1
	movl	$2002, %edi             # imm = 0x7D2
	callq	BZ2_bz__AssertH__fail
.LBB25_46:                              # %if.end196
                                        #   in Loop: Header=BB25_8 Depth=1
	movb	$0, -9(%rbp)
	movl	$1, -4(%rbp)
.LBB25_47:                              # %for.cond197
                                        #   Parent Loop BB25_8 Depth=1
                                        # =>  This Loop Header: Depth=2
                                        #       Child Loop BB25_49 Depth 3
	movl	-4(%rbp), %eax
	cmpl	-48(%rbp), %eax
	jg	.LBB25_55
# %bb.48:                               # %for.body199
                                        #   in Loop: Header=BB25_47 Depth=2
	movl	$0, -24(%rbp)
	movl	-4(%rbp), %eax
	movl	%eax, -60(%rbp)
.LBB25_49:                              # %while.cond200
                                        #   Parent Loop BB25_8 Depth=1
                                        #     Parent Loop BB25_47 Depth=2
                                        # =>    This Inner Loop Header: Depth=3
	movslq	-60(%rbp), %rax
	cmpl	$0, -5280(%rbp,%rax,4)
	jl	.LBB25_51
# %bb.50:                               # %while.body204
                                        #   in Loop: Header=BB25_49 Depth=3
	movslq	-60(%rbp), %rax
	movl	-5280(%rbp,%rax,4), %eax
	movl	%eax, -60(%rbp)
	movl	-24(%rbp), %eax
	addl	$1, %eax
	movl	%eax, -24(%rbp)
	jmp	.LBB25_49
.LBB25_51:                              # %while.end208
                                        #   in Loop: Header=BB25_47 Depth=2
	movl	-24(%rbp), %eax
	movq	-104(%rbp), %rcx
	movl	-4(%rbp), %edx
	subl	$1, %edx
	movslq	%edx, %rdx
	movb	%al, (%rcx,%rdx)
	movl	-24(%rbp), %eax
	cmpl	-84(%rbp), %eax
	jle	.LBB25_53
# %bb.52:                               # %if.then213
                                        #   in Loop: Header=BB25_47 Depth=2
	movb	$1, -9(%rbp)
.LBB25_53:                              # %if.end214
                                        #   in Loop: Header=BB25_47 Depth=2
	jmp	.LBB25_54
.LBB25_54:                              # %for.inc215
                                        #   in Loop: Header=BB25_47 Depth=2
	movl	-4(%rbp), %eax
	addl	$1, %eax
	movl	%eax, -4(%rbp)
	jmp	.LBB25_47
.LBB25_55:                              # %for.end217
                                        #   in Loop: Header=BB25_8 Depth=1
	cmpb	$0, -9(%rbp)
	jne	.LBB25_57
# %bb.56:                               # %if.then218
	jmp	.LBB25_62
.LBB25_57:                              # %if.end219
                                        #   in Loop: Header=BB25_8 Depth=1
	movl	$1, -4(%rbp)
.LBB25_58:                              # %for.cond220
                                        #   Parent Loop BB25_8 Depth=1
                                        # =>  This Inner Loop Header: Depth=2
	movl	-4(%rbp), %eax
	cmpl	-48(%rbp), %eax
	jg	.LBB25_61
# %bb.59:                               # %for.body223
                                        #   in Loop: Header=BB25_58 Depth=2
	movslq	-4(%rbp), %rax
	movl	-3216(%rbp,%rax,4), %eax
	sarl	$8, %eax
	movl	%eax, -24(%rbp)
	movl	-24(%rbp), %eax
	cltd
	movl	$2, %ecx
	idivl	%ecx
	addl	$1, %eax
	movl	%eax, -24(%rbp)
	movl	-24(%rbp), %eax
	shll	$8, %eax
	movslq	-4(%rbp), %rcx
	movl	%eax, -3216(%rbp,%rcx,4)
# %bb.60:                               # %for.inc231
                                        #   in Loop: Header=BB25_58 Depth=2
	movl	-4(%rbp), %eax
	addl	$1, %eax
	movl	%eax, -4(%rbp)
	jmp	.LBB25_58
.LBB25_61:                              # %for.end233
                                        #   in Loop: Header=BB25_8 Depth=1
	jmp	.LBB25_8
