	.text
	.file	"huffman.c"
	.globl	BZ2_hbMakeCodeLengths   # -- Begin function BZ2_hbMakeCodeLengths
	.p2align	4, 0x90
	.type	BZ2_hbMakeCodeLengths,@function
BZ2_hbMakeCodeLengths:                  # @BZ2_hbMakeCodeLengths
	.cfi_startproc
# %bb.0:                                # %rand_bb
	pushq	%rbp
	.cfi_def_cfa_offset 16
	.cfi_offset %rbp, -16
	movq	%rsp, %rbp
	.cfi_def_cfa_register %rbp
	pushq	%r15
	pushq	%r14
	pushq	%r12
	pushq	%rbx
	.cfi_offset %rbx, -48
	.cfi_offset %r12, -40
	.cfi_offset %r14, -32
	.cfi_offset %r15, -24
	movl	%ecx, %r14d
	movl	%edx, %r15d
	movq	%rsi, %r12
	movq	%rdi, %rbx
	callq	get_urand
	cmpl	$0, %eax
	jne	.LBB0_9
# %bb.1:                                # %func_BZ2_hbMakeCodeLengths.2
	movq	%rbx, %rdi
	movq	%r12, %rsi
	movl	%r15d, %edx
	movl	%r14d, %ecx
	callq	BZ2_hbMakeCodeLengths.2
	popq	%rbx
	popq	%r12
	popq	%r14
	popq	%r15
	popq	%rbp
	.cfi_def_cfa %rsp, 8
	retq
.LBB0_2:                                # %func_BZ2_hbMakeCodeLengths.4
	.cfi_def_cfa %rbp, 16
	movq	%rbx, %rdi
	movq	%r12, %rsi
	movl	%r15d, %edx
	movl	%r14d, %ecx
	callq	BZ2_hbMakeCodeLengths.4
	popq	%rbx
	popq	%r12
	popq	%r14
	popq	%r15
	popq	%rbp
	.cfi_def_cfa %rsp, 8
	retq
.LBB0_3:                                # %func_BZ2_hbMakeCodeLengths.5
	.cfi_def_cfa %rbp, 16
	movq	%rbx, %rdi
	movq	%r12, %rsi
	movl	%r15d, %edx
	movl	%r14d, %ecx
	callq	BZ2_hbMakeCodeLengths.5
	popq	%rbx
	popq	%r12
	popq	%r14
	popq	%r15
	popq	%rbp
	.cfi_def_cfa %rsp, 8
	retq
.LBB0_4:                                # %func_BZ2_hbMakeCodeLengths.9
	.cfi_def_cfa %rbp, 16
	movq	%rbx, %rdi
	movq	%r12, %rsi
	movl	%r15d, %edx
	movl	%r14d, %ecx
	callq	BZ2_hbMakeCodeLengths.9
	popq	%rbx
	popq	%r12
	popq	%r14
	popq	%r15
	popq	%rbp
	.cfi_def_cfa %rsp, 8
	retq
.LBB0_5:                                # %func_BZ2_hbMakeCodeLengths.13
	.cfi_def_cfa %rbp, 16
	movq	%rbx, %rdi
	movq	%r12, %rsi
	movl	%r15d, %edx
	movl	%r14d, %ecx
	callq	BZ2_hbMakeCodeLengths.13
	popq	%rbx
	popq	%r12
	popq	%r14
	popq	%r15
	popq	%rbp
	.cfi_def_cfa %rsp, 8
	retq
.LBB0_6:                                # %func_BZ2_hbMakeCodeLengths.15
	.cfi_def_cfa %rbp, 16
	movq	%rbx, %rdi
	movq	%r12, %rsi
	movl	%r15d, %edx
	movl	%r14d, %ecx
	callq	BZ2_hbMakeCodeLengths.15
	popq	%rbx
	popq	%r12
	popq	%r14
	popq	%r15
	popq	%rbp
	.cfi_def_cfa %rsp, 8
	retq
.LBB0_7:                                # %func_BZ2_hbMakeCodeLengths.17
	.cfi_def_cfa %rbp, 16
	movq	%rbx, %rdi
	movq	%r12, %rsi
	movl	%r15d, %edx
	movl	%r14d, %ecx
	callq	BZ2_hbMakeCodeLengths.17
	popq	%rbx
	popq	%r12
	popq	%r14
	popq	%r15
	popq	%rbp
	.cfi_def_cfa %rsp, 8
	retq
.LBB0_8:                                # %func_BZ2_hbMakeCodeLengths.18
	.cfi_def_cfa %rbp, 16
	movq	%rbx, %rdi
	movq	%r12, %rsi
	movl	%r15d, %edx
	movl	%r14d, %ecx
	callq	BZ2_hbMakeCodeLengths.18
	popq	%rbx
	popq	%r12
	popq	%r14
	popq	%r15
	popq	%rbp
	.cfi_def_cfa %rsp, 8
	retq
.LBB0_9:                                # %ctrl0
	.cfi_def_cfa %rbp, 16
	cmpl	$1, %eax
	je	.LBB0_2
# %bb.10:                               # %ctrl1
	cmpl	$2, %eax
	je	.LBB0_3
# %bb.11:                               # %ctrl2
	cmpl	$3, %eax
	je	.LBB0_4
# %bb.12:                               # %ctrl3
	cmpl	$4, %eax
	je	.LBB0_5
# %bb.13:                               # %ctrl4
	cmpl	$5, %eax
	je	.LBB0_6
# %bb.14:                               # %ctrl5
	cmpl	$6, %eax
	je	.LBB0_7
	jmp	.LBB0_8
.Lfunc_end0:
	.size	BZ2_hbMakeCodeLengths, .Lfunc_end0-BZ2_hbMakeCodeLengths
	.cfi_endproc
                                        # -- End function
	.globl	BZ2_hbAssignCodes       # -- Begin function BZ2_hbAssignCodes
	.p2align	4, 0x90
	.type	BZ2_hbAssignCodes,@function
BZ2_hbAssignCodes:                      # @BZ2_hbAssignCodes
	.cfi_startproc
# %bb.0:                                # %rand_bb
	pushq	%rbp
	.cfi_def_cfa_offset 16
	.cfi_offset %rbp, -16
	movq	%rsp, %rbp
	.cfi_def_cfa_register %rbp
	pushq	%r15
	pushq	%r14
	pushq	%r13
	pushq	%r12
	pushq	%rbx
	pushq	%rax
	.cfi_offset %rbx, -56
	.cfi_offset %r12, -48
	.cfi_offset %r13, -40
	.cfi_offset %r14, -32
	.cfi_offset %r15, -24
	movl	%r8d, %r14d
	movl	%ecx, %r15d
	movl	%edx, %r12d
	movq	%rsi, %r13
	movq	%rdi, %rbx
	callq	get_urand
	cmpl	$0, %eax
	jne	.LBB1_9
# %bb.1:                                # %func_BZ2_hbAssignCodes.1
	movq	%rbx, %rdi
	movq	%r13, %rsi
	movl	%r12d, %edx
	movl	%r15d, %ecx
	movl	%r14d, %r8d
	callq	BZ2_hbAssignCodes.1
	addq	$8, %rsp
	popq	%rbx
	popq	%r12
	popq	%r13
	popq	%r14
	popq	%r15
	popq	%rbp
	.cfi_def_cfa %rsp, 8
	retq
.LBB1_2:                                # %func_BZ2_hbAssignCodes.3
	.cfi_def_cfa %rbp, 16
	movq	%rbx, %rdi
	movq	%r13, %rsi
	movl	%r12d, %edx
	movl	%r15d, %ecx
	movl	%r14d, %r8d
	callq	BZ2_hbAssignCodes.3
	addq	$8, %rsp
	popq	%rbx
	popq	%r12
	popq	%r13
	popq	%r14
	popq	%r15
	popq	%rbp
	.cfi_def_cfa %rsp, 8
	retq
.LBB1_3:                                # %func_BZ2_hbAssignCodes.6
	.cfi_def_cfa %rbp, 16
	movq	%rbx, %rdi
	movq	%r13, %rsi
	movl	%r12d, %edx
	movl	%r15d, %ecx
	movl	%r14d, %r8d
	callq	BZ2_hbAssignCodes.6
	addq	$8, %rsp
	popq	%rbx
	popq	%r12
	popq	%r13
	popq	%r14
	popq	%r15
	popq	%rbp
	.cfi_def_cfa %rsp, 8
	retq
.LBB1_4:                                # %func_BZ2_hbAssignCodes.10
	.cfi_def_cfa %rbp, 16
	movq	%rbx, %rdi
	movq	%r13, %rsi
	movl	%r12d, %edx
	movl	%r15d, %ecx
	movl	%r14d, %r8d
	callq	BZ2_hbAssignCodes.10
	addq	$8, %rsp
	popq	%rbx
	popq	%r12
	popq	%r13
	popq	%r14
	popq	%r15
	popq	%rbp
	.cfi_def_cfa %rsp, 8
	retq
.LBB1_5:                                # %func_BZ2_hbAssignCodes.11
	.cfi_def_cfa %rbp, 16
	movq	%rbx, %rdi
	movq	%r13, %rsi
	movl	%r12d, %edx
	movl	%r15d, %ecx
	movl	%r14d, %r8d
	callq	BZ2_hbAssignCodes.11
	addq	$8, %rsp
	popq	%rbx
	popq	%r12
	popq	%r13
	popq	%r14
	popq	%r15
	popq	%rbp
	.cfi_def_cfa %rsp, 8
	retq
.LBB1_6:                                # %func_BZ2_hbAssignCodes.14
	.cfi_def_cfa %rbp, 16
	movq	%rbx, %rdi
	movq	%r13, %rsi
	movl	%r12d, %edx
	movl	%r15d, %ecx
	movl	%r14d, %r8d
	callq	BZ2_hbAssignCodes.14
	addq	$8, %rsp
	popq	%rbx
	popq	%r12
	popq	%r13
	popq	%r14
	popq	%r15
	popq	%rbp
	.cfi_def_cfa %rsp, 8
	retq
.LBB1_7:                                # %func_BZ2_hbAssignCodes.19
	.cfi_def_cfa %rbp, 16
	movq	%rbx, %rdi
	movq	%r13, %rsi
	movl	%r12d, %edx
	movl	%r15d, %ecx
	movl	%r14d, %r8d
	callq	BZ2_hbAssignCodes.19
	addq	$8, %rsp
	popq	%rbx
	popq	%r12
	popq	%r13
	popq	%r14
	popq	%r15
	popq	%rbp
	.cfi_def_cfa %rsp, 8
	retq
.LBB1_8:                                # %func_BZ2_hbAssignCodes.20
	.cfi_def_cfa %rbp, 16
	movq	%rbx, %rdi
	movq	%r13, %rsi
	movl	%r12d, %edx
	movl	%r15d, %ecx
	movl	%r14d, %r8d
	callq	BZ2_hbAssignCodes.20
	addq	$8, %rsp
	popq	%rbx
	popq	%r12
	popq	%r13
	popq	%r14
	popq	%r15
	popq	%rbp
	.cfi_def_cfa %rsp, 8
	retq
.LBB1_9:                                # %ctrl0
	.cfi_def_cfa %rbp, 16
	cmpl	$1, %eax
	je	.LBB1_2
# %bb.10:                               # %ctrl1
	cmpl	$2, %eax
	je	.LBB1_3
# %bb.11:                               # %ctrl2
	cmpl	$3, %eax
	je	.LBB1_4
# %bb.12:                               # %ctrl3
	cmpl	$4, %eax
	je	.LBB1_5
# %bb.13:                               # %ctrl4
	cmpl	$5, %eax
	je	.LBB1_6
# %bb.14:                               # %ctrl5
	cmpl	$6, %eax
	je	.LBB1_7
	jmp	.LBB1_8
.Lfunc_end1:
	.size	BZ2_hbAssignCodes, .Lfunc_end1-BZ2_hbAssignCodes
	.cfi_endproc
                                        # -- End function
	.globl	BZ2_hbCreateDecodeTables # -- Begin function BZ2_hbCreateDecodeTables
	.p2align	4, 0x90
	.type	BZ2_hbCreateDecodeTables,@function
BZ2_hbCreateDecodeTables:               # @BZ2_hbCreateDecodeTables
	.cfi_startproc
# %bb.0:                                # %rand_bb
	pushq	%rbp
	.cfi_def_cfa_offset 16
	.cfi_offset %rbp, -16
	movq	%rsp, %rbp
	.cfi_def_cfa_register %rbp
	pushq	%r15
	pushq	%r14
	pushq	%r13
	pushq	%r12
	pushq	%rbx
	subq	$24, %rsp
	.cfi_offset %rbx, -56
	.cfi_offset %r12, -48
	.cfi_offset %r13, -40
	.cfi_offset %r14, -32
	.cfi_offset %r15, -24
	movl	%r9d, -44(%rbp)         # 4-byte Spill
	movl	%r8d, %r13d
	movq	%rcx, %r15
	movq	%rdx, %rbx
	movq	%rsi, %r14
	movq	%rdi, %r12
	callq	get_urand
	cmpl	$0, %eax
	jne	.LBB2_9
# %bb.1:                                # %func_BZ2_hbCreateDecodeTables.7
	movq	%r12, %rdi
	movq	%r14, %rsi
	movq	%rbx, %rdx
	movq	%r15, %rcx
	movl	%r13d, %r8d
	movl	-44(%rbp), %r9d         # 4-byte Reload
	movl	16(%rbp), %eax
	movl	%eax, (%rsp)
	callq	BZ2_hbCreateDecodeTables.7
	addq	$24, %rsp
	popq	%rbx
	popq	%r12
	popq	%r13
	popq	%r14
	popq	%r15
	popq	%rbp
	.cfi_def_cfa %rsp, 8
	retq
.LBB2_2:                                # %func_BZ2_hbCreateDecodeTables.8
	.cfi_def_cfa %rbp, 16
	movq	%r12, %rdi
	movq	%r14, %rsi
	movq	%rbx, %rdx
	movq	%r15, %rcx
	movl	%r13d, %r8d
	movl	%r10d, (%rsp)
	callq	BZ2_hbCreateDecodeTables.8
	addq	$24, %rsp
	popq	%rbx
	popq	%r12
	popq	%r13
	popq	%r14
	popq	%r15
	popq	%rbp
	.cfi_def_cfa %rsp, 8
	retq
.LBB2_3:                                # %func_BZ2_hbCreateDecodeTables.12
	.cfi_def_cfa %rbp, 16
	movq	%r12, %rdi
	movq	%r14, %rsi
	movq	%rbx, %rdx
	movq	%r15, %rcx
	movl	%r13d, %r8d
	movl	%r10d, (%rsp)
	callq	BZ2_hbCreateDecodeTables.12
	addq	$24, %rsp
	popq	%rbx
	popq	%r12
	popq	%r13
	popq	%r14
	popq	%r15
	popq	%rbp
	.cfi_def_cfa %rsp, 8
	retq
.LBB2_4:                                # %func_BZ2_hbCreateDecodeTables.16
	.cfi_def_cfa %rbp, 16
	movq	%r12, %rdi
	movq	%r14, %rsi
	movq	%rbx, %rdx
	movq	%r15, %rcx
	movl	%r13d, %r8d
	movl	%r10d, (%rsp)
	callq	BZ2_hbCreateDecodeTables.16
	addq	$24, %rsp
	popq	%rbx
	popq	%r12
	popq	%r13
	popq	%r14
	popq	%r15
	popq	%rbp
	.cfi_def_cfa %rsp, 8
	retq
.LBB2_5:                                # %func_BZ2_hbCreateDecodeTables.21
	.cfi_def_cfa %rbp, 16
	movq	%r12, %rdi
	movq	%r14, %rsi
	movq	%rbx, %rdx
	movq	%r15, %rcx
	movl	%r13d, %r8d
	movl	%r10d, (%rsp)
	callq	BZ2_hbCreateDecodeTables.21
	addq	$24, %rsp
	popq	%rbx
	popq	%r12
	popq	%r13
	popq	%r14
	popq	%r15
	popq	%rbp
	.cfi_def_cfa %rsp, 8
	retq
.LBB2_6:                                # %func_BZ2_hbCreateDecodeTables.22
	.cfi_def_cfa %rbp, 16
	movq	%r12, %rdi
	movq	%r14, %rsi
	movq	%rbx, %rdx
	movq	%r15, %rcx
	movl	%r13d, %r8d
	movl	%r10d, (%rsp)
	callq	BZ2_hbCreateDecodeTables.22
	addq	$24, %rsp
	popq	%rbx
	popq	%r12
	popq	%r13
	popq	%r14
	popq	%r15
	popq	%rbp
	.cfi_def_cfa %rsp, 8
	retq
.LBB2_7:                                # %func_BZ2_hbCreateDecodeTables.23
	.cfi_def_cfa %rbp, 16
	movl	%r10d, (%rsp)
	callq	BZ2_hbCreateDecodeTables.23
	addq	$24, %rsp
	popq	%rbx
	popq	%r12
	popq	%r13
	popq	%r14
	popq	%r15
	popq	%rbp
	.cfi_def_cfa %rsp, 8
	retq
.LBB2_8:                                # %func_BZ2_hbCreateDecodeTables.24
	.cfi_def_cfa %rbp, 16
	movl	%r10d, (%rsp)
	callq	BZ2_hbCreateDecodeTables.24
	addq	$24, %rsp
	popq	%rbx
	popq	%r12
	popq	%r13
	popq	%r14
	popq	%r15
	popq	%rbp
	.cfi_def_cfa %rsp, 8
	retq
.LBB2_9:                                # %ctrl0
	.cfi_def_cfa %rbp, 16
	movl	-44(%rbp), %r9d         # 4-byte Reload
	movl	16(%rbp), %r10d
	cmpl	$1, %eax
	je	.LBB2_2
# %bb.10:                               # %ctrl1
	cmpl	$2, %eax
	je	.LBB2_3
# %bb.11:                               # %ctrl2
	cmpl	$3, %eax
	je	.LBB2_4
# %bb.12:                               # %ctrl3
	cmpl	$4, %eax
	je	.LBB2_5
# %bb.13:                               # %ctrl4
	cmpl	$5, %eax
	je	.LBB2_6
# %bb.14:                               # %ctrl5
	cmpl	$6, %eax
	movl	%r13d, %r8d
	movq	%r15, %rcx
	movq	%rbx, %rdx
	movq	%r14, %rsi
	movq	%r12, %rdi
	je	.LBB2_7
	jmp	.LBB2_8
.Lfunc_end2:
	.size	BZ2_hbCreateDecodeTables, .Lfunc_end2-BZ2_hbCreateDecodeTables
	.cfi_endproc
                                        # -- End function
	.globl	BZ2_hbAssignCodes.1     # -- Begin function BZ2_hbAssignCodes.1
	.p2align	4, 0x90
	.type	BZ2_hbAssignCodes.1,@function
BZ2_hbAssignCodes.1:                    # @BZ2_hbAssignCodes.1
	.cfi_startproc
# %bb.0:                                # %entry
	pushq	%rbp
	.cfi_def_cfa_offset 16
	.cfi_offset %rbp, -16
	movq	%rsp, %rbp
	.cfi_def_cfa_register %rbp
	subq	$48, %rsp
	movl	$311011532, -28(%rbp)   # imm = 0x1289A8CC
	movq	%rdi, -40(%rbp)
	movq	%rsi, -48(%rbp)
	movl	%edx, -20(%rbp)
	movl	%ecx, -24(%rbp)
	movl	%r8d, -16(%rbp)
	movl	$0, -4(%rbp)
	movl	-20(%rbp), %eax
	movl	%eax, -12(%rbp)
.LBB3_1:                                # %for.cond
                                        # =>This Loop Header: Depth=1
                                        #     Child Loop BB3_3 Depth 2
	movl	-12(%rbp), %eax
	cmpl	-24(%rbp), %eax
	jg	.LBB3_10
# %bb.2:                                # %for.body
                                        #   in Loop: Header=BB3_1 Depth=1
	movl	$0, -8(%rbp)
.LBB3_3:                                # %for.cond1
                                        #   Parent Loop BB3_1 Depth=1
                                        # =>  This Inner Loop Header: Depth=2
	movl	-8(%rbp), %eax
	cmpl	-16(%rbp), %eax
	jge	.LBB3_8
# %bb.4:                                # %for.body3
                                        #   in Loop: Header=BB3_3 Depth=2
	movq	-48(%rbp), %rax
	movslq	-8(%rbp), %rcx
	movzbl	(%rax,%rcx), %eax
	cmpl	-12(%rbp), %eax
	jne	.LBB3_6
# %bb.5:                                # %if.then
                                        #   in Loop: Header=BB3_3 Depth=2
	movl	-4(%rbp), %eax
	movq	-40(%rbp), %rcx
	movslq	-8(%rbp), %rdx
	movl	%eax, (%rcx,%rdx,4)
	movl	-4(%rbp), %eax
	addl	$1, %eax
	movl	%eax, -4(%rbp)
.LBB3_6:                                # %if.end
                                        #   in Loop: Header=BB3_3 Depth=2
	jmp	.LBB3_7
.LBB3_7:                                # %for.inc
                                        #   in Loop: Header=BB3_3 Depth=2
	movl	-8(%rbp), %eax
	addl	$1, %eax
	movl	%eax, -8(%rbp)
	jmp	.LBB3_3
.LBB3_8:                                # %for.end
                                        #   in Loop: Header=BB3_1 Depth=1
	movl	-4(%rbp), %eax
	shll	$1, %eax
	movl	%eax, -4(%rbp)
# %bb.9:                                # %for.inc9
                                        #   in Loop: Header=BB3_1 Depth=1
	movl	-12(%rbp), %eax
	addl	$1, %eax
	movl	%eax, -12(%rbp)
	jmp	.LBB3_1
.LBB3_10:                               # %for.end11
	cmpl	$311011532, -28(%rbp)   # imm = 0x1289A8CC
	jne	.LBB3_12
.LBB3_11:
	addq	$48, %rsp
	popq	%rbp
	.cfi_def_cfa %rsp, 8
	retq
.LBB3_12:                               # %func_exit
	.cfi_def_cfa %rbp, 16
	callq	detect_breach
	jmp	.LBB3_11
.Lfunc_end3:
	.size	BZ2_hbAssignCodes.1, .Lfunc_end3-BZ2_hbAssignCodes.1
	.cfi_endproc
                                        # -- End function
	.globl	BZ2_hbMakeCodeLengths.2 # -- Begin function BZ2_hbMakeCodeLengths.2
	.p2align	4, 0x90
	.type	BZ2_hbMakeCodeLengths.2,@function
BZ2_hbMakeCodeLengths.2:                # @BZ2_hbMakeCodeLengths.2
	.cfi_startproc
# %bb.0:                                # %entry
	pushq	%rbp
	.cfi_def_cfa_offset 16
	.cfi_offset %rbp, -16
	movq	%rsp, %rbp
	.cfi_def_cfa_register %rbp
	subq	$5280, %rsp             # imm = 0x14A0
	movl	$851923693, -84(%rbp)   # imm = 0x32C752ED
	movq	%rdi, -104(%rbp)
	movq	%rsi, -96(%rbp)
	movl	%edx, -44(%rbp)
	movl	%ecx, -80(%rbp)
	movl	$0, -4(%rbp)
.LBB4_1:                                # %for.cond
                                        # =>This Inner Loop Header: Depth=1
	movl	-4(%rbp), %eax
	cmpl	-44(%rbp), %eax
	jge	.LBB4_7
# %bb.2:                                # %for.body
                                        #   in Loop: Header=BB4_1 Depth=1
	movq	-96(%rbp), %rax
	movslq	-4(%rbp), %rcx
	cmpl	$0, (%rax,%rcx,4)
	jne	.LBB4_4
# %bb.3:                                # %cond.true
                                        #   in Loop: Header=BB4_1 Depth=1
	movl	$1, %eax
	jmp	.LBB4_5
.LBB4_4:                                # %cond.false
                                        #   in Loop: Header=BB4_1 Depth=1
	movq	-96(%rbp), %rax
	movslq	-4(%rbp), %rcx
	movl	(%rax,%rcx,4), %eax
.LBB4_5:                                # %cond.end
                                        #   in Loop: Header=BB4_1 Depth=1
	shll	$8, %eax
	movl	-4(%rbp), %ecx
	addl	$1, %ecx
	movslq	%ecx, %rcx
	movl	%eax, -3216(%rbp,%rcx,4)
# %bb.6:                                # %for.inc
                                        #   in Loop: Header=BB4_1 Depth=1
	movl	-4(%rbp), %eax
	addl	$1, %eax
	movl	%eax, -4(%rbp)
	jmp	.LBB4_1
.LBB4_7:                                # %for.end
	jmp	.LBB4_8
.LBB4_8:                                # %while.body
                                        # =>This Loop Header: Depth=1
                                        #     Child Loop BB4_9 Depth 2
                                        #       Child Loop BB4_11 Depth 3
                                        #     Child Loop BB4_18 Depth 2
                                        #       Child Loop BB4_20 Depth 3
                                        #       Child Loop BB4_29 Depth 3
                                        #       Child Loop BB4_41 Depth 3
                                        #     Child Loop BB4_47 Depth 2
                                        #       Child Loop BB4_49 Depth 3
                                        #     Child Loop BB4_58 Depth 2
	movl	-44(%rbp), %eax
	movl	%eax, -36(%rbp)
	movl	$0, -8(%rbp)
	movl	$0, -1152(%rbp)
	movl	$0, -3216(%rbp)
	movl	$-2, -5280(%rbp)
	movl	$1, -4(%rbp)
.LBB4_9:                                # %for.cond9
                                        #   Parent Loop BB4_8 Depth=1
                                        # =>  This Loop Header: Depth=2
                                        #       Child Loop BB4_11 Depth 3
	movl	-4(%rbp), %eax
	cmpl	-44(%rbp), %eax
	jg	.LBB4_15
# %bb.10:                               # %for.body11
                                        #   in Loop: Header=BB4_9 Depth=2
	movslq	-4(%rbp), %rax
	movl	$-1, -5280(%rbp,%rax,4)
	movl	-8(%rbp), %eax
	addl	$1, %eax
	movl	%eax, -8(%rbp)
	movl	-4(%rbp), %eax
	movslq	-8(%rbp), %rcx
	movl	%eax, -1152(%rbp,%rcx,4)
	movl	-8(%rbp), %eax
	movl	%eax, -28(%rbp)
	movslq	-28(%rbp), %rax
	movl	-1152(%rbp,%rax,4), %eax
	movl	%eax, -68(%rbp)
.LBB4_11:                               # %while.cond19
                                        #   Parent Loop BB4_8 Depth=1
                                        #     Parent Loop BB4_9 Depth=2
                                        # =>    This Inner Loop Header: Depth=3
	movslq	-68(%rbp), %rax
	movl	-3216(%rbp,%rax,4), %eax
	movl	-28(%rbp), %ecx
	sarl	$1, %ecx
	movslq	%ecx, %rcx
	movslq	-1152(%rbp,%rcx,4), %rcx
	cmpl	-3216(%rbp,%rcx,4), %eax
	jge	.LBB4_13
# %bb.12:                               # %while.body27
                                        #   in Loop: Header=BB4_11 Depth=3
	movl	-28(%rbp), %eax
	sarl	$1, %eax
	cltq
	movl	-1152(%rbp,%rax,4), %eax
	movslq	-28(%rbp), %rcx
	movl	%eax, -1152(%rbp,%rcx,4)
	movl	-28(%rbp), %eax
	sarl	$1, %eax
	movl	%eax, -28(%rbp)
	jmp	.LBB4_11
.LBB4_13:                               # %while.end
                                        #   in Loop: Header=BB4_9 Depth=2
	movl	-68(%rbp), %eax
	movslq	-28(%rbp), %rcx
	movl	%eax, -1152(%rbp,%rcx,4)
# %bb.14:                               # %for.inc36
                                        #   in Loop: Header=BB4_9 Depth=2
	movl	-4(%rbp), %eax
	addl	$1, %eax
	movl	%eax, -4(%rbp)
	jmp	.LBB4_9
.LBB4_15:                               # %for.end38
                                        #   in Loop: Header=BB4_8 Depth=1
	cmpl	$260, -8(%rbp)          # imm = 0x104
	jl	.LBB4_17
# %bb.16:                               # %if.then
                                        #   in Loop: Header=BB4_8 Depth=1
	movl	$2001, %edi             # imm = 0x7D1
	callq	BZ2_bz__AssertH__fail
.LBB4_17:                               # %if.end
                                        #   in Loop: Header=BB4_8 Depth=1
	jmp	.LBB4_18
.LBB4_18:                               # %while.cond40
                                        #   Parent Loop BB4_8 Depth=1
                                        # =>  This Loop Header: Depth=2
                                        #       Child Loop BB4_20 Depth 3
                                        #       Child Loop BB4_29 Depth 3
                                        #       Child Loop BB4_41 Depth 3
	cmpl	$1, -8(%rbp)
	jle	.LBB4_44
# %bb.19:                               # %while.body42
                                        #   in Loop: Header=BB4_18 Depth=2
	movl	-1148(%rbp), %eax
	movl	%eax, -56(%rbp)
	movslq	-8(%rbp), %rax
	movl	-1152(%rbp,%rax,4), %eax
	movl	%eax, -1148(%rbp)
	movl	-8(%rbp), %eax
	addl	$-1, %eax
	movl	%eax, -8(%rbp)
	movl	$1, -48(%rbp)
	movslq	-48(%rbp), %rax
	movl	-1152(%rbp,%rax,4), %eax
	movl	%eax, -72(%rbp)
.LBB4_20:                               # %while.body52
                                        #   Parent Loop BB4_8 Depth=1
                                        #     Parent Loop BB4_18 Depth=2
                                        # =>    This Inner Loop Header: Depth=3
	movl	-48(%rbp), %eax
	shll	$1, %eax
	movl	%eax, -20(%rbp)
	movl	-20(%rbp), %eax
	cmpl	-8(%rbp), %eax
	jle	.LBB4_22
# %bb.21:                               # %if.then55
                                        #   in Loop: Header=BB4_18 Depth=2
	jmp	.LBB4_28
.LBB4_22:                               # %if.end56
                                        #   in Loop: Header=BB4_20 Depth=3
	movl	-20(%rbp), %eax
	cmpl	-8(%rbp), %eax
	jge	.LBB4_25
# %bb.23:                               # %land.lhs.true
                                        #   in Loop: Header=BB4_20 Depth=3
	movl	-20(%rbp), %eax
	addl	$1, %eax
	cltq
	movslq	-1152(%rbp,%rax,4), %rax
	movl	-3216(%rbp,%rax,4), %eax
	movslq	-20(%rbp), %rcx
	movslq	-1152(%rbp,%rcx,4), %rcx
	cmpl	-3216(%rbp,%rcx,4), %eax
	jge	.LBB4_25
# %bb.24:                               # %if.then68
                                        #   in Loop: Header=BB4_20 Depth=3
	movl	-20(%rbp), %eax
	addl	$1, %eax
	movl	%eax, -20(%rbp)
.LBB4_25:                               # %if.end70
                                        #   in Loop: Header=BB4_20 Depth=3
	movslq	-72(%rbp), %rax
	movl	-3216(%rbp,%rax,4), %eax
	movslq	-20(%rbp), %rcx
	movslq	-1152(%rbp,%rcx,4), %rcx
	cmpl	-3216(%rbp,%rcx,4), %eax
	jge	.LBB4_27
# %bb.26:                               # %if.then78
                                        #   in Loop: Header=BB4_18 Depth=2
	jmp	.LBB4_28
.LBB4_27:                               # %if.end79
                                        #   in Loop: Header=BB4_20 Depth=3
	movslq	-20(%rbp), %rax
	movl	-1152(%rbp,%rax,4), %eax
	movslq	-48(%rbp), %rcx
	movl	%eax, -1152(%rbp,%rcx,4)
	movl	-20(%rbp), %eax
	movl	%eax, -48(%rbp)
	jmp	.LBB4_20
.LBB4_28:                               # %while.end84
                                        #   in Loop: Header=BB4_18 Depth=2
	movl	-72(%rbp), %eax
	movslq	-48(%rbp), %rcx
	movl	%eax, -1152(%rbp,%rcx,4)
	movl	-1148(%rbp), %eax
	movl	%eax, -52(%rbp)
	movslq	-8(%rbp), %rax
	movl	-1152(%rbp,%rax,4), %eax
	movl	%eax, -1148(%rbp)
	movl	-8(%rbp), %eax
	addl	$-1, %eax
	movl	%eax, -8(%rbp)
	movl	$1, -40(%rbp)
	movslq	-40(%rbp), %rax
	movl	-1152(%rbp,%rax,4), %eax
	movl	%eax, -64(%rbp)
.LBB4_29:                               # %while.body98
                                        #   Parent Loop BB4_8 Depth=1
                                        #     Parent Loop BB4_18 Depth=2
                                        # =>    This Inner Loop Header: Depth=3
	movl	-40(%rbp), %eax
	shll	$1, %eax
	movl	%eax, -16(%rbp)
	movl	-16(%rbp), %eax
	cmpl	-8(%rbp), %eax
	jle	.LBB4_31
# %bb.30:                               # %if.then101
                                        #   in Loop: Header=BB4_18 Depth=2
	jmp	.LBB4_37
.LBB4_31:                               # %if.end102
                                        #   in Loop: Header=BB4_29 Depth=3
	movl	-16(%rbp), %eax
	cmpl	-8(%rbp), %eax
	jge	.LBB4_34
# %bb.32:                               # %land.lhs.true104
                                        #   in Loop: Header=BB4_29 Depth=3
	movl	-16(%rbp), %eax
	addl	$1, %eax
	cltq
	movslq	-1152(%rbp,%rax,4), %rax
	movl	-3216(%rbp,%rax,4), %eax
	movslq	-16(%rbp), %rcx
	movslq	-1152(%rbp,%rcx,4), %rcx
	cmpl	-3216(%rbp,%rcx,4), %eax
	jge	.LBB4_34
# %bb.33:                               # %if.then115
                                        #   in Loop: Header=BB4_29 Depth=3
	movl	-16(%rbp), %eax
	addl	$1, %eax
	movl	%eax, -16(%rbp)
.LBB4_34:                               # %if.end117
                                        #   in Loop: Header=BB4_29 Depth=3
	movslq	-64(%rbp), %rax
	movl	-3216(%rbp,%rax,4), %eax
	movslq	-16(%rbp), %rcx
	movslq	-1152(%rbp,%rcx,4), %rcx
	cmpl	-3216(%rbp,%rcx,4), %eax
	jge	.LBB4_36
# %bb.35:                               # %if.then125
                                        #   in Loop: Header=BB4_18 Depth=2
	jmp	.LBB4_37
.LBB4_36:                               # %if.end126
                                        #   in Loop: Header=BB4_29 Depth=3
	movslq	-16(%rbp), %rax
	movl	-1152(%rbp,%rax,4), %eax
	movslq	-40(%rbp), %rcx
	movl	%eax, -1152(%rbp,%rcx,4)
	movl	-16(%rbp), %eax
	movl	%eax, -40(%rbp)
	jmp	.LBB4_29
.LBB4_37:                               # %while.end131
                                        #   in Loop: Header=BB4_18 Depth=2
	movl	-64(%rbp), %eax
	movslq	-40(%rbp), %rcx
	movl	%eax, -1152(%rbp,%rcx,4)
	movl	-36(%rbp), %eax
	addl	$1, %eax
	movl	%eax, -36(%rbp)
	movl	-36(%rbp), %eax
	movslq	-52(%rbp), %rcx
	movl	%eax, -5280(%rbp,%rcx,4)
	movslq	-56(%rbp), %rcx
	movl	%eax, -5280(%rbp,%rcx,4)
	movslq	-56(%rbp), %rax
	movl	-3216(%rbp,%rax,4), %eax
	andl	$-256, %eax
	movslq	-52(%rbp), %rcx
	movl	-3216(%rbp,%rcx,4), %ecx
	andl	$-256, %ecx
	addl	%ecx, %eax
	movslq	-56(%rbp), %rcx
	movl	-3216(%rbp,%rcx,4), %ecx
	andl	$255, %ecx
	movslq	-52(%rbp), %rdx
	movl	-3216(%rbp,%rdx,4), %edx
	andl	$255, %edx
	cmpl	%edx, %ecx
	jle	.LBB4_39
# %bb.38:                               # %cond.true152
                                        #   in Loop: Header=BB4_18 Depth=2
	movslq	-56(%rbp), %rcx
	movl	-3216(%rbp,%rcx,4), %ecx
	andl	$255, %ecx
	jmp	.LBB4_40
.LBB4_39:                               # %cond.false156
                                        #   in Loop: Header=BB4_18 Depth=2
	movslq	-52(%rbp), %rcx
	movl	-3216(%rbp,%rcx,4), %ecx
	andl	$255, %ecx
.LBB4_40:                               # %cond.end160
                                        #   in Loop: Header=BB4_18 Depth=2
	addl	$1, %ecx
	orl	%ecx, %eax
	movslq	-36(%rbp), %rcx
	movl	%eax, -3216(%rbp,%rcx,4)
	movslq	-36(%rbp), %rax
	movl	$-1, -5280(%rbp,%rax,4)
	movl	-8(%rbp), %eax
	addl	$1, %eax
	movl	%eax, -8(%rbp)
	movl	-36(%rbp), %eax
	movslq	-8(%rbp), %rcx
	movl	%eax, -1152(%rbp,%rcx,4)
	movl	-8(%rbp), %eax
	movl	%eax, -32(%rbp)
	movslq	-32(%rbp), %rax
	movl	-1152(%rbp,%rax,4), %eax
	movl	%eax, -76(%rbp)
.LBB4_41:                               # %while.cond174
                                        #   Parent Loop BB4_8 Depth=1
                                        #     Parent Loop BB4_18 Depth=2
                                        # =>    This Inner Loop Header: Depth=3
	movslq	-76(%rbp), %rax
	movl	-3216(%rbp,%rax,4), %eax
	movl	-32(%rbp), %ecx
	sarl	$1, %ecx
	movslq	%ecx, %rcx
	movslq	-1152(%rbp,%rcx,4), %rcx
	cmpl	-3216(%rbp,%rcx,4), %eax
	jge	.LBB4_43
# %bb.42:                               # %while.body183
                                        #   in Loop: Header=BB4_41 Depth=3
	movl	-32(%rbp), %eax
	sarl	$1, %eax
	cltq
	movl	-1152(%rbp,%rax,4), %eax
	movslq	-32(%rbp), %rcx
	movl	%eax, -1152(%rbp,%rcx,4)
	movl	-32(%rbp), %eax
	sarl	$1, %eax
	movl	%eax, -32(%rbp)
	jmp	.LBB4_41
.LBB4_43:                               # %while.end190
                                        #   in Loop: Header=BB4_18 Depth=2
	movl	-76(%rbp), %eax
	movslq	-32(%rbp), %rcx
	movl	%eax, -1152(%rbp,%rcx,4)
	jmp	.LBB4_18
.LBB4_44:                               # %while.end193
                                        #   in Loop: Header=BB4_8 Depth=1
	cmpl	$516, -36(%rbp)         # imm = 0x204
	jl	.LBB4_46
# %bb.45:                               # %if.then195
                                        #   in Loop: Header=BB4_8 Depth=1
	movl	$2002, %edi             # imm = 0x7D2
	callq	BZ2_bz__AssertH__fail
.LBB4_46:                               # %if.end196
                                        #   in Loop: Header=BB4_8 Depth=1
	movb	$0, -9(%rbp)
	movl	$1, -4(%rbp)
.LBB4_47:                               # %for.cond197
                                        #   Parent Loop BB4_8 Depth=1
                                        # =>  This Loop Header: Depth=2
                                        #       Child Loop BB4_49 Depth 3
	movl	-4(%rbp), %eax
	cmpl	-44(%rbp), %eax
	jg	.LBB4_55
# %bb.48:                               # %for.body199
                                        #   in Loop: Header=BB4_47 Depth=2
	movl	$0, -24(%rbp)
	movl	-4(%rbp), %eax
	movl	%eax, -60(%rbp)
.LBB4_49:                               # %while.cond200
                                        #   Parent Loop BB4_8 Depth=1
                                        #     Parent Loop BB4_47 Depth=2
                                        # =>    This Inner Loop Header: Depth=3
	movslq	-60(%rbp), %rax
	cmpl	$0, -5280(%rbp,%rax,4)
	jl	.LBB4_51
# %bb.50:                               # %while.body204
                                        #   in Loop: Header=BB4_49 Depth=3
	movslq	-60(%rbp), %rax
	movl	-5280(%rbp,%rax,4), %eax
	movl	%eax, -60(%rbp)
	movl	-24(%rbp), %eax
	addl	$1, %eax
	movl	%eax, -24(%rbp)
	jmp	.LBB4_49
.LBB4_51:                               # %while.end208
                                        #   in Loop: Header=BB4_47 Depth=2
	movl	-24(%rbp), %eax
	movq	-104(%rbp), %rcx
	movl	-4(%rbp), %edx
	subl	$1, %edx
	movslq	%edx, %rdx
	movb	%al, (%rcx,%rdx)
	movl	-24(%rbp), %eax
	cmpl	-80(%rbp), %eax
	jle	.LBB4_53
# %bb.52:                               # %if.then213
                                        #   in Loop: Header=BB4_47 Depth=2
	movb	$1, -9(%rbp)
.LBB4_53:                               # %if.end214
                                        #   in Loop: Header=BB4_47 Depth=2
	jmp	.LBB4_54
.LBB4_54:                               # %for.inc215
                                        #   in Loop: Header=BB4_47 Depth=2
	movl	-4(%rbp), %eax
	addl	$1, %eax
	movl	%eax, -4(%rbp)
	jmp	.LBB4_47
.LBB4_55:                               # %for.end217
                                        #   in Loop: Header=BB4_8 Depth=1
	cmpb	$0, -9(%rbp)
	jne	.LBB4_57
# %bb.56:                               # %if.then218
	jmp	.LBB4_62
.LBB4_57:                               # %if.end219
                                        #   in Loop: Header=BB4_8 Depth=1
	movl	$1, -4(%rbp)
.LBB4_58:                               # %for.cond220
                                        #   Parent Loop BB4_8 Depth=1
                                        # =>  This Inner Loop Header: Depth=2
	movl	-4(%rbp), %eax
	cmpl	-44(%rbp), %eax
	jg	.LBB4_61
# %bb.59:                               # %for.body223
                                        #   in Loop: Header=BB4_58 Depth=2
	movslq	-4(%rbp), %rax
	movl	-3216(%rbp,%rax,4), %eax
	sarl	$8, %eax
	movl	%eax, -24(%rbp)
	movl	-24(%rbp), %eax
	cltd
	movl	$2, %ecx
	idivl	%ecx
	addl	$1, %eax
	movl	%eax, -24(%rbp)
	movl	-24(%rbp), %eax
	shll	$8, %eax
	movslq	-4(%rbp), %rcx
	movl	%eax, -3216(%rbp,%rcx,4)
# %bb.60:                               # %for.inc231
                                        #   in Loop: Header=BB4_58 Depth=2
	movl	-4(%rbp), %eax
	addl	$1, %eax
	movl	%eax, -4(%rbp)
	jmp	.LBB4_58
.LBB4_61:                               # %for.end233
                                        #   in Loop: Header=BB4_8 Depth=1
	jmp	.LBB4_8
.LBB4_62:                               # %while.end234
	cmpl	$851923693, -84(%rbp)   # imm = 0x32C752ED
	jne	.LBB4_64
.LBB4_63:
	addq	$5280, %rsp             # imm = 0x14A0
	popq	%rbp
	.cfi_def_cfa %rsp, 8
	retq
.LBB4_64:                               # %func_exit
	.cfi_def_cfa %rbp, 16
	callq	detect_breach
	jmp	.LBB4_63
.Lfunc_end4:
	.size	BZ2_hbMakeCodeLengths.2, .Lfunc_end4-BZ2_hbMakeCodeLengths.2
	.cfi_endproc
                                        # -- End function
	.globl	BZ2_hbAssignCodes.3     # -- Begin function BZ2_hbAssignCodes.3
	.p2align	4, 0x90
	.type	BZ2_hbAssignCodes.3,@function
BZ2_hbAssignCodes.3:                    # @BZ2_hbAssignCodes.3
	.cfi_startproc
# %bb.0:                                # %entry
	pushq	%rbp
	.cfi_def_cfa_offset 16
	.cfi_offset %rbp, -16
	movq	%rsp, %rbp
	.cfi_def_cfa_register %rbp
	subq	$48, %rsp
	movl	$801288417, -20(%rbp)   # imm = 0x2FC2B0E1
	movq	%rdi, -40(%rbp)
	movq	%rsi, -48(%rbp)
	movl	%edx, -28(%rbp)
	movl	%ecx, -24(%rbp)
	movl	%r8d, -16(%rbp)
	movl	$0, -8(%rbp)
	movl	-28(%rbp), %eax
	movl	%eax, -12(%rbp)
.LBB5_1:                                # %for.cond
                                        # =>This Loop Header: Depth=1
                                        #     Child Loop BB5_3 Depth 2
	movl	-12(%rbp), %eax
	cmpl	-24(%rbp), %eax
	jg	.LBB5_10
# %bb.2:                                # %for.body
                                        #   in Loop: Header=BB5_1 Depth=1
	movl	$0, -4(%rbp)
.LBB5_3:                                # %for.cond1
                                        #   Parent Loop BB5_1 Depth=1
                                        # =>  This Inner Loop Header: Depth=2
	movl	-4(%rbp), %eax
	cmpl	-16(%rbp), %eax
	jge	.LBB5_8
# %bb.4:                                # %for.body3
                                        #   in Loop: Header=BB5_3 Depth=2
	movq	-48(%rbp), %rax
	movslq	-4(%rbp), %rcx
	movzbl	(%rax,%rcx), %eax
	cmpl	-12(%rbp), %eax
	jne	.LBB5_6
# %bb.5:                                # %if.then
                                        #   in Loop: Header=BB5_3 Depth=2
	movl	-8(%rbp), %eax
	movq	-40(%rbp), %rcx
	movslq	-4(%rbp), %rdx
	movl	%eax, (%rcx,%rdx,4)
	movl	-8(%rbp), %eax
	addl	$1, %eax
	movl	%eax, -8(%rbp)
.LBB5_6:                                # %if.end
                                        #   in Loop: Header=BB5_3 Depth=2
	jmp	.LBB5_7
.LBB5_7:                                # %for.inc
                                        #   in Loop: Header=BB5_3 Depth=2
	movl	-4(%rbp), %eax
	addl	$1, %eax
	movl	%eax, -4(%rbp)
	jmp	.LBB5_3
.LBB5_8:                                # %for.end
                                        #   in Loop: Header=BB5_1 Depth=1
	movl	-8(%rbp), %eax
	shll	$1, %eax
	movl	%eax, -8(%rbp)
# %bb.9:                                # %for.inc9
                                        #   in Loop: Header=BB5_1 Depth=1
	movl	-12(%rbp), %eax
	addl	$1, %eax
	movl	%eax, -12(%rbp)
	jmp	.LBB5_1
.LBB5_10:                               # %for.end11
	cmpl	$801288417, -20(%rbp)   # imm = 0x2FC2B0E1
	jne	.LBB5_12
.LBB5_11:
	addq	$48, %rsp
	popq	%rbp
	.cfi_def_cfa %rsp, 8
	retq
.LBB5_12:                               # %func_exit
	.cfi_def_cfa %rbp, 16
	callq	detect_breach
	jmp	.LBB5_11
.Lfunc_end5:
	.size	BZ2_hbAssignCodes.3, .Lfunc_end5-BZ2_hbAssignCodes.3
	.cfi_endproc
                                        # -- End function
	.globl	BZ2_hbMakeCodeLengths.4 # -- Begin function BZ2_hbMakeCodeLengths.4
	.p2align	4, 0x90
	.type	BZ2_hbMakeCodeLengths.4,@function
BZ2_hbMakeCodeLengths.4:                # @BZ2_hbMakeCodeLengths.4
	.cfi_startproc
# %bb.0:                                # %entry
	pushq	%rbp
	.cfi_def_cfa_offset 16
	.cfi_offset %rbp, -16
	movq	%rsp, %rbp
	.cfi_def_cfa_register %rbp
	subq	$5280, %rsp             # imm = 0x14A0
	movl	$1459439409, -84(%rbp)  # imm = 0x56FD4731
	movq	%rdi, -104(%rbp)
	movq	%rsi, -96(%rbp)
	movl	%edx, -44(%rbp)
	movl	%ecx, -80(%rbp)
	movl	$0, -4(%rbp)
.LBB6_1:                                # %for.cond
                                        # =>This Inner Loop Header: Depth=1
	movl	-4(%rbp), %eax
	cmpl	-44(%rbp), %eax
	jge	.LBB6_7
# %bb.2:                                # %for.body
                                        #   in Loop: Header=BB6_1 Depth=1
	movq	-96(%rbp), %rax
	movslq	-4(%rbp), %rcx
	cmpl	$0, (%rax,%rcx,4)
	jne	.LBB6_4
# %bb.3:                                # %cond.true
                                        #   in Loop: Header=BB6_1 Depth=1
	movl	$1, %eax
	jmp	.LBB6_5
.LBB6_4:                                # %cond.false
                                        #   in Loop: Header=BB6_1 Depth=1
	movq	-96(%rbp), %rax
	movslq	-4(%rbp), %rcx
	movl	(%rax,%rcx,4), %eax
.LBB6_5:                                # %cond.end
                                        #   in Loop: Header=BB6_1 Depth=1
	shll	$8, %eax
	movl	-4(%rbp), %ecx
	addl	$1, %ecx
	movslq	%ecx, %rcx
	movl	%eax, -3216(%rbp,%rcx,4)
# %bb.6:                                # %for.inc
                                        #   in Loop: Header=BB6_1 Depth=1
	movl	-4(%rbp), %eax
	addl	$1, %eax
	movl	%eax, -4(%rbp)
	jmp	.LBB6_1
.LBB6_7:                                # %for.end
	jmp	.LBB6_8
.LBB6_8:                                # %while.body
                                        # =>This Loop Header: Depth=1
                                        #     Child Loop BB6_9 Depth 2
                                        #       Child Loop BB6_11 Depth 3
                                        #     Child Loop BB6_18 Depth 2
                                        #       Child Loop BB6_20 Depth 3
                                        #       Child Loop BB6_29 Depth 3
                                        #       Child Loop BB6_41 Depth 3
                                        #     Child Loop BB6_47 Depth 2
                                        #       Child Loop BB6_49 Depth 3
                                        #     Child Loop BB6_58 Depth 2
	movl	-44(%rbp), %eax
	movl	%eax, -28(%rbp)
	movl	$0, -8(%rbp)
	movl	$0, -1152(%rbp)
	movl	$0, -3216(%rbp)
	movl	$-2, -5280(%rbp)
	movl	$1, -4(%rbp)
.LBB6_9:                                # %for.cond9
                                        #   Parent Loop BB6_8 Depth=1
                                        # =>  This Loop Header: Depth=2
                                        #       Child Loop BB6_11 Depth 3
	movl	-4(%rbp), %eax
	cmpl	-44(%rbp), %eax
	jg	.LBB6_15
# %bb.10:                               # %for.body11
                                        #   in Loop: Header=BB6_9 Depth=2
	movslq	-4(%rbp), %rax
	movl	$-1, -5280(%rbp,%rax,4)
	movl	-8(%rbp), %eax
	addl	$1, %eax
	movl	%eax, -8(%rbp)
	movl	-4(%rbp), %eax
	movslq	-8(%rbp), %rcx
	movl	%eax, -1152(%rbp,%rcx,4)
	movl	-8(%rbp), %eax
	movl	%eax, -32(%rbp)
	movslq	-32(%rbp), %rax
	movl	-1152(%rbp,%rax,4), %eax
	movl	%eax, -64(%rbp)
.LBB6_11:                               # %while.cond19
                                        #   Parent Loop BB6_8 Depth=1
                                        #     Parent Loop BB6_9 Depth=2
                                        # =>    This Inner Loop Header: Depth=3
	movslq	-64(%rbp), %rax
	movl	-3216(%rbp,%rax,4), %eax
	movl	-32(%rbp), %ecx
	sarl	$1, %ecx
	movslq	%ecx, %rcx
	movslq	-1152(%rbp,%rcx,4), %rcx
	cmpl	-3216(%rbp,%rcx,4), %eax
	jge	.LBB6_13
# %bb.12:                               # %while.body27
                                        #   in Loop: Header=BB6_11 Depth=3
	movl	-32(%rbp), %eax
	sarl	$1, %eax
	cltq
	movl	-1152(%rbp,%rax,4), %eax
	movslq	-32(%rbp), %rcx
	movl	%eax, -1152(%rbp,%rcx,4)
	movl	-32(%rbp), %eax
	sarl	$1, %eax
	movl	%eax, -32(%rbp)
	jmp	.LBB6_11
.LBB6_13:                               # %while.end
                                        #   in Loop: Header=BB6_9 Depth=2
	movl	-64(%rbp), %eax
	movslq	-32(%rbp), %rcx
	movl	%eax, -1152(%rbp,%rcx,4)
# %bb.14:                               # %for.inc36
                                        #   in Loop: Header=BB6_9 Depth=2
	movl	-4(%rbp), %eax
	addl	$1, %eax
	movl	%eax, -4(%rbp)
	jmp	.LBB6_9
.LBB6_15:                               # %for.end38
                                        #   in Loop: Header=BB6_8 Depth=1
	cmpl	$260, -8(%rbp)          # imm = 0x104
	jl	.LBB6_17
# %bb.16:                               # %if.then
                                        #   in Loop: Header=BB6_8 Depth=1
	movl	$2001, %edi             # imm = 0x7D1
	callq	BZ2_bz__AssertH__fail
.LBB6_17:                               # %if.end
                                        #   in Loop: Header=BB6_8 Depth=1
	jmp	.LBB6_18
.LBB6_18:                               # %while.cond40
                                        #   Parent Loop BB6_8 Depth=1
                                        # =>  This Loop Header: Depth=2
                                        #       Child Loop BB6_20 Depth 3
                                        #       Child Loop BB6_29 Depth 3
                                        #       Child Loop BB6_41 Depth 3
	cmpl	$1, -8(%rbp)
	jle	.LBB6_44
# %bb.19:                               # %while.body42
                                        #   in Loop: Header=BB6_18 Depth=2
	movl	-1148(%rbp), %eax
	movl	%eax, -52(%rbp)
	movslq	-8(%rbp), %rax
	movl	-1152(%rbp,%rax,4), %eax
	movl	%eax, -1148(%rbp)
	movl	-8(%rbp), %eax
	addl	$-1, %eax
	movl	%eax, -8(%rbp)
	movl	$1, -40(%rbp)
	movslq	-40(%rbp), %rax
	movl	-1152(%rbp,%rax,4), %eax
	movl	%eax, -68(%rbp)
.LBB6_20:                               # %while.body52
                                        #   Parent Loop BB6_8 Depth=1
                                        #     Parent Loop BB6_18 Depth=2
                                        # =>    This Inner Loop Header: Depth=3
	movl	-40(%rbp), %eax
	shll	$1, %eax
	movl	%eax, -16(%rbp)
	movl	-16(%rbp), %eax
	cmpl	-8(%rbp), %eax
	jle	.LBB6_22
# %bb.21:                               # %if.then55
                                        #   in Loop: Header=BB6_18 Depth=2
	jmp	.LBB6_28
.LBB6_22:                               # %if.end56
                                        #   in Loop: Header=BB6_20 Depth=3
	movl	-16(%rbp), %eax
	cmpl	-8(%rbp), %eax
	jge	.LBB6_25
# %bb.23:                               # %land.lhs.true
                                        #   in Loop: Header=BB6_20 Depth=3
	movl	-16(%rbp), %eax
	addl	$1, %eax
	cltq
	movslq	-1152(%rbp,%rax,4), %rax
	movl	-3216(%rbp,%rax,4), %eax
	movslq	-16(%rbp), %rcx
	movslq	-1152(%rbp,%rcx,4), %rcx
	cmpl	-3216(%rbp,%rcx,4), %eax
	jge	.LBB6_25
# %bb.24:                               # %if.then68
                                        #   in Loop: Header=BB6_20 Depth=3
	movl	-16(%rbp), %eax
	addl	$1, %eax
	movl	%eax, -16(%rbp)
.LBB6_25:                               # %if.end70
                                        #   in Loop: Header=BB6_20 Depth=3
	movslq	-68(%rbp), %rax
	movl	-3216(%rbp,%rax,4), %eax
	movslq	-16(%rbp), %rcx
	movslq	-1152(%rbp,%rcx,4), %rcx
	cmpl	-3216(%rbp,%rcx,4), %eax
	jge	.LBB6_27
# %bb.26:                               # %if.then78
                                        #   in Loop: Header=BB6_18 Depth=2
	jmp	.LBB6_28
.LBB6_27:                               # %if.end79
                                        #   in Loop: Header=BB6_20 Depth=3
	movslq	-16(%rbp), %rax
	movl	-1152(%rbp,%rax,4), %eax
	movslq	-40(%rbp), %rcx
	movl	%eax, -1152(%rbp,%rcx,4)
	movl	-16(%rbp), %eax
	movl	%eax, -40(%rbp)
	jmp	.LBB6_20
.LBB6_28:                               # %while.end84
                                        #   in Loop: Header=BB6_18 Depth=2
	movl	-68(%rbp), %eax
	movslq	-40(%rbp), %rcx
	movl	%eax, -1152(%rbp,%rcx,4)
	movl	-1148(%rbp), %eax
	movl	%eax, -56(%rbp)
	movslq	-8(%rbp), %rax
	movl	-1152(%rbp,%rax,4), %eax
	movl	%eax, -1148(%rbp)
	movl	-8(%rbp), %eax
	addl	$-1, %eax
	movl	%eax, -8(%rbp)
	movl	$1, -48(%rbp)
	movslq	-48(%rbp), %rax
	movl	-1152(%rbp,%rax,4), %eax
	movl	%eax, -72(%rbp)
.LBB6_29:                               # %while.body98
                                        #   Parent Loop BB6_8 Depth=1
                                        #     Parent Loop BB6_18 Depth=2
                                        # =>    This Inner Loop Header: Depth=3
	movl	-48(%rbp), %eax
	shll	$1, %eax
	movl	%eax, -20(%rbp)
	movl	-20(%rbp), %eax
	cmpl	-8(%rbp), %eax
	jle	.LBB6_31
# %bb.30:                               # %if.then101
                                        #   in Loop: Header=BB6_18 Depth=2
	jmp	.LBB6_37
.LBB6_31:                               # %if.end102
                                        #   in Loop: Header=BB6_29 Depth=3
	movl	-20(%rbp), %eax
	cmpl	-8(%rbp), %eax
	jge	.LBB6_34
# %bb.32:                               # %land.lhs.true104
                                        #   in Loop: Header=BB6_29 Depth=3
	movl	-20(%rbp), %eax
	addl	$1, %eax
	cltq
	movslq	-1152(%rbp,%rax,4), %rax
	movl	-3216(%rbp,%rax,4), %eax
	movslq	-20(%rbp), %rcx
	movslq	-1152(%rbp,%rcx,4), %rcx
	cmpl	-3216(%rbp,%rcx,4), %eax
	jge	.LBB6_34
# %bb.33:                               # %if.then115
                                        #   in Loop: Header=BB6_29 Depth=3
	movl	-20(%rbp), %eax
	addl	$1, %eax
	movl	%eax, -20(%rbp)
.LBB6_34:                               # %if.end117
                                        #   in Loop: Header=BB6_29 Depth=3
	movslq	-72(%rbp), %rax
	movl	-3216(%rbp,%rax,4), %eax
	movslq	-20(%rbp), %rcx
	movslq	-1152(%rbp,%rcx,4), %rcx
	cmpl	-3216(%rbp,%rcx,4), %eax
	jge	.LBB6_36
# %bb.35:                               # %if.then125
                                        #   in Loop: Header=BB6_18 Depth=2
	jmp	.LBB6_37
.LBB6_36:                               # %if.end126
                                        #   in Loop: Header=BB6_29 Depth=3
	movslq	-20(%rbp), %rax
	movl	-1152(%rbp,%rax,4), %eax
	movslq	-48(%rbp), %rcx
	movl	%eax, -1152(%rbp,%rcx,4)
	movl	-20(%rbp), %eax
	movl	%eax, -48(%rbp)
	jmp	.LBB6_29
.LBB6_37:                               # %while.end131
                                        #   in Loop: Header=BB6_18 Depth=2
	movl	-72(%rbp), %eax
	movslq	-48(%rbp), %rcx
	movl	%eax, -1152(%rbp,%rcx,4)
	movl	-28(%rbp), %eax
	addl	$1, %eax
	movl	%eax, -28(%rbp)
	movl	-28(%rbp), %eax
	movslq	-56(%rbp), %rcx
	movl	%eax, -5280(%rbp,%rcx,4)
	movslq	-52(%rbp), %rcx
	movl	%eax, -5280(%rbp,%rcx,4)
	movslq	-52(%rbp), %rax
	movl	-3216(%rbp,%rax,4), %eax
	andl	$-256, %eax
	movslq	-56(%rbp), %rcx
	movl	-3216(%rbp,%rcx,4), %ecx
	andl	$-256, %ecx
	addl	%ecx, %eax
	movslq	-52(%rbp), %rcx
	movl	-3216(%rbp,%rcx,4), %ecx
	andl	$255, %ecx
	movslq	-56(%rbp), %rdx
	movl	-3216(%rbp,%rdx,4), %edx
	andl	$255, %edx
	cmpl	%edx, %ecx
	jle	.LBB6_39
# %bb.38:                               # %cond.true152
                                        #   in Loop: Header=BB6_18 Depth=2
	movslq	-52(%rbp), %rcx
	movl	-3216(%rbp,%rcx,4), %ecx
	andl	$255, %ecx
	jmp	.LBB6_40
.LBB6_39:                               # %cond.false156
                                        #   in Loop: Header=BB6_18 Depth=2
	movslq	-56(%rbp), %rcx
	movl	-3216(%rbp,%rcx,4), %ecx
	andl	$255, %ecx
.LBB6_40:                               # %cond.end160
                                        #   in Loop: Header=BB6_18 Depth=2
	addl	$1, %ecx
	orl	%ecx, %eax
	movslq	-28(%rbp), %rcx
	movl	%eax, -3216(%rbp,%rcx,4)
	movslq	-28(%rbp), %rax
	movl	$-1, -5280(%rbp,%rax,4)
	movl	-8(%rbp), %eax
	addl	$1, %eax
	movl	%eax, -8(%rbp)
	movl	-28(%rbp), %eax
	movslq	-8(%rbp), %rcx
	movl	%eax, -1152(%rbp,%rcx,4)
	movl	-8(%rbp), %eax
	movl	%eax, -36(%rbp)
	movslq	-36(%rbp), %rax
	movl	-1152(%rbp,%rax,4), %eax
	movl	%eax, -76(%rbp)
.LBB6_41:                               # %while.cond174
                                        #   Parent Loop BB6_8 Depth=1
                                        #     Parent Loop BB6_18 Depth=2
                                        # =>    This Inner Loop Header: Depth=3
	movslq	-76(%rbp), %rax
	movl	-3216(%rbp,%rax,4), %eax
	movl	-36(%rbp), %ecx
	sarl	$1, %ecx
	movslq	%ecx, %rcx
	movslq	-1152(%rbp,%rcx,4), %rcx
	cmpl	-3216(%rbp,%rcx,4), %eax
	jge	.LBB6_43
# %bb.42:                               # %while.body183
                                        #   in Loop: Header=BB6_41 Depth=3
	movl	-36(%rbp), %eax
	sarl	$1, %eax
	cltq
	movl	-1152(%rbp,%rax,4), %eax
	movslq	-36(%rbp), %rcx
	movl	%eax, -1152(%rbp,%rcx,4)
	movl	-36(%rbp), %eax
	sarl	$1, %eax
	movl	%eax, -36(%rbp)
	jmp	.LBB6_41
.LBB6_43:                               # %while.end190
                                        #   in Loop: Header=BB6_18 Depth=2
	movl	-76(%rbp), %eax
	movslq	-36(%rbp), %rcx
	movl	%eax, -1152(%rbp,%rcx,4)
	jmp	.LBB6_18
.LBB6_44:                               # %while.end193
                                        #   in Loop: Header=BB6_8 Depth=1
	cmpl	$516, -28(%rbp)         # imm = 0x204
	jl	.LBB6_46
# %bb.45:                               # %if.then195
                                        #   in Loop: Header=BB6_8 Depth=1
	movl	$2002, %edi             # imm = 0x7D2
	callq	BZ2_bz__AssertH__fail
.LBB6_46:                               # %if.end196
                                        #   in Loop: Header=BB6_8 Depth=1
	movb	$0, -9(%rbp)
	movl	$1, -4(%rbp)
.LBB6_47:                               # %for.cond197
                                        #   Parent Loop BB6_8 Depth=1
                                        # =>  This Loop Header: Depth=2
                                        #       Child Loop BB6_49 Depth 3
	movl	-4(%rbp), %eax
	cmpl	-44(%rbp), %eax
	jg	.LBB6_55
# %bb.48:                               # %for.body199
                                        #   in Loop: Header=BB6_47 Depth=2
	movl	$0, -24(%rbp)
	movl	-4(%rbp), %eax
	movl	%eax, -60(%rbp)
.LBB6_49:                               # %while.cond200
                                        #   Parent Loop BB6_8 Depth=1
                                        #     Parent Loop BB6_47 Depth=2
                                        # =>    This Inner Loop Header: Depth=3
	movslq	-60(%rbp), %rax
	cmpl	$0, -5280(%rbp,%rax,4)
	jl	.LBB6_51
# %bb.50:                               # %while.body204
                                        #   in Loop: Header=BB6_49 Depth=3
	movslq	-60(%rbp), %rax
	movl	-5280(%rbp,%rax,4), %eax
	movl	%eax, -60(%rbp)
	movl	-24(%rbp), %eax
	addl	$1, %eax
	movl	%eax, -24(%rbp)
	jmp	.LBB6_49
.LBB6_51:                               # %while.end208
                                        #   in Loop: Header=BB6_47 Depth=2
	movl	-24(%rbp), %eax
	movq	-104(%rbp), %rcx
	movl	-4(%rbp), %edx
	subl	$1, %edx
	movslq	%edx, %rdx
	movb	%al, (%rcx,%rdx)
	movl	-24(%rbp), %eax
	cmpl	-80(%rbp), %eax
	jle	.LBB6_53
# %bb.52:                               # %if.then213
                                        #   in Loop: Header=BB6_47 Depth=2
	movb	$1, -9(%rbp)
.LBB6_53:                               # %if.end214
                                        #   in Loop: Header=BB6_47 Depth=2
	jmp	.LBB6_54
.LBB6_54:                               # %for.inc215
                                        #   in Loop: Header=BB6_47 Depth=2
	movl	-4(%rbp), %eax
	addl	$1, %eax
	movl	%eax, -4(%rbp)
	jmp	.LBB6_47
.LBB6_55:                               # %for.end217
                                        #   in Loop: Header=BB6_8 Depth=1
	cmpb	$0, -9(%rbp)
	jne	.LBB6_57
# %bb.56:                               # %if.then218
	jmp	.LBB6_62
.LBB6_57:                               # %if.end219
                                        #   in Loop: Header=BB6_8 Depth=1
	movl	$1, -4(%rbp)
.LBB6_58:                               # %for.cond220
                                        #   Parent Loop BB6_8 Depth=1
                                        # =>  This Inner Loop Header: Depth=2
	movl	-4(%rbp), %eax
	cmpl	-44(%rbp), %eax
	jg	.LBB6_61
# %bb.59:                               # %for.body223
                                        #   in Loop: Header=BB6_58 Depth=2
	movslq	-4(%rbp), %rax
	movl	-3216(%rbp,%rax,4), %eax
	sarl	$8, %eax
	movl	%eax, -24(%rbp)
	movl	-24(%rbp), %eax
	cltd
	movl	$2, %ecx
	idivl	%ecx
	addl	$1, %eax
	movl	%eax, -24(%rbp)
	movl	-24(%rbp), %eax
	shll	$8, %eax
	movslq	-4(%rbp), %rcx
	movl	%eax, -3216(%rbp,%rcx,4)
# %bb.60:                               # %for.inc231
                                        #   in Loop: Header=BB6_58 Depth=2
	movl	-4(%rbp), %eax
	addl	$1, %eax
	movl	%eax, -4(%rbp)
	jmp	.LBB6_58
.LBB6_61:                               # %for.end233
                                        #   in Loop: Header=BB6_8 Depth=1
	jmp	.LBB6_8
.LBB6_62:                               # %while.end234
	cmpl	$1459439409, -84(%rbp)  # imm = 0x56FD4731
	jne	.LBB6_64
.LBB6_63:
	addq	$5280, %rsp             # imm = 0x14A0
	popq	%rbp
	.cfi_def_cfa %rsp, 8
	retq
.LBB6_64:                               # %func_exit
	.cfi_def_cfa %rbp, 16
	callq	detect_breach
	jmp	.LBB6_63
.Lfunc_end6:
	.size	BZ2_hbMakeCodeLengths.4, .Lfunc_end6-BZ2_hbMakeCodeLengths.4
	.cfi_endproc
                                        # -- End function
	.globl	BZ2_hbMakeCodeLengths.5 # -- Begin function BZ2_hbMakeCodeLengths.5
	.p2align	4, 0x90
	.type	BZ2_hbMakeCodeLengths.5,@function
BZ2_hbMakeCodeLengths.5:                # @BZ2_hbMakeCodeLengths.5
	.cfi_startproc
# %bb.0:                                # %entry
	pushq	%rbp
	.cfi_def_cfa_offset 16
	.cfi_offset %rbp, -16
	movq	%rsp, %rbp
	.cfi_def_cfa_register %rbp
	subq	$5280, %rsp             # imm = 0x14A0
	movl	$1196501398, -80(%rbp)  # imm = 0x47512996
	movq	%rdi, -104(%rbp)
	movq	%rsi, -96(%rbp)
	movl	%edx, -40(%rbp)
	movl	%ecx, -84(%rbp)
	movl	$0, -4(%rbp)
.LBB7_1:                                # %for.cond
                                        # =>This Inner Loop Header: Depth=1
	movl	-4(%rbp), %eax
	cmpl	-40(%rbp), %eax
	jge	.LBB7_7
# %bb.2:                                # %for.body
                                        #   in Loop: Header=BB7_1 Depth=1
	movq	-96(%rbp), %rax
	movslq	-4(%rbp), %rcx
	cmpl	$0, (%rax,%rcx,4)
	jne	.LBB7_4
# %bb.3:                                # %cond.true
                                        #   in Loop: Header=BB7_1 Depth=1
	movl	$1, %eax
	jmp	.LBB7_5
.LBB7_4:                                # %cond.false
                                        #   in Loop: Header=BB7_1 Depth=1
	movq	-96(%rbp), %rax
	movslq	-4(%rbp), %rcx
	movl	(%rax,%rcx,4), %eax
.LBB7_5:                                # %cond.end
                                        #   in Loop: Header=BB7_1 Depth=1
	shll	$8, %eax
	movl	-4(%rbp), %ecx
	addl	$1, %ecx
	movslq	%ecx, %rcx
	movl	%eax, -3216(%rbp,%rcx,4)
# %bb.6:                                # %for.inc
                                        #   in Loop: Header=BB7_1 Depth=1
	movl	-4(%rbp), %eax
	addl	$1, %eax
	movl	%eax, -4(%rbp)
	jmp	.LBB7_1
.LBB7_7:                                # %for.end
	jmp	.LBB7_8
.LBB7_8:                                # %while.body
                                        # =>This Loop Header: Depth=1
                                        #     Child Loop BB7_9 Depth 2
                                        #       Child Loop BB7_11 Depth 3
                                        #     Child Loop BB7_18 Depth 2
                                        #       Child Loop BB7_20 Depth 3
                                        #       Child Loop BB7_29 Depth 3
                                        #       Child Loop BB7_41 Depth 3
                                        #     Child Loop BB7_47 Depth 2
                                        #       Child Loop BB7_49 Depth 3
                                        #     Child Loop BB7_58 Depth 2
	movl	-40(%rbp), %eax
	movl	%eax, -32(%rbp)
	movl	$0, -8(%rbp)
	movl	$0, -1152(%rbp)
	movl	$0, -3216(%rbp)
	movl	$-2, -5280(%rbp)
	movl	$1, -4(%rbp)
.LBB7_9:                                # %for.cond9
                                        #   Parent Loop BB7_8 Depth=1
                                        # =>  This Loop Header: Depth=2
                                        #       Child Loop BB7_11 Depth 3
	movl	-4(%rbp), %eax
	cmpl	-40(%rbp), %eax
	jg	.LBB7_15
# %bb.10:                               # %for.body11
                                        #   in Loop: Header=BB7_9 Depth=2
	movslq	-4(%rbp), %rax
	movl	$-1, -5280(%rbp,%rax,4)
	movl	-8(%rbp), %eax
	addl	$1, %eax
	movl	%eax, -8(%rbp)
	movl	-4(%rbp), %eax
	movslq	-8(%rbp), %rcx
	movl	%eax, -1152(%rbp,%rcx,4)
	movl	-8(%rbp), %eax
	movl	%eax, -36(%rbp)
	movslq	-36(%rbp), %rax
	movl	-1152(%rbp,%rax,4), %eax
	movl	%eax, -76(%rbp)
.LBB7_11:                               # %while.cond19
                                        #   Parent Loop BB7_8 Depth=1
                                        #     Parent Loop BB7_9 Depth=2
                                        # =>    This Inner Loop Header: Depth=3
	movslq	-76(%rbp), %rax
	movl	-3216(%rbp,%rax,4), %eax
	movl	-36(%rbp), %ecx
	sarl	$1, %ecx
	movslq	%ecx, %rcx
	movslq	-1152(%rbp,%rcx,4), %rcx
	cmpl	-3216(%rbp,%rcx,4), %eax
	jge	.LBB7_13
# %bb.12:                               # %while.body27
                                        #   in Loop: Header=BB7_11 Depth=3
	movl	-36(%rbp), %eax
	sarl	$1, %eax
	cltq
	movl	-1152(%rbp,%rax,4), %eax
	movslq	-36(%rbp), %rcx
	movl	%eax, -1152(%rbp,%rcx,4)
	movl	-36(%rbp), %eax
	sarl	$1, %eax
	movl	%eax, -36(%rbp)
	jmp	.LBB7_11
.LBB7_13:                               # %while.end
                                        #   in Loop: Header=BB7_9 Depth=2
	movl	-76(%rbp), %eax
	movslq	-36(%rbp), %rcx
	movl	%eax, -1152(%rbp,%rcx,4)
# %bb.14:                               # %for.inc36
                                        #   in Loop: Header=BB7_9 Depth=2
	movl	-4(%rbp), %eax
	addl	$1, %eax
	movl	%eax, -4(%rbp)
	jmp	.LBB7_9
.LBB7_15:                               # %for.end38
                                        #   in Loop: Header=BB7_8 Depth=1
	cmpl	$260, -8(%rbp)          # imm = 0x104
	jl	.LBB7_17
# %bb.16:                               # %if.then
                                        #   in Loop: Header=BB7_8 Depth=1
	movl	$2001, %edi             # imm = 0x7D1
	callq	BZ2_bz__AssertH__fail
.LBB7_17:                               # %if.end
                                        #   in Loop: Header=BB7_8 Depth=1
	jmp	.LBB7_18
.LBB7_18:                               # %while.cond40
                                        #   Parent Loop BB7_8 Depth=1
                                        # =>  This Loop Header: Depth=2
                                        #       Child Loop BB7_20 Depth 3
                                        #       Child Loop BB7_29 Depth 3
                                        #       Child Loop BB7_41 Depth 3
	cmpl	$1, -8(%rbp)
	jle	.LBB7_44
# %bb.19:                               # %while.body42
                                        #   in Loop: Header=BB7_18 Depth=2
	movl	-1148(%rbp), %eax
	movl	%eax, -52(%rbp)
	movslq	-8(%rbp), %rax
	movl	-1152(%rbp,%rax,4), %eax
	movl	%eax, -1148(%rbp)
	movl	-8(%rbp), %eax
	addl	$-1, %eax
	movl	%eax, -8(%rbp)
	movl	$1, -44(%rbp)
	movslq	-44(%rbp), %rax
	movl	-1152(%rbp,%rax,4), %eax
	movl	%eax, -64(%rbp)
.LBB7_20:                               # %while.body52
                                        #   Parent Loop BB7_8 Depth=1
                                        #     Parent Loop BB7_18 Depth=2
                                        # =>    This Inner Loop Header: Depth=3
	movl	-44(%rbp), %eax
	shll	$1, %eax
	movl	%eax, -20(%rbp)
	movl	-20(%rbp), %eax
	cmpl	-8(%rbp), %eax
	jle	.LBB7_22
# %bb.21:                               # %if.then55
                                        #   in Loop: Header=BB7_18 Depth=2
	jmp	.LBB7_28
.LBB7_22:                               # %if.end56
                                        #   in Loop: Header=BB7_20 Depth=3
	movl	-20(%rbp), %eax
	cmpl	-8(%rbp), %eax
	jge	.LBB7_25
# %bb.23:                               # %land.lhs.true
                                        #   in Loop: Header=BB7_20 Depth=3
	movl	-20(%rbp), %eax
	addl	$1, %eax
	cltq
	movslq	-1152(%rbp,%rax,4), %rax
	movl	-3216(%rbp,%rax,4), %eax
	movslq	-20(%rbp), %rcx
	movslq	-1152(%rbp,%rcx,4), %rcx
	cmpl	-3216(%rbp,%rcx,4), %eax
	jge	.LBB7_25
# %bb.24:                               # %if.then68
                                        #   in Loop: Header=BB7_20 Depth=3
	movl	-20(%rbp), %eax
	addl	$1, %eax
	movl	%eax, -20(%rbp)
.LBB7_25:                               # %if.end70
                                        #   in Loop: Header=BB7_20 Depth=3
	movslq	-64(%rbp), %rax
	movl	-3216(%rbp,%rax,4), %eax
	movslq	-20(%rbp), %rcx
	movslq	-1152(%rbp,%rcx,4), %rcx
	cmpl	-3216(%rbp,%rcx,4), %eax
	jge	.LBB7_27
# %bb.26:                               # %if.then78
                                        #   in Loop: Header=BB7_18 Depth=2
	jmp	.LBB7_28
.LBB7_27:                               # %if.end79
                                        #   in Loop: Header=BB7_20 Depth=3
	movslq	-20(%rbp), %rax
	movl	-1152(%rbp,%rax,4), %eax
	movslq	-44(%rbp), %rcx
	movl	%eax, -1152(%rbp,%rcx,4)
	movl	-20(%rbp), %eax
	movl	%eax, -44(%rbp)
	jmp	.LBB7_20
.LBB7_28:                               # %while.end84
                                        #   in Loop: Header=BB7_18 Depth=2
	movl	-64(%rbp), %eax
	movslq	-44(%rbp), %rcx
	movl	%eax, -1152(%rbp,%rcx,4)
	movl	-1148(%rbp), %eax
	movl	%eax, -56(%rbp)
	movslq	-8(%rbp), %rax
	movl	-1152(%rbp,%rax,4), %eax
	movl	%eax, -1148(%rbp)
	movl	-8(%rbp), %eax
	addl	$-1, %eax
	movl	%eax, -8(%rbp)
	movl	$1, -48(%rbp)
	movslq	-48(%rbp), %rax
	movl	-1152(%rbp,%rax,4), %eax
	movl	%eax, -72(%rbp)
.LBB7_29:                               # %while.body98
                                        #   Parent Loop BB7_8 Depth=1
                                        #     Parent Loop BB7_18 Depth=2
                                        # =>    This Inner Loop Header: Depth=3
	movl	-48(%rbp), %eax
	shll	$1, %eax
	movl	%eax, -16(%rbp)
	movl	-16(%rbp), %eax
	cmpl	-8(%rbp), %eax
	jle	.LBB7_31
# %bb.30:                               # %if.then101
                                        #   in Loop: Header=BB7_18 Depth=2
	jmp	.LBB7_37
.LBB7_31:                               # %if.end102
                                        #   in Loop: Header=BB7_29 Depth=3
	movl	-16(%rbp), %eax
	cmpl	-8(%rbp), %eax
	jge	.LBB7_34
# %bb.32:                               # %land.lhs.true104
                                        #   in Loop: Header=BB7_29 Depth=3
	movl	-16(%rbp), %eax
	addl	$1, %eax
	cltq
	movslq	-1152(%rbp,%rax,4), %rax
	movl	-3216(%rbp,%rax,4), %eax
	movslq	-16(%rbp), %rcx
	movslq	-1152(%rbp,%rcx,4), %rcx
	cmpl	-3216(%rbp,%rcx,4), %eax
	jge	.LBB7_34
# %bb.33:                               # %if.then115
                                        #   in Loop: Header=BB7_29 Depth=3
	movl	-16(%rbp), %eax
	addl	$1, %eax
	movl	%eax, -16(%rbp)
.LBB7_34:                               # %if.end117
                                        #   in Loop: Header=BB7_29 Depth=3
	movslq	-72(%rbp), %rax
	movl	-3216(%rbp,%rax,4), %eax
	movslq	-16(%rbp), %rcx
	movslq	-1152(%rbp,%rcx,4), %rcx
	cmpl	-3216(%rbp,%rcx,4), %eax
	jge	.LBB7_36
# %bb.35:                               # %if.then125
                                        #   in Loop: Header=BB7_18 Depth=2
	jmp	.LBB7_37
.LBB7_36:                               # %if.end126
                                        #   in Loop: Header=BB7_29 Depth=3
	movslq	-16(%rbp), %rax
	movl	-1152(%rbp,%rax,4), %eax
	movslq	-48(%rbp), %rcx
	movl	%eax, -1152(%rbp,%rcx,4)
	movl	-16(%rbp), %eax
	movl	%eax, -48(%rbp)
	jmp	.LBB7_29
.LBB7_37:                               # %while.end131
                                        #   in Loop: Header=BB7_18 Depth=2
	movl	-72(%rbp), %eax
	movslq	-48(%rbp), %rcx
	movl	%eax, -1152(%rbp,%rcx,4)
	movl	-32(%rbp), %eax
	addl	$1, %eax
	movl	%eax, -32(%rbp)
	movl	-32(%rbp), %eax
	movslq	-56(%rbp), %rcx
	movl	%eax, -5280(%rbp,%rcx,4)
	movslq	-52(%rbp), %rcx
	movl	%eax, -5280(%rbp,%rcx,4)
	movslq	-52(%rbp), %rax
	movl	-3216(%rbp,%rax,4), %eax
	andl	$-256, %eax
	movslq	-56(%rbp), %rcx
	movl	-3216(%rbp,%rcx,4), %ecx
	andl	$-256, %ecx
	addl	%ecx, %eax
	movslq	-52(%rbp), %rcx
	movl	-3216(%rbp,%rcx,4), %ecx
	andl	$255, %ecx
	movslq	-56(%rbp), %rdx
	movl	-3216(%rbp,%rdx,4), %edx
	andl	$255, %edx
	cmpl	%edx, %ecx
	jle	.LBB7_39
# %bb.38:                               # %cond.true152
                                        #   in Loop: Header=BB7_18 Depth=2
	movslq	-52(%rbp), %rcx
	movl	-3216(%rbp,%rcx,4), %ecx
	andl	$255, %ecx
	jmp	.LBB7_40
.LBB7_39:                               # %cond.false156
                                        #   in Loop: Header=BB7_18 Depth=2
	movslq	-56(%rbp), %rcx
	movl	-3216(%rbp,%rcx,4), %ecx
	andl	$255, %ecx
.LBB7_40:                               # %cond.end160
                                        #   in Loop: Header=BB7_18 Depth=2
	addl	$1, %ecx
	orl	%ecx, %eax
	movslq	-32(%rbp), %rcx
	movl	%eax, -3216(%rbp,%rcx,4)
	movslq	-32(%rbp), %rax
	movl	$-1, -5280(%rbp,%rax,4)
	movl	-8(%rbp), %eax
	addl	$1, %eax
	movl	%eax, -8(%rbp)
	movl	-32(%rbp), %eax
	movslq	-8(%rbp), %rcx
	movl	%eax, -1152(%rbp,%rcx,4)
	movl	-8(%rbp), %eax
	movl	%eax, -28(%rbp)
	movslq	-28(%rbp), %rax
	movl	-1152(%rbp,%rax,4), %eax
	movl	%eax, -68(%rbp)
.LBB7_41:                               # %while.cond174
                                        #   Parent Loop BB7_8 Depth=1
                                        #     Parent Loop BB7_18 Depth=2
                                        # =>    This Inner Loop Header: Depth=3
	movslq	-68(%rbp), %rax
	movl	-3216(%rbp,%rax,4), %eax
	movl	-28(%rbp), %ecx
	sarl	$1, %ecx
	movslq	%ecx, %rcx
	movslq	-1152(%rbp,%rcx,4), %rcx
	cmpl	-3216(%rbp,%rcx,4), %eax
	jge	.LBB7_43
# %bb.42:                               # %while.body183
                                        #   in Loop: Header=BB7_41 Depth=3
	movl	-28(%rbp), %eax
	sarl	$1, %eax
	cltq
	movl	-1152(%rbp,%rax,4), %eax
	movslq	-28(%rbp), %rcx
	movl	%eax, -1152(%rbp,%rcx,4)
	movl	-28(%rbp), %eax
	sarl	$1, %eax
	movl	%eax, -28(%rbp)
	jmp	.LBB7_41
.LBB7_43:                               # %while.end190
                                        #   in Loop: Header=BB7_18 Depth=2
	movl	-68(%rbp), %eax
	movslq	-28(%rbp), %rcx
	movl	%eax, -1152(%rbp,%rcx,4)
	jmp	.LBB7_18
.LBB7_44:                               # %while.end193
                                        #   in Loop: Header=BB7_8 Depth=1
	cmpl	$516, -32(%rbp)         # imm = 0x204
	jl	.LBB7_46
# %bb.45:                               # %if.then195
                                        #   in Loop: Header=BB7_8 Depth=1
	movl	$2002, %edi             # imm = 0x7D2
	callq	BZ2_bz__AssertH__fail
.LBB7_46:                               # %if.end196
                                        #   in Loop: Header=BB7_8 Depth=1
	movb	$0, -9(%rbp)
	movl	$1, -4(%rbp)
.LBB7_47:                               # %for.cond197
                                        #   Parent Loop BB7_8 Depth=1
                                        # =>  This Loop Header: Depth=2
                                        #       Child Loop BB7_49 Depth 3
	movl	-4(%rbp), %eax
	cmpl	-40(%rbp), %eax
	jg	.LBB7_55
# %bb.48:                               # %for.body199
                                        #   in Loop: Header=BB7_47 Depth=2
	movl	$0, -24(%rbp)
	movl	-4(%rbp), %eax
	movl	%eax, -60(%rbp)
.LBB7_49:                               # %while.cond200
                                        #   Parent Loop BB7_8 Depth=1
                                        #     Parent Loop BB7_47 Depth=2
                                        # =>    This Inner Loop Header: Depth=3
	movslq	-60(%rbp), %rax
	cmpl	$0, -5280(%rbp,%rax,4)
	jl	.LBB7_51
# %bb.50:                               # %while.body204
                                        #   in Loop: Header=BB7_49 Depth=3
	movslq	-60(%rbp), %rax
	movl	-5280(%rbp,%rax,4), %eax
	movl	%eax, -60(%rbp)
	movl	-24(%rbp), %eax
	addl	$1, %eax
	movl	%eax, -24(%rbp)
	jmp	.LBB7_49
.LBB7_51:                               # %while.end208
                                        #   in Loop: Header=BB7_47 Depth=2
	movl	-24(%rbp), %eax
	movq	-104(%rbp), %rcx
	movl	-4(%rbp), %edx
	subl	$1, %edx
	movslq	%edx, %rdx
	movb	%al, (%rcx,%rdx)
	movl	-24(%rbp), %eax
	cmpl	-84(%rbp), %eax
	jle	.LBB7_53
# %bb.52:                               # %if.then213
                                        #   in Loop: Header=BB7_47 Depth=2
	movb	$1, -9(%rbp)
.LBB7_53:                               # %if.end214
                                        #   in Loop: Header=BB7_47 Depth=2
	jmp	.LBB7_54
.LBB7_54:                               # %for.inc215
                                        #   in Loop: Header=BB7_47 Depth=2
	movl	-4(%rbp), %eax
	addl	$1, %eax
	movl	%eax, -4(%rbp)
	jmp	.LBB7_47
.LBB7_55:                               # %for.end217
                                        #   in Loop: Header=BB7_8 Depth=1
	cmpb	$0, -9(%rbp)
	jne	.LBB7_57
# %bb.56:                               # %if.then218
	jmp	.LBB7_62
.LBB7_57:                               # %if.end219
                                        #   in Loop: Header=BB7_8 Depth=1
	movl	$1, -4(%rbp)
.LBB7_58:                               # %for.cond220
                                        #   Parent Loop BB7_8 Depth=1
                                        # =>  This Inner Loop Header: Depth=2
	movl	-4(%rbp), %eax
	cmpl	-40(%rbp), %eax
	jg	.LBB7_61
# %bb.59:                               # %for.body223
                                        #   in Loop: Header=BB7_58 Depth=2
	movslq	-4(%rbp), %rax
	movl	-3216(%rbp,%rax,4), %eax
	sarl	$8, %eax
	movl	%eax, -24(%rbp)
	movl	-24(%rbp), %eax
	cltd
	movl	$2, %ecx
	idivl	%ecx
	addl	$1, %eax
	movl	%eax, -24(%rbp)
	movl	-24(%rbp), %eax
	shll	$8, %eax
	movslq	-4(%rbp), %rcx
	movl	%eax, -3216(%rbp,%rcx,4)
# %bb.60:                               # %for.inc231
                                        #   in Loop: Header=BB7_58 Depth=2
	movl	-4(%rbp), %eax
	addl	$1, %eax
	movl	%eax, -4(%rbp)
	jmp	.LBB7_58
.LBB7_61:                               # %for.end233
                                        #   in Loop: Header=BB7_8 Depth=1
	jmp	.LBB7_8
.LBB7_62:                               # %while.end234
	cmpl	$1196501398, -80(%rbp)  # imm = 0x47512996
	jne	.LBB7_64
.LBB7_63:
	addq	$5280, %rsp             # imm = 0x14A0
	popq	%rbp
	.cfi_def_cfa %rsp, 8
	retq
.LBB7_64:                               # %func_exit
	.cfi_def_cfa %rbp, 16
	callq	detect_breach
	jmp	.LBB7_63
.Lfunc_end7:
	.size	BZ2_hbMakeCodeLengths.5, .Lfunc_end7-BZ2_hbMakeCodeLengths.5
	.cfi_endproc
                                        # -- End function
	.globl	BZ2_hbAssignCodes.6     # -- Begin function BZ2_hbAssignCodes.6
	.p2align	4, 0x90
	.type	BZ2_hbAssignCodes.6,@function
BZ2_hbAssignCodes.6:                    # @BZ2_hbAssignCodes.6
	.cfi_startproc
# %bb.0:                                # %entry
	pushq	%rbp
	.cfi_def_cfa_offset 16
	.cfi_offset %rbp, -16
	movq	%rsp, %rbp
	.cfi_def_cfa_register %rbp
	subq	$48, %rsp
	movl	$100142023, -24(%rbp)   # imm = 0x5F80BC7
	movq	%rdi, -40(%rbp)
	movq	%rsi, -48(%rbp)
	movl	%edx, -16(%rbp)
	movl	%ecx, -20(%rbp)
	movl	%r8d, -28(%rbp)
	movl	$0, -8(%rbp)
	movl	-16(%rbp), %eax
	movl	%eax, -12(%rbp)
.LBB8_1:                                # %for.cond
                                        # =>This Loop Header: Depth=1
                                        #     Child Loop BB8_3 Depth 2
	movl	-12(%rbp), %eax
	cmpl	-20(%rbp), %eax
	jg	.LBB8_10
# %bb.2:                                # %for.body
                                        #   in Loop: Header=BB8_1 Depth=1
	movl	$0, -4(%rbp)
.LBB8_3:                                # %for.cond1
                                        #   Parent Loop BB8_1 Depth=1
                                        # =>  This Inner Loop Header: Depth=2
	movl	-4(%rbp), %eax
	cmpl	-28(%rbp), %eax
	jge	.LBB8_8
# %bb.4:                                # %for.body3
                                        #   in Loop: Header=BB8_3 Depth=2
	movq	-48(%rbp), %rax
	movslq	-4(%rbp), %rcx
	movzbl	(%rax,%rcx), %eax
	cmpl	-12(%rbp), %eax
	jne	.LBB8_6
# %bb.5:                                # %if.then
                                        #   in Loop: Header=BB8_3 Depth=2
	movl	-8(%rbp), %eax
	movq	-40(%rbp), %rcx
	movslq	-4(%rbp), %rdx
	movl	%eax, (%rcx,%rdx,4)
	movl	-8(%rbp), %eax
	addl	$1, %eax
	movl	%eax, -8(%rbp)
.LBB8_6:                                # %if.end
                                        #   in Loop: Header=BB8_3 Depth=2
	jmp	.LBB8_7
.LBB8_7:                                # %for.inc
                                        #   in Loop: Header=BB8_3 Depth=2
	movl	-4(%rbp), %eax
	addl	$1, %eax
	movl	%eax, -4(%rbp)
	jmp	.LBB8_3
.LBB8_8:                                # %for.end
                                        #   in Loop: Header=BB8_1 Depth=1
	movl	-8(%rbp), %eax
	shll	$1, %eax
	movl	%eax, -8(%rbp)
# %bb.9:                                # %for.inc9
                                        #   in Loop: Header=BB8_1 Depth=1
	movl	-12(%rbp), %eax
	addl	$1, %eax
	movl	%eax, -12(%rbp)
	jmp	.LBB8_1
.LBB8_10:                               # %for.end11
	cmpl	$100142023, -24(%rbp)   # imm = 0x5F80BC7
	jne	.LBB8_12
.LBB8_11:
	addq	$48, %rsp
	popq	%rbp
	.cfi_def_cfa %rsp, 8
	retq
.LBB8_12:                               # %func_exit
	.cfi_def_cfa %rbp, 16
	callq	detect_breach
	jmp	.LBB8_11
.Lfunc_end8:
	.size	BZ2_hbAssignCodes.6, .Lfunc_end8-BZ2_hbAssignCodes.6
	.cfi_endproc
                                        # -- End function
	.globl	BZ2_hbCreateDecodeTables.7 # -- Begin function BZ2_hbCreateDecodeTables.7
	.p2align	4, 0x90
	.type	BZ2_hbCreateDecodeTables.7,@function
BZ2_hbCreateDecodeTables.7:             # @BZ2_hbCreateDecodeTables.7
	.cfi_startproc
# %bb.0:                                # %entry
	pushq	%rbp
	.cfi_def_cfa_offset 16
	.cfi_offset %rbp, -16
	movq	%rsp, %rbp
	.cfi_def_cfa_register %rbp
	subq	$80, %rsp
	movl	16(%rbp), %eax
	movl	$47099045, -52(%rbp)    # imm = 0x2CEACA5
	movq	%rdi, -48(%rbp)
	movq	%rsi, -24(%rbp)
	movq	%rdx, -72(%rbp)
	movq	%rcx, -64(%rbp)
	movl	%r8d, -32(%rbp)
	movl	%r9d, -28(%rbp)
	movl	$0, -36(%rbp)
	movl	-32(%rbp), %eax
	movl	%eax, -4(%rbp)
.LBB9_1:                                # %for.cond
                                        # =>This Loop Header: Depth=1
                                        #     Child Loop BB9_3 Depth 2
	movl	-4(%rbp), %eax
	cmpl	-28(%rbp), %eax
	jg	.LBB9_10
# %bb.2:                                # %for.body
                                        #   in Loop: Header=BB9_1 Depth=1
	movl	$0, -8(%rbp)
.LBB9_3:                                # %for.cond1
                                        #   Parent Loop BB9_1 Depth=1
                                        # =>  This Inner Loop Header: Depth=2
	movl	-8(%rbp), %eax
	cmpl	16(%rbp), %eax
	jge	.LBB9_8
# %bb.4:                                # %for.body3
                                        #   in Loop: Header=BB9_3 Depth=2
	movq	-64(%rbp), %rax
	movslq	-8(%rbp), %rcx
	movzbl	(%rax,%rcx), %eax
	cmpl	-4(%rbp), %eax
	jne	.LBB9_6
# %bb.5:                                # %if.then
                                        #   in Loop: Header=BB9_3 Depth=2
	movl	-8(%rbp), %eax
	movq	-72(%rbp), %rcx
	movslq	-36(%rbp), %rdx
	movl	%eax, (%rcx,%rdx,4)
	movl	-36(%rbp), %eax
	addl	$1, %eax
	movl	%eax, -36(%rbp)
.LBB9_6:                                # %if.end
                                        #   in Loop: Header=BB9_3 Depth=2
	jmp	.LBB9_7
.LBB9_7:                                # %for.inc
                                        #   in Loop: Header=BB9_3 Depth=2
	movl	-8(%rbp), %eax
	addl	$1, %eax
	movl	%eax, -8(%rbp)
	jmp	.LBB9_3
.LBB9_8:                                # %for.end
                                        #   in Loop: Header=BB9_1 Depth=1
	jmp	.LBB9_9
.LBB9_9:                                # %for.inc9
                                        #   in Loop: Header=BB9_1 Depth=1
	movl	-4(%rbp), %eax
	addl	$1, %eax
	movl	%eax, -4(%rbp)
	jmp	.LBB9_1
.LBB9_10:                               # %for.end11
	movl	$0, -4(%rbp)
.LBB9_11:                               # %for.cond12
                                        # =>This Inner Loop Header: Depth=1
	cmpl	$23, -4(%rbp)
	jge	.LBB9_14
# %bb.12:                               # %for.body15
                                        #   in Loop: Header=BB9_11 Depth=1
	movq	-24(%rbp), %rax
	movslq	-4(%rbp), %rcx
	movl	$0, (%rax,%rcx,4)
# %bb.13:                               # %for.inc18
                                        #   in Loop: Header=BB9_11 Depth=1
	movl	-4(%rbp), %eax
	addl	$1, %eax
	movl	%eax, -4(%rbp)
	jmp	.LBB9_11
.LBB9_14:                               # %for.end20
	movl	$0, -4(%rbp)
.LBB9_15:                               # %for.cond21
                                        # =>This Inner Loop Header: Depth=1
	movl	-4(%rbp), %eax
	cmpl	16(%rbp), %eax
	jge	.LBB9_18
# %bb.16:                               # %for.body24
                                        #   in Loop: Header=BB9_15 Depth=1
	movq	-24(%rbp), %rax
	movq	-64(%rbp), %rcx
	movslq	-4(%rbp), %rdx
	movzbl	(%rcx,%rdx), %ecx
	addl	$1, %ecx
	movslq	%ecx, %rcx
	movl	(%rax,%rcx,4), %edx
	addl	$1, %edx
	movl	%edx, (%rax,%rcx,4)
# %bb.17:                               # %for.inc31
                                        #   in Loop: Header=BB9_15 Depth=1
	movl	-4(%rbp), %eax
	addl	$1, %eax
	movl	%eax, -4(%rbp)
	jmp	.LBB9_15
.LBB9_18:                               # %for.end33
	movl	$1, -4(%rbp)
.LBB9_19:                               # %for.cond34
                                        # =>This Inner Loop Header: Depth=1
	cmpl	$23, -4(%rbp)
	jge	.LBB9_22
# %bb.20:                               # %for.body37
                                        #   in Loop: Header=BB9_19 Depth=1
	movq	-24(%rbp), %rax
	movl	-4(%rbp), %ecx
	subl	$1, %ecx
	movslq	%ecx, %rcx
	movl	(%rax,%rcx,4), %eax
	movq	-24(%rbp), %rcx
	movslq	-4(%rbp), %rdx
	addl	(%rcx,%rdx,4), %eax
	movl	%eax, (%rcx,%rdx,4)
# %bb.21:                               # %for.inc43
                                        #   in Loop: Header=BB9_19 Depth=1
	movl	-4(%rbp), %eax
	addl	$1, %eax
	movl	%eax, -4(%rbp)
	jmp	.LBB9_19
.LBB9_22:                               # %for.end45
	movl	$0, -4(%rbp)
.LBB9_23:                               # %for.cond46
                                        # =>This Inner Loop Header: Depth=1
	cmpl	$23, -4(%rbp)
	jge	.LBB9_26
# %bb.24:                               # %for.body49
                                        #   in Loop: Header=BB9_23 Depth=1
	movq	-48(%rbp), %rax
	movslq	-4(%rbp), %rcx
	movl	$0, (%rax,%rcx,4)
# %bb.25:                               # %for.inc52
                                        #   in Loop: Header=BB9_23 Depth=1
	movl	-4(%rbp), %eax
	addl	$1, %eax
	movl	%eax, -4(%rbp)
	jmp	.LBB9_23
.LBB9_26:                               # %for.end54
	movl	$0, -12(%rbp)
	movl	-32(%rbp), %eax
	movl	%eax, -4(%rbp)
.LBB9_27:                               # %for.cond55
                                        # =>This Inner Loop Header: Depth=1
	movl	-4(%rbp), %eax
	cmpl	-28(%rbp), %eax
	jg	.LBB9_30
# %bb.28:                               # %for.body58
                                        #   in Loop: Header=BB9_27 Depth=1
	movq	-24(%rbp), %rax
	movl	-4(%rbp), %ecx
	addl	$1, %ecx
	movslq	%ecx, %rcx
	movl	(%rax,%rcx,4), %eax
	movq	-24(%rbp), %rcx
	movslq	-4(%rbp), %rdx
	subl	(%rcx,%rdx,4), %eax
	addl	-12(%rbp), %eax
	movl	%eax, -12(%rbp)
	movl	-12(%rbp), %eax
	subl	$1, %eax
	movq	-48(%rbp), %rcx
	movslq	-4(%rbp), %rdx
	movl	%eax, (%rcx,%rdx,4)
	movl	-12(%rbp), %eax
	shll	$1, %eax
	movl	%eax, -12(%rbp)
# %bb.29:                               # %for.inc69
                                        #   in Loop: Header=BB9_27 Depth=1
	movl	-4(%rbp), %eax
	addl	$1, %eax
	movl	%eax, -4(%rbp)
	jmp	.LBB9_27
.LBB9_30:                               # %for.end71
	movl	-32(%rbp), %eax
	addl	$1, %eax
	movl	%eax, -4(%rbp)
.LBB9_31:                               # %for.cond73
                                        # =>This Inner Loop Header: Depth=1
	movl	-4(%rbp), %eax
	cmpl	-28(%rbp), %eax
	jg	.LBB9_34
# %bb.32:                               # %for.body76
                                        #   in Loop: Header=BB9_31 Depth=1
	movq	-48(%rbp), %rax
	movl	-4(%rbp), %ecx
	subl	$1, %ecx
	movslq	%ecx, %rcx
	movl	(%rax,%rcx,4), %eax
	addl	$1, %eax
	shll	$1, %eax
	movq	-24(%rbp), %rcx
	movslq	-4(%rbp), %rdx
	subl	(%rcx,%rdx,4), %eax
	movq	-24(%rbp), %rcx
	movslq	-4(%rbp), %rdx
	movl	%eax, (%rcx,%rdx,4)
# %bb.33:                               # %for.inc87
                                        #   in Loop: Header=BB9_31 Depth=1
	movl	-4(%rbp), %eax
	addl	$1, %eax
	movl	%eax, -4(%rbp)
	jmp	.LBB9_31
.LBB9_34:                               # %for.end89
	cmpl	$47099045, -52(%rbp)    # imm = 0x2CEACA5
	jne	.LBB9_36
.LBB9_35:
	addq	$80, %rsp
	popq	%rbp
	.cfi_def_cfa %rsp, 8
	retq
.LBB9_36:                               # %func_exit
	.cfi_def_cfa %rbp, 16
	callq	detect_breach
	jmp	.LBB9_35
.Lfunc_end9:
	.size	BZ2_hbCreateDecodeTables.7, .Lfunc_end9-BZ2_hbCreateDecodeTables.7
	.cfi_endproc
                                        # -- End function
	.globl	BZ2_hbCreateDecodeTables.8 # -- Begin function BZ2_hbCreateDecodeTables.8
	.p2align	4, 0x90
	.type	BZ2_hbCreateDecodeTables.8,@function
BZ2_hbCreateDecodeTables.8:             # @BZ2_hbCreateDecodeTables.8
	.cfi_startproc
# %bb.0:                                # %entry
	pushq	%rbp
	.cfi_def_cfa_offset 16
	.cfi_offset %rbp, -16
	movq	%rsp, %rbp
	.cfi_def_cfa_register %rbp
	subq	$80, %rsp
	movl	16(%rbp), %eax
	movl	$383176819, -52(%rbp)   # imm = 0x16D6D073
	movq	%rdi, -48(%rbp)
	movq	%rsi, -24(%rbp)
	movq	%rdx, -72(%rbp)
	movq	%rcx, -64(%rbp)
	movl	%r8d, -28(%rbp)
	movl	%r9d, -32(%rbp)
	movl	$0, -36(%rbp)
	movl	-28(%rbp), %eax
	movl	%eax, -4(%rbp)
.LBB10_1:                               # %for.cond
                                        # =>This Loop Header: Depth=1
                                        #     Child Loop BB10_3 Depth 2
	movl	-4(%rbp), %eax
	cmpl	-32(%rbp), %eax
	jg	.LBB10_10
# %bb.2:                                # %for.body
                                        #   in Loop: Header=BB10_1 Depth=1
	movl	$0, -12(%rbp)
.LBB10_3:                               # %for.cond1
                                        #   Parent Loop BB10_1 Depth=1
                                        # =>  This Inner Loop Header: Depth=2
	movl	-12(%rbp), %eax
	cmpl	16(%rbp), %eax
	jge	.LBB10_8
# %bb.4:                                # %for.body3
                                        #   in Loop: Header=BB10_3 Depth=2
	movq	-64(%rbp), %rax
	movslq	-12(%rbp), %rcx
	movzbl	(%rax,%rcx), %eax
	cmpl	-4(%rbp), %eax
	jne	.LBB10_6
# %bb.5:                                # %if.then
                                        #   in Loop: Header=BB10_3 Depth=2
	movl	-12(%rbp), %eax
	movq	-72(%rbp), %rcx
	movslq	-36(%rbp), %rdx
	movl	%eax, (%rcx,%rdx,4)
	movl	-36(%rbp), %eax
	addl	$1, %eax
	movl	%eax, -36(%rbp)
.LBB10_6:                               # %if.end
                                        #   in Loop: Header=BB10_3 Depth=2
	jmp	.LBB10_7
.LBB10_7:                               # %for.inc
                                        #   in Loop: Header=BB10_3 Depth=2
	movl	-12(%rbp), %eax
	addl	$1, %eax
	movl	%eax, -12(%rbp)
	jmp	.LBB10_3
.LBB10_8:                               # %for.end
                                        #   in Loop: Header=BB10_1 Depth=1
	jmp	.LBB10_9
.LBB10_9:                               # %for.inc9
                                        #   in Loop: Header=BB10_1 Depth=1
	movl	-4(%rbp), %eax
	addl	$1, %eax
	movl	%eax, -4(%rbp)
	jmp	.LBB10_1
.LBB10_10:                              # %for.end11
	movl	$0, -4(%rbp)
.LBB10_11:                              # %for.cond12
                                        # =>This Inner Loop Header: Depth=1
	cmpl	$23, -4(%rbp)
	jge	.LBB10_14
# %bb.12:                               # %for.body15
                                        #   in Loop: Header=BB10_11 Depth=1
	movq	-24(%rbp), %rax
	movslq	-4(%rbp), %rcx
	movl	$0, (%rax,%rcx,4)
# %bb.13:                               # %for.inc18
                                        #   in Loop: Header=BB10_11 Depth=1
	movl	-4(%rbp), %eax
	addl	$1, %eax
	movl	%eax, -4(%rbp)
	jmp	.LBB10_11
.LBB10_14:                              # %for.end20
	movl	$0, -4(%rbp)
.LBB10_15:                              # %for.cond21
                                        # =>This Inner Loop Header: Depth=1
	movl	-4(%rbp), %eax
	cmpl	16(%rbp), %eax
	jge	.LBB10_18
# %bb.16:                               # %for.body24
                                        #   in Loop: Header=BB10_15 Depth=1
	movq	-24(%rbp), %rax
	movq	-64(%rbp), %rcx
	movslq	-4(%rbp), %rdx
	movzbl	(%rcx,%rdx), %ecx
	addl	$1, %ecx
	movslq	%ecx, %rcx
	movl	(%rax,%rcx,4), %edx
	addl	$1, %edx
	movl	%edx, (%rax,%rcx,4)
# %bb.17:                               # %for.inc31
                                        #   in Loop: Header=BB10_15 Depth=1
	movl	-4(%rbp), %eax
	addl	$1, %eax
	movl	%eax, -4(%rbp)
	jmp	.LBB10_15
.LBB10_18:                              # %for.end33
	movl	$1, -4(%rbp)
.LBB10_19:                              # %for.cond34
                                        # =>This Inner Loop Header: Depth=1
	cmpl	$23, -4(%rbp)
	jge	.LBB10_22
# %bb.20:                               # %for.body37
                                        #   in Loop: Header=BB10_19 Depth=1
	movq	-24(%rbp), %rax
	movl	-4(%rbp), %ecx
	subl	$1, %ecx
	movslq	%ecx, %rcx
	movl	(%rax,%rcx,4), %eax
	movq	-24(%rbp), %rcx
	movslq	-4(%rbp), %rdx
	addl	(%rcx,%rdx,4), %eax
	movl	%eax, (%rcx,%rdx,4)
# %bb.21:                               # %for.inc43
                                        #   in Loop: Header=BB10_19 Depth=1
	movl	-4(%rbp), %eax
	addl	$1, %eax
	movl	%eax, -4(%rbp)
	jmp	.LBB10_19
.LBB10_22:                              # %for.end45
	movl	$0, -4(%rbp)
.LBB10_23:                              # %for.cond46
                                        # =>This Inner Loop Header: Depth=1
	cmpl	$23, -4(%rbp)
	jge	.LBB10_26
# %bb.24:                               # %for.body49
                                        #   in Loop: Header=BB10_23 Depth=1
	movq	-48(%rbp), %rax
	movslq	-4(%rbp), %rcx
	movl	$0, (%rax,%rcx,4)
# %bb.25:                               # %for.inc52
                                        #   in Loop: Header=BB10_23 Depth=1
	movl	-4(%rbp), %eax
	addl	$1, %eax
	movl	%eax, -4(%rbp)
	jmp	.LBB10_23
.LBB10_26:                              # %for.end54
	movl	$0, -8(%rbp)
	movl	-28(%rbp), %eax
	movl	%eax, -4(%rbp)
.LBB10_27:                              # %for.cond55
                                        # =>This Inner Loop Header: Depth=1
	movl	-4(%rbp), %eax
	cmpl	-32(%rbp), %eax
	jg	.LBB10_30
# %bb.28:                               # %for.body58
                                        #   in Loop: Header=BB10_27 Depth=1
	movq	-24(%rbp), %rax
	movl	-4(%rbp), %ecx
	addl	$1, %ecx
	movslq	%ecx, %rcx
	movl	(%rax,%rcx,4), %eax
	movq	-24(%rbp), %rcx
	movslq	-4(%rbp), %rdx
	subl	(%rcx,%rdx,4), %eax
	addl	-8(%rbp), %eax
	movl	%eax, -8(%rbp)
	movl	-8(%rbp), %eax
	subl	$1, %eax
	movq	-48(%rbp), %rcx
	movslq	-4(%rbp), %rdx
	movl	%eax, (%rcx,%rdx,4)
	movl	-8(%rbp), %eax
	shll	$1, %eax
	movl	%eax, -8(%rbp)
# %bb.29:                               # %for.inc69
                                        #   in Loop: Header=BB10_27 Depth=1
	movl	-4(%rbp), %eax
	addl	$1, %eax
	movl	%eax, -4(%rbp)
	jmp	.LBB10_27
.LBB10_30:                              # %for.end71
	movl	-28(%rbp), %eax
	addl	$1, %eax
	movl	%eax, -4(%rbp)
.LBB10_31:                              # %for.cond73
                                        # =>This Inner Loop Header: Depth=1
	movl	-4(%rbp), %eax
	cmpl	-32(%rbp), %eax
	jg	.LBB10_34
# %bb.32:                               # %for.body76
                                        #   in Loop: Header=BB10_31 Depth=1
	movq	-48(%rbp), %rax
	movl	-4(%rbp), %ecx
	subl	$1, %ecx
	movslq	%ecx, %rcx
	movl	(%rax,%rcx,4), %eax
	addl	$1, %eax
	shll	$1, %eax
	movq	-24(%rbp), %rcx
	movslq	-4(%rbp), %rdx
	subl	(%rcx,%rdx,4), %eax
	movq	-24(%rbp), %rcx
	movslq	-4(%rbp), %rdx
	movl	%eax, (%rcx,%rdx,4)
# %bb.33:                               # %for.inc87
                                        #   in Loop: Header=BB10_31 Depth=1
	movl	-4(%rbp), %eax
	addl	$1, %eax
	movl	%eax, -4(%rbp)
	jmp	.LBB10_31
.LBB10_34:                              # %for.end89
	cmpl	$383176819, -52(%rbp)   # imm = 0x16D6D073
	jne	.LBB10_36
.LBB10_35:
	addq	$80, %rsp
	popq	%rbp
	.cfi_def_cfa %rsp, 8
	retq
.LBB10_36:                              # %func_exit
	.cfi_def_cfa %rbp, 16
	callq	detect_breach
	jmp	.LBB10_35
.Lfunc_end10:
	.size	BZ2_hbCreateDecodeTables.8, .Lfunc_end10-BZ2_hbCreateDecodeTables.8
	.cfi_endproc
                                        # -- End function
	.globl	BZ2_hbMakeCodeLengths.9 # -- Begin function BZ2_hbMakeCodeLengths.9
	.p2align	4, 0x90
	.type	BZ2_hbMakeCodeLengths.9,@function
BZ2_hbMakeCodeLengths.9:                # @BZ2_hbMakeCodeLengths.9
	.cfi_startproc
# %bb.0:                                # %entry
	pushq	%rbp
	.cfi_def_cfa_offset 16
	.cfi_offset %rbp, -16
	movq	%rsp, %rbp
	.cfi_def_cfa_register %rbp
	subq	$5280, %rsp             # imm = 0x14A0
	movl	$1344390428, -80(%rbp)  # imm = 0x5021C51C
	movq	%rdi, -104(%rbp)
	movq	%rsi, -96(%rbp)
	movl	%edx, -48(%rbp)
	movl	%ecx, -84(%rbp)
	movl	$0, -4(%rbp)
.LBB11_1:                               # %for.cond
                                        # =>This Inner Loop Header: Depth=1
	movl	-4(%rbp), %eax
	cmpl	-48(%rbp), %eax
	jge	.LBB11_7
# %bb.2:                                # %for.body
                                        #   in Loop: Header=BB11_1 Depth=1
	movq	-96(%rbp), %rax
	movslq	-4(%rbp), %rcx
	cmpl	$0, (%rax,%rcx,4)
	jne	.LBB11_4
# %bb.3:                                # %cond.true
                                        #   in Loop: Header=BB11_1 Depth=1
	movl	$1, %eax
	jmp	.LBB11_5
.LBB11_4:                               # %cond.false
                                        #   in Loop: Header=BB11_1 Depth=1
	movq	-96(%rbp), %rax
	movslq	-4(%rbp), %rcx
	movl	(%rax,%rcx,4), %eax
.LBB11_5:                               # %cond.end
                                        #   in Loop: Header=BB11_1 Depth=1
	shll	$8, %eax
	movl	-4(%rbp), %ecx
	addl	$1, %ecx
	movslq	%ecx, %rcx
	movl	%eax, -3216(%rbp,%rcx,4)
# %bb.6:                                # %for.inc
                                        #   in Loop: Header=BB11_1 Depth=1
	movl	-4(%rbp), %eax
	addl	$1, %eax
	movl	%eax, -4(%rbp)
	jmp	.LBB11_1
.LBB11_7:                               # %for.end
	jmp	.LBB11_8
.LBB11_8:                               # %while.body
                                        # =>This Loop Header: Depth=1
                                        #     Child Loop BB11_9 Depth 2
                                        #       Child Loop BB11_11 Depth 3
                                        #     Child Loop BB11_18 Depth 2
                                        #       Child Loop BB11_20 Depth 3
                                        #       Child Loop BB11_29 Depth 3
                                        #       Child Loop BB11_41 Depth 3
                                        #     Child Loop BB11_47 Depth 2
                                        #       Child Loop BB11_49 Depth 3
                                        #     Child Loop BB11_58 Depth 2
	movl	-48(%rbp), %eax
	movl	%eax, -32(%rbp)
	movl	$0, -8(%rbp)
	movl	$0, -1152(%rbp)
	movl	$0, -3216(%rbp)
	movl	$-2, -5280(%rbp)
	movl	$1, -4(%rbp)
.LBB11_9:                               # %for.cond9
                                        #   Parent Loop BB11_8 Depth=1
                                        # =>  This Loop Header: Depth=2
                                        #       Child Loop BB11_11 Depth 3
	movl	-4(%rbp), %eax
	cmpl	-48(%rbp), %eax
	jg	.LBB11_15
# %bb.10:                               # %for.body11
                                        #   in Loop: Header=BB11_9 Depth=2
	movslq	-4(%rbp), %rax
	movl	$-1, -5280(%rbp,%rax,4)
	movl	-8(%rbp), %eax
	addl	$1, %eax
	movl	%eax, -8(%rbp)
	movl	-4(%rbp), %eax
	movslq	-8(%rbp), %rcx
	movl	%eax, -1152(%rbp,%rcx,4)
	movl	-8(%rbp), %eax
	movl	%eax, -28(%rbp)
	movslq	-28(%rbp), %rax
	movl	-1152(%rbp,%rax,4), %eax
	movl	%eax, -72(%rbp)
.LBB11_11:                              # %while.cond19
                                        #   Parent Loop BB11_8 Depth=1
                                        #     Parent Loop BB11_9 Depth=2
                                        # =>    This Inner Loop Header: Depth=3
	movslq	-72(%rbp), %rax
	movl	-3216(%rbp,%rax,4), %eax
	movl	-28(%rbp), %ecx
	sarl	$1, %ecx
	movslq	%ecx, %rcx
	movslq	-1152(%rbp,%rcx,4), %rcx
	cmpl	-3216(%rbp,%rcx,4), %eax
	jge	.LBB11_13
# %bb.12:                               # %while.body27
                                        #   in Loop: Header=BB11_11 Depth=3
	movl	-28(%rbp), %eax
	sarl	$1, %eax
	cltq
	movl	-1152(%rbp,%rax,4), %eax
	movslq	-28(%rbp), %rcx
	movl	%eax, -1152(%rbp,%rcx,4)
	movl	-28(%rbp), %eax
	sarl	$1, %eax
	movl	%eax, -28(%rbp)
	jmp	.LBB11_11
.LBB11_13:                              # %while.end
                                        #   in Loop: Header=BB11_9 Depth=2
	movl	-72(%rbp), %eax
	movslq	-28(%rbp), %rcx
	movl	%eax, -1152(%rbp,%rcx,4)
# %bb.14:                               # %for.inc36
                                        #   in Loop: Header=BB11_9 Depth=2
	movl	-4(%rbp), %eax
	addl	$1, %eax
	movl	%eax, -4(%rbp)
	jmp	.LBB11_9
.LBB11_15:                              # %for.end38
                                        #   in Loop: Header=BB11_8 Depth=1
	cmpl	$260, -8(%rbp)          # imm = 0x104
	jl	.LBB11_17
# %bb.16:                               # %if.then
                                        #   in Loop: Header=BB11_8 Depth=1
	movl	$2001, %edi             # imm = 0x7D1
	callq	BZ2_bz__AssertH__fail
.LBB11_17:                              # %if.end
                                        #   in Loop: Header=BB11_8 Depth=1
	jmp	.LBB11_18
.LBB11_18:                              # %while.cond40
                                        #   Parent Loop BB11_8 Depth=1
                                        # =>  This Loop Header: Depth=2
                                        #       Child Loop BB11_20 Depth 3
                                        #       Child Loop BB11_29 Depth 3
                                        #       Child Loop BB11_41 Depth 3
	cmpl	$1, -8(%rbp)
	jle	.LBB11_44
# %bb.19:                               # %while.body42
                                        #   in Loop: Header=BB11_18 Depth=2
	movl	-1148(%rbp), %eax
	movl	%eax, -52(%rbp)
	movslq	-8(%rbp), %rax
	movl	-1152(%rbp,%rax,4), %eax
	movl	%eax, -1148(%rbp)
	movl	-8(%rbp), %eax
	addl	$-1, %eax
	movl	%eax, -8(%rbp)
	movl	$1, -44(%rbp)
	movslq	-44(%rbp), %rax
	movl	-1152(%rbp,%rax,4), %eax
	movl	%eax, -68(%rbp)
.LBB11_20:                              # %while.body52
                                        #   Parent Loop BB11_8 Depth=1
                                        #     Parent Loop BB11_18 Depth=2
                                        # =>    This Inner Loop Header: Depth=3
	movl	-44(%rbp), %eax
	shll	$1, %eax
	movl	%eax, -20(%rbp)
	movl	-20(%rbp), %eax
	cmpl	-8(%rbp), %eax
	jle	.LBB11_22
# %bb.21:                               # %if.then55
                                        #   in Loop: Header=BB11_18 Depth=2
	jmp	.LBB11_28
.LBB11_22:                              # %if.end56
                                        #   in Loop: Header=BB11_20 Depth=3
	movl	-20(%rbp), %eax
	cmpl	-8(%rbp), %eax
	jge	.LBB11_25
# %bb.23:                               # %land.lhs.true
                                        #   in Loop: Header=BB11_20 Depth=3
	movl	-20(%rbp), %eax
	addl	$1, %eax
	cltq
	movslq	-1152(%rbp,%rax,4), %rax
	movl	-3216(%rbp,%rax,4), %eax
	movslq	-20(%rbp), %rcx
	movslq	-1152(%rbp,%rcx,4), %rcx
	cmpl	-3216(%rbp,%rcx,4), %eax
	jge	.LBB11_25
# %bb.24:                               # %if.then68
                                        #   in Loop: Header=BB11_20 Depth=3
	movl	-20(%rbp), %eax
	addl	$1, %eax
	movl	%eax, -20(%rbp)
.LBB11_25:                              # %if.end70
                                        #   in Loop: Header=BB11_20 Depth=3
	movslq	-68(%rbp), %rax
	movl	-3216(%rbp,%rax,4), %eax
	movslq	-20(%rbp), %rcx
	movslq	-1152(%rbp,%rcx,4), %rcx
	cmpl	-3216(%rbp,%rcx,4), %eax
	jge	.LBB11_27
# %bb.26:                               # %if.then78
                                        #   in Loop: Header=BB11_18 Depth=2
	jmp	.LBB11_28
.LBB11_27:                              # %if.end79
                                        #   in Loop: Header=BB11_20 Depth=3
	movslq	-20(%rbp), %rax
	movl	-1152(%rbp,%rax,4), %eax
	movslq	-44(%rbp), %rcx
	movl	%eax, -1152(%rbp,%rcx,4)
	movl	-20(%rbp), %eax
	movl	%eax, -44(%rbp)
	jmp	.LBB11_20
.LBB11_28:                              # %while.end84
                                        #   in Loop: Header=BB11_18 Depth=2
	movl	-68(%rbp), %eax
	movslq	-44(%rbp), %rcx
	movl	%eax, -1152(%rbp,%rcx,4)
	movl	-1148(%rbp), %eax
	movl	%eax, -56(%rbp)
	movslq	-8(%rbp), %rax
	movl	-1152(%rbp,%rax,4), %eax
	movl	%eax, -1148(%rbp)
	movl	-8(%rbp), %eax
	addl	$-1, %eax
	movl	%eax, -8(%rbp)
	movl	$1, -40(%rbp)
	movslq	-40(%rbp), %rax
	movl	-1152(%rbp,%rax,4), %eax
	movl	%eax, -76(%rbp)
.LBB11_29:                              # %while.body98
                                        #   Parent Loop BB11_8 Depth=1
                                        #     Parent Loop BB11_18 Depth=2
                                        # =>    This Inner Loop Header: Depth=3
	movl	-40(%rbp), %eax
	shll	$1, %eax
	movl	%eax, -16(%rbp)
	movl	-16(%rbp), %eax
	cmpl	-8(%rbp), %eax
	jle	.LBB11_31
# %bb.30:                               # %if.then101
                                        #   in Loop: Header=BB11_18 Depth=2
	jmp	.LBB11_37
.LBB11_31:                              # %if.end102
                                        #   in Loop: Header=BB11_29 Depth=3
	movl	-16(%rbp), %eax
	cmpl	-8(%rbp), %eax
	jge	.LBB11_34
# %bb.32:                               # %land.lhs.true104
                                        #   in Loop: Header=BB11_29 Depth=3
	movl	-16(%rbp), %eax
	addl	$1, %eax
	cltq
	movslq	-1152(%rbp,%rax,4), %rax
	movl	-3216(%rbp,%rax,4), %eax
	movslq	-16(%rbp), %rcx
	movslq	-1152(%rbp,%rcx,4), %rcx
	cmpl	-3216(%rbp,%rcx,4), %eax
	jge	.LBB11_34
# %bb.33:                               # %if.then115
                                        #   in Loop: Header=BB11_29 Depth=3
	movl	-16(%rbp), %eax
	addl	$1, %eax
	movl	%eax, -16(%rbp)
.LBB11_34:                              # %if.end117
                                        #   in Loop: Header=BB11_29 Depth=3
	movslq	-76(%rbp), %rax
	movl	-3216(%rbp,%rax,4), %eax
	movslq	-16(%rbp), %rcx
	movslq	-1152(%rbp,%rcx,4), %rcx
	cmpl	-3216(%rbp,%rcx,4), %eax
	jge	.LBB11_36
# %bb.35:                               # %if.then125
                                        #   in Loop: Header=BB11_18 Depth=2
	jmp	.LBB11_37
.LBB11_36:                              # %if.end126
                                        #   in Loop: Header=BB11_29 Depth=3
	movslq	-16(%rbp), %rax
	movl	-1152(%rbp,%rax,4), %eax
	movslq	-40(%rbp), %rcx
	movl	%eax, -1152(%rbp,%rcx,4)
	movl	-16(%rbp), %eax
	movl	%eax, -40(%rbp)
	jmp	.LBB11_29
.LBB11_37:                              # %while.end131
                                        #   in Loop: Header=BB11_18 Depth=2
	movl	-76(%rbp), %eax
	movslq	-40(%rbp), %rcx
	movl	%eax, -1152(%rbp,%rcx,4)
	movl	-32(%rbp), %eax
	addl	$1, %eax
	movl	%eax, -32(%rbp)
	movl	-32(%rbp), %eax
	movslq	-56(%rbp), %rcx
	movl	%eax, -5280(%rbp,%rcx,4)
	movslq	-52(%rbp), %rcx
	movl	%eax, -5280(%rbp,%rcx,4)
	movslq	-52(%rbp), %rax
	movl	-3216(%rbp,%rax,4), %eax
	andl	$-256, %eax
	movslq	-56(%rbp), %rcx
	movl	-3216(%rbp,%rcx,4), %ecx
	andl	$-256, %ecx
	addl	%ecx, %eax
	movslq	-52(%rbp), %rcx
	movl	-3216(%rbp,%rcx,4), %ecx
	andl	$255, %ecx
	movslq	-56(%rbp), %rdx
	movl	-3216(%rbp,%rdx,4), %edx
	andl	$255, %edx
	cmpl	%edx, %ecx
	jle	.LBB11_39
# %bb.38:                               # %cond.true152
                                        #   in Loop: Header=BB11_18 Depth=2
	movslq	-52(%rbp), %rcx
	movl	-3216(%rbp,%rcx,4), %ecx
	andl	$255, %ecx
	jmp	.LBB11_40
.LBB11_39:                              # %cond.false156
                                        #   in Loop: Header=BB11_18 Depth=2
	movslq	-56(%rbp), %rcx
	movl	-3216(%rbp,%rcx,4), %ecx
	andl	$255, %ecx
.LBB11_40:                              # %cond.end160
                                        #   in Loop: Header=BB11_18 Depth=2
	addl	$1, %ecx
	orl	%ecx, %eax
	movslq	-32(%rbp), %rcx
	movl	%eax, -3216(%rbp,%rcx,4)
	movslq	-32(%rbp), %rax
	movl	$-1, -5280(%rbp,%rax,4)
	movl	-8(%rbp), %eax
	addl	$1, %eax
	movl	%eax, -8(%rbp)
	movl	-32(%rbp), %eax
	movslq	-8(%rbp), %rcx
	movl	%eax, -1152(%rbp,%rcx,4)
	movl	-8(%rbp), %eax
	movl	%eax, -36(%rbp)
	movslq	-36(%rbp), %rax
	movl	-1152(%rbp,%rax,4), %eax
	movl	%eax, -64(%rbp)
.LBB11_41:                              # %while.cond174
                                        #   Parent Loop BB11_8 Depth=1
                                        #     Parent Loop BB11_18 Depth=2
                                        # =>    This Inner Loop Header: Depth=3
	movslq	-64(%rbp), %rax
	movl	-3216(%rbp,%rax,4), %eax
	movl	-36(%rbp), %ecx
	sarl	$1, %ecx
	movslq	%ecx, %rcx
	movslq	-1152(%rbp,%rcx,4), %rcx
	cmpl	-3216(%rbp,%rcx,4), %eax
	jge	.LBB11_43
# %bb.42:                               # %while.body183
                                        #   in Loop: Header=BB11_41 Depth=3
	movl	-36(%rbp), %eax
	sarl	$1, %eax
	cltq
	movl	-1152(%rbp,%rax,4), %eax
	movslq	-36(%rbp), %rcx
	movl	%eax, -1152(%rbp,%rcx,4)
	movl	-36(%rbp), %eax
	sarl	$1, %eax
	movl	%eax, -36(%rbp)
	jmp	.LBB11_41
.LBB11_43:                              # %while.end190
                                        #   in Loop: Header=BB11_18 Depth=2
	movl	-64(%rbp), %eax
	movslq	-36(%rbp), %rcx
	movl	%eax, -1152(%rbp,%rcx,4)
	jmp	.LBB11_18
.LBB11_44:                              # %while.end193
                                        #   in Loop: Header=BB11_8 Depth=1
	cmpl	$516, -32(%rbp)         # imm = 0x204
	jl	.LBB11_46
# %bb.45:                               # %if.then195
                                        #   in Loop: Header=BB11_8 Depth=1
	movl	$2002, %edi             # imm = 0x7D2
	callq	BZ2_bz__AssertH__fail
.LBB11_46:                              # %if.end196
                                        #   in Loop: Header=BB11_8 Depth=1
	movb	$0, -9(%rbp)
	movl	$1, -4(%rbp)
.LBB11_47:                              # %for.cond197
                                        #   Parent Loop BB11_8 Depth=1
                                        # =>  This Loop Header: Depth=2
                                        #       Child Loop BB11_49 Depth 3
	movl	-4(%rbp), %eax
	cmpl	-48(%rbp), %eax
	jg	.LBB11_55
# %bb.48:                               # %for.body199
                                        #   in Loop: Header=BB11_47 Depth=2
	movl	$0, -24(%rbp)
	movl	-4(%rbp), %eax
	movl	%eax, -60(%rbp)
.LBB11_49:                              # %while.cond200
                                        #   Parent Loop BB11_8 Depth=1
                                        #     Parent Loop BB11_47 Depth=2
                                        # =>    This Inner Loop Header: Depth=3
	movslq	-60(%rbp), %rax
	cmpl	$0, -5280(%rbp,%rax,4)
	jl	.LBB11_51
# %bb.50:                               # %while.body204
                                        #   in Loop: Header=BB11_49 Depth=3
	movslq	-60(%rbp), %rax
	movl	-5280(%rbp,%rax,4), %eax
	movl	%eax, -60(%rbp)
	movl	-24(%rbp), %eax
	addl	$1, %eax
	movl	%eax, -24(%rbp)
	jmp	.LBB11_49
.LBB11_51:                              # %while.end208
                                        #   in Loop: Header=BB11_47 Depth=2
	movl	-24(%rbp), %eax
	movq	-104(%rbp), %rcx
	movl	-4(%rbp), %edx
	subl	$1, %edx
	movslq	%edx, %rdx
	movb	%al, (%rcx,%rdx)
	movl	-24(%rbp), %eax
	cmpl	-84(%rbp), %eax
	jle	.LBB11_53
# %bb.52:                               # %if.then213
                                        #   in Loop: Header=BB11_47 Depth=2
	movb	$1, -9(%rbp)
.LBB11_53:                              # %if.end214
                                        #   in Loop: Header=BB11_47 Depth=2
	jmp	.LBB11_54
.LBB11_54:                              # %for.inc215
                                        #   in Loop: Header=BB11_47 Depth=2
	movl	-4(%rbp), %eax
	addl	$1, %eax
	movl	%eax, -4(%rbp)
	jmp	.LBB11_47
.LBB11_55:                              # %for.end217
                                        #   in Loop: Header=BB11_8 Depth=1
	cmpb	$0, -9(%rbp)
	jne	.LBB11_57
# %bb.56:                               # %if.then218
	jmp	.LBB11_62
.LBB11_57:                              # %if.end219
                                        #   in Loop: Header=BB11_8 Depth=1
	movl	$1, -4(%rbp)
.LBB11_58:                              # %for.cond220
                                        #   Parent Loop BB11_8 Depth=1
                                        # =>  This Inner Loop Header: Depth=2
	movl	-4(%rbp), %eax
	cmpl	-48(%rbp), %eax
	jg	.LBB11_61
# %bb.59:                               # %for.body223
                                        #   in Loop: Header=BB11_58 Depth=2
	movslq	-4(%rbp), %rax
	movl	-3216(%rbp,%rax,4), %eax
	sarl	$8, %eax
	movl	%eax, -24(%rbp)
	movl	-24(%rbp), %eax
	cltd
	movl	$2, %ecx
	idivl	%ecx
	addl	$1, %eax
	movl	%eax, -24(%rbp)
	movl	-24(%rbp), %eax
	shll	$8, %eax
	movslq	-4(%rbp), %rcx
	movl	%eax, -3216(%rbp,%rcx,4)
# %bb.60:                               # %for.inc231
                                        #   in Loop: Header=BB11_58 Depth=2
	movl	-4(%rbp), %eax
	addl	$1, %eax
	movl	%eax, -4(%rbp)
	jmp	.LBB11_58
.LBB11_61:                              # %for.end233
                                        #   in Loop: Header=BB11_8 Depth=1
	jmp	.LBB11_8
.LBB11_62:                              # %while.end234
	cmpl	$1344390428, -80(%rbp)  # imm = 0x5021C51C
	jne	.LBB11_64
.LBB11_63:
	addq	$5280, %rsp             # imm = 0x14A0
	popq	%rbp
	.cfi_def_cfa %rsp, 8
	retq
.LBB11_64:                              # %func_exit
	.cfi_def_cfa %rbp, 16
	callq	detect_breach
	jmp	.LBB11_63
.Lfunc_end11:
	.size	BZ2_hbMakeCodeLengths.9, .Lfunc_end11-BZ2_hbMakeCodeLengths.9
	.cfi_endproc
                                        # -- End function
	.globl	BZ2_hbAssignCodes.10    # -- Begin function BZ2_hbAssignCodes.10
	.p2align	4, 0x90
	.type	BZ2_hbAssignCodes.10,@function
BZ2_hbAssignCodes.10:                   # @BZ2_hbAssignCodes.10
	.cfi_startproc
# %bb.0:                                # %entry
	pushq	%rbp
	.cfi_def_cfa_offset 16
	.cfi_offset %rbp, -16
	movq	%rsp, %rbp
	.cfi_def_cfa_register %rbp
	subq	$48, %rsp
	movl	$140329799, -20(%rbp)   # imm = 0x85D4347
	movq	%rdi, -48(%rbp)
	movq	%rsi, -40(%rbp)
	movl	%edx, -24(%rbp)
	movl	%ecx, -16(%rbp)
	movl	%r8d, -28(%rbp)
	movl	$0, -8(%rbp)
	movl	-24(%rbp), %eax
	movl	%eax, -12(%rbp)
.LBB12_1:                               # %for.cond
                                        # =>This Loop Header: Depth=1
                                        #     Child Loop BB12_3 Depth 2
	movl	-12(%rbp), %eax
	cmpl	-16(%rbp), %eax
	jg	.LBB12_10
# %bb.2:                                # %for.body
                                        #   in Loop: Header=BB12_1 Depth=1
	movl	$0, -4(%rbp)
.LBB12_3:                               # %for.cond1
                                        #   Parent Loop BB12_1 Depth=1
                                        # =>  This Inner Loop Header: Depth=2
	movl	-4(%rbp), %eax
	cmpl	-28(%rbp), %eax
	jge	.LBB12_8
# %bb.4:                                # %for.body3
                                        #   in Loop: Header=BB12_3 Depth=2
	movq	-40(%rbp), %rax
	movslq	-4(%rbp), %rcx
	movzbl	(%rax,%rcx), %eax
	cmpl	-12(%rbp), %eax
	jne	.LBB12_6
# %bb.5:                                # %if.then
                                        #   in Loop: Header=BB12_3 Depth=2
	movl	-8(%rbp), %eax
	movq	-48(%rbp), %rcx
	movslq	-4(%rbp), %rdx
	movl	%eax, (%rcx,%rdx,4)
	movl	-8(%rbp), %eax
	addl	$1, %eax
	movl	%eax, -8(%rbp)
.LBB12_6:                               # %if.end
                                        #   in Loop: Header=BB12_3 Depth=2
	jmp	.LBB12_7
.LBB12_7:                               # %for.inc
                                        #   in Loop: Header=BB12_3 Depth=2
	movl	-4(%rbp), %eax
	addl	$1, %eax
	movl	%eax, -4(%rbp)
	jmp	.LBB12_3
.LBB12_8:                               # %for.end
                                        #   in Loop: Header=BB12_1 Depth=1
	movl	-8(%rbp), %eax
	shll	$1, %eax
	movl	%eax, -8(%rbp)
# %bb.9:                                # %for.inc9
                                        #   in Loop: Header=BB12_1 Depth=1
	movl	-12(%rbp), %eax
	addl	$1, %eax
	movl	%eax, -12(%rbp)
	jmp	.LBB12_1
.LBB12_10:                              # %for.end11
	cmpl	$140329799, -20(%rbp)   # imm = 0x85D4347
	jne	.LBB12_12
.LBB12_11:
	addq	$48, %rsp
	popq	%rbp
	.cfi_def_cfa %rsp, 8
	retq
.LBB12_12:                              # %func_exit
	.cfi_def_cfa %rbp, 16
	callq	detect_breach
	jmp	.LBB12_11
.Lfunc_end12:
	.size	BZ2_hbAssignCodes.10, .Lfunc_end12-BZ2_hbAssignCodes.10
	.cfi_endproc
                                        # -- End function
	.globl	BZ2_hbAssignCodes.11    # -- Begin function BZ2_hbAssignCodes.11
	.p2align	4, 0x90
	.type	BZ2_hbAssignCodes.11,@function
BZ2_hbAssignCodes.11:                   # @BZ2_hbAssignCodes.11
	.cfi_startproc
# %bb.0:                                # %entry
	pushq	%rbp
	.cfi_def_cfa_offset 16
	.cfi_offset %rbp, -16
	movq	%rsp, %rbp
	.cfi_def_cfa_register %rbp
	subq	$48, %rsp
	movl	$1806932655, -20(%rbp)  # imm = 0x6BB39AAF
	movq	%rdi, -40(%rbp)
	movq	%rsi, -48(%rbp)
	movl	%edx, -28(%rbp)
	movl	%ecx, -24(%rbp)
	movl	%r8d, -16(%rbp)
	movl	$0, -4(%rbp)
	movl	-28(%rbp), %eax
	movl	%eax, -12(%rbp)
.LBB13_1:                               # %for.cond
                                        # =>This Loop Header: Depth=1
                                        #     Child Loop BB13_3 Depth 2
	movl	-12(%rbp), %eax
	cmpl	-24(%rbp), %eax
	jg	.LBB13_10
# %bb.2:                                # %for.body
                                        #   in Loop: Header=BB13_1 Depth=1
	movl	$0, -8(%rbp)
.LBB13_3:                               # %for.cond1
                                        #   Parent Loop BB13_1 Depth=1
                                        # =>  This Inner Loop Header: Depth=2
	movl	-8(%rbp), %eax
	cmpl	-16(%rbp), %eax
	jge	.LBB13_8
# %bb.4:                                # %for.body3
                                        #   in Loop: Header=BB13_3 Depth=2
	movq	-48(%rbp), %rax
	movslq	-8(%rbp), %rcx
	movzbl	(%rax,%rcx), %eax
	cmpl	-12(%rbp), %eax
	jne	.LBB13_6
# %bb.5:                                # %if.then
                                        #   in Loop: Header=BB13_3 Depth=2
	movl	-4(%rbp), %eax
	movq	-40(%rbp), %rcx
	movslq	-8(%rbp), %rdx
	movl	%eax, (%rcx,%rdx,4)
	movl	-4(%rbp), %eax
	addl	$1, %eax
	movl	%eax, -4(%rbp)
.LBB13_6:                               # %if.end
                                        #   in Loop: Header=BB13_3 Depth=2
	jmp	.LBB13_7
.LBB13_7:                               # %for.inc
                                        #   in Loop: Header=BB13_3 Depth=2
	movl	-8(%rbp), %eax
	addl	$1, %eax
	movl	%eax, -8(%rbp)
	jmp	.LBB13_3
.LBB13_8:                               # %for.end
                                        #   in Loop: Header=BB13_1 Depth=1
	movl	-4(%rbp), %eax
	shll	$1, %eax
	movl	%eax, -4(%rbp)
# %bb.9:                                # %for.inc9
                                        #   in Loop: Header=BB13_1 Depth=1
	movl	-12(%rbp), %eax
	addl	$1, %eax
	movl	%eax, -12(%rbp)
	jmp	.LBB13_1
.LBB13_10:                              # %for.end11
	cmpl	$1806932655, -20(%rbp)  # imm = 0x6BB39AAF
	jne	.LBB13_12
.LBB13_11:
	addq	$48, %rsp
	popq	%rbp
	.cfi_def_cfa %rsp, 8
	retq
.LBB13_12:                              # %func_exit
	.cfi_def_cfa %rbp, 16
	callq	detect_breach
	jmp	.LBB13_11
.Lfunc_end13:
	.size	BZ2_hbAssignCodes.11, .Lfunc_end13-BZ2_hbAssignCodes.11
	.cfi_endproc
                                        # -- End function
	.globl	BZ2_hbCreateDecodeTables.12 # -- Begin function BZ2_hbCreateDecodeTables.12
	.p2align	4, 0x90
	.type	BZ2_hbCreateDecodeTables.12,@function
BZ2_hbCreateDecodeTables.12:            # @BZ2_hbCreateDecodeTables.12
	.cfi_startproc
# %bb.0:                                # %entry
	pushq	%rbp
	.cfi_def_cfa_offset 16
	.cfi_offset %rbp, -16
	movq	%rsp, %rbp
	.cfi_def_cfa_register %rbp
	subq	$80, %rsp
	movl	16(%rbp), %eax
	movl	$543573607, -52(%rbp)   # imm = 0x20664667
	movq	%rdi, -48(%rbp)
	movq	%rsi, -24(%rbp)
	movq	%rdx, -72(%rbp)
	movq	%rcx, -64(%rbp)
	movl	%r8d, -32(%rbp)
	movl	%r9d, -36(%rbp)
	movl	$0, -28(%rbp)
	movl	-32(%rbp), %eax
	movl	%eax, -4(%rbp)
.LBB14_1:                               # %for.cond
                                        # =>This Loop Header: Depth=1
                                        #     Child Loop BB14_3 Depth 2
	movl	-4(%rbp), %eax
	cmpl	-36(%rbp), %eax
	jg	.LBB14_10
# %bb.2:                                # %for.body
                                        #   in Loop: Header=BB14_1 Depth=1
	movl	$0, -12(%rbp)
.LBB14_3:                               # %for.cond1
                                        #   Parent Loop BB14_1 Depth=1
                                        # =>  This Inner Loop Header: Depth=2
	movl	-12(%rbp), %eax
	cmpl	16(%rbp), %eax
	jge	.LBB14_8
# %bb.4:                                # %for.body3
                                        #   in Loop: Header=BB14_3 Depth=2
	movq	-64(%rbp), %rax
	movslq	-12(%rbp), %rcx
	movzbl	(%rax,%rcx), %eax
	cmpl	-4(%rbp), %eax
	jne	.LBB14_6
# %bb.5:                                # %if.then
                                        #   in Loop: Header=BB14_3 Depth=2
	movl	-12(%rbp), %eax
	movq	-72(%rbp), %rcx
	movslq	-28(%rbp), %rdx
	movl	%eax, (%rcx,%rdx,4)
	movl	-28(%rbp), %eax
	addl	$1, %eax
	movl	%eax, -28(%rbp)
.LBB14_6:                               # %if.end
                                        #   in Loop: Header=BB14_3 Depth=2
	jmp	.LBB14_7
.LBB14_7:                               # %for.inc
                                        #   in Loop: Header=BB14_3 Depth=2
	movl	-12(%rbp), %eax
	addl	$1, %eax
	movl	%eax, -12(%rbp)
	jmp	.LBB14_3
.LBB14_8:                               # %for.end
                                        #   in Loop: Header=BB14_1 Depth=1
	jmp	.LBB14_9
.LBB14_9:                               # %for.inc9
                                        #   in Loop: Header=BB14_1 Depth=1
	movl	-4(%rbp), %eax
	addl	$1, %eax
	movl	%eax, -4(%rbp)
	jmp	.LBB14_1
.LBB14_10:                              # %for.end11
	movl	$0, -4(%rbp)
.LBB14_11:                              # %for.cond12
                                        # =>This Inner Loop Header: Depth=1
	cmpl	$23, -4(%rbp)
	jge	.LBB14_14
# %bb.12:                               # %for.body15
                                        #   in Loop: Header=BB14_11 Depth=1
	movq	-24(%rbp), %rax
	movslq	-4(%rbp), %rcx
	movl	$0, (%rax,%rcx,4)
# %bb.13:                               # %for.inc18
                                        #   in Loop: Header=BB14_11 Depth=1
	movl	-4(%rbp), %eax
	addl	$1, %eax
	movl	%eax, -4(%rbp)
	jmp	.LBB14_11
.LBB14_14:                              # %for.end20
	movl	$0, -4(%rbp)
.LBB14_15:                              # %for.cond21
                                        # =>This Inner Loop Header: Depth=1
	movl	-4(%rbp), %eax
	cmpl	16(%rbp), %eax
	jge	.LBB14_18
# %bb.16:                               # %for.body24
                                        #   in Loop: Header=BB14_15 Depth=1
	movq	-24(%rbp), %rax
	movq	-64(%rbp), %rcx
	movslq	-4(%rbp), %rdx
	movzbl	(%rcx,%rdx), %ecx
	addl	$1, %ecx
	movslq	%ecx, %rcx
	movl	(%rax,%rcx,4), %edx
	addl	$1, %edx
	movl	%edx, (%rax,%rcx,4)
# %bb.17:                               # %for.inc31
                                        #   in Loop: Header=BB14_15 Depth=1
	movl	-4(%rbp), %eax
	addl	$1, %eax
	movl	%eax, -4(%rbp)
	jmp	.LBB14_15
.LBB14_18:                              # %for.end33
	movl	$1, -4(%rbp)
.LBB14_19:                              # %for.cond34
                                        # =>This Inner Loop Header: Depth=1
	cmpl	$23, -4(%rbp)
	jge	.LBB14_22
# %bb.20:                               # %for.body37
                                        #   in Loop: Header=BB14_19 Depth=1
	movq	-24(%rbp), %rax
	movl	-4(%rbp), %ecx
	subl	$1, %ecx
	movslq	%ecx, %rcx
	movl	(%rax,%rcx,4), %eax
	movq	-24(%rbp), %rcx
	movslq	-4(%rbp), %rdx
	addl	(%rcx,%rdx,4), %eax
	movl	%eax, (%rcx,%rdx,4)
# %bb.21:                               # %for.inc43
                                        #   in Loop: Header=BB14_19 Depth=1
	movl	-4(%rbp), %eax
	addl	$1, %eax
	movl	%eax, -4(%rbp)
	jmp	.LBB14_19
.LBB14_22:                              # %for.end45
	movl	$0, -4(%rbp)
.LBB14_23:                              # %for.cond46
                                        # =>This Inner Loop Header: Depth=1
	cmpl	$23, -4(%rbp)
	jge	.LBB14_26
# %bb.24:                               # %for.body49
                                        #   in Loop: Header=BB14_23 Depth=1
	movq	-48(%rbp), %rax
	movslq	-4(%rbp), %rcx
	movl	$0, (%rax,%rcx,4)
# %bb.25:                               # %for.inc52
                                        #   in Loop: Header=BB14_23 Depth=1
	movl	-4(%rbp), %eax
	addl	$1, %eax
	movl	%eax, -4(%rbp)
	jmp	.LBB14_23
.LBB14_26:                              # %for.end54
	movl	$0, -8(%rbp)
	movl	-32(%rbp), %eax
	movl	%eax, -4(%rbp)
.LBB14_27:                              # %for.cond55
                                        # =>This Inner Loop Header: Depth=1
	movl	-4(%rbp), %eax
	cmpl	-36(%rbp), %eax
	jg	.LBB14_30
# %bb.28:                               # %for.body58
                                        #   in Loop: Header=BB14_27 Depth=1
	movq	-24(%rbp), %rax
	movl	-4(%rbp), %ecx
	addl	$1, %ecx
	movslq	%ecx, %rcx
	movl	(%rax,%rcx,4), %eax
	movq	-24(%rbp), %rcx
	movslq	-4(%rbp), %rdx
	subl	(%rcx,%rdx,4), %eax
	addl	-8(%rbp), %eax
	movl	%eax, -8(%rbp)
	movl	-8(%rbp), %eax
	subl	$1, %eax
	movq	-48(%rbp), %rcx
	movslq	-4(%rbp), %rdx
	movl	%eax, (%rcx,%rdx,4)
	movl	-8(%rbp), %eax
	shll	$1, %eax
	movl	%eax, -8(%rbp)
# %bb.29:                               # %for.inc69
                                        #   in Loop: Header=BB14_27 Depth=1
	movl	-4(%rbp), %eax
	addl	$1, %eax
	movl	%eax, -4(%rbp)
	jmp	.LBB14_27
.LBB14_30:                              # %for.end71
	movl	-32(%rbp), %eax
	addl	$1, %eax
	movl	%eax, -4(%rbp)
.LBB14_31:                              # %for.cond73
                                        # =>This Inner Loop Header: Depth=1
	movl	-4(%rbp), %eax
	cmpl	-36(%rbp), %eax
	jg	.LBB14_34
# %bb.32:                               # %for.body76
                                        #   in Loop: Header=BB14_31 Depth=1
	movq	-48(%rbp), %rax
	movl	-4(%rbp), %ecx
	subl	$1, %ecx
	movslq	%ecx, %rcx
	movl	(%rax,%rcx,4), %eax
	addl	$1, %eax
	shll	$1, %eax
	movq	-24(%rbp), %rcx
	movslq	-4(%rbp), %rdx
	subl	(%rcx,%rdx,4), %eax
	movq	-24(%rbp), %rcx
	movslq	-4(%rbp), %rdx
	movl	%eax, (%rcx,%rdx,4)
# %bb.33:                               # %for.inc87
                                        #   in Loop: Header=BB14_31 Depth=1
	movl	-4(%rbp), %eax
	addl	$1, %eax
	movl	%eax, -4(%rbp)
	jmp	.LBB14_31
.LBB14_34:                              # %for.end89
	cmpl	$543573607, -52(%rbp)   # imm = 0x20664667
	jne	.LBB14_36
.LBB14_35:
	addq	$80, %rsp
	popq	%rbp
	.cfi_def_cfa %rsp, 8
	retq
.LBB14_36:                              # %func_exit
	.cfi_def_cfa %rbp, 16
	callq	detect_breach
	jmp	.LBB14_35
.Lfunc_end14:
	.size	BZ2_hbCreateDecodeTables.12, .Lfunc_end14-BZ2_hbCreateDecodeTables.12
	.cfi_endproc
                                        # -- End function
	.globl	BZ2_hbMakeCodeLengths.13 # -- Begin function BZ2_hbMakeCodeLengths.13
	.p2align	4, 0x90
	.type	BZ2_hbMakeCodeLengths.13,@function
BZ2_hbMakeCodeLengths.13:               # @BZ2_hbMakeCodeLengths.13
	.cfi_startproc
# %bb.0:                                # %entry
	pushq	%rbp
	.cfi_def_cfa_offset 16
	.cfi_offset %rbp, -16
	movq	%rsp, %rbp
	.cfi_def_cfa_register %rbp
	subq	$5280, %rsp             # imm = 0x14A0
	movl	$574596520, -84(%rbp)   # imm = 0x223FA5A8
	movq	%rdi, -104(%rbp)
	movq	%rsi, -96(%rbp)
	movl	%edx, -40(%rbp)
	movl	%ecx, -80(%rbp)
	movl	$0, -4(%rbp)
.LBB15_1:                               # %for.cond
                                        # =>This Inner Loop Header: Depth=1
	movl	-4(%rbp), %eax
	cmpl	-40(%rbp), %eax
	jge	.LBB15_7
# %bb.2:                                # %for.body
                                        #   in Loop: Header=BB15_1 Depth=1
	movq	-96(%rbp), %rax
	movslq	-4(%rbp), %rcx
	cmpl	$0, (%rax,%rcx,4)
	jne	.LBB15_4
# %bb.3:                                # %cond.true
                                        #   in Loop: Header=BB15_1 Depth=1
	movl	$1, %eax
	jmp	.LBB15_5
.LBB15_4:                               # %cond.false
                                        #   in Loop: Header=BB15_1 Depth=1
	movq	-96(%rbp), %rax
	movslq	-4(%rbp), %rcx
	movl	(%rax,%rcx,4), %eax
.LBB15_5:                               # %cond.end
                                        #   in Loop: Header=BB15_1 Depth=1
	shll	$8, %eax
	movl	-4(%rbp), %ecx
	addl	$1, %ecx
	movslq	%ecx, %rcx
	movl	%eax, -3216(%rbp,%rcx,4)
# %bb.6:                                # %for.inc
                                        #   in Loop: Header=BB15_1 Depth=1
	movl	-4(%rbp), %eax
	addl	$1, %eax
	movl	%eax, -4(%rbp)
	jmp	.LBB15_1
.LBB15_7:                               # %for.end
	jmp	.LBB15_8
.LBB15_8:                               # %while.body
                                        # =>This Loop Header: Depth=1
                                        #     Child Loop BB15_9 Depth 2
                                        #       Child Loop BB15_11 Depth 3
                                        #     Child Loop BB15_18 Depth 2
                                        #       Child Loop BB15_20 Depth 3
                                        #       Child Loop BB15_29 Depth 3
                                        #       Child Loop BB15_41 Depth 3
                                        #     Child Loop BB15_47 Depth 2
                                        #       Child Loop BB15_49 Depth 3
                                        #     Child Loop BB15_58 Depth 2
	movl	-40(%rbp), %eax
	movl	%eax, -32(%rbp)
	movl	$0, -8(%rbp)
	movl	$0, -1152(%rbp)
	movl	$0, -3216(%rbp)
	movl	$-2, -5280(%rbp)
	movl	$1, -4(%rbp)
.LBB15_9:                               # %for.cond9
                                        #   Parent Loop BB15_8 Depth=1
                                        # =>  This Loop Header: Depth=2
                                        #       Child Loop BB15_11 Depth 3
	movl	-4(%rbp), %eax
	cmpl	-40(%rbp), %eax
	jg	.LBB15_15
# %bb.10:                               # %for.body11
                                        #   in Loop: Header=BB15_9 Depth=2
	movslq	-4(%rbp), %rax
	movl	$-1, -5280(%rbp,%rax,4)
	movl	-8(%rbp), %eax
	addl	$1, %eax
	movl	%eax, -8(%rbp)
	movl	-4(%rbp), %eax
	movslq	-8(%rbp), %rcx
	movl	%eax, -1152(%rbp,%rcx,4)
	movl	-8(%rbp), %eax
	movl	%eax, -36(%rbp)
	movslq	-36(%rbp), %rax
	movl	-1152(%rbp,%rax,4), %eax
	movl	%eax, -68(%rbp)
.LBB15_11:                              # %while.cond19
                                        #   Parent Loop BB15_8 Depth=1
                                        #     Parent Loop BB15_9 Depth=2
                                        # =>    This Inner Loop Header: Depth=3
	movslq	-68(%rbp), %rax
	movl	-3216(%rbp,%rax,4), %eax
	movl	-36(%rbp), %ecx
	sarl	$1, %ecx
	movslq	%ecx, %rcx
	movslq	-1152(%rbp,%rcx,4), %rcx
	cmpl	-3216(%rbp,%rcx,4), %eax
	jge	.LBB15_13
# %bb.12:                               # %while.body27
                                        #   in Loop: Header=BB15_11 Depth=3
	movl	-36(%rbp), %eax
	sarl	$1, %eax
	cltq
	movl	-1152(%rbp,%rax,4), %eax
	movslq	-36(%rbp), %rcx
	movl	%eax, -1152(%rbp,%rcx,4)
	movl	-36(%rbp), %eax
	sarl	$1, %eax
	movl	%eax, -36(%rbp)
	jmp	.LBB15_11
.LBB15_13:                              # %while.end
                                        #   in Loop: Header=BB15_9 Depth=2
	movl	-68(%rbp), %eax
	movslq	-36(%rbp), %rcx
	movl	%eax, -1152(%rbp,%rcx,4)
# %bb.14:                               # %for.inc36
                                        #   in Loop: Header=BB15_9 Depth=2
	movl	-4(%rbp), %eax
	addl	$1, %eax
	movl	%eax, -4(%rbp)
	jmp	.LBB15_9
.LBB15_15:                              # %for.end38
                                        #   in Loop: Header=BB15_8 Depth=1
	cmpl	$260, -8(%rbp)          # imm = 0x104
	jl	.LBB15_17
# %bb.16:                               # %if.then
                                        #   in Loop: Header=BB15_8 Depth=1
	movl	$2001, %edi             # imm = 0x7D1
	callq	BZ2_bz__AssertH__fail
.LBB15_17:                              # %if.end
                                        #   in Loop: Header=BB15_8 Depth=1
	jmp	.LBB15_18
.LBB15_18:                              # %while.cond40
                                        #   Parent Loop BB15_8 Depth=1
                                        # =>  This Loop Header: Depth=2
                                        #       Child Loop BB15_20 Depth 3
                                        #       Child Loop BB15_29 Depth 3
                                        #       Child Loop BB15_41 Depth 3
	cmpl	$1, -8(%rbp)
	jle	.LBB15_44
# %bb.19:                               # %while.body42
                                        #   in Loop: Header=BB15_18 Depth=2
	movl	-1148(%rbp), %eax
	movl	%eax, -56(%rbp)
	movslq	-8(%rbp), %rax
	movl	-1152(%rbp,%rax,4), %eax
	movl	%eax, -1148(%rbp)
	movl	-8(%rbp), %eax
	addl	$-1, %eax
	movl	%eax, -8(%rbp)
	movl	$1, -44(%rbp)
	movslq	-44(%rbp), %rax
	movl	-1152(%rbp,%rax,4), %eax
	movl	%eax, -76(%rbp)
.LBB15_20:                              # %while.body52
                                        #   Parent Loop BB15_8 Depth=1
                                        #     Parent Loop BB15_18 Depth=2
                                        # =>    This Inner Loop Header: Depth=3
	movl	-44(%rbp), %eax
	shll	$1, %eax
	movl	%eax, -16(%rbp)
	movl	-16(%rbp), %eax
	cmpl	-8(%rbp), %eax
	jle	.LBB15_22
# %bb.21:                               # %if.then55
                                        #   in Loop: Header=BB15_18 Depth=2
	jmp	.LBB15_28
.LBB15_22:                              # %if.end56
                                        #   in Loop: Header=BB15_20 Depth=3
	movl	-16(%rbp), %eax
	cmpl	-8(%rbp), %eax
	jge	.LBB15_25
# %bb.23:                               # %land.lhs.true
                                        #   in Loop: Header=BB15_20 Depth=3
	movl	-16(%rbp), %eax
	addl	$1, %eax
	cltq
	movslq	-1152(%rbp,%rax,4), %rax
	movl	-3216(%rbp,%rax,4), %eax
	movslq	-16(%rbp), %rcx
	movslq	-1152(%rbp,%rcx,4), %rcx
	cmpl	-3216(%rbp,%rcx,4), %eax
	jge	.LBB15_25
# %bb.24:                               # %if.then68
                                        #   in Loop: Header=BB15_20 Depth=3
	movl	-16(%rbp), %eax
	addl	$1, %eax
	movl	%eax, -16(%rbp)
.LBB15_25:                              # %if.end70
                                        #   in Loop: Header=BB15_20 Depth=3
	movslq	-76(%rbp), %rax
	movl	-3216(%rbp,%rax,4), %eax
	movslq	-16(%rbp), %rcx
	movslq	-1152(%rbp,%rcx,4), %rcx
	cmpl	-3216(%rbp,%rcx,4), %eax
	jge	.LBB15_27
# %bb.26:                               # %if.then78
                                        #   in Loop: Header=BB15_18 Depth=2
	jmp	.LBB15_28
.LBB15_27:                              # %if.end79
                                        #   in Loop: Header=BB15_20 Depth=3
	movslq	-16(%rbp), %rax
	movl	-1152(%rbp,%rax,4), %eax
	movslq	-44(%rbp), %rcx
	movl	%eax, -1152(%rbp,%rcx,4)
	movl	-16(%rbp), %eax
	movl	%eax, -44(%rbp)
	jmp	.LBB15_20
.LBB15_28:                              # %while.end84
                                        #   in Loop: Header=BB15_18 Depth=2
	movl	-76(%rbp), %eax
	movslq	-44(%rbp), %rcx
	movl	%eax, -1152(%rbp,%rcx,4)
	movl	-1148(%rbp), %eax
	movl	%eax, -52(%rbp)
	movslq	-8(%rbp), %rax
	movl	-1152(%rbp,%rax,4), %eax
	movl	%eax, -1148(%rbp)
	movl	-8(%rbp), %eax
	addl	$-1, %eax
	movl	%eax, -8(%rbp)
	movl	$1, -48(%rbp)
	movslq	-48(%rbp), %rax
	movl	-1152(%rbp,%rax,4), %eax
	movl	%eax, -64(%rbp)
.LBB15_29:                              # %while.body98
                                        #   Parent Loop BB15_8 Depth=1
                                        #     Parent Loop BB15_18 Depth=2
                                        # =>    This Inner Loop Header: Depth=3
	movl	-48(%rbp), %eax
	shll	$1, %eax
	movl	%eax, -20(%rbp)
	movl	-20(%rbp), %eax
	cmpl	-8(%rbp), %eax
	jle	.LBB15_31
# %bb.30:                               # %if.then101
                                        #   in Loop: Header=BB15_18 Depth=2
	jmp	.LBB15_37
.LBB15_31:                              # %if.end102
                                        #   in Loop: Header=BB15_29 Depth=3
	movl	-20(%rbp), %eax
	cmpl	-8(%rbp), %eax
	jge	.LBB15_34
# %bb.32:                               # %land.lhs.true104
                                        #   in Loop: Header=BB15_29 Depth=3
	movl	-20(%rbp), %eax
	addl	$1, %eax
	cltq
	movslq	-1152(%rbp,%rax,4), %rax
	movl	-3216(%rbp,%rax,4), %eax
	movslq	-20(%rbp), %rcx
	movslq	-1152(%rbp,%rcx,4), %rcx
	cmpl	-3216(%rbp,%rcx,4), %eax
	jge	.LBB15_34
# %bb.33:                               # %if.then115
                                        #   in Loop: Header=BB15_29 Depth=3
	movl	-20(%rbp), %eax
	addl	$1, %eax
	movl	%eax, -20(%rbp)
.LBB15_34:                              # %if.end117
                                        #   in Loop: Header=BB15_29 Depth=3
	movslq	-64(%rbp), %rax
	movl	-3216(%rbp,%rax,4), %eax
	movslq	-20(%rbp), %rcx
	movslq	-1152(%rbp,%rcx,4), %rcx
	cmpl	-3216(%rbp,%rcx,4), %eax
	jge	.LBB15_36
# %bb.35:                               # %if.then125
                                        #   in Loop: Header=BB15_18 Depth=2
	jmp	.LBB15_37
.LBB15_36:                              # %if.end126
                                        #   in Loop: Header=BB15_29 Depth=3
	movslq	-20(%rbp), %rax
	movl	-1152(%rbp,%rax,4), %eax
	movslq	-48(%rbp), %rcx
	movl	%eax, -1152(%rbp,%rcx,4)
	movl	-20(%rbp), %eax
	movl	%eax, -48(%rbp)
	jmp	.LBB15_29
.LBB15_37:                              # %while.end131
                                        #   in Loop: Header=BB15_18 Depth=2
	movl	-64(%rbp), %eax
	movslq	-48(%rbp), %rcx
	movl	%eax, -1152(%rbp,%rcx,4)
	movl	-32(%rbp), %eax
	addl	$1, %eax
	movl	%eax, -32(%rbp)
	movl	-32(%rbp), %eax
	movslq	-52(%rbp), %rcx
	movl	%eax, -5280(%rbp,%rcx,4)
	movslq	-56(%rbp), %rcx
	movl	%eax, -5280(%rbp,%rcx,4)
	movslq	-56(%rbp), %rax
	movl	-3216(%rbp,%rax,4), %eax
	andl	$-256, %eax
	movslq	-52(%rbp), %rcx
	movl	-3216(%rbp,%rcx,4), %ecx
	andl	$-256, %ecx
	addl	%ecx, %eax
	movslq	-56(%rbp), %rcx
	movl	-3216(%rbp,%rcx,4), %ecx
	andl	$255, %ecx
	movslq	-52(%rbp), %rdx
	movl	-3216(%rbp,%rdx,4), %edx
	andl	$255, %edx
	cmpl	%edx, %ecx
	jle	.LBB15_39
# %bb.38:                               # %cond.true152
                                        #   in Loop: Header=BB15_18 Depth=2
	movslq	-56(%rbp), %rcx
	movl	-3216(%rbp,%rcx,4), %ecx
	andl	$255, %ecx
	jmp	.LBB15_40
.LBB15_39:                              # %cond.false156
                                        #   in Loop: Header=BB15_18 Depth=2
	movslq	-52(%rbp), %rcx
	movl	-3216(%rbp,%rcx,4), %ecx
	andl	$255, %ecx
.LBB15_40:                              # %cond.end160
                                        #   in Loop: Header=BB15_18 Depth=2
	addl	$1, %ecx
	orl	%ecx, %eax
	movslq	-32(%rbp), %rcx
	movl	%eax, -3216(%rbp,%rcx,4)
	movslq	-32(%rbp), %rax
	movl	$-1, -5280(%rbp,%rax,4)
	movl	-8(%rbp), %eax
	addl	$1, %eax
	movl	%eax, -8(%rbp)
	movl	-32(%rbp), %eax
	movslq	-8(%rbp), %rcx
	movl	%eax, -1152(%rbp,%rcx,4)
	movl	-8(%rbp), %eax
	movl	%eax, -28(%rbp)
	movslq	-28(%rbp), %rax
	movl	-1152(%rbp,%rax,4), %eax
	movl	%eax, -72(%rbp)
.LBB15_41:                              # %while.cond174
                                        #   Parent Loop BB15_8 Depth=1
                                        #     Parent Loop BB15_18 Depth=2
                                        # =>    This Inner Loop Header: Depth=3
	movslq	-72(%rbp), %rax
	movl	-3216(%rbp,%rax,4), %eax
	movl	-28(%rbp), %ecx
	sarl	$1, %ecx
	movslq	%ecx, %rcx
	movslq	-1152(%rbp,%rcx,4), %rcx
	cmpl	-3216(%rbp,%rcx,4), %eax
	jge	.LBB15_43
# %bb.42:                               # %while.body183
                                        #   in Loop: Header=BB15_41 Depth=3
	movl	-28(%rbp), %eax
	sarl	$1, %eax
	cltq
	movl	-1152(%rbp,%rax,4), %eax
	movslq	-28(%rbp), %rcx
	movl	%eax, -1152(%rbp,%rcx,4)
	movl	-28(%rbp), %eax
	sarl	$1, %eax
	movl	%eax, -28(%rbp)
	jmp	.LBB15_41
.LBB15_43:                              # %while.end190
                                        #   in Loop: Header=BB15_18 Depth=2
	movl	-72(%rbp), %eax
	movslq	-28(%rbp), %rcx
	movl	%eax, -1152(%rbp,%rcx,4)
	jmp	.LBB15_18
.LBB15_44:                              # %while.end193
                                        #   in Loop: Header=BB15_8 Depth=1
	cmpl	$516, -32(%rbp)         # imm = 0x204
	jl	.LBB15_46
# %bb.45:                               # %if.then195
                                        #   in Loop: Header=BB15_8 Depth=1
	movl	$2002, %edi             # imm = 0x7D2
	callq	BZ2_bz__AssertH__fail
.LBB15_46:                              # %if.end196
                                        #   in Loop: Header=BB15_8 Depth=1
	movb	$0, -9(%rbp)
	movl	$1, -4(%rbp)
.LBB15_47:                              # %for.cond197
                                        #   Parent Loop BB15_8 Depth=1
                                        # =>  This Loop Header: Depth=2
                                        #       Child Loop BB15_49 Depth 3
	movl	-4(%rbp), %eax
	cmpl	-40(%rbp), %eax
	jg	.LBB15_55
# %bb.48:                               # %for.body199
                                        #   in Loop: Header=BB15_47 Depth=2
	movl	$0, -24(%rbp)
	movl	-4(%rbp), %eax
	movl	%eax, -60(%rbp)
.LBB15_49:                              # %while.cond200
                                        #   Parent Loop BB15_8 Depth=1
                                        #     Parent Loop BB15_47 Depth=2
                                        # =>    This Inner Loop Header: Depth=3
	movslq	-60(%rbp), %rax
	cmpl	$0, -5280(%rbp,%rax,4)
	jl	.LBB15_51
# %bb.50:                               # %while.body204
                                        #   in Loop: Header=BB15_49 Depth=3
	movslq	-60(%rbp), %rax
	movl	-5280(%rbp,%rax,4), %eax
	movl	%eax, -60(%rbp)
	movl	-24(%rbp), %eax
	addl	$1, %eax
	movl	%eax, -24(%rbp)
	jmp	.LBB15_49
.LBB15_51:                              # %while.end208
                                        #   in Loop: Header=BB15_47 Depth=2
	movl	-24(%rbp), %eax
	movq	-104(%rbp), %rcx
	movl	-4(%rbp), %edx
	subl	$1, %edx
	movslq	%edx, %rdx
	movb	%al, (%rcx,%rdx)
	movl	-24(%rbp), %eax
	cmpl	-80(%rbp), %eax
	jle	.LBB15_53
# %bb.52:                               # %if.then213
                                        #   in Loop: Header=BB15_47 Depth=2
	movb	$1, -9(%rbp)
.LBB15_53:                              # %if.end214
                                        #   in Loop: Header=BB15_47 Depth=2
	jmp	.LBB15_54
.LBB15_54:                              # %for.inc215
                                        #   in Loop: Header=BB15_47 Depth=2
	movl	-4(%rbp), %eax
	addl	$1, %eax
	movl	%eax, -4(%rbp)
	jmp	.LBB15_47
.LBB15_55:                              # %for.end217
                                        #   in Loop: Header=BB15_8 Depth=1
	cmpb	$0, -9(%rbp)
	jne	.LBB15_57
# %bb.56:                               # %if.then218
	jmp	.LBB15_62
.LBB15_57:                              # %if.end219
                                        #   in Loop: Header=BB15_8 Depth=1
	movl	$1, -4(%rbp)
.LBB15_58:                              # %for.cond220
                                        #   Parent Loop BB15_8 Depth=1
                                        # =>  This Inner Loop Header: Depth=2
	movl	-4(%rbp), %eax
	cmpl	-40(%rbp), %eax
	jg	.LBB15_61
# %bb.59:                               # %for.body223
                                        #   in Loop: Header=BB15_58 Depth=2
	movslq	-4(%rbp), %rax
	movl	-3216(%rbp,%rax,4), %eax
	sarl	$8, %eax
	movl	%eax, -24(%rbp)
	movl	-24(%rbp), %eax
	cltd
	movl	$2, %ecx
	idivl	%ecx
	addl	$1, %eax
	movl	%eax, -24(%rbp)
	movl	-24(%rbp), %eax
	shll	$8, %eax
	movslq	-4(%rbp), %rcx
	movl	%eax, -3216(%rbp,%rcx,4)
# %bb.60:                               # %for.inc231
                                        #   in Loop: Header=BB15_58 Depth=2
	movl	-4(%rbp), %eax
	addl	$1, %eax
	movl	%eax, -4(%rbp)
	jmp	.LBB15_58
.LBB15_61:                              # %for.end233
                                        #   in Loop: Header=BB15_8 Depth=1
	jmp	.LBB15_8
.LBB15_62:                              # %while.end234
	cmpl	$574596520, -84(%rbp)   # imm = 0x223FA5A8
	jne	.LBB15_64
.LBB15_63:
	addq	$5280, %rsp             # imm = 0x14A0
	popq	%rbp
	.cfi_def_cfa %rsp, 8
	retq
.LBB15_64:                              # %func_exit
	.cfi_def_cfa %rbp, 16
	callq	detect_breach
	jmp	.LBB15_63
.Lfunc_end15:
	.size	BZ2_hbMakeCodeLengths.13, .Lfunc_end15-BZ2_hbMakeCodeLengths.13
	.cfi_endproc
                                        # -- End function
	.globl	BZ2_hbAssignCodes.14    # -- Begin function BZ2_hbAssignCodes.14
	.p2align	4, 0x90
	.type	BZ2_hbAssignCodes.14,@function
BZ2_hbAssignCodes.14:                   # @BZ2_hbAssignCodes.14
	.cfi_startproc
# %bb.0:                                # %entry
	pushq	%rbp
	.cfi_def_cfa_offset 16
	.cfi_offset %rbp, -16
	movq	%rsp, %rbp
	.cfi_def_cfa_register %rbp
	subq	$48, %rsp
	movl	$985086779, -16(%rbp)   # imm = 0x3AB73B3B
	movq	%rdi, -48(%rbp)
	movq	%rsi, -40(%rbp)
	movl	%edx, -24(%rbp)
	movl	%ecx, -20(%rbp)
	movl	%r8d, -28(%rbp)
	movl	$0, -4(%rbp)
	movl	-24(%rbp), %eax
	movl	%eax, -12(%rbp)
.LBB16_1:                               # %for.cond
                                        # =>This Loop Header: Depth=1
                                        #     Child Loop BB16_3 Depth 2
	movl	-12(%rbp), %eax
	cmpl	-20(%rbp), %eax
	jg	.LBB16_10
# %bb.2:                                # %for.body
                                        #   in Loop: Header=BB16_1 Depth=1
	movl	$0, -8(%rbp)
.LBB16_3:                               # %for.cond1
                                        #   Parent Loop BB16_1 Depth=1
                                        # =>  This Inner Loop Header: Depth=2
	movl	-8(%rbp), %eax
	cmpl	-28(%rbp), %eax
	jge	.LBB16_8
# %bb.4:                                # %for.body3
                                        #   in Loop: Header=BB16_3 Depth=2
	movq	-40(%rbp), %rax
	movslq	-8(%rbp), %rcx
	movzbl	(%rax,%rcx), %eax
	cmpl	-12(%rbp), %eax
	jne	.LBB16_6
# %bb.5:                                # %if.then
                                        #   in Loop: Header=BB16_3 Depth=2
	movl	-4(%rbp), %eax
	movq	-48(%rbp), %rcx
	movslq	-8(%rbp), %rdx
	movl	%eax, (%rcx,%rdx,4)
	movl	-4(%rbp), %eax
	addl	$1, %eax
	movl	%eax, -4(%rbp)
.LBB16_6:                               # %if.end
                                        #   in Loop: Header=BB16_3 Depth=2
	jmp	.LBB16_7
.LBB16_7:                               # %for.inc
                                        #   in Loop: Header=BB16_3 Depth=2
	movl	-8(%rbp), %eax
	addl	$1, %eax
	movl	%eax, -8(%rbp)
	jmp	.LBB16_3
.LBB16_8:                               # %for.end
                                        #   in Loop: Header=BB16_1 Depth=1
	movl	-4(%rbp), %eax
	shll	$1, %eax
	movl	%eax, -4(%rbp)
# %bb.9:                                # %for.inc9
                                        #   in Loop: Header=BB16_1 Depth=1
	movl	-12(%rbp), %eax
	addl	$1, %eax
	movl	%eax, -12(%rbp)
	jmp	.LBB16_1
.LBB16_10:                              # %for.end11
	cmpl	$985086779, -16(%rbp)   # imm = 0x3AB73B3B
	jne	.LBB16_12
.LBB16_11:
	addq	$48, %rsp
	popq	%rbp
	.cfi_def_cfa %rsp, 8
	retq
.LBB16_12:                              # %func_exit
	.cfi_def_cfa %rbp, 16
	callq	detect_breach
	jmp	.LBB16_11
.Lfunc_end16:
	.size	BZ2_hbAssignCodes.14, .Lfunc_end16-BZ2_hbAssignCodes.14
	.cfi_endproc
                                        # -- End function
	.globl	BZ2_hbMakeCodeLengths.15 # -- Begin function BZ2_hbMakeCodeLengths.15
	.p2align	4, 0x90
	.type	BZ2_hbMakeCodeLengths.15,@function
BZ2_hbMakeCodeLengths.15:               # @BZ2_hbMakeCodeLengths.15
	.cfi_startproc
# %bb.0:                                # %entry
	pushq	%rbp
	.cfi_def_cfa_offset 16
	.cfi_offset %rbp, -16
	movq	%rsp, %rbp
	.cfi_def_cfa_register %rbp
	subq	$5280, %rsp             # imm = 0x14A0
	movl	$681214895, -84(%rbp)   # imm = 0x289A83AF
	movq	%rdi, -104(%rbp)
	movq	%rsi, -96(%rbp)
	movl	%edx, -48(%rbp)
	movl	%ecx, -80(%rbp)
	movl	$0, -4(%rbp)
.LBB17_1:                               # %for.cond
                                        # =>This Inner Loop Header: Depth=1
	movl	-4(%rbp), %eax
	cmpl	-48(%rbp), %eax
	jge	.LBB17_7
# %bb.2:                                # %for.body
                                        #   in Loop: Header=BB17_1 Depth=1
	movq	-96(%rbp), %rax
	movslq	-4(%rbp), %rcx
	cmpl	$0, (%rax,%rcx,4)
	jne	.LBB17_4
# %bb.3:                                # %cond.true
                                        #   in Loop: Header=BB17_1 Depth=1
	movl	$1, %eax
	jmp	.LBB17_5
.LBB17_4:                               # %cond.false
                                        #   in Loop: Header=BB17_1 Depth=1
	movq	-96(%rbp), %rax
	movslq	-4(%rbp), %rcx
	movl	(%rax,%rcx,4), %eax
.LBB17_5:                               # %cond.end
                                        #   in Loop: Header=BB17_1 Depth=1
	shll	$8, %eax
	movl	-4(%rbp), %ecx
	addl	$1, %ecx
	movslq	%ecx, %rcx
	movl	%eax, -3216(%rbp,%rcx,4)
# %bb.6:                                # %for.inc
                                        #   in Loop: Header=BB17_1 Depth=1
	movl	-4(%rbp), %eax
	addl	$1, %eax
	movl	%eax, -4(%rbp)
	jmp	.LBB17_1
.LBB17_7:                               # %for.end
	jmp	.LBB17_8
.LBB17_8:                               # %while.body
                                        # =>This Loop Header: Depth=1
                                        #     Child Loop BB17_9 Depth 2
                                        #       Child Loop BB17_11 Depth 3
                                        #     Child Loop BB17_18 Depth 2
                                        #       Child Loop BB17_20 Depth 3
                                        #       Child Loop BB17_29 Depth 3
                                        #       Child Loop BB17_41 Depth 3
                                        #     Child Loop BB17_47 Depth 2
                                        #       Child Loop BB17_49 Depth 3
                                        #     Child Loop BB17_58 Depth 2
	movl	-48(%rbp), %eax
	movl	%eax, -32(%rbp)
	movl	$0, -8(%rbp)
	movl	$0, -1152(%rbp)
	movl	$0, -3216(%rbp)
	movl	$-2, -5280(%rbp)
	movl	$1, -4(%rbp)
.LBB17_9:                               # %for.cond9
                                        #   Parent Loop BB17_8 Depth=1
                                        # =>  This Loop Header: Depth=2
                                        #       Child Loop BB17_11 Depth 3
	movl	-4(%rbp), %eax
	cmpl	-48(%rbp), %eax
	jg	.LBB17_15
# %bb.10:                               # %for.body11
                                        #   in Loop: Header=BB17_9 Depth=2
	movslq	-4(%rbp), %rax
	movl	$-1, -5280(%rbp,%rax,4)
	movl	-8(%rbp), %eax
	addl	$1, %eax
	movl	%eax, -8(%rbp)
	movl	-4(%rbp), %eax
	movslq	-8(%rbp), %rcx
	movl	%eax, -1152(%rbp,%rcx,4)
	movl	-8(%rbp), %eax
	movl	%eax, -28(%rbp)
	movslq	-28(%rbp), %rax
	movl	-1152(%rbp,%rax,4), %eax
	movl	%eax, -68(%rbp)
.LBB17_11:                              # %while.cond19
                                        #   Parent Loop BB17_8 Depth=1
                                        #     Parent Loop BB17_9 Depth=2
                                        # =>    This Inner Loop Header: Depth=3
	movslq	-68(%rbp), %rax
	movl	-3216(%rbp,%rax,4), %eax
	movl	-28(%rbp), %ecx
	sarl	$1, %ecx
	movslq	%ecx, %rcx
	movslq	-1152(%rbp,%rcx,4), %rcx
	cmpl	-3216(%rbp,%rcx,4), %eax
	jge	.LBB17_13
# %bb.12:                               # %while.body27
                                        #   in Loop: Header=BB17_11 Depth=3
	movl	-28(%rbp), %eax
	sarl	$1, %eax
	cltq
	movl	-1152(%rbp,%rax,4), %eax
	movslq	-28(%rbp), %rcx
	movl	%eax, -1152(%rbp,%rcx,4)
	movl	-28(%rbp), %eax
	sarl	$1, %eax
	movl	%eax, -28(%rbp)
	jmp	.LBB17_11
.LBB17_13:                              # %while.end
                                        #   in Loop: Header=BB17_9 Depth=2
	movl	-68(%rbp), %eax
	movslq	-28(%rbp), %rcx
	movl	%eax, -1152(%rbp,%rcx,4)
# %bb.14:                               # %for.inc36
                                        #   in Loop: Header=BB17_9 Depth=2
	movl	-4(%rbp), %eax
	addl	$1, %eax
	movl	%eax, -4(%rbp)
	jmp	.LBB17_9
.LBB17_15:                              # %for.end38
                                        #   in Loop: Header=BB17_8 Depth=1
	cmpl	$260, -8(%rbp)          # imm = 0x104
	jl	.LBB17_17
# %bb.16:                               # %if.then
                                        #   in Loop: Header=BB17_8 Depth=1
	movl	$2001, %edi             # imm = 0x7D1
	callq	BZ2_bz__AssertH__fail
.LBB17_17:                              # %if.end
                                        #   in Loop: Header=BB17_8 Depth=1
	jmp	.LBB17_18
.LBB17_18:                              # %while.cond40
                                        #   Parent Loop BB17_8 Depth=1
                                        # =>  This Loop Header: Depth=2
                                        #       Child Loop BB17_20 Depth 3
                                        #       Child Loop BB17_29 Depth 3
                                        #       Child Loop BB17_41 Depth 3
	cmpl	$1, -8(%rbp)
	jle	.LBB17_44
# %bb.19:                               # %while.body42
                                        #   in Loop: Header=BB17_18 Depth=2
	movl	-1148(%rbp), %eax
	movl	%eax, -56(%rbp)
	movslq	-8(%rbp), %rax
	movl	-1152(%rbp,%rax,4), %eax
	movl	%eax, -1148(%rbp)
	movl	-8(%rbp), %eax
	addl	$-1, %eax
	movl	%eax, -8(%rbp)
	movl	$1, -44(%rbp)
	movslq	-44(%rbp), %rax
	movl	-1152(%rbp,%rax,4), %eax
	movl	%eax, -76(%rbp)
.LBB17_20:                              # %while.body52
                                        #   Parent Loop BB17_8 Depth=1
                                        #     Parent Loop BB17_18 Depth=2
                                        # =>    This Inner Loop Header: Depth=3
	movl	-44(%rbp), %eax
	shll	$1, %eax
	movl	%eax, -20(%rbp)
	movl	-20(%rbp), %eax
	cmpl	-8(%rbp), %eax
	jle	.LBB17_22
# %bb.21:                               # %if.then55
                                        #   in Loop: Header=BB17_18 Depth=2
	jmp	.LBB17_28
.LBB17_22:                              # %if.end56
                                        #   in Loop: Header=BB17_20 Depth=3
	movl	-20(%rbp), %eax
	cmpl	-8(%rbp), %eax
	jge	.LBB17_25
# %bb.23:                               # %land.lhs.true
                                        #   in Loop: Header=BB17_20 Depth=3
	movl	-20(%rbp), %eax
	addl	$1, %eax
	cltq
	movslq	-1152(%rbp,%rax,4), %rax
	movl	-3216(%rbp,%rax,4), %eax
	movslq	-20(%rbp), %rcx
	movslq	-1152(%rbp,%rcx,4), %rcx
	cmpl	-3216(%rbp,%rcx,4), %eax
	jge	.LBB17_25
# %bb.24:                               # %if.then68
                                        #   in Loop: Header=BB17_20 Depth=3
	movl	-20(%rbp), %eax
	addl	$1, %eax
	movl	%eax, -20(%rbp)
.LBB17_25:                              # %if.end70
                                        #   in Loop: Header=BB17_20 Depth=3
	movslq	-76(%rbp), %rax
	movl	-3216(%rbp,%rax,4), %eax
	movslq	-20(%rbp), %rcx
	movslq	-1152(%rbp,%rcx,4), %rcx
	cmpl	-3216(%rbp,%rcx,4), %eax
	jge	.LBB17_27
# %bb.26:                               # %if.then78
                                        #   in Loop: Header=BB17_18 Depth=2
	jmp	.LBB17_28
.LBB17_27:                              # %if.end79
                                        #   in Loop: Header=BB17_20 Depth=3
	movslq	-20(%rbp), %rax
	movl	-1152(%rbp,%rax,4), %eax
	movslq	-44(%rbp), %rcx
	movl	%eax, -1152(%rbp,%rcx,4)
	movl	-20(%rbp), %eax
	movl	%eax, -44(%rbp)
	jmp	.LBB17_20
.LBB17_28:                              # %while.end84
                                        #   in Loop: Header=BB17_18 Depth=2
	movl	-76(%rbp), %eax
	movslq	-44(%rbp), %rcx
	movl	%eax, -1152(%rbp,%rcx,4)
	movl	-1148(%rbp), %eax
	movl	%eax, -52(%rbp)
	movslq	-8(%rbp), %rax
	movl	-1152(%rbp,%rax,4), %eax
	movl	%eax, -1148(%rbp)
	movl	-8(%rbp), %eax
	addl	$-1, %eax
	movl	%eax, -8(%rbp)
	movl	$1, -40(%rbp)
	movslq	-40(%rbp), %rax
	movl	-1152(%rbp,%rax,4), %eax
	movl	%eax, -72(%rbp)
.LBB17_29:                              # %while.body98
                                        #   Parent Loop BB17_8 Depth=1
                                        #     Parent Loop BB17_18 Depth=2
                                        # =>    This Inner Loop Header: Depth=3
	movl	-40(%rbp), %eax
	shll	$1, %eax
	movl	%eax, -16(%rbp)
	movl	-16(%rbp), %eax
	cmpl	-8(%rbp), %eax
	jle	.LBB17_31
# %bb.30:                               # %if.then101
                                        #   in Loop: Header=BB17_18 Depth=2
	jmp	.LBB17_37
.LBB17_31:                              # %if.end102
                                        #   in Loop: Header=BB17_29 Depth=3
	movl	-16(%rbp), %eax
	cmpl	-8(%rbp), %eax
	jge	.LBB17_34
# %bb.32:                               # %land.lhs.true104
                                        #   in Loop: Header=BB17_29 Depth=3
	movl	-16(%rbp), %eax
	addl	$1, %eax
	cltq
	movslq	-1152(%rbp,%rax,4), %rax
	movl	-3216(%rbp,%rax,4), %eax
	movslq	-16(%rbp), %rcx
	movslq	-1152(%rbp,%rcx,4), %rcx
	cmpl	-3216(%rbp,%rcx,4), %eax
	jge	.LBB17_34
# %bb.33:                               # %if.then115
                                        #   in Loop: Header=BB17_29 Depth=3
	movl	-16(%rbp), %eax
	addl	$1, %eax
	movl	%eax, -16(%rbp)
.LBB17_34:                              # %if.end117
                                        #   in Loop: Header=BB17_29 Depth=3
	movslq	-72(%rbp), %rax
	movl	-3216(%rbp,%rax,4), %eax
	movslq	-16(%rbp), %rcx
	movslq	-1152(%rbp,%rcx,4), %rcx
	cmpl	-3216(%rbp,%rcx,4), %eax
	jge	.LBB17_36
# %bb.35:                               # %if.then125
                                        #   in Loop: Header=BB17_18 Depth=2
	jmp	.LBB17_37
.LBB17_36:                              # %if.end126
                                        #   in Loop: Header=BB17_29 Depth=3
	movslq	-16(%rbp), %rax
	movl	-1152(%rbp,%rax,4), %eax
	movslq	-40(%rbp), %rcx
	movl	%eax, -1152(%rbp,%rcx,4)
	movl	-16(%rbp), %eax
	movl	%eax, -40(%rbp)
	jmp	.LBB17_29
.LBB17_37:                              # %while.end131
                                        #   in Loop: Header=BB17_18 Depth=2
	movl	-72(%rbp), %eax
	movslq	-40(%rbp), %rcx
	movl	%eax, -1152(%rbp,%rcx,4)
	movl	-32(%rbp), %eax
	addl	$1, %eax
	movl	%eax, -32(%rbp)
	movl	-32(%rbp), %eax
	movslq	-52(%rbp), %rcx
	movl	%eax, -5280(%rbp,%rcx,4)
	movslq	-56(%rbp), %rcx
	movl	%eax, -5280(%rbp,%rcx,4)
	movslq	-56(%rbp), %rax
	movl	-3216(%rbp,%rax,4), %eax
	andl	$-256, %eax
	movslq	-52(%rbp), %rcx
	movl	-3216(%rbp,%rcx,4), %ecx
	andl	$-256, %ecx
	addl	%ecx, %eax
	movslq	-56(%rbp), %rcx
	movl	-3216(%rbp,%rcx,4), %ecx
	andl	$255, %ecx
	movslq	-52(%rbp), %rdx
	movl	-3216(%rbp,%rdx,4), %edx
	andl	$255, %edx
	cmpl	%edx, %ecx
	jle	.LBB17_39
# %bb.38:                               # %cond.true152
                                        #   in Loop: Header=BB17_18 Depth=2
	movslq	-56(%rbp), %rcx
	movl	-3216(%rbp,%rcx,4), %ecx
	andl	$255, %ecx
	jmp	.LBB17_40
.LBB17_39:                              # %cond.false156
                                        #   in Loop: Header=BB17_18 Depth=2
	movslq	-52(%rbp), %rcx
	movl	-3216(%rbp,%rcx,4), %ecx
	andl	$255, %ecx
.LBB17_40:                              # %cond.end160
                                        #   in Loop: Header=BB17_18 Depth=2
	addl	$1, %ecx
	orl	%ecx, %eax
	movslq	-32(%rbp), %rcx
	movl	%eax, -3216(%rbp,%rcx,4)
	movslq	-32(%rbp), %rax
	movl	$-1, -5280(%rbp,%rax,4)
	movl	-8(%rbp), %eax
	addl	$1, %eax
	movl	%eax, -8(%rbp)
	movl	-32(%rbp), %eax
	movslq	-8(%rbp), %rcx
	movl	%eax, -1152(%rbp,%rcx,4)
	movl	-8(%rbp), %eax
	movl	%eax, -36(%rbp)
	movslq	-36(%rbp), %rax
	movl	-1152(%rbp,%rax,4), %eax
	movl	%eax, -64(%rbp)
.LBB17_41:                              # %while.cond174
                                        #   Parent Loop BB17_8 Depth=1
                                        #     Parent Loop BB17_18 Depth=2
                                        # =>    This Inner Loop Header: Depth=3
	movslq	-64(%rbp), %rax
	movl	-3216(%rbp,%rax,4), %eax
	movl	-36(%rbp), %ecx
	sarl	$1, %ecx
	movslq	%ecx, %rcx
	movslq	-1152(%rbp,%rcx,4), %rcx
	cmpl	-3216(%rbp,%rcx,4), %eax
	jge	.LBB17_43
# %bb.42:                               # %while.body183
                                        #   in Loop: Header=BB17_41 Depth=3
	movl	-36(%rbp), %eax
	sarl	$1, %eax
	cltq
	movl	-1152(%rbp,%rax,4), %eax
	movslq	-36(%rbp), %rcx
	movl	%eax, -1152(%rbp,%rcx,4)
	movl	-36(%rbp), %eax
	sarl	$1, %eax
	movl	%eax, -36(%rbp)
	jmp	.LBB17_41
.LBB17_43:                              # %while.end190
                                        #   in Loop: Header=BB17_18 Depth=2
	movl	-64(%rbp), %eax
	movslq	-36(%rbp), %rcx
	movl	%eax, -1152(%rbp,%rcx,4)
	jmp	.LBB17_18
.LBB17_44:                              # %while.end193
                                        #   in Loop: Header=BB17_8 Depth=1
	cmpl	$516, -32(%rbp)         # imm = 0x204
	jl	.LBB17_46
# %bb.45:                               # %if.then195
                                        #   in Loop: Header=BB17_8 Depth=1
	movl	$2002, %edi             # imm = 0x7D2
	callq	BZ2_bz__AssertH__fail
.LBB17_46:                              # %if.end196
                                        #   in Loop: Header=BB17_8 Depth=1
	movb	$0, -9(%rbp)
	movl	$1, -4(%rbp)
.LBB17_47:                              # %for.cond197
                                        #   Parent Loop BB17_8 Depth=1
                                        # =>  This Loop Header: Depth=2
                                        #       Child Loop BB17_49 Depth 3
	movl	-4(%rbp), %eax
	cmpl	-48(%rbp), %eax
	jg	.LBB17_55
# %bb.48:                               # %for.body199
                                        #   in Loop: Header=BB17_47 Depth=2
	movl	$0, -24(%rbp)
	movl	-4(%rbp), %eax
	movl	%eax, -60(%rbp)
.LBB17_49:                              # %while.cond200
                                        #   Parent Loop BB17_8 Depth=1
                                        #     Parent Loop BB17_47 Depth=2
                                        # =>    This Inner Loop Header: Depth=3
	movslq	-60(%rbp), %rax
	cmpl	$0, -5280(%rbp,%rax,4)
	jl	.LBB17_51
# %bb.50:                               # %while.body204
                                        #   in Loop: Header=BB17_49 Depth=3
	movslq	-60(%rbp), %rax
	movl	-5280(%rbp,%rax,4), %eax
	movl	%eax, -60(%rbp)
	movl	-24(%rbp), %eax
	addl	$1, %eax
	movl	%eax, -24(%rbp)
	jmp	.LBB17_49
.LBB17_51:                              # %while.end208
                                        #   in Loop: Header=BB17_47 Depth=2
	movl	-24(%rbp), %eax
	movq	-104(%rbp), %rcx
	movl	-4(%rbp), %edx
	subl	$1, %edx
	movslq	%edx, %rdx
	movb	%al, (%rcx,%rdx)
	movl	-24(%rbp), %eax
	cmpl	-80(%rbp), %eax
	jle	.LBB17_53
# %bb.52:                               # %if.then213
                                        #   in Loop: Header=BB17_47 Depth=2
	movb	$1, -9(%rbp)
.LBB17_53:                              # %if.end214
                                        #   in Loop: Header=BB17_47 Depth=2
	jmp	.LBB17_54
.LBB17_54:                              # %for.inc215
                                        #   in Loop: Header=BB17_47 Depth=2
	movl	-4(%rbp), %eax
	addl	$1, %eax
	movl	%eax, -4(%rbp)
	jmp	.LBB17_47
.LBB17_55:                              # %for.end217
                                        #   in Loop: Header=BB17_8 Depth=1
	cmpb	$0, -9(%rbp)
	jne	.LBB17_57
# %bb.56:                               # %if.then218
	jmp	.LBB17_62
.LBB17_57:                              # %if.end219
                                        #   in Loop: Header=BB17_8 Depth=1
	movl	$1, -4(%rbp)
.LBB17_58:                              # %for.cond220
                                        #   Parent Loop BB17_8 Depth=1
                                        # =>  This Inner Loop Header: Depth=2
	movl	-4(%rbp), %eax
	cmpl	-48(%rbp), %eax
	jg	.LBB17_61
# %bb.59:                               # %for.body223
                                        #   in Loop: Header=BB17_58 Depth=2
	movslq	-4(%rbp), %rax
	movl	-3216(%rbp,%rax,4), %eax
	sarl	$8, %eax
	movl	%eax, -24(%rbp)
	movl	-24(%rbp), %eax
	cltd
	movl	$2, %ecx
	idivl	%ecx
	addl	$1, %eax
	movl	%eax, -24(%rbp)
	movl	-24(%rbp), %eax
	shll	$8, %eax
	movslq	-4(%rbp), %rcx
	movl	%eax, -3216(%rbp,%rcx,4)
# %bb.60:                               # %for.inc231
                                        #   in Loop: Header=BB17_58 Depth=2
	movl	-4(%rbp), %eax
	addl	$1, %eax
	movl	%eax, -4(%rbp)
	jmp	.LBB17_58
.LBB17_61:                              # %for.end233
                                        #   in Loop: Header=BB17_8 Depth=1
	jmp	.LBB17_8
.LBB17_62:                              # %while.end234
	cmpl	$681214895, -84(%rbp)   # imm = 0x289A83AF
	jne	.LBB17_64
.LBB17_63:
	addq	$5280, %rsp             # imm = 0x14A0
	popq	%rbp
	.cfi_def_cfa %rsp, 8
	retq
.LBB17_64:                              # %func_exit
	.cfi_def_cfa %rbp, 16
	callq	detect_breach
	jmp	.LBB17_63
.Lfunc_end17:
	.size	BZ2_hbMakeCodeLengths.15, .Lfunc_end17-BZ2_hbMakeCodeLengths.15
	.cfi_endproc
                                        # -- End function
	.globl	BZ2_hbCreateDecodeTables.16 # -- Begin function BZ2_hbCreateDecodeTables.16
	.p2align	4, 0x90
	.type	BZ2_hbCreateDecodeTables.16,@function
BZ2_hbCreateDecodeTables.16:            # @BZ2_hbCreateDecodeTables.16
	.cfi_startproc
# %bb.0:                                # %entry
	pushq	%rbp
	.cfi_def_cfa_offset 16
	.cfi_offset %rbp, -16
	movq	%rsp, %rbp
	.cfi_def_cfa_register %rbp
	subq	$80, %rsp
	movl	16(%rbp), %eax
	movl	$502455377, -52(%rbp)   # imm = 0x1DF2DC51
	movq	%rdi, -48(%rbp)
	movq	%rsi, -24(%rbp)
	movq	%rdx, -72(%rbp)
	movq	%rcx, -64(%rbp)
	movl	%r8d, -36(%rbp)
	movl	%r9d, -28(%rbp)
	movl	$0, -32(%rbp)
	movl	-36(%rbp), %eax
	movl	%eax, -4(%rbp)
.LBB18_1:                               # %for.cond
                                        # =>This Loop Header: Depth=1
                                        #     Child Loop BB18_3 Depth 2
	movl	-4(%rbp), %eax
	cmpl	-28(%rbp), %eax
	jg	.LBB18_10
# %bb.2:                                # %for.body
                                        #   in Loop: Header=BB18_1 Depth=1
	movl	$0, -12(%rbp)
.LBB18_3:                               # %for.cond1
                                        #   Parent Loop BB18_1 Depth=1
                                        # =>  This Inner Loop Header: Depth=2
	movl	-12(%rbp), %eax
	cmpl	16(%rbp), %eax
	jge	.LBB18_8
# %bb.4:                                # %for.body3
                                        #   in Loop: Header=BB18_3 Depth=2
	movq	-64(%rbp), %rax
	movslq	-12(%rbp), %rcx
	movzbl	(%rax,%rcx), %eax
	cmpl	-4(%rbp), %eax
	jne	.LBB18_6
# %bb.5:                                # %if.then
                                        #   in Loop: Header=BB18_3 Depth=2
	movl	-12(%rbp), %eax
	movq	-72(%rbp), %rcx
	movslq	-32(%rbp), %rdx
	movl	%eax, (%rcx,%rdx,4)
	movl	-32(%rbp), %eax
	addl	$1, %eax
	movl	%eax, -32(%rbp)
.LBB18_6:                               # %if.end
                                        #   in Loop: Header=BB18_3 Depth=2
	jmp	.LBB18_7
.LBB18_7:                               # %for.inc
                                        #   in Loop: Header=BB18_3 Depth=2
	movl	-12(%rbp), %eax
	addl	$1, %eax
	movl	%eax, -12(%rbp)
	jmp	.LBB18_3
.LBB18_8:                               # %for.end
                                        #   in Loop: Header=BB18_1 Depth=1
	jmp	.LBB18_9
.LBB18_9:                               # %for.inc9
                                        #   in Loop: Header=BB18_1 Depth=1
	movl	-4(%rbp), %eax
	addl	$1, %eax
	movl	%eax, -4(%rbp)
	jmp	.LBB18_1
.LBB18_10:                              # %for.end11
	movl	$0, -4(%rbp)
.LBB18_11:                              # %for.cond12
                                        # =>This Inner Loop Header: Depth=1
	cmpl	$23, -4(%rbp)
	jge	.LBB18_14
# %bb.12:                               # %for.body15
                                        #   in Loop: Header=BB18_11 Depth=1
	movq	-24(%rbp), %rax
	movslq	-4(%rbp), %rcx
	movl	$0, (%rax,%rcx,4)
# %bb.13:                               # %for.inc18
                                        #   in Loop: Header=BB18_11 Depth=1
	movl	-4(%rbp), %eax
	addl	$1, %eax
	movl	%eax, -4(%rbp)
	jmp	.LBB18_11
.LBB18_14:                              # %for.end20
	movl	$0, -4(%rbp)
.LBB18_15:                              # %for.cond21
                                        # =>This Inner Loop Header: Depth=1
	movl	-4(%rbp), %eax
	cmpl	16(%rbp), %eax
	jge	.LBB18_18
# %bb.16:                               # %for.body24
                                        #   in Loop: Header=BB18_15 Depth=1
	movq	-24(%rbp), %rax
	movq	-64(%rbp), %rcx
	movslq	-4(%rbp), %rdx
	movzbl	(%rcx,%rdx), %ecx
	addl	$1, %ecx
	movslq	%ecx, %rcx
	movl	(%rax,%rcx,4), %edx
	addl	$1, %edx
	movl	%edx, (%rax,%rcx,4)
# %bb.17:                               # %for.inc31
                                        #   in Loop: Header=BB18_15 Depth=1
	movl	-4(%rbp), %eax
	addl	$1, %eax
	movl	%eax, -4(%rbp)
	jmp	.LBB18_15
.LBB18_18:                              # %for.end33
	movl	$1, -4(%rbp)
.LBB18_19:                              # %for.cond34
                                        # =>This Inner Loop Header: Depth=1
	cmpl	$23, -4(%rbp)
	jge	.LBB18_22
# %bb.20:                               # %for.body37
                                        #   in Loop: Header=BB18_19 Depth=1
	movq	-24(%rbp), %rax
	movl	-4(%rbp), %ecx
	subl	$1, %ecx
	movslq	%ecx, %rcx
	movl	(%rax,%rcx,4), %eax
	movq	-24(%rbp), %rcx
	movslq	-4(%rbp), %rdx
	addl	(%rcx,%rdx,4), %eax
	movl	%eax, (%rcx,%rdx,4)
# %bb.21:                               # %for.inc43
                                        #   in Loop: Header=BB18_19 Depth=1
	movl	-4(%rbp), %eax
	addl	$1, %eax
	movl	%eax, -4(%rbp)
	jmp	.LBB18_19
.LBB18_22:                              # %for.end45
	movl	$0, -4(%rbp)
.LBB18_23:                              # %for.cond46
                                        # =>This Inner Loop Header: Depth=1
	cmpl	$23, -4(%rbp)
	jge	.LBB18_26
# %bb.24:                               # %for.body49
                                        #   in Loop: Header=BB18_23 Depth=1
	movq	-48(%rbp), %rax
	movslq	-4(%rbp), %rcx
	movl	$0, (%rax,%rcx,4)
# %bb.25:                               # %for.inc52
                                        #   in Loop: Header=BB18_23 Depth=1
	movl	-4(%rbp), %eax
	addl	$1, %eax
	movl	%eax, -4(%rbp)
	jmp	.LBB18_23
.LBB18_26:                              # %for.end54
	movl	$0, -8(%rbp)
	movl	-36(%rbp), %eax
	movl	%eax, -4(%rbp)
.LBB18_27:                              # %for.cond55
                                        # =>This Inner Loop Header: Depth=1
	movl	-4(%rbp), %eax
	cmpl	-28(%rbp), %eax
	jg	.LBB18_30
# %bb.28:                               # %for.body58
                                        #   in Loop: Header=BB18_27 Depth=1
	movq	-24(%rbp), %rax
	movl	-4(%rbp), %ecx
	addl	$1, %ecx
	movslq	%ecx, %rcx
	movl	(%rax,%rcx,4), %eax
	movq	-24(%rbp), %rcx
	movslq	-4(%rbp), %rdx
	subl	(%rcx,%rdx,4), %eax
	addl	-8(%rbp), %eax
	movl	%eax, -8(%rbp)
	movl	-8(%rbp), %eax
	subl	$1, %eax
	movq	-48(%rbp), %rcx
	movslq	-4(%rbp), %rdx
	movl	%eax, (%rcx,%rdx,4)
	movl	-8(%rbp), %eax
	shll	$1, %eax
	movl	%eax, -8(%rbp)
# %bb.29:                               # %for.inc69
                                        #   in Loop: Header=BB18_27 Depth=1
	movl	-4(%rbp), %eax
	addl	$1, %eax
	movl	%eax, -4(%rbp)
	jmp	.LBB18_27
.LBB18_30:                              # %for.end71
	movl	-36(%rbp), %eax
	addl	$1, %eax
	movl	%eax, -4(%rbp)
.LBB18_31:                              # %for.cond73
                                        # =>This Inner Loop Header: Depth=1
	movl	-4(%rbp), %eax
	cmpl	-28(%rbp), %eax
	jg	.LBB18_34
# %bb.32:                               # %for.body76
                                        #   in Loop: Header=BB18_31 Depth=1
	movq	-48(%rbp), %rax
	movl	-4(%rbp), %ecx
	subl	$1, %ecx
	movslq	%ecx, %rcx
	movl	(%rax,%rcx,4), %eax
	addl	$1, %eax
	shll	$1, %eax
	movq	-24(%rbp), %rcx
	movslq	-4(%rbp), %rdx
	subl	(%rcx,%rdx,4), %eax
	movq	-24(%rbp), %rcx
	movslq	-4(%rbp), %rdx
	movl	%eax, (%rcx,%rdx,4)
# %bb.33:                               # %for.inc87
                                        #   in Loop: Header=BB18_31 Depth=1
	movl	-4(%rbp), %eax
	addl	$1, %eax
	movl	%eax, -4(%rbp)
	jmp	.LBB18_31
.LBB18_34:                              # %for.end89
	cmpl	$502455377, -52(%rbp)   # imm = 0x1DF2DC51
	jne	.LBB18_36
.LBB18_35:
	addq	$80, %rsp
	popq	%rbp
	.cfi_def_cfa %rsp, 8
	retq
.LBB18_36:                              # %func_exit
	.cfi_def_cfa %rbp, 16
	callq	detect_breach
	jmp	.LBB18_35
.Lfunc_end18:
	.size	BZ2_hbCreateDecodeTables.16, .Lfunc_end18-BZ2_hbCreateDecodeTables.16
	.cfi_endproc
                                        # -- End function
	.globl	BZ2_hbMakeCodeLengths.17 # -- Begin function BZ2_hbMakeCodeLengths.17
	.p2align	4, 0x90
	.type	BZ2_hbMakeCodeLengths.17,@function
BZ2_hbMakeCodeLengths.17:               # @BZ2_hbMakeCodeLengths.17
	.cfi_startproc
# %bb.0:                                # %entry
	pushq	%rbp
	.cfi_def_cfa_offset 16
	.cfi_offset %rbp, -16
	movq	%rsp, %rbp
	.cfi_def_cfa_register %rbp
	subq	$5280, %rsp             # imm = 0x14A0
	movl	$2049403354, -84(%rbp)  # imm = 0x7A2769DA
	movq	%rdi, -104(%rbp)
	movq	%rsi, -96(%rbp)
	movl	%edx, -44(%rbp)
	movl	%ecx, -80(%rbp)
	movl	$0, -4(%rbp)
.LBB19_1:                               # %for.cond
                                        # =>This Inner Loop Header: Depth=1
	movl	-4(%rbp), %eax
	cmpl	-44(%rbp), %eax
	jge	.LBB19_7
# %bb.2:                                # %for.body
                                        #   in Loop: Header=BB19_1 Depth=1
	movq	-96(%rbp), %rax
	movslq	-4(%rbp), %rcx
	cmpl	$0, (%rax,%rcx,4)
	jne	.LBB19_4
# %bb.3:                                # %cond.true
                                        #   in Loop: Header=BB19_1 Depth=1
	movl	$1, %eax
	jmp	.LBB19_5
.LBB19_4:                               # %cond.false
                                        #   in Loop: Header=BB19_1 Depth=1
	movq	-96(%rbp), %rax
	movslq	-4(%rbp), %rcx
	movl	(%rax,%rcx,4), %eax
.LBB19_5:                               # %cond.end
                                        #   in Loop: Header=BB19_1 Depth=1
	shll	$8, %eax
	movl	-4(%rbp), %ecx
	addl	$1, %ecx
	movslq	%ecx, %rcx
	movl	%eax, -3216(%rbp,%rcx,4)
# %bb.6:                                # %for.inc
                                        #   in Loop: Header=BB19_1 Depth=1
	movl	-4(%rbp), %eax
	addl	$1, %eax
	movl	%eax, -4(%rbp)
	jmp	.LBB19_1
.LBB19_7:                               # %for.end
	jmp	.LBB19_8
.LBB19_8:                               # %while.body
                                        # =>This Loop Header: Depth=1
                                        #     Child Loop BB19_9 Depth 2
                                        #       Child Loop BB19_11 Depth 3
                                        #     Child Loop BB19_18 Depth 2
                                        #       Child Loop BB19_20 Depth 3
                                        #       Child Loop BB19_29 Depth 3
                                        #       Child Loop BB19_41 Depth 3
                                        #     Child Loop BB19_47 Depth 2
                                        #       Child Loop BB19_49 Depth 3
                                        #     Child Loop BB19_58 Depth 2
	movl	-44(%rbp), %eax
	movl	%eax, -36(%rbp)
	movl	$0, -8(%rbp)
	movl	$0, -1152(%rbp)
	movl	$0, -3216(%rbp)
	movl	$-2, -5280(%rbp)
	movl	$1, -4(%rbp)
.LBB19_9:                               # %for.cond9
                                        #   Parent Loop BB19_8 Depth=1
                                        # =>  This Loop Header: Depth=2
                                        #       Child Loop BB19_11 Depth 3
	movl	-4(%rbp), %eax
	cmpl	-44(%rbp), %eax
	jg	.LBB19_15
# %bb.10:                               # %for.body11
                                        #   in Loop: Header=BB19_9 Depth=2
	movslq	-4(%rbp), %rax
	movl	$-1, -5280(%rbp,%rax,4)
	movl	-8(%rbp), %eax
	addl	$1, %eax
	movl	%eax, -8(%rbp)
	movl	-4(%rbp), %eax
	movslq	-8(%rbp), %rcx
	movl	%eax, -1152(%rbp,%rcx,4)
	movl	-8(%rbp), %eax
	movl	%eax, -32(%rbp)
	movslq	-32(%rbp), %rax
	movl	-1152(%rbp,%rax,4), %eax
	movl	%eax, -68(%rbp)
.LBB19_11:                              # %while.cond19
                                        #   Parent Loop BB19_8 Depth=1
                                        #     Parent Loop BB19_9 Depth=2
                                        # =>    This Inner Loop Header: Depth=3
	movslq	-68(%rbp), %rax
	movl	-3216(%rbp,%rax,4), %eax
	movl	-32(%rbp), %ecx
	sarl	$1, %ecx
	movslq	%ecx, %rcx
	movslq	-1152(%rbp,%rcx,4), %rcx
	cmpl	-3216(%rbp,%rcx,4), %eax
	jge	.LBB19_13
# %bb.12:                               # %while.body27
                                        #   in Loop: Header=BB19_11 Depth=3
	movl	-32(%rbp), %eax
	sarl	$1, %eax
	cltq
	movl	-1152(%rbp,%rax,4), %eax
	movslq	-32(%rbp), %rcx
	movl	%eax, -1152(%rbp,%rcx,4)
	movl	-32(%rbp), %eax
	sarl	$1, %eax
	movl	%eax, -32(%rbp)
	jmp	.LBB19_11
.LBB19_13:                              # %while.end
                                        #   in Loop: Header=BB19_9 Depth=2
	movl	-68(%rbp), %eax
	movslq	-32(%rbp), %rcx
	movl	%eax, -1152(%rbp,%rcx,4)
# %bb.14:                               # %for.inc36
                                        #   in Loop: Header=BB19_9 Depth=2
	movl	-4(%rbp), %eax
	addl	$1, %eax
	movl	%eax, -4(%rbp)
	jmp	.LBB19_9
.LBB19_15:                              # %for.end38
                                        #   in Loop: Header=BB19_8 Depth=1
	cmpl	$260, -8(%rbp)          # imm = 0x104
	jl	.LBB19_17
# %bb.16:                               # %if.then
                                        #   in Loop: Header=BB19_8 Depth=1
	movl	$2001, %edi             # imm = 0x7D1
	callq	BZ2_bz__AssertH__fail
.LBB19_17:                              # %if.end
                                        #   in Loop: Header=BB19_8 Depth=1
	jmp	.LBB19_18
.LBB19_18:                              # %while.cond40
                                        #   Parent Loop BB19_8 Depth=1
                                        # =>  This Loop Header: Depth=2
                                        #       Child Loop BB19_20 Depth 3
                                        #       Child Loop BB19_29 Depth 3
                                        #       Child Loop BB19_41 Depth 3
	cmpl	$1, -8(%rbp)
	jle	.LBB19_44
# %bb.19:                               # %while.body42
                                        #   in Loop: Header=BB19_18 Depth=2
	movl	-1148(%rbp), %eax
	movl	%eax, -52(%rbp)
	movslq	-8(%rbp), %rax
	movl	-1152(%rbp,%rax,4), %eax
	movl	%eax, -1148(%rbp)
	movl	-8(%rbp), %eax
	addl	$-1, %eax
	movl	%eax, -8(%rbp)
	movl	$1, -48(%rbp)
	movslq	-48(%rbp), %rax
	movl	-1152(%rbp,%rax,4), %eax
	movl	%eax, -64(%rbp)
.LBB19_20:                              # %while.body52
                                        #   Parent Loop BB19_8 Depth=1
                                        #     Parent Loop BB19_18 Depth=2
                                        # =>    This Inner Loop Header: Depth=3
	movl	-48(%rbp), %eax
	shll	$1, %eax
	movl	%eax, -20(%rbp)
	movl	-20(%rbp), %eax
	cmpl	-8(%rbp), %eax
	jle	.LBB19_22
# %bb.21:                               # %if.then55
                                        #   in Loop: Header=BB19_18 Depth=2
	jmp	.LBB19_28
.LBB19_22:                              # %if.end56
                                        #   in Loop: Header=BB19_20 Depth=3
	movl	-20(%rbp), %eax
	cmpl	-8(%rbp), %eax
	jge	.LBB19_25
# %bb.23:                               # %land.lhs.true
                                        #   in Loop: Header=BB19_20 Depth=3
	movl	-20(%rbp), %eax
	addl	$1, %eax
	cltq
	movslq	-1152(%rbp,%rax,4), %rax
	movl	-3216(%rbp,%rax,4), %eax
	movslq	-20(%rbp), %rcx
	movslq	-1152(%rbp,%rcx,4), %rcx
	cmpl	-3216(%rbp,%rcx,4), %eax
	jge	.LBB19_25
# %bb.24:                               # %if.then68
                                        #   in Loop: Header=BB19_20 Depth=3
	movl	-20(%rbp), %eax
	addl	$1, %eax
	movl	%eax, -20(%rbp)
.LBB19_25:                              # %if.end70
                                        #   in Loop: Header=BB19_20 Depth=3
	movslq	-64(%rbp), %rax
	movl	-3216(%rbp,%rax,4), %eax
	movslq	-20(%rbp), %rcx
	movslq	-1152(%rbp,%rcx,4), %rcx
	cmpl	-3216(%rbp,%rcx,4), %eax
	jge	.LBB19_27
# %bb.26:                               # %if.then78
                                        #   in Loop: Header=BB19_18 Depth=2
	jmp	.LBB19_28
.LBB19_27:                              # %if.end79
                                        #   in Loop: Header=BB19_20 Depth=3
	movslq	-20(%rbp), %rax
	movl	-1152(%rbp,%rax,4), %eax
	movslq	-48(%rbp), %rcx
	movl	%eax, -1152(%rbp,%rcx,4)
	movl	-20(%rbp), %eax
	movl	%eax, -48(%rbp)
	jmp	.LBB19_20
.LBB19_28:                              # %while.end84
                                        #   in Loop: Header=BB19_18 Depth=2
	movl	-64(%rbp), %eax
	movslq	-48(%rbp), %rcx
	movl	%eax, -1152(%rbp,%rcx,4)
	movl	-1148(%rbp), %eax
	movl	%eax, -56(%rbp)
	movslq	-8(%rbp), %rax
	movl	-1152(%rbp,%rax,4), %eax
	movl	%eax, -1148(%rbp)
	movl	-8(%rbp), %eax
	addl	$-1, %eax
	movl	%eax, -8(%rbp)
	movl	$1, -40(%rbp)
	movslq	-40(%rbp), %rax
	movl	-1152(%rbp,%rax,4), %eax
	movl	%eax, -72(%rbp)
.LBB19_29:                              # %while.body98
                                        #   Parent Loop BB19_8 Depth=1
                                        #     Parent Loop BB19_18 Depth=2
                                        # =>    This Inner Loop Header: Depth=3
	movl	-40(%rbp), %eax
	shll	$1, %eax
	movl	%eax, -16(%rbp)
	movl	-16(%rbp), %eax
	cmpl	-8(%rbp), %eax
	jle	.LBB19_31
# %bb.30:                               # %if.then101
                                        #   in Loop: Header=BB19_18 Depth=2
	jmp	.LBB19_37
.LBB19_31:                              # %if.end102
                                        #   in Loop: Header=BB19_29 Depth=3
	movl	-16(%rbp), %eax
	cmpl	-8(%rbp), %eax
	jge	.LBB19_34
# %bb.32:                               # %land.lhs.true104
                                        #   in Loop: Header=BB19_29 Depth=3
	movl	-16(%rbp), %eax
	addl	$1, %eax
	cltq
	movslq	-1152(%rbp,%rax,4), %rax
	movl	-3216(%rbp,%rax,4), %eax
	movslq	-16(%rbp), %rcx
	movslq	-1152(%rbp,%rcx,4), %rcx
	cmpl	-3216(%rbp,%rcx,4), %eax
	jge	.LBB19_34
# %bb.33:                               # %if.then115
                                        #   in Loop: Header=BB19_29 Depth=3
	movl	-16(%rbp), %eax
	addl	$1, %eax
	movl	%eax, -16(%rbp)
.LBB19_34:                              # %if.end117
                                        #   in Loop: Header=BB19_29 Depth=3
	movslq	-72(%rbp), %rax
	movl	-3216(%rbp,%rax,4), %eax
	movslq	-16(%rbp), %rcx
	movslq	-1152(%rbp,%rcx,4), %rcx
	cmpl	-3216(%rbp,%rcx,4), %eax
	jge	.LBB19_36
# %bb.35:                               # %if.then125
                                        #   in Loop: Header=BB19_18 Depth=2
	jmp	.LBB19_37
.LBB19_36:                              # %if.end126
                                        #   in Loop: Header=BB19_29 Depth=3
	movslq	-16(%rbp), %rax
	movl	-1152(%rbp,%rax,4), %eax
	movslq	-40(%rbp), %rcx
	movl	%eax, -1152(%rbp,%rcx,4)
	movl	-16(%rbp), %eax
	movl	%eax, -40(%rbp)
	jmp	.LBB19_29
.LBB19_37:                              # %while.end131
                                        #   in Loop: Header=BB19_18 Depth=2
	movl	-72(%rbp), %eax
	movslq	-40(%rbp), %rcx
	movl	%eax, -1152(%rbp,%rcx,4)
	movl	-36(%rbp), %eax
	addl	$1, %eax
	movl	%eax, -36(%rbp)
	movl	-36(%rbp), %eax
	movslq	-56(%rbp), %rcx
	movl	%eax, -5280(%rbp,%rcx,4)
	movslq	-52(%rbp), %rcx
	movl	%eax, -5280(%rbp,%rcx,4)
	movslq	-52(%rbp), %rax
	movl	-3216(%rbp,%rax,4), %eax
	andl	$-256, %eax
	movslq	-56(%rbp), %rcx
	movl	-3216(%rbp,%rcx,4), %ecx
	andl	$-256, %ecx
	addl	%ecx, %eax
	movslq	-52(%rbp), %rcx
	movl	-3216(%rbp,%rcx,4), %ecx
	andl	$255, %ecx
	movslq	-56(%rbp), %rdx
	movl	-3216(%rbp,%rdx,4), %edx
	andl	$255, %edx
	cmpl	%edx, %ecx
	jle	.LBB19_39
# %bb.38:                               # %cond.true152
                                        #   in Loop: Header=BB19_18 Depth=2
	movslq	-52(%rbp), %rcx
	movl	-3216(%rbp,%rcx,4), %ecx
	andl	$255, %ecx
	jmp	.LBB19_40
.LBB19_39:                              # %cond.false156
                                        #   in Loop: Header=BB19_18 Depth=2
	movslq	-56(%rbp), %rcx
	movl	-3216(%rbp,%rcx,4), %ecx
	andl	$255, %ecx
.LBB19_40:                              # %cond.end160
                                        #   in Loop: Header=BB19_18 Depth=2
	addl	$1, %ecx
	orl	%ecx, %eax
	movslq	-36(%rbp), %rcx
	movl	%eax, -3216(%rbp,%rcx,4)
	movslq	-36(%rbp), %rax
	movl	$-1, -5280(%rbp,%rax,4)
	movl	-8(%rbp), %eax
	addl	$1, %eax
	movl	%eax, -8(%rbp)
	movl	-36(%rbp), %eax
	movslq	-8(%rbp), %rcx
	movl	%eax, -1152(%rbp,%rcx,4)
	movl	-8(%rbp), %eax
	movl	%eax, -28(%rbp)
	movslq	-28(%rbp), %rax
	movl	-1152(%rbp,%rax,4), %eax
	movl	%eax, -76(%rbp)
.LBB19_41:                              # %while.cond174
                                        #   Parent Loop BB19_8 Depth=1
                                        #     Parent Loop BB19_18 Depth=2
                                        # =>    This Inner Loop Header: Depth=3
	movslq	-76(%rbp), %rax
	movl	-3216(%rbp,%rax,4), %eax
	movl	-28(%rbp), %ecx
	sarl	$1, %ecx
	movslq	%ecx, %rcx
	movslq	-1152(%rbp,%rcx,4), %rcx
	cmpl	-3216(%rbp,%rcx,4), %eax
	jge	.LBB19_43
# %bb.42:                               # %while.body183
                                        #   in Loop: Header=BB19_41 Depth=3
	movl	-28(%rbp), %eax
	sarl	$1, %eax
	cltq
	movl	-1152(%rbp,%rax,4), %eax
	movslq	-28(%rbp), %rcx
	movl	%eax, -1152(%rbp,%rcx,4)
	movl	-28(%rbp), %eax
	sarl	$1, %eax
	movl	%eax, -28(%rbp)
	jmp	.LBB19_41
.LBB19_43:                              # %while.end190
                                        #   in Loop: Header=BB19_18 Depth=2
	movl	-76(%rbp), %eax
	movslq	-28(%rbp), %rcx
	movl	%eax, -1152(%rbp,%rcx,4)
	jmp	.LBB19_18
.LBB19_44:                              # %while.end193
                                        #   in Loop: Header=BB19_8 Depth=1
	cmpl	$516, -36(%rbp)         # imm = 0x204
	jl	.LBB19_46
# %bb.45:                               # %if.then195
                                        #   in Loop: Header=BB19_8 Depth=1
	movl	$2002, %edi             # imm = 0x7D2
	callq	BZ2_bz__AssertH__fail
.LBB19_46:                              # %if.end196
                                        #   in Loop: Header=BB19_8 Depth=1
	movb	$0, -9(%rbp)
	movl	$1, -4(%rbp)
.LBB19_47:                              # %for.cond197
                                        #   Parent Loop BB19_8 Depth=1
                                        # =>  This Loop Header: Depth=2
                                        #       Child Loop BB19_49 Depth 3
	movl	-4(%rbp), %eax
	cmpl	-44(%rbp), %eax
	jg	.LBB19_55
# %bb.48:                               # %for.body199
                                        #   in Loop: Header=BB19_47 Depth=2
	movl	$0, -24(%rbp)
	movl	-4(%rbp), %eax
	movl	%eax, -60(%rbp)
.LBB19_49:                              # %while.cond200
                                        #   Parent Loop BB19_8 Depth=1
                                        #     Parent Loop BB19_47 Depth=2
                                        # =>    This Inner Loop Header: Depth=3
	movslq	-60(%rbp), %rax
	cmpl	$0, -5280(%rbp,%rax,4)
	jl	.LBB19_51
# %bb.50:                               # %while.body204
                                        #   in Loop: Header=BB19_49 Depth=3
	movslq	-60(%rbp), %rax
	movl	-5280(%rbp,%rax,4), %eax
	movl	%eax, -60(%rbp)
	movl	-24(%rbp), %eax
	addl	$1, %eax
	movl	%eax, -24(%rbp)
	jmp	.LBB19_49
.LBB19_51:                              # %while.end208
                                        #   in Loop: Header=BB19_47 Depth=2
	movl	-24(%rbp), %eax
	movq	-104(%rbp), %rcx
	movl	-4(%rbp), %edx
	subl	$1, %edx
	movslq	%edx, %rdx
	movb	%al, (%rcx,%rdx)
	movl	-24(%rbp), %eax
	cmpl	-80(%rbp), %eax
	jle	.LBB19_53
# %bb.52:                               # %if.then213
                                        #   in Loop: Header=BB19_47 Depth=2
	movb	$1, -9(%rbp)
.LBB19_53:                              # %if.end214
                                        #   in Loop: Header=BB19_47 Depth=2
	jmp	.LBB19_54
.LBB19_54:                              # %for.inc215
                                        #   in Loop: Header=BB19_47 Depth=2
	movl	-4(%rbp), %eax
	addl	$1, %eax
	movl	%eax, -4(%rbp)
	jmp	.LBB19_47
.LBB19_55:                              # %for.end217
                                        #   in Loop: Header=BB19_8 Depth=1
	cmpb	$0, -9(%rbp)
	jne	.LBB19_57
# %bb.56:                               # %if.then218
	jmp	.LBB19_62
.LBB19_57:                              # %if.end219
                                        #   in Loop: Header=BB19_8 Depth=1
	movl	$1, -4(%rbp)
.LBB19_58:                              # %for.cond220
                                        #   Parent Loop BB19_8 Depth=1
                                        # =>  This Inner Loop Header: Depth=2
	movl	-4(%rbp), %eax
	cmpl	-44(%rbp), %eax
	jg	.LBB19_61
# %bb.59:                               # %for.body223
                                        #   in Loop: Header=BB19_58 Depth=2
	movslq	-4(%rbp), %rax
	movl	-3216(%rbp,%rax,4), %eax
	sarl	$8, %eax
	movl	%eax, -24(%rbp)
	movl	-24(%rbp), %eax
	cltd
	movl	$2, %ecx
	idivl	%ecx
	addl	$1, %eax
	movl	%eax, -24(%rbp)
	movl	-24(%rbp), %eax
	shll	$8, %eax
	movslq	-4(%rbp), %rcx
	movl	%eax, -3216(%rbp,%rcx,4)
# %bb.60:                               # %for.inc231
                                        #   in Loop: Header=BB19_58 Depth=2
	movl	-4(%rbp), %eax
	addl	$1, %eax
	movl	%eax, -4(%rbp)
	jmp	.LBB19_58
.LBB19_61:                              # %for.end233
                                        #   in Loop: Header=BB19_8 Depth=1
	jmp	.LBB19_8
.LBB19_62:                              # %while.end234
	cmpl	$2049403354, -84(%rbp)  # imm = 0x7A2769DA
	jne	.LBB19_64
.LBB19_63:
	addq	$5280, %rsp             # imm = 0x14A0
	popq	%rbp
	.cfi_def_cfa %rsp, 8
	retq
.LBB19_64:                              # %func_exit
	.cfi_def_cfa %rbp, 16
	callq	detect_breach
	jmp	.LBB19_63
.Lfunc_end19:
	.size	BZ2_hbMakeCodeLengths.17, .Lfunc_end19-BZ2_hbMakeCodeLengths.17
	.cfi_endproc
                                        # -- End function
	.globl	BZ2_hbMakeCodeLengths.18 # -- Begin function BZ2_hbMakeCodeLengths.18
	.p2align	4, 0x90
	.type	BZ2_hbMakeCodeLengths.18,@function
BZ2_hbMakeCodeLengths.18:               # @BZ2_hbMakeCodeLengths.18
	.cfi_startproc
# %bb.0:                                # %entry
	pushq	%rbp
	.cfi_def_cfa_offset 16
	.cfi_offset %rbp, -16
	movq	%rsp, %rbp
	.cfi_def_cfa_register %rbp
	subq	$5280, %rsp             # imm = 0x14A0
	movl	$846926000, -84(%rbp)   # imm = 0x327B10B0
	movq	%rdi, -104(%rbp)
	movq	%rsi, -96(%rbp)
	movl	%edx, -48(%rbp)
	movl	%ecx, -80(%rbp)
	movl	$0, -4(%rbp)
.LBB20_1:                               # %for.cond
                                        # =>This Inner Loop Header: Depth=1
	movl	-4(%rbp), %eax
	cmpl	-48(%rbp), %eax
	jge	.LBB20_7
# %bb.2:                                # %for.body
                                        #   in Loop: Header=BB20_1 Depth=1
	movq	-96(%rbp), %rax
	movslq	-4(%rbp), %rcx
	cmpl	$0, (%rax,%rcx,4)
	jne	.LBB20_4
# %bb.3:                                # %cond.true
                                        #   in Loop: Header=BB20_1 Depth=1
	movl	$1, %eax
	jmp	.LBB20_5
.LBB20_4:                               # %cond.false
                                        #   in Loop: Header=BB20_1 Depth=1
	movq	-96(%rbp), %rax
	movslq	-4(%rbp), %rcx
	movl	(%rax,%rcx,4), %eax
.LBB20_5:                               # %cond.end
                                        #   in Loop: Header=BB20_1 Depth=1
	shll	$8, %eax
	movl	-4(%rbp), %ecx
	addl	$1, %ecx
	movslq	%ecx, %rcx
	movl	%eax, -3216(%rbp,%rcx,4)
# %bb.6:                                # %for.inc
                                        #   in Loop: Header=BB20_1 Depth=1
	movl	-4(%rbp), %eax
	addl	$1, %eax
	movl	%eax, -4(%rbp)
	jmp	.LBB20_1
.LBB20_7:                               # %for.end
	jmp	.LBB20_8
.LBB20_8:                               # %while.body
                                        # =>This Loop Header: Depth=1
                                        #     Child Loop BB20_9 Depth 2
                                        #       Child Loop BB20_11 Depth 3
                                        #     Child Loop BB20_18 Depth 2
                                        #       Child Loop BB20_20 Depth 3
                                        #       Child Loop BB20_29 Depth 3
                                        #       Child Loop BB20_41 Depth 3
                                        #     Child Loop BB20_47 Depth 2
                                        #       Child Loop BB20_49 Depth 3
                                        #     Child Loop BB20_58 Depth 2
	movl	-48(%rbp), %eax
	movl	%eax, -36(%rbp)
	movl	$0, -8(%rbp)
	movl	$0, -1152(%rbp)
	movl	$0, -3216(%rbp)
	movl	$-2, -5280(%rbp)
	movl	$1, -4(%rbp)
.LBB20_9:                               # %for.cond9
                                        #   Parent Loop BB20_8 Depth=1
                                        # =>  This Loop Header: Depth=2
                                        #       Child Loop BB20_11 Depth 3
	movl	-4(%rbp), %eax
	cmpl	-48(%rbp), %eax
	jg	.LBB20_15
# %bb.10:                               # %for.body11
                                        #   in Loop: Header=BB20_9 Depth=2
	movslq	-4(%rbp), %rax
	movl	$-1, -5280(%rbp,%rax,4)
	movl	-8(%rbp), %eax
	addl	$1, %eax
	movl	%eax, -8(%rbp)
	movl	-4(%rbp), %eax
	movslq	-8(%rbp), %rcx
	movl	%eax, -1152(%rbp,%rcx,4)
	movl	-8(%rbp), %eax
	movl	%eax, -28(%rbp)
	movslq	-28(%rbp), %rax
	movl	-1152(%rbp,%rax,4), %eax
	movl	%eax, -68(%rbp)
.LBB20_11:                              # %while.cond19
                                        #   Parent Loop BB20_8 Depth=1
                                        #     Parent Loop BB20_9 Depth=2
                                        # =>    This Inner Loop Header: Depth=3
	movslq	-68(%rbp), %rax
	movl	-3216(%rbp,%rax,4), %eax
	movl	-28(%rbp), %ecx
	sarl	$1, %ecx
	movslq	%ecx, %rcx
	movslq	-1152(%rbp,%rcx,4), %rcx
	cmpl	-3216(%rbp,%rcx,4), %eax
	jge	.LBB20_13
# %bb.12:                               # %while.body27
                                        #   in Loop: Header=BB20_11 Depth=3
	movl	-28(%rbp), %eax
	sarl	$1, %eax
	cltq
	movl	-1152(%rbp,%rax,4), %eax
	movslq	-28(%rbp), %rcx
	movl	%eax, -1152(%rbp,%rcx,4)
	movl	-28(%rbp), %eax
	sarl	$1, %eax
	movl	%eax, -28(%rbp)
	jmp	.LBB20_11
.LBB20_13:                              # %while.end
                                        #   in Loop: Header=BB20_9 Depth=2
	movl	-68(%rbp), %eax
	movslq	-28(%rbp), %rcx
	movl	%eax, -1152(%rbp,%rcx,4)
# %bb.14:                               # %for.inc36
                                        #   in Loop: Header=BB20_9 Depth=2
	movl	-4(%rbp), %eax
	addl	$1, %eax
	movl	%eax, -4(%rbp)
	jmp	.LBB20_9
.LBB20_15:                              # %for.end38
                                        #   in Loop: Header=BB20_8 Depth=1
	cmpl	$260, -8(%rbp)          # imm = 0x104
	jl	.LBB20_17
# %bb.16:                               # %if.then
                                        #   in Loop: Header=BB20_8 Depth=1
	movl	$2001, %edi             # imm = 0x7D1
	callq	BZ2_bz__AssertH__fail
.LBB20_17:                              # %if.end
                                        #   in Loop: Header=BB20_8 Depth=1
	jmp	.LBB20_18
.LBB20_18:                              # %while.cond40
                                        #   Parent Loop BB20_8 Depth=1
                                        # =>  This Loop Header: Depth=2
                                        #       Child Loop BB20_20 Depth 3
                                        #       Child Loop BB20_29 Depth 3
                                        #       Child Loop BB20_41 Depth 3
	cmpl	$1, -8(%rbp)
	jle	.LBB20_44
# %bb.19:                               # %while.body42
                                        #   in Loop: Header=BB20_18 Depth=2
	movl	-1148(%rbp), %eax
	movl	%eax, -56(%rbp)
	movslq	-8(%rbp), %rax
	movl	-1152(%rbp,%rax,4), %eax
	movl	%eax, -1148(%rbp)
	movl	-8(%rbp), %eax
	addl	$-1, %eax
	movl	%eax, -8(%rbp)
	movl	$1, -44(%rbp)
	movslq	-44(%rbp), %rax
	movl	-1152(%rbp,%rax,4), %eax
	movl	%eax, -72(%rbp)
.LBB20_20:                              # %while.body52
                                        #   Parent Loop BB20_8 Depth=1
                                        #     Parent Loop BB20_18 Depth=2
                                        # =>    This Inner Loop Header: Depth=3
	movl	-44(%rbp), %eax
	shll	$1, %eax
	movl	%eax, -20(%rbp)
	movl	-20(%rbp), %eax
	cmpl	-8(%rbp), %eax
	jle	.LBB20_22
# %bb.21:                               # %if.then55
                                        #   in Loop: Header=BB20_18 Depth=2
	jmp	.LBB20_28
.LBB20_22:                              # %if.end56
                                        #   in Loop: Header=BB20_20 Depth=3
	movl	-20(%rbp), %eax
	cmpl	-8(%rbp), %eax
	jge	.LBB20_25
# %bb.23:                               # %land.lhs.true
                                        #   in Loop: Header=BB20_20 Depth=3
	movl	-20(%rbp), %eax
	addl	$1, %eax
	cltq
	movslq	-1152(%rbp,%rax,4), %rax
	movl	-3216(%rbp,%rax,4), %eax
	movslq	-20(%rbp), %rcx
	movslq	-1152(%rbp,%rcx,4), %rcx
	cmpl	-3216(%rbp,%rcx,4), %eax
	jge	.LBB20_25
# %bb.24:                               # %if.then68
                                        #   in Loop: Header=BB20_20 Depth=3
	movl	-20(%rbp), %eax
	addl	$1, %eax
	movl	%eax, -20(%rbp)
.LBB20_25:                              # %if.end70
                                        #   in Loop: Header=BB20_20 Depth=3
	movslq	-72(%rbp), %rax
	movl	-3216(%rbp,%rax,4), %eax
	movslq	-20(%rbp), %rcx
	movslq	-1152(%rbp,%rcx,4), %rcx
	cmpl	-3216(%rbp,%rcx,4), %eax
	jge	.LBB20_27
# %bb.26:                               # %if.then78
                                        #   in Loop: Header=BB20_18 Depth=2
	jmp	.LBB20_28
.LBB20_27:                              # %if.end79
                                        #   in Loop: Header=BB20_20 Depth=3
	movslq	-20(%rbp), %rax
	movl	-1152(%rbp,%rax,4), %eax
	movslq	-44(%rbp), %rcx
	movl	%eax, -1152(%rbp,%rcx,4)
	movl	-20(%rbp), %eax
	movl	%eax, -44(%rbp)
	jmp	.LBB20_20
.LBB20_28:                              # %while.end84
                                        #   in Loop: Header=BB20_18 Depth=2
	movl	-72(%rbp), %eax
	movslq	-44(%rbp), %rcx
	movl	%eax, -1152(%rbp,%rcx,4)
	movl	-1148(%rbp), %eax
	movl	%eax, -52(%rbp)
	movslq	-8(%rbp), %rax
	movl	-1152(%rbp,%rax,4), %eax
	movl	%eax, -1148(%rbp)
	movl	-8(%rbp), %eax
	addl	$-1, %eax
	movl	%eax, -8(%rbp)
	movl	$1, -40(%rbp)
	movslq	-40(%rbp), %rax
	movl	-1152(%rbp,%rax,4), %eax
	movl	%eax, -64(%rbp)
.LBB20_29:                              # %while.body98
                                        #   Parent Loop BB20_8 Depth=1
                                        #     Parent Loop BB20_18 Depth=2
                                        # =>    This Inner Loop Header: Depth=3
	movl	-40(%rbp), %eax
	shll	$1, %eax
	movl	%eax, -16(%rbp)
	movl	-16(%rbp), %eax
	cmpl	-8(%rbp), %eax
	jle	.LBB20_31
# %bb.30:                               # %if.then101
                                        #   in Loop: Header=BB20_18 Depth=2
	jmp	.LBB20_37
.LBB20_31:                              # %if.end102
                                        #   in Loop: Header=BB20_29 Depth=3
	movl	-16(%rbp), %eax
	cmpl	-8(%rbp), %eax
	jge	.LBB20_34
# %bb.32:                               # %land.lhs.true104
                                        #   in Loop: Header=BB20_29 Depth=3
	movl	-16(%rbp), %eax
	addl	$1, %eax
	cltq
	movslq	-1152(%rbp,%rax,4), %rax
	movl	-3216(%rbp,%rax,4), %eax
	movslq	-16(%rbp), %rcx
	movslq	-1152(%rbp,%rcx,4), %rcx
	cmpl	-3216(%rbp,%rcx,4), %eax
	jge	.LBB20_34
# %bb.33:                               # %if.then115
                                        #   in Loop: Header=BB20_29 Depth=3
	movl	-16(%rbp), %eax
	addl	$1, %eax
	movl	%eax, -16(%rbp)
.LBB20_34:                              # %if.end117
                                        #   in Loop: Header=BB20_29 Depth=3
	movslq	-64(%rbp), %rax
	movl	-3216(%rbp,%rax,4), %eax
	movslq	-16(%rbp), %rcx
	movslq	-1152(%rbp,%rcx,4), %rcx
	cmpl	-3216(%rbp,%rcx,4), %eax
	jge	.LBB20_36
# %bb.35:                               # %if.then125
                                        #   in Loop: Header=BB20_18 Depth=2
	jmp	.LBB20_37
.LBB20_36:                              # %if.end126
                                        #   in Loop: Header=BB20_29 Depth=3
	movslq	-16(%rbp), %rax
	movl	-1152(%rbp,%rax,4), %eax
	movslq	-40(%rbp), %rcx
	movl	%eax, -1152(%rbp,%rcx,4)
	movl	-16(%rbp), %eax
	movl	%eax, -40(%rbp)
	jmp	.LBB20_29
.LBB20_37:                              # %while.end131
                                        #   in Loop: Header=BB20_18 Depth=2
	movl	-64(%rbp), %eax
	movslq	-40(%rbp), %rcx
	movl	%eax, -1152(%rbp,%rcx,4)
	movl	-36(%rbp), %eax
	addl	$1, %eax
	movl	%eax, -36(%rbp)
	movl	-36(%rbp), %eax
	movslq	-52(%rbp), %rcx
	movl	%eax, -5280(%rbp,%rcx,4)
	movslq	-56(%rbp), %rcx
	movl	%eax, -5280(%rbp,%rcx,4)
	movslq	-56(%rbp), %rax
	movl	-3216(%rbp,%rax,4), %eax
	andl	$-256, %eax
	movslq	-52(%rbp), %rcx
	movl	-3216(%rbp,%rcx,4), %ecx
	andl	$-256, %ecx
	addl	%ecx, %eax
	movslq	-56(%rbp), %rcx
	movl	-3216(%rbp,%rcx,4), %ecx
	andl	$255, %ecx
	movslq	-52(%rbp), %rdx
	movl	-3216(%rbp,%rdx,4), %edx
	andl	$255, %edx
	cmpl	%edx, %ecx
	jle	.LBB20_39
# %bb.38:                               # %cond.true152
                                        #   in Loop: Header=BB20_18 Depth=2
	movslq	-56(%rbp), %rcx
	movl	-3216(%rbp,%rcx,4), %ecx
	andl	$255, %ecx
	jmp	.LBB20_40
.LBB20_39:                              # %cond.false156
                                        #   in Loop: Header=BB20_18 Depth=2
	movslq	-52(%rbp), %rcx
	movl	-3216(%rbp,%rcx,4), %ecx
	andl	$255, %ecx
.LBB20_40:                              # %cond.end160
                                        #   in Loop: Header=BB20_18 Depth=2
	addl	$1, %ecx
	orl	%ecx, %eax
	movslq	-36(%rbp), %rcx
	movl	%eax, -3216(%rbp,%rcx,4)
	movslq	-36(%rbp), %rax
	movl	$-1, -5280(%rbp,%rax,4)
	movl	-8(%rbp), %eax
	addl	$1, %eax
	movl	%eax, -8(%rbp)
	movl	-36(%rbp), %eax
	movslq	-8(%rbp), %rcx
	movl	%eax, -1152(%rbp,%rcx,4)
	movl	-8(%rbp), %eax
	movl	%eax, -32(%rbp)
	movslq	-32(%rbp), %rax
	movl	-1152(%rbp,%rax,4), %eax
	movl	%eax, -76(%rbp)
.LBB20_41:                              # %while.cond174
                                        #   Parent Loop BB20_8 Depth=1
                                        #     Parent Loop BB20_18 Depth=2
                                        # =>    This Inner Loop Header: Depth=3
	movslq	-76(%rbp), %rax
	movl	-3216(%rbp,%rax,4), %eax
	movl	-32(%rbp), %ecx
	sarl	$1, %ecx
	movslq	%ecx, %rcx
	movslq	-1152(%rbp,%rcx,4), %rcx
	cmpl	-3216(%rbp,%rcx,4), %eax
	jge	.LBB20_43
# %bb.42:                               # %while.body183
                                        #   in Loop: Header=BB20_41 Depth=3
	movl	-32(%rbp), %eax
	sarl	$1, %eax
	cltq
	movl	-1152(%rbp,%rax,4), %eax
	movslq	-32(%rbp), %rcx
	movl	%eax, -1152(%rbp,%rcx,4)
	movl	-32(%rbp), %eax
	sarl	$1, %eax
	movl	%eax, -32(%rbp)
	jmp	.LBB20_41
.LBB20_43:                              # %while.end190
                                        #   in Loop: Header=BB20_18 Depth=2
	movl	-76(%rbp), %eax
	movslq	-32(%rbp), %rcx
	movl	%eax, -1152(%rbp,%rcx,4)
	jmp	.LBB20_18
.LBB20_44:                              # %while.end193
                                        #   in Loop: Header=BB20_8 Depth=1
	cmpl	$516, -36(%rbp)         # imm = 0x204
	jl	.LBB20_46
# %bb.45:                               # %if.then195
                                        #   in Loop: Header=BB20_8 Depth=1
	movl	$2002, %edi             # imm = 0x7D2
	callq	BZ2_bz__AssertH__fail
.LBB20_46:                              # %if.end196
                                        #   in Loop: Header=BB20_8 Depth=1
	movb	$0, -9(%rbp)
	movl	$1, -4(%rbp)
.LBB20_47:                              # %for.cond197
                                        #   Parent Loop BB20_8 Depth=1
                                        # =>  This Loop Header: Depth=2
                                        #       Child Loop BB20_49 Depth 3
	movl	-4(%rbp), %eax
	cmpl	-48(%rbp), %eax
	jg	.LBB20_55
# %bb.48:                               # %for.body199
                                        #   in Loop: Header=BB20_47 Depth=2
	movl	$0, -24(%rbp)
	movl	-4(%rbp), %eax
	movl	%eax, -60(%rbp)
.LBB20_49:                              # %while.cond200
                                        #   Parent Loop BB20_8 Depth=1
                                        #     Parent Loop BB20_47 Depth=2
                                        # =>    This Inner Loop Header: Depth=3
	movslq	-60(%rbp), %rax
	cmpl	$0, -5280(%rbp,%rax,4)
	jl	.LBB20_51
# %bb.50:                               # %while.body204
                                        #   in Loop: Header=BB20_49 Depth=3
	movslq	-60(%rbp), %rax
	movl	-5280(%rbp,%rax,4), %eax
	movl	%eax, -60(%rbp)
	movl	-24(%rbp), %eax
	addl	$1, %eax
	movl	%eax, -24(%rbp)
	jmp	.LBB20_49
.LBB20_51:                              # %while.end208
                                        #   in Loop: Header=BB20_47 Depth=2
	movl	-24(%rbp), %eax
	movq	-104(%rbp), %rcx
	movl	-4(%rbp), %edx
	subl	$1, %edx
	movslq	%edx, %rdx
	movb	%al, (%rcx,%rdx)
	movl	-24(%rbp), %eax
	cmpl	-80(%rbp), %eax
	jle	.LBB20_53
# %bb.52:                               # %if.then213
                                        #   in Loop: Header=BB20_47 Depth=2
	movb	$1, -9(%rbp)
.LBB20_53:                              # %if.end214
                                        #   in Loop: Header=BB20_47 Depth=2
	jmp	.LBB20_54
.LBB20_54:                              # %for.inc215
                                        #   in Loop: Header=BB20_47 Depth=2
	movl	-4(%rbp), %eax
	addl	$1, %eax
	movl	%eax, -4(%rbp)
	jmp	.LBB20_47
.LBB20_55:                              # %for.end217
                                        #   in Loop: Header=BB20_8 Depth=1
	cmpb	$0, -9(%rbp)
	jne	.LBB20_57
# %bb.56:                               # %if.then218
	jmp	.LBB20_62
.LBB20_57:                              # %if.end219
                                        #   in Loop: Header=BB20_8 Depth=1
	movl	$1, -4(%rbp)
.LBB20_58:                              # %for.cond220
                                        #   Parent Loop BB20_8 Depth=1
                                        # =>  This Inner Loop Header: Depth=2
	movl	-4(%rbp), %eax
	cmpl	-48(%rbp), %eax
	jg	.LBB20_61
# %bb.59:                               # %for.body223
                                        #   in Loop: Header=BB20_58 Depth=2
	movslq	-4(%rbp), %rax
	movl	-3216(%rbp,%rax,4), %eax
	sarl	$8, %eax
	movl	%eax, -24(%rbp)
	movl	-24(%rbp), %eax
	cltd
	movl	$2, %ecx
	idivl	%ecx
	addl	$1, %eax
	movl	%eax, -24(%rbp)
	movl	-24(%rbp), %eax
	shll	$8, %eax
	movslq	-4(%rbp), %rcx
	movl	%eax, -3216(%rbp,%rcx,4)
# %bb.60:                               # %for.inc231
                                        #   in Loop: Header=BB20_58 Depth=2
	movl	-4(%rbp), %eax
	addl	$1, %eax
	movl	%eax, -4(%rbp)
	jmp	.LBB20_58
.LBB20_61:                              # %for.end233
                                        #   in Loop: Header=BB20_8 Depth=1
	jmp	.LBB20_8
.LBB20_62:                              # %while.end234
	cmpl	$846926000, -84(%rbp)   # imm = 0x327B10B0
	jne	.LBB20_64
.LBB20_63:
	addq	$5280, %rsp             # imm = 0x14A0
	popq	%rbp
	.cfi_def_cfa %rsp, 8
	retq
.LBB20_64:                              # %func_exit
	.cfi_def_cfa %rbp, 16
	callq	detect_breach
	jmp	.LBB20_63
.Lfunc_end20:
	.size	BZ2_hbMakeCodeLengths.18, .Lfunc_end20-BZ2_hbMakeCodeLengths.18
	.cfi_endproc
                                        # -- End function
	.globl	BZ2_hbAssignCodes.19    # -- Begin function BZ2_hbAssignCodes.19
	.p2align	4, 0x90
	.type	BZ2_hbAssignCodes.19,@function
BZ2_hbAssignCodes.19:                   # @BZ2_hbAssignCodes.19
	.cfi_startproc
# %bb.0:                                # %entry
	pushq	%rbp
	.cfi_def_cfa_offset 16
	.cfi_offset %rbp, -16
	movq	%rsp, %rbp
	.cfi_def_cfa_register %rbp
	subq	$48, %rsp
	movl	$883185560, -20(%rbp)   # imm = 0x34A45798
	movq	%rdi, -48(%rbp)
	movq	%rsi, -40(%rbp)
	movl	%edx, -16(%rbp)
	movl	%ecx, -24(%rbp)
	movl	%r8d, -28(%rbp)
	movl	$0, -4(%rbp)
	movl	-16(%rbp), %eax
	movl	%eax, -12(%rbp)
.LBB21_1:                               # %for.cond
                                        # =>This Loop Header: Depth=1
                                        #     Child Loop BB21_3 Depth 2
	movl	-12(%rbp), %eax
	cmpl	-24(%rbp), %eax
	jg	.LBB21_10
# %bb.2:                                # %for.body
                                        #   in Loop: Header=BB21_1 Depth=1
	movl	$0, -8(%rbp)
.LBB21_3:                               # %for.cond1
                                        #   Parent Loop BB21_1 Depth=1
                                        # =>  This Inner Loop Header: Depth=2
	movl	-8(%rbp), %eax
	cmpl	-28(%rbp), %eax
	jge	.LBB21_8
# %bb.4:                                # %for.body3
                                        #   in Loop: Header=BB21_3 Depth=2
	movq	-40(%rbp), %rax
	movslq	-8(%rbp), %rcx
	movzbl	(%rax,%rcx), %eax
	cmpl	-12(%rbp), %eax
	jne	.LBB21_6
# %bb.5:                                # %if.then
                                        #   in Loop: Header=BB21_3 Depth=2
	movl	-4(%rbp), %eax
	movq	-48(%rbp), %rcx
	movslq	-8(%rbp), %rdx
	movl	%eax, (%rcx,%rdx,4)
	movl	-4(%rbp), %eax
	addl	$1, %eax
	movl	%eax, -4(%rbp)
.LBB21_6:                               # %if.end
                                        #   in Loop: Header=BB21_3 Depth=2
	jmp	.LBB21_7
.LBB21_7:                               # %for.inc
                                        #   in Loop: Header=BB21_3 Depth=2
	movl	-8(%rbp), %eax
	addl	$1, %eax
	movl	%eax, -8(%rbp)
	jmp	.LBB21_3
.LBB21_8:                               # %for.end
                                        #   in Loop: Header=BB21_1 Depth=1
	movl	-4(%rbp), %eax
	shll	$1, %eax
	movl	%eax, -4(%rbp)
# %bb.9:                                # %for.inc9
                                        #   in Loop: Header=BB21_1 Depth=1
	movl	-12(%rbp), %eax
	addl	$1, %eax
	movl	%eax, -12(%rbp)
	jmp	.LBB21_1
.LBB21_10:                              # %for.end11
	cmpl	$883185560, -20(%rbp)   # imm = 0x34A45798
	jne	.LBB21_12
.LBB21_11:
	addq	$48, %rsp
	popq	%rbp
	.cfi_def_cfa %rsp, 8
	retq
.LBB21_12:                              # %func_exit
	.cfi_def_cfa %rbp, 16
	callq	detect_breach
	jmp	.LBB21_11
.Lfunc_end21:
	.size	BZ2_hbAssignCodes.19, .Lfunc_end21-BZ2_hbAssignCodes.19
	.cfi_endproc
                                        # -- End function
	.globl	BZ2_hbAssignCodes.20    # -- Begin function BZ2_hbAssignCodes.20
	.p2align	4, 0x90
	.type	BZ2_hbAssignCodes.20,@function
BZ2_hbAssignCodes.20:                   # @BZ2_hbAssignCodes.20
	.cfi_startproc
# %bb.0:                                # %entry
	pushq	%rbp
	.cfi_def_cfa_offset 16
	.cfi_offset %rbp, -16
	movq	%rsp, %rbp
	.cfi_def_cfa_register %rbp
	subq	$48, %rsp
	movl	$1637987708, -24(%rbp)  # imm = 0x61A1B57C
	movq	%rdi, -40(%rbp)
	movq	%rsi, -48(%rbp)
	movl	%edx, -16(%rbp)
	movl	%ecx, -20(%rbp)
	movl	%r8d, -28(%rbp)
	movl	$0, -8(%rbp)
	movl	-16(%rbp), %eax
	movl	%eax, -12(%rbp)
.LBB22_1:                               # %for.cond
                                        # =>This Loop Header: Depth=1
                                        #     Child Loop BB22_3 Depth 2
	movl	-12(%rbp), %eax
	cmpl	-20(%rbp), %eax
	jg	.LBB22_10
# %bb.2:                                # %for.body
                                        #   in Loop: Header=BB22_1 Depth=1
	movl	$0, -4(%rbp)
.LBB22_3:                               # %for.cond1
                                        #   Parent Loop BB22_1 Depth=1
                                        # =>  This Inner Loop Header: Depth=2
	movl	-4(%rbp), %eax
	cmpl	-28(%rbp), %eax
	jge	.LBB22_8
# %bb.4:                                # %for.body3
                                        #   in Loop: Header=BB22_3 Depth=2
	movq	-48(%rbp), %rax
	movslq	-4(%rbp), %rcx
	movzbl	(%rax,%rcx), %eax
	cmpl	-12(%rbp), %eax
	jne	.LBB22_6
# %bb.5:                                # %if.then
                                        #   in Loop: Header=BB22_3 Depth=2
	movl	-8(%rbp), %eax
	movq	-40(%rbp), %rcx
	movslq	-4(%rbp), %rdx
	movl	%eax, (%rcx,%rdx,4)
	movl	-8(%rbp), %eax
	addl	$1, %eax
	movl	%eax, -8(%rbp)
.LBB22_6:                               # %if.end
                                        #   in Loop: Header=BB22_3 Depth=2
	jmp	.LBB22_7
.LBB22_7:                               # %for.inc
                                        #   in Loop: Header=BB22_3 Depth=2
	movl	-4(%rbp), %eax
	addl	$1, %eax
	movl	%eax, -4(%rbp)
	jmp	.LBB22_3
.LBB22_8:                               # %for.end
                                        #   in Loop: Header=BB22_1 Depth=1
	movl	-8(%rbp), %eax
	shll	$1, %eax
	movl	%eax, -8(%rbp)
# %bb.9:                                # %for.inc9
                                        #   in Loop: Header=BB22_1 Depth=1
	movl	-12(%rbp), %eax
	addl	$1, %eax
	movl	%eax, -12(%rbp)
	jmp	.LBB22_1
.LBB22_10:                              # %for.end11
	cmpl	$1637987708, -24(%rbp)  # imm = 0x61A1B57C
	jne	.LBB22_12
.LBB22_11:
	addq	$48, %rsp
	popq	%rbp
	.cfi_def_cfa %rsp, 8
	retq
.LBB22_12:                              # %func_exit
	.cfi_def_cfa %rbp, 16
	callq	detect_breach
	jmp	.LBB22_11
.Lfunc_end22:
	.size	BZ2_hbAssignCodes.20, .Lfunc_end22-BZ2_hbAssignCodes.20
	.cfi_endproc
                                        # -- End function
	.globl	BZ2_hbCreateDecodeTables.21 # -- Begin function BZ2_hbCreateDecodeTables.21
	.p2align	4, 0x90
	.type	BZ2_hbCreateDecodeTables.21,@function
BZ2_hbCreateDecodeTables.21:            # @BZ2_hbCreateDecodeTables.21
	.cfi_startproc
# %bb.0:                                # %entry
	pushq	%rbp
	.cfi_def_cfa_offset 16
	.cfi_offset %rbp, -16
	movq	%rsp, %rbp
	.cfi_def_cfa_register %rbp
	subq	$80, %rsp
	movl	16(%rbp), %eax
	movl	$830298354, -52(%rbp)   # imm = 0x317D58F2
	movq	%rdi, -48(%rbp)
	movq	%rsi, -24(%rbp)
	movq	%rdx, -72(%rbp)
	movq	%rcx, -64(%rbp)
	movl	%r8d, -36(%rbp)
	movl	%r9d, -32(%rbp)
	movl	$0, -28(%rbp)
	movl	-36(%rbp), %eax
	movl	%eax, -4(%rbp)
.LBB23_1:                               # %for.cond
                                        # =>This Loop Header: Depth=1
                                        #     Child Loop BB23_3 Depth 2
	movl	-4(%rbp), %eax
	cmpl	-32(%rbp), %eax
	jg	.LBB23_10
# %bb.2:                                # %for.body
                                        #   in Loop: Header=BB23_1 Depth=1
	movl	$0, -12(%rbp)
.LBB23_3:                               # %for.cond1
                                        #   Parent Loop BB23_1 Depth=1
                                        # =>  This Inner Loop Header: Depth=2
	movl	-12(%rbp), %eax
	cmpl	16(%rbp), %eax
	jge	.LBB23_8
# %bb.4:                                # %for.body3
                                        #   in Loop: Header=BB23_3 Depth=2
	movq	-64(%rbp), %rax
	movslq	-12(%rbp), %rcx
	movzbl	(%rax,%rcx), %eax
	cmpl	-4(%rbp), %eax
	jne	.LBB23_6
# %bb.5:                                # %if.then
                                        #   in Loop: Header=BB23_3 Depth=2
	movl	-12(%rbp), %eax
	movq	-72(%rbp), %rcx
	movslq	-28(%rbp), %rdx
	movl	%eax, (%rcx,%rdx,4)
	movl	-28(%rbp), %eax
	addl	$1, %eax
	movl	%eax, -28(%rbp)
.LBB23_6:                               # %if.end
                                        #   in Loop: Header=BB23_3 Depth=2
	jmp	.LBB23_7
.LBB23_7:                               # %for.inc
                                        #   in Loop: Header=BB23_3 Depth=2
	movl	-12(%rbp), %eax
	addl	$1, %eax
	movl	%eax, -12(%rbp)
	jmp	.LBB23_3
.LBB23_8:                               # %for.end
                                        #   in Loop: Header=BB23_1 Depth=1
	jmp	.LBB23_9
.LBB23_9:                               # %for.inc9
                                        #   in Loop: Header=BB23_1 Depth=1
	movl	-4(%rbp), %eax
	addl	$1, %eax
	movl	%eax, -4(%rbp)
	jmp	.LBB23_1
.LBB23_10:                              # %for.end11
	movl	$0, -4(%rbp)
.LBB23_11:                              # %for.cond12
                                        # =>This Inner Loop Header: Depth=1
	cmpl	$23, -4(%rbp)
	jge	.LBB23_14
# %bb.12:                               # %for.body15
                                        #   in Loop: Header=BB23_11 Depth=1
	movq	-24(%rbp), %rax
	movslq	-4(%rbp), %rcx
	movl	$0, (%rax,%rcx,4)
# %bb.13:                               # %for.inc18
                                        #   in Loop: Header=BB23_11 Depth=1
	movl	-4(%rbp), %eax
	addl	$1, %eax
	movl	%eax, -4(%rbp)
	jmp	.LBB23_11
.LBB23_14:                              # %for.end20
	movl	$0, -4(%rbp)
.LBB23_15:                              # %for.cond21
                                        # =>This Inner Loop Header: Depth=1
	movl	-4(%rbp), %eax
	cmpl	16(%rbp), %eax
	jge	.LBB23_18
# %bb.16:                               # %for.body24
                                        #   in Loop: Header=BB23_15 Depth=1
	movq	-24(%rbp), %rax
	movq	-64(%rbp), %rcx
	movslq	-4(%rbp), %rdx
	movzbl	(%rcx,%rdx), %ecx
	addl	$1, %ecx
	movslq	%ecx, %rcx
	movl	(%rax,%rcx,4), %edx
	addl	$1, %edx
	movl	%edx, (%rax,%rcx,4)
# %bb.17:                               # %for.inc31
                                        #   in Loop: Header=BB23_15 Depth=1
	movl	-4(%rbp), %eax
	addl	$1, %eax
	movl	%eax, -4(%rbp)
	jmp	.LBB23_15
.LBB23_18:                              # %for.end33
	movl	$1, -4(%rbp)
.LBB23_19:                              # %for.cond34
                                        # =>This Inner Loop Header: Depth=1
	cmpl	$23, -4(%rbp)
	jge	.LBB23_22
# %bb.20:                               # %for.body37
                                        #   in Loop: Header=BB23_19 Depth=1
	movq	-24(%rbp), %rax
	movl	-4(%rbp), %ecx
	subl	$1, %ecx
	movslq	%ecx, %rcx
	movl	(%rax,%rcx,4), %eax
	movq	-24(%rbp), %rcx
	movslq	-4(%rbp), %rdx
	addl	(%rcx,%rdx,4), %eax
	movl	%eax, (%rcx,%rdx,4)
# %bb.21:                               # %for.inc43
                                        #   in Loop: Header=BB23_19 Depth=1
	movl	-4(%rbp), %eax
	addl	$1, %eax
	movl	%eax, -4(%rbp)
	jmp	.LBB23_19
.LBB23_22:                              # %for.end45
	movl	$0, -4(%rbp)
.LBB23_23:                              # %for.cond46
                                        # =>This Inner Loop Header: Depth=1
	cmpl	$23, -4(%rbp)
	jge	.LBB23_26
# %bb.24:                               # %for.body49
                                        #   in Loop: Header=BB23_23 Depth=1
	movq	-48(%rbp), %rax
	movslq	-4(%rbp), %rcx
	movl	$0, (%rax,%rcx,4)
# %bb.25:                               # %for.inc52
                                        #   in Loop: Header=BB23_23 Depth=1
	movl	-4(%rbp), %eax
	addl	$1, %eax
	movl	%eax, -4(%rbp)
	jmp	.LBB23_23
.LBB23_26:                              # %for.end54
	movl	$0, -8(%rbp)
	movl	-36(%rbp), %eax
	movl	%eax, -4(%rbp)
.LBB23_27:                              # %for.cond55
                                        # =>This Inner Loop Header: Depth=1
	movl	-4(%rbp), %eax
	cmpl	-32(%rbp), %eax
	jg	.LBB23_30
# %bb.28:                               # %for.body58
                                        #   in Loop: Header=BB23_27 Depth=1
	movq	-24(%rbp), %rax
	movl	-4(%rbp), %ecx
	addl	$1, %ecx
	movslq	%ecx, %rcx
	movl	(%rax,%rcx,4), %eax
	movq	-24(%rbp), %rcx
	movslq	-4(%rbp), %rdx
	subl	(%rcx,%rdx,4), %eax
	addl	-8(%rbp), %eax
	movl	%eax, -8(%rbp)
	movl	-8(%rbp), %eax
	subl	$1, %eax
	movq	-48(%rbp), %rcx
	movslq	-4(%rbp), %rdx
	movl	%eax, (%rcx,%rdx,4)
	movl	-8(%rbp), %eax
	shll	$1, %eax
	movl	%eax, -8(%rbp)
# %bb.29:                               # %for.inc69
                                        #   in Loop: Header=BB23_27 Depth=1
	movl	-4(%rbp), %eax
	addl	$1, %eax
	movl	%eax, -4(%rbp)
	jmp	.LBB23_27
.LBB23_30:                              # %for.end71
	movl	-36(%rbp), %eax
	addl	$1, %eax
	movl	%eax, -4(%rbp)
.LBB23_31:                              # %for.cond73
                                        # =>This Inner Loop Header: Depth=1
	movl	-4(%rbp), %eax
	cmpl	-32(%rbp), %eax
	jg	.LBB23_34
# %bb.32:                               # %for.body76
                                        #   in Loop: Header=BB23_31 Depth=1
	movq	-48(%rbp), %rax
	movl	-4(%rbp), %ecx
	subl	$1, %ecx
	movslq	%ecx, %rcx
	movl	(%rax,%rcx,4), %eax
	addl	$1, %eax
	shll	$1, %eax
	movq	-24(%rbp), %rcx
	movslq	-4(%rbp), %rdx
	subl	(%rcx,%rdx,4), %eax
	movq	-24(%rbp), %rcx
	movslq	-4(%rbp), %rdx
	movl	%eax, (%rcx,%rdx,4)
# %bb.33:                               # %for.inc87
                                        #   in Loop: Header=BB23_31 Depth=1
	movl	-4(%rbp), %eax
	addl	$1, %eax
	movl	%eax, -4(%rbp)
	jmp	.LBB23_31
.LBB23_34:                              # %for.end89
	cmpl	$830298354, -52(%rbp)   # imm = 0x317D58F2
	jne	.LBB23_36
.LBB23_35:
	addq	$80, %rsp
	popq	%rbp
	.cfi_def_cfa %rsp, 8
	retq
.LBB23_36:                              # %func_exit
	.cfi_def_cfa %rbp, 16
	callq	detect_breach
	jmp	.LBB23_35
.Lfunc_end23:
	.size	BZ2_hbCreateDecodeTables.21, .Lfunc_end23-BZ2_hbCreateDecodeTables.21
	.cfi_endproc
                                        # -- End function
	.globl	BZ2_hbCreateDecodeTables.22 # -- Begin function BZ2_hbCreateDecodeTables.22
	.p2align	4, 0x90
	.type	BZ2_hbCreateDecodeTables.22,@function
BZ2_hbCreateDecodeTables.22:            # @BZ2_hbCreateDecodeTables.22
	.cfi_startproc
# %bb.0:                                # %entry
	pushq	%rbp
	.cfi_def_cfa_offset 16
	.cfi_offset %rbp, -16
	movq	%rsp, %rbp
	.cfi_def_cfa_register %rbp
	subq	$80, %rsp
	movl	16(%rbp), %eax
	movl	$734345469, -52(%rbp)   # imm = 0x2BC538FD
	movq	%rdi, -48(%rbp)
	movq	%rsi, -24(%rbp)
	movq	%rdx, -72(%rbp)
	movq	%rcx, -64(%rbp)
	movl	%r8d, -32(%rbp)
	movl	%r9d, -36(%rbp)
	movl	$0, -28(%rbp)
	movl	-32(%rbp), %eax
	movl	%eax, -4(%rbp)
.LBB24_1:                               # %for.cond
                                        # =>This Loop Header: Depth=1
                                        #     Child Loop BB24_3 Depth 2
	movl	-4(%rbp), %eax
	cmpl	-36(%rbp), %eax
	jg	.LBB24_10
# %bb.2:                                # %for.body
                                        #   in Loop: Header=BB24_1 Depth=1
	movl	$0, -8(%rbp)
.LBB24_3:                               # %for.cond1
                                        #   Parent Loop BB24_1 Depth=1
                                        # =>  This Inner Loop Header: Depth=2
	movl	-8(%rbp), %eax
	cmpl	16(%rbp), %eax
	jge	.LBB24_8
# %bb.4:                                # %for.body3
                                        #   in Loop: Header=BB24_3 Depth=2
	movq	-64(%rbp), %rax
	movslq	-8(%rbp), %rcx
	movzbl	(%rax,%rcx), %eax
	cmpl	-4(%rbp), %eax
	jne	.LBB24_6
# %bb.5:                                # %if.then
                                        #   in Loop: Header=BB24_3 Depth=2
	movl	-8(%rbp), %eax
	movq	-72(%rbp), %rcx
	movslq	-28(%rbp), %rdx
	movl	%eax, (%rcx,%rdx,4)
	movl	-28(%rbp), %eax
	addl	$1, %eax
	movl	%eax, -28(%rbp)
.LBB24_6:                               # %if.end
                                        #   in Loop: Header=BB24_3 Depth=2
	jmp	.LBB24_7
.LBB24_7:                               # %for.inc
                                        #   in Loop: Header=BB24_3 Depth=2
	movl	-8(%rbp), %eax
	addl	$1, %eax
	movl	%eax, -8(%rbp)
	jmp	.LBB24_3
.LBB24_8:                               # %for.end
                                        #   in Loop: Header=BB24_1 Depth=1
	jmp	.LBB24_9
.LBB24_9:                               # %for.inc9
                                        #   in Loop: Header=BB24_1 Depth=1
	movl	-4(%rbp), %eax
	addl	$1, %eax
	movl	%eax, -4(%rbp)
	jmp	.LBB24_1
.LBB24_10:                              # %for.end11
	movl	$0, -4(%rbp)
.LBB24_11:                              # %for.cond12
                                        # =>This Inner Loop Header: Depth=1
	cmpl	$23, -4(%rbp)
	jge	.LBB24_14
# %bb.12:                               # %for.body15
                                        #   in Loop: Header=BB24_11 Depth=1
	movq	-24(%rbp), %rax
	movslq	-4(%rbp), %rcx
	movl	$0, (%rax,%rcx,4)
# %bb.13:                               # %for.inc18
                                        #   in Loop: Header=BB24_11 Depth=1
	movl	-4(%rbp), %eax
	addl	$1, %eax
	movl	%eax, -4(%rbp)
	jmp	.LBB24_11
.LBB24_14:                              # %for.end20
	movl	$0, -4(%rbp)
.LBB24_15:                              # %for.cond21
                                        # =>This Inner Loop Header: Depth=1
	movl	-4(%rbp), %eax
	cmpl	16(%rbp), %eax
	jge	.LBB24_18
# %bb.16:                               # %for.body24
                                        #   in Loop: Header=BB24_15 Depth=1
	movq	-24(%rbp), %rax
	movq	-64(%rbp), %rcx
	movslq	-4(%rbp), %rdx
	movzbl	(%rcx,%rdx), %ecx
	addl	$1, %ecx
	movslq	%ecx, %rcx
	movl	(%rax,%rcx,4), %edx
	addl	$1, %edx
	movl	%edx, (%rax,%rcx,4)
# %bb.17:                               # %for.inc31
                                        #   in Loop: Header=BB24_15 Depth=1
	movl	-4(%rbp), %eax
	addl	$1, %eax
	movl	%eax, -4(%rbp)
	jmp	.LBB24_15
.LBB24_18:                              # %for.end33
	movl	$1, -4(%rbp)
.LBB24_19:                              # %for.cond34
                                        # =>This Inner Loop Header: Depth=1
	cmpl	$23, -4(%rbp)
	jge	.LBB24_22
# %bb.20:                               # %for.body37
                                        #   in Loop: Header=BB24_19 Depth=1
	movq	-24(%rbp), %rax
	movl	-4(%rbp), %ecx
	subl	$1, %ecx
	movslq	%ecx, %rcx
	movl	(%rax,%rcx,4), %eax
	movq	-24(%rbp), %rcx
	movslq	-4(%rbp), %rdx
	addl	(%rcx,%rdx,4), %eax
	movl	%eax, (%rcx,%rdx,4)
# %bb.21:                               # %for.inc43
                                        #   in Loop: Header=BB24_19 Depth=1
	movl	-4(%rbp), %eax
	addl	$1, %eax
	movl	%eax, -4(%rbp)
	jmp	.LBB24_19
.LBB24_22:                              # %for.end45
	movl	$0, -4(%rbp)
.LBB24_23:                              # %for.cond46
                                        # =>This Inner Loop Header: Depth=1
	cmpl	$23, -4(%rbp)
	jge	.LBB24_26
# %bb.24:                               # %for.body49
                                        #   in Loop: Header=BB24_23 Depth=1
	movq	-48(%rbp), %rax
	movslq	-4(%rbp), %rcx
	movl	$0, (%rax,%rcx,4)
# %bb.25:                               # %for.inc52
                                        #   in Loop: Header=BB24_23 Depth=1
	movl	-4(%rbp), %eax
	addl	$1, %eax
	movl	%eax, -4(%rbp)
	jmp	.LBB24_23
.LBB24_26:                              # %for.end54
	movl	$0, -12(%rbp)
	movl	-32(%rbp), %eax
	movl	%eax, -4(%rbp)
.LBB24_27:                              # %for.cond55
                                        # =>This Inner Loop Header: Depth=1
	movl	-4(%rbp), %eax
	cmpl	-36(%rbp), %eax
	jg	.LBB24_30
# %bb.28:                               # %for.body58
                                        #   in Loop: Header=BB24_27 Depth=1
	movq	-24(%rbp), %rax
	movl	-4(%rbp), %ecx
	addl	$1, %ecx
	movslq	%ecx, %rcx
	movl	(%rax,%rcx,4), %eax
	movq	-24(%rbp), %rcx
	movslq	-4(%rbp), %rdx
	subl	(%rcx,%rdx,4), %eax
	addl	-12(%rbp), %eax
	movl	%eax, -12(%rbp)
	movl	-12(%rbp), %eax
	subl	$1, %eax
	movq	-48(%rbp), %rcx
	movslq	-4(%rbp), %rdx
	movl	%eax, (%rcx,%rdx,4)
	movl	-12(%rbp), %eax
	shll	$1, %eax
	movl	%eax, -12(%rbp)
# %bb.29:                               # %for.inc69
                                        #   in Loop: Header=BB24_27 Depth=1
	movl	-4(%rbp), %eax
	addl	$1, %eax
	movl	%eax, -4(%rbp)
	jmp	.LBB24_27
.LBB24_30:                              # %for.end71
	movl	-32(%rbp), %eax
	addl	$1, %eax
	movl	%eax, -4(%rbp)
.LBB24_31:                              # %for.cond73
                                        # =>This Inner Loop Header: Depth=1
	movl	-4(%rbp), %eax
	cmpl	-36(%rbp), %eax
	jg	.LBB24_34
# %bb.32:                               # %for.body76
                                        #   in Loop: Header=BB24_31 Depth=1
	movq	-48(%rbp), %rax
	movl	-4(%rbp), %ecx
	subl	$1, %ecx
	movslq	%ecx, %rcx
	movl	(%rax,%rcx,4), %eax
	addl	$1, %eax
	shll	$1, %eax
	movq	-24(%rbp), %rcx
	movslq	-4(%rbp), %rdx
	subl	(%rcx,%rdx,4), %eax
	movq	-24(%rbp), %rcx
	movslq	-4(%rbp), %rdx
	movl	%eax, (%rcx,%rdx,4)
# %bb.33:                               # %for.inc87
                                        #   in Loop: Header=BB24_31 Depth=1
	movl	-4(%rbp), %eax
	addl	$1, %eax
	movl	%eax, -4(%rbp)
	jmp	.LBB24_31
.LBB24_34:                              # %for.end89
	cmpl	$734345469, -52(%rbp)   # imm = 0x2BC538FD
	jne	.LBB24_36
.LBB24_35:
	addq	$80, %rsp
	popq	%rbp
	.cfi_def_cfa %rsp, 8
	retq
.LBB24_36:                              # %func_exit
	.cfi_def_cfa %rbp, 16
	callq	detect_breach
	jmp	.LBB24_35
.Lfunc_end24:
	.size	BZ2_hbCreateDecodeTables.22, .Lfunc_end24-BZ2_hbCreateDecodeTables.22
	.cfi_endproc
                                        # -- End function
	.globl	BZ2_hbCreateDecodeTables.23 # -- Begin function BZ2_hbCreateDecodeTables.23
	.p2align	4, 0x90
	.type	BZ2_hbCreateDecodeTables.23,@function
BZ2_hbCreateDecodeTables.23:            # @BZ2_hbCreateDecodeTables.23
	.cfi_startproc
# %bb.0:                                # %entry
	pushq	%rbp
	.cfi_def_cfa_offset 16
	.cfi_offset %rbp, -16
	movq	%rsp, %rbp
	.cfi_def_cfa_register %rbp
	subq	$80, %rsp
	movl	16(%rbp), %eax
	movl	$987424118, -52(%rbp)   # imm = 0x3ADAE576
	movq	%rdi, -48(%rbp)
	movq	%rsi, -24(%rbp)
	movq	%rdx, -72(%rbp)
	movq	%rcx, -64(%rbp)
	movl	%r8d, -32(%rbp)
	movl	%r9d, -36(%rbp)
	movl	$0, -28(%rbp)
	movl	-32(%rbp), %eax
	movl	%eax, -4(%rbp)
.LBB25_1:                               # %for.cond
                                        # =>This Loop Header: Depth=1
                                        #     Child Loop BB25_3 Depth 2
	movl	-4(%rbp), %eax
	cmpl	-36(%rbp), %eax
	jg	.LBB25_10
# %bb.2:                                # %for.body
                                        #   in Loop: Header=BB25_1 Depth=1
	movl	$0, -8(%rbp)
.LBB25_3:                               # %for.cond1
                                        #   Parent Loop BB25_1 Depth=1
                                        # =>  This Inner Loop Header: Depth=2
	movl	-8(%rbp), %eax
	cmpl	16(%rbp), %eax
	jge	.LBB25_8
# %bb.4:                                # %for.body3
                                        #   in Loop: Header=BB25_3 Depth=2
	movq	-64(%rbp), %rax
	movslq	-8(%rbp), %rcx
	movzbl	(%rax,%rcx), %eax
	cmpl	-4(%rbp), %eax
	jne	.LBB25_6
# %bb.5:                                # %if.then
                                        #   in Loop: Header=BB25_3 Depth=2
	movl	-8(%rbp), %eax
	movq	-72(%rbp), %rcx
	movslq	-28(%rbp), %rdx
	movl	%eax, (%rcx,%rdx,4)
	movl	-28(%rbp), %eax
	addl	$1, %eax
	movl	%eax, -28(%rbp)
.LBB25_6:                               # %if.end
                                        #   in Loop: Header=BB25_3 Depth=2
	jmp	.LBB25_7
.LBB25_7:                               # %for.inc
                                        #   in Loop: Header=BB25_3 Depth=2
	movl	-8(%rbp), %eax
	addl	$1, %eax
	movl	%eax, -8(%rbp)
	jmp	.LBB25_3
.LBB25_8:                               # %for.end
                                        #   in Loop: Header=BB25_1 Depth=1
	jmp	.LBB25_9
.LBB25_9:                               # %for.inc9
                                        #   in Loop: Header=BB25_1 Depth=1
	movl	-4(%rbp), %eax
	addl	$1, %eax
	movl	%eax, -4(%rbp)
	jmp	.LBB25_1
.LBB25_10:                              # %for.end11
	movl	$0, -4(%rbp)
.LBB25_11:                              # %for.cond12
                                        # =>This Inner Loop Header: Depth=1
	cmpl	$23, -4(%rbp)
	jge	.LBB25_14
# %bb.12:                               # %for.body15
                                        #   in Loop: Header=BB25_11 Depth=1
	movq	-24(%rbp), %rax
	movslq	-4(%rbp), %rcx
	movl	$0, (%rax,%rcx,4)
# %bb.13:                               # %for.inc18
                                        #   in Loop: Header=BB25_11 Depth=1
	movl	-4(%rbp), %eax
	addl	$1, %eax
	movl	%eax, -4(%rbp)
	jmp	.LBB25_11
.LBB25_14:                              # %for.end20
	movl	$0, -4(%rbp)
.LBB25_15:                              # %for.cond21
                                        # =>This Inner Loop Header: Depth=1
	movl	-4(%rbp), %eax
	cmpl	16(%rbp), %eax
	jge	.LBB25_18
# %bb.16:                               # %for.body24
                                        #   in Loop: Header=BB25_15 Depth=1
	movq	-24(%rbp), %rax
	movq	-64(%rbp), %rcx
	movslq	-4(%rbp), %rdx
	movzbl	(%rcx,%rdx), %ecx
	addl	$1, %ecx
	movslq	%ecx, %rcx
	movl	(%rax,%rcx,4), %edx
	addl	$1, %edx
	movl	%edx, (%rax,%rcx,4)
# %bb.17:                               # %for.inc31
                                        #   in Loop: Header=BB25_15 Depth=1
	movl	-4(%rbp), %eax
	addl	$1, %eax
	movl	%eax, -4(%rbp)
	jmp	.LBB25_15
.LBB25_18:                              # %for.end33
	movl	$1, -4(%rbp)
.LBB25_19:                              # %for.cond34
                                        # =>This Inner Loop Header: Depth=1
	cmpl	$23, -4(%rbp)
	jge	.LBB25_22
# %bb.20:                               # %for.body37
                                        #   in Loop: Header=BB25_19 Depth=1
	movq	-24(%rbp), %rax
	movl	-4(%rbp), %ecx
	subl	$1, %ecx
	movslq	%ecx, %rcx
	movl	(%rax,%rcx,4), %eax
	movq	-24(%rbp), %rcx
	movslq	-4(%rbp), %rdx
	addl	(%rcx,%rdx,4), %eax
	movl	%eax, (%rcx,%rdx,4)
# %bb.21:                               # %for.inc43
                                        #   in Loop: Header=BB25_19 Depth=1
	movl	-4(%rbp), %eax
	addl	$1, %eax
	movl	%eax, -4(%rbp)
	jmp	.LBB25_19
.LBB25_22:                              # %for.end45
	movl	$0, -4(%rbp)
.LBB25_23:                              # %for.cond46
                                        # =>This Inner Loop Header: Depth=1
	cmpl	$23, -4(%rbp)
	jge	.LBB25_26
# %bb.24:                               # %for.body49
                                        #   in Loop: Header=BB25_23 Depth=1
	movq	-48(%rbp), %rax
	movslq	-4(%rbp), %rcx
	movl	$0, (%rax,%rcx,4)
# %bb.25:                               # %for.inc52
                                        #   in Loop: Header=BB25_23 Depth=1
	movl	-4(%rbp), %eax
	addl	$1, %eax
	movl	%eax, -4(%rbp)
	jmp	.LBB25_23
.LBB25_26:                              # %for.end54
	movl	$0, -12(%rbp)
	movl	-32(%rbp), %eax
	movl	%eax, -4(%rbp)
.LBB25_27:                              # %for.cond55
                                        # =>This Inner Loop Header: Depth=1
	movl	-4(%rbp), %eax
	cmpl	-36(%rbp), %eax
	jg	.LBB25_30
# %bb.28:                               # %for.body58
                                        #   in Loop: Header=BB25_27 Depth=1
	movq	-24(%rbp), %rax
	movl	-4(%rbp), %ecx
	addl	$1, %ecx
	movslq	%ecx, %rcx
	movl	(%rax,%rcx,4), %eax
	movq	-24(%rbp), %rcx
	movslq	-4(%rbp), %rdx
	subl	(%rcx,%rdx,4), %eax
	addl	-12(%rbp), %eax
	movl	%eax, -12(%rbp)
	movl	-12(%rbp), %eax
	subl	$1, %eax
	movq	-48(%rbp), %rcx
	movslq	-4(%rbp), %rdx
	movl	%eax, (%rcx,%rdx,4)
	movl	-12(%rbp), %eax
	shll	$1, %eax
	movl	%eax, -12(%rbp)
# %bb.29:                               # %for.inc69
                                        #   in Loop: Header=BB25_27 Depth=1
	movl	-4(%rbp), %eax
	addl	$1, %eax
	movl	%eax, -4(%rbp)
	jmp	.LBB25_27
.LBB25_30:                              # %for.end71
	movl	-32(%rbp), %eax
	addl	$1, %eax
	movl	%eax, -4(%rbp)
.LBB25_31:                              # %for.cond73
                                        # =>This Inner Loop Header: Depth=1
	movl	-4(%rbp), %eax
	cmpl	-36(%rbp), %eax
	jg	.LBB25_34
# %bb.32:                               # %for.body76
                                        #   in Loop: Header=BB25_31 Depth=1
	movq	-48(%rbp), %rax
	movl	-4(%rbp), %ecx
	subl	$1, %ecx
	movslq	%ecx, %rcx
	movl	(%rax,%rcx,4), %eax
	addl	$1, %eax
	shll	$1, %eax
	movq	-24(%rbp), %rcx
	movslq	-4(%rbp), %rdx
	subl	(%rcx,%rdx,4), %eax
	movq	-24(%rbp), %rcx
	movslq	-4(%rbp), %rdx
	movl	%eax, (%rcx,%rdx,4)
# %bb.33:                               # %for.inc87
                                        #   in Loop: Header=BB25_31 Depth=1
	movl	-4(%rbp), %eax
	addl	$1, %eax
	movl	%eax, -4(%rbp)
	jmp	.LBB25_31
.LBB25_34:                              # %for.end89
	cmpl	$987424118, -52(%rbp)   # imm = 0x3ADAE576
	jne	.LBB25_36
.LBB25_35:
	addq	$80, %rsp
	popq	%rbp
	.cfi_def_cfa %rsp, 8
	retq
.LBB25_36:                              # %func_exit
	.cfi_def_cfa %rbp, 16
	callq	detect_breach
	jmp	.LBB25_35
.Lfunc_end25:
	.size	BZ2_hbCreateDecodeTables.23, .Lfunc_end25-BZ2_hbCreateDecodeTables.23
	.cfi_endproc
                                        # -- End function
	.globl	BZ2_hbCreateDecodeTables.24 # -- Begin function BZ2_hbCreateDecodeTables.24
	.p2align	4, 0x90
	.type	BZ2_hbCreateDecodeTables.24,@function
BZ2_hbCreateDecodeTables.24:            # @BZ2_hbCreateDecodeTables.24
	.cfi_startproc
# %bb.0:                                # %entry
	pushq	%rbp
	.cfi_def_cfa_offset 16
	.cfi_offset %rbp, -16
	movq	%rsp, %rbp
	.cfi_def_cfa_register %rbp
	subq	$80, %rsp
	movl	16(%rbp), %eax
	movl	$507916103, -52(%rbp)   # imm = 0x1E462F47
	movq	%rdi, -48(%rbp)
	movq	%rsi, -24(%rbp)
	movq	%rdx, -72(%rbp)
	movq	%rcx, -64(%rbp)
	movl	%r8d, -36(%rbp)
	movl	%r9d, -32(%rbp)
	movl	$0, -28(%rbp)
	movl	-36(%rbp), %eax
	movl	%eax, -4(%rbp)
.LBB26_1:                               # %for.cond
                                        # =>This Loop Header: Depth=1
                                        #     Child Loop BB26_3 Depth 2
	movl	-4(%rbp), %eax
	cmpl	-32(%rbp), %eax
	jg	.LBB26_10
# %bb.2:                                # %for.body
                                        #   in Loop: Header=BB26_1 Depth=1
	movl	$0, -8(%rbp)
.LBB26_3:                               # %for.cond1
                                        #   Parent Loop BB26_1 Depth=1
                                        # =>  This Inner Loop Header: Depth=2
	movl	-8(%rbp), %eax
	cmpl	16(%rbp), %eax
	jge	.LBB26_8
# %bb.4:                                # %for.body3
                                        #   in Loop: Header=BB26_3 Depth=2
	movq	-64(%rbp), %rax
	movslq	-8(%rbp), %rcx
	movzbl	(%rax,%rcx), %eax
	cmpl	-4(%rbp), %eax
	jne	.LBB26_6
# %bb.5:                                # %if.then
                                        #   in Loop: Header=BB26_3 Depth=2
	movl	-8(%rbp), %eax
	movq	-72(%rbp), %rcx
	movslq	-28(%rbp), %rdx
	movl	%eax, (%rcx,%rdx,4)
	movl	-28(%rbp), %eax
	addl	$1, %eax
	movl	%eax, -28(%rbp)
.LBB26_6:                               # %if.end
                                        #   in Loop: Header=BB26_3 Depth=2
	jmp	.LBB26_7
.LBB26_7:                               # %for.inc
                                        #   in Loop: Header=BB26_3 Depth=2
	movl	-8(%rbp), %eax
	addl	$1, %eax
	movl	%eax, -8(%rbp)
	jmp	.LBB26_3
.LBB26_8:                               # %for.end
                                        #   in Loop: Header=BB26_1 Depth=1
	jmp	.LBB26_9
.LBB26_9:                               # %for.inc9
                                        #   in Loop: Header=BB26_1 Depth=1
	movl	-4(%rbp), %eax
	addl	$1, %eax
	movl	%eax, -4(%rbp)
	jmp	.LBB26_1
.LBB26_10:                              # %for.end11
	movl	$0, -4(%rbp)
.LBB26_11:                              # %for.cond12
                                        # =>This Inner Loop Header: Depth=1
	cmpl	$23, -4(%rbp)
	jge	.LBB26_14
# %bb.12:                               # %for.body15
                                        #   in Loop: Header=BB26_11 Depth=1
	movq	-24(%rbp), %rax
	movslq	-4(%rbp), %rcx
	movl	$0, (%rax,%rcx,4)
# %bb.13:                               # %for.inc18
                                        #   in Loop: Header=BB26_11 Depth=1
	movl	-4(%rbp), %eax
	addl	$1, %eax
	movl	%eax, -4(%rbp)
	jmp	.LBB26_11
.LBB26_14:                              # %for.end20
	movl	$0, -4(%rbp)
.LBB26_15:                              # %for.cond21
                                        # =>This Inner Loop Header: Depth=1
	movl	-4(%rbp), %eax
	cmpl	16(%rbp), %eax
	jge	.LBB26_18
# %bb.16:                               # %for.body24
                                        #   in Loop: Header=BB26_15 Depth=1
	movq	-24(%rbp), %rax
	movq	-64(%rbp), %rcx
	movslq	-4(%rbp), %rdx
	movzbl	(%rcx,%rdx), %ecx
	addl	$1, %ecx
	movslq	%ecx, %rcx
	movl	(%rax,%rcx,4), %edx
	addl	$1, %edx
	movl	%edx, (%rax,%rcx,4)
# %bb.17:                               # %for.inc31
                                        #   in Loop: Header=BB26_15 Depth=1
	movl	-4(%rbp), %eax
	addl	$1, %eax
	movl	%eax, -4(%rbp)
	jmp	.LBB26_15
.LBB26_18:                              # %for.end33
	movl	$1, -4(%rbp)
.LBB26_19:                              # %for.cond34
                                        # =>This Inner Loop Header: Depth=1
	cmpl	$23, -4(%rbp)
	jge	.LBB26_22
# %bb.20:                               # %for.body37
                                        #   in Loop: Header=BB26_19 Depth=1
	movq	-24(%rbp), %rax
	movl	-4(%rbp), %ecx
	subl	$1, %ecx
	movslq	%ecx, %rcx
	movl	(%rax,%rcx,4), %eax
	movq	-24(%rbp), %rcx
	movslq	-4(%rbp), %rdx
	addl	(%rcx,%rdx,4), %eax
	movl	%eax, (%rcx,%rdx,4)
# %bb.21:                               # %for.inc43
                                        #   in Loop: Header=BB26_19 Depth=1
	movl	-4(%rbp), %eax
	addl	$1, %eax
	movl	%eax, -4(%rbp)
	jmp	.LBB26_19
.LBB26_22:                              # %for.end45
	movl	$0, -4(%rbp)
.LBB26_23:                              # %for.cond46
                                        # =>This Inner Loop Header: Depth=1
	cmpl	$23, -4(%rbp)
	jge	.LBB26_26
# %bb.24:                               # %for.body49
                                        #   in Loop: Header=BB26_23 Depth=1
	movq	-48(%rbp), %rax
	movslq	-4(%rbp), %rcx
	movl	$0, (%rax,%rcx,4)
# %bb.25:                               # %for.inc52
                                        #   in Loop: Header=BB26_23 Depth=1
	movl	-4(%rbp), %eax
	addl	$1, %eax
	movl	%eax, -4(%rbp)
	jmp	.LBB26_23
.LBB26_26:                              # %for.end54
	movl	$0, -12(%rbp)
	movl	-36(%rbp), %eax
	movl	%eax, -4(%rbp)
.LBB26_27:                              # %for.cond55
                                        # =>This Inner Loop Header: Depth=1
	movl	-4(%rbp), %eax
	cmpl	-32(%rbp), %eax
	jg	.LBB26_30
# %bb.28:                               # %for.body58
                                        #   in Loop: Header=BB26_27 Depth=1
	movq	-24(%rbp), %rax
	movl	-4(%rbp), %ecx
	addl	$1, %ecx
	movslq	%ecx, %rcx
	movl	(%rax,%rcx,4), %eax
	movq	-24(%rbp), %rcx
	movslq	-4(%rbp), %rdx
	subl	(%rcx,%rdx,4), %eax
	addl	-12(%rbp), %eax
	movl	%eax, -12(%rbp)
	movl	-12(%rbp), %eax
	subl	$1, %eax
	movq	-48(%rbp), %rcx
	movslq	-4(%rbp), %rdx
	movl	%eax, (%rcx,%rdx,4)
	movl	-12(%rbp), %eax
	shll	$1, %eax
	movl	%eax, -12(%rbp)
# %bb.29:                               # %for.inc69
                                        #   in Loop: Header=BB26_27 Depth=1
	movl	-4(%rbp), %eax
	addl	$1, %eax
	movl	%eax, -4(%rbp)
	jmp	.LBB26_27
.LBB26_30:                              # %for.end71
	movl	-36(%rbp), %eax
	addl	$1, %eax
	movl	%eax, -4(%rbp)
.LBB26_31:                              # %for.cond73
                                        # =>This Inner Loop Header: Depth=1
	movl	-4(%rbp), %eax
	cmpl	-32(%rbp), %eax
	jg	.LBB26_34
# %bb.32:                               # %for.body76
                                        #   in Loop: Header=BB26_31 Depth=1
	movq	-48(%rbp), %rax
	movl	-4(%rbp), %ecx
	subl	$1, %ecx
	movslq	%ecx, %rcx
	movl	(%rax,%rcx,4), %eax
	addl	$1, %eax
	shll	$1, %eax
	movq	-24(%rbp), %rcx
	movslq	-4(%rbp), %rdx
	subl	(%rcx,%rdx,4), %eax
	movq	-24(%rbp), %rcx
	movslq	-4(%rbp), %rdx
	movl	%eax, (%rcx,%rdx,4)
# %bb.33:                               # %for.inc87
                                        #   in Loop: Header=BB26_31 Depth=1
	movl	-4(%rbp), %eax
	addl	$1, %eax
	movl	%eax, -4(%rbp)
	jmp	.LBB26_31
.LBB26_34:                              # %for.end89
	cmpl	$507916103, -52(%rbp)   # imm = 0x1E462F47
	jne	.LBB26_36
.LBB26_35:
	addq	$80, %rsp
	popq	%rbp
	.cfi_def_cfa %rsp, 8
	retq
.LBB26_36:                              # %func_exit
	.cfi_def_cfa %rbp, 16
	callq	detect_breach
	jmp	.LBB26_35
.Lfunc_end26:
	.size	BZ2_hbCreateDecodeTables.24, .Lfunc_end26-BZ2_hbCreateDecodeTables.24
	.cfi_endproc
                                        # -- End function

	.ident	"clang version 9.0.1 (git@github.com:llvm/llvm-project.git 9b2d207cf4b43cfc1a2b6940b3c06e50a1bd127f)"
	.section	".note.GNU-stack","",@progbits
