	.text
	.file	"spec.c"
	.globl	ran                     # -- Begin function ran
	.p2align	4, 0x90
	.type	ran,@function
ran:                                    # @ran
	.cfi_startproc
# %bb.0:                                # %rand_bb
	pushq	%rbp
	.cfi_def_cfa_offset 16
	.cfi_offset %rbp, -16
	movq	%rsp, %rbp
	.cfi_def_cfa_register %rbp
	callq	get_rand
	cmpl	$0, %eax
	jne	.LBB0_7
# %bb.1:                                # %func_ran.14
	callq	ran.14
	popq	%rbp
	.cfi_def_cfa %rsp, 8
	retq
.LBB0_2:                                # %func_ran.39
	.cfi_def_cfa %rbp, 16
	callq	ran.39
	popq	%rbp
	.cfi_def_cfa %rsp, 8
	retq
.LBB0_3:                                # %func_ran.44
	.cfi_def_cfa %rbp, 16
	callq	ran.44
	popq	%rbp
	.cfi_def_cfa %rsp, 8
	retq
.LBB0_4:                                # %func_ran.52
	.cfi_def_cfa %rbp, 16
	callq	ran.52
	popq	%rbp
	.cfi_def_cfa %rsp, 8
	retq
.LBB0_5:                                # %func_ran.70
	.cfi_def_cfa %rbp, 16
	callq	ran.70
	popq	%rbp
	.cfi_def_cfa %rsp, 8
	retq
.LBB0_6:                                # %func_ran.96
	.cfi_def_cfa %rbp, 16
	callq	ran.96
	popq	%rbp
	.cfi_def_cfa %rsp, 8
	retq
.LBB0_7:                                # %ctrl0
	.cfi_def_cfa %rbp, 16
	cmpl	$1, %eax
	je	.LBB0_2
# %bb.8:                                # %ctrl1
	cmpl	$2, %eax
	je	.LBB0_3
# %bb.9:                                # %ctrl2
	cmpl	$3, %eax
	je	.LBB0_4
# %bb.10:                               # %ctrl3
	cmpl	$4, %eax
	je	.LBB0_5
	jmp	.LBB0_6
.Lfunc_end0:
	.size	ran, .Lfunc_end0-ran
	.cfi_endproc
                                        # -- End function
	.globl	spec_init               # -- Begin function spec_init
	.p2align	4, 0x90
	.type	spec_init,@function
spec_init:                              # @spec_init
	.cfi_startproc
# %bb.0:                                # %rand_bb
	pushq	%rbp
	.cfi_def_cfa_offset 16
	.cfi_offset %rbp, -16
	movq	%rsp, %rbp
	.cfi_def_cfa_register %rbp
	callq	get_rand
	cmpl	$0, %eax
	jne	.LBB1_7
# %bb.1:                                # %func_spec_init.29
	callq	spec_init.29
	popq	%rbp
	.cfi_def_cfa %rsp, 8
	retq
.LBB1_2:                                # %func_spec_init.42
	.cfi_def_cfa %rbp, 16
	callq	spec_init.42
	popq	%rbp
	.cfi_def_cfa %rsp, 8
	retq
.LBB1_3:                                # %func_spec_init.48
	.cfi_def_cfa %rbp, 16
	callq	spec_init.48
	popq	%rbp
	.cfi_def_cfa %rsp, 8
	retq
.LBB1_4:                                # %func_spec_init.54
	.cfi_def_cfa %rbp, 16
	callq	spec_init.54
	popq	%rbp
	.cfi_def_cfa %rsp, 8
	retq
.LBB1_5:                                # %func_spec_init.68
	.cfi_def_cfa %rbp, 16
	callq	spec_init.68
	popq	%rbp
	.cfi_def_cfa %rsp, 8
	retq
.LBB1_6:                                # %func_spec_init.84
	.cfi_def_cfa %rbp, 16
	callq	spec_init.84
	popq	%rbp
	.cfi_def_cfa %rsp, 8
	retq
.LBB1_7:                                # %ctrl0
	.cfi_def_cfa %rbp, 16
	cmpl	$1, %eax
	je	.LBB1_2
# %bb.8:                                # %ctrl1
	cmpl	$2, %eax
	je	.LBB1_3
# %bb.9:                                # %ctrl2
	cmpl	$3, %eax
	je	.LBB1_4
# %bb.10:                               # %ctrl3
	cmpl	$4, %eax
	je	.LBB1_5
	jmp	.LBB1_6
.Lfunc_end1:
	.size	spec_init, .Lfunc_end1-spec_init
	.cfi_endproc
                                        # -- End function
	.globl	spec_random_load        # -- Begin function spec_random_load
	.p2align	4, 0x90
	.type	spec_random_load,@function
spec_random_load:                       # @spec_random_load
	.cfi_startproc
# %bb.0:                                # %rand_bb
	pushq	%rbp
	.cfi_def_cfa_offset 16
	.cfi_offset %rbp, -16
	movq	%rsp, %rbp
	.cfi_def_cfa_register %rbp
	pushq	%rbx
	pushq	%rax
	.cfi_offset %rbx, -24
	movl	%edi, %ebx
	callq	get_rand
	cmpl	$0, %eax
	jne	.LBB2_17
# %bb.1:                                # %func_spec_random_load.1
	movl	%ebx, %edi
	callq	spec_random_load.1
	addq	$8, %rsp
	popq	%rbx
	popq	%rbp
	.cfi_def_cfa %rsp, 8
	retq
.LBB2_2:                                # %func_spec_random_load.21
	.cfi_def_cfa %rbp, 16
	movl	%ebx, %edi
	callq	spec_random_load.21
	addq	$8, %rsp
	popq	%rbx
	popq	%rbp
	.cfi_def_cfa %rsp, 8
	retq
.LBB2_3:                                # %func_spec_random_load.28
	.cfi_def_cfa %rbp, 16
	movl	%ebx, %edi
	callq	spec_random_load.28
	addq	$8, %rsp
	popq	%rbx
	popq	%rbp
	.cfi_def_cfa %rsp, 8
	retq
.LBB2_4:                                # %func_spec_random_load.38
	.cfi_def_cfa %rbp, 16
	movl	%ebx, %edi
	callq	spec_random_load.38
	addq	$8, %rsp
	popq	%rbx
	popq	%rbp
	.cfi_def_cfa %rsp, 8
	retq
.LBB2_5:                                # %func_spec_random_load.45
	.cfi_def_cfa %rbp, 16
	movl	%ebx, %edi
	callq	spec_random_load.45
	addq	$8, %rsp
	popq	%rbx
	popq	%rbp
	.cfi_def_cfa %rsp, 8
	retq
.LBB2_6:                                # %func_spec_random_load.47
	.cfi_def_cfa %rbp, 16
	movl	%ebx, %edi
	callq	spec_random_load.47
	addq	$8, %rsp
	popq	%rbx
	popq	%rbp
	.cfi_def_cfa %rsp, 8
	retq
.LBB2_7:                                # %func_spec_random_load.51
	.cfi_def_cfa %rbp, 16
	movl	%ebx, %edi
	callq	spec_random_load.51
	addq	$8, %rsp
	popq	%rbx
	popq	%rbp
	.cfi_def_cfa %rsp, 8
	retq
.LBB2_8:                                # %func_spec_random_load.57
	.cfi_def_cfa %rbp, 16
	movl	%ebx, %edi
	callq	spec_random_load.57
	addq	$8, %rsp
	popq	%rbx
	popq	%rbp
	.cfi_def_cfa %rsp, 8
	retq
.LBB2_9:                                # %func_spec_random_load.71
	.cfi_def_cfa %rbp, 16
	movl	%ebx, %edi
	callq	spec_random_load.71
	addq	$8, %rsp
	popq	%rbx
	popq	%rbp
	.cfi_def_cfa %rsp, 8
	retq
.LBB2_10:                               # %func_spec_random_load.72
	.cfi_def_cfa %rbp, 16
	movl	%ebx, %edi
	callq	spec_random_load.72
	addq	$8, %rsp
	popq	%rbx
	popq	%rbp
	.cfi_def_cfa %rsp, 8
	retq
.LBB2_11:                               # %func_spec_random_load.75
	.cfi_def_cfa %rbp, 16
	movl	%ebx, %edi
	callq	spec_random_load.75
	addq	$8, %rsp
	popq	%rbx
	popq	%rbp
	.cfi_def_cfa %rsp, 8
	retq
.LBB2_12:                               # %func_spec_random_load.79
	.cfi_def_cfa %rbp, 16
	movl	%ebx, %edi
	callq	spec_random_load.79
	addq	$8, %rsp
	popq	%rbx
	popq	%rbp
	.cfi_def_cfa %rsp, 8
	retq
.LBB2_13:                               # %func_spec_random_load.87
	.cfi_def_cfa %rbp, 16
	movl	%ebx, %edi
	callq	spec_random_load.87
	addq	$8, %rsp
	popq	%rbx
	popq	%rbp
	.cfi_def_cfa %rsp, 8
	retq
.LBB2_14:                               # %func_spec_random_load.89
	.cfi_def_cfa %rbp, 16
	movl	%ebx, %edi
	callq	spec_random_load.89
	addq	$8, %rsp
	popq	%rbx
	popq	%rbp
	.cfi_def_cfa %rsp, 8
	retq
.LBB2_15:                               # %func_spec_random_load.93
	.cfi_def_cfa %rbp, 16
	movl	%ebx, %edi
	callq	spec_random_load.93
	addq	$8, %rsp
	popq	%rbx
	popq	%rbp
	.cfi_def_cfa %rsp, 8
	retq
.LBB2_16:                               # %func_spec_random_load.102
	.cfi_def_cfa %rbp, 16
	movl	%ebx, %edi
	callq	spec_random_load.102
	addq	$8, %rsp
	popq	%rbx
	popq	%rbp
	.cfi_def_cfa %rsp, 8
	retq
.LBB2_17:                               # %ctrl0
	.cfi_def_cfa %rbp, 16
	cmpl	$1, %eax
	je	.LBB2_2
# %bb.18:                               # %ctrl1
	cmpl	$2, %eax
	je	.LBB2_3
# %bb.19:                               # %ctrl2
	cmpl	$3, %eax
	je	.LBB2_4
# %bb.20:                               # %ctrl3
	cmpl	$4, %eax
	je	.LBB2_5
# %bb.21:                               # %ctrl4
	cmpl	$5, %eax
	je	.LBB2_6
# %bb.22:                               # %ctrl5
	cmpl	$6, %eax
	je	.LBB2_7
# %bb.23:                               # %ctrl6
	cmpl	$7, %eax
	je	.LBB2_8
# %bb.24:                               # %ctrl7
	cmpl	$8, %eax
	je	.LBB2_9
# %bb.25:                               # %ctrl8
	cmpl	$9, %eax
	je	.LBB2_10
# %bb.26:                               # %ctrl9
	cmpl	$10, %eax
	je	.LBB2_11
# %bb.27:                               # %ctrl10
	cmpl	$11, %eax
	je	.LBB2_12
# %bb.28:                               # %ctrl11
	cmpl	$12, %eax
	je	.LBB2_13
# %bb.29:                               # %ctrl12
	cmpl	$13, %eax
	je	.LBB2_14
# %bb.30:                               # %ctrl13
	cmpl	$14, %eax
	je	.LBB2_15
	jmp	.LBB2_16
.Lfunc_end2:
	.size	spec_random_load, .Lfunc_end2-spec_random_load
	.cfi_endproc
                                        # -- End function
	.globl	spec_load               # -- Begin function spec_load
	.p2align	4, 0x90
	.type	spec_load,@function
spec_load:                              # @spec_load
	.cfi_startproc
# %bb.0:                                # %rand_bb
	pushq	%rbp
	.cfi_def_cfa_offset 16
	.cfi_offset %rbp, -16
	movq	%rsp, %rbp
	.cfi_def_cfa_register %rbp
	pushq	%r15
	pushq	%r14
	pushq	%rbx
	pushq	%rax
	.cfi_offset %rbx, -40
	.cfi_offset %r14, -32
	.cfi_offset %r15, -24
	movl	%edx, %r14d
	movq	%rsi, %r15
	movl	%edi, %ebx
	callq	get_rand
	cmpl	$0, %eax
	jne	.LBB3_17
# %bb.1:                                # %func_spec_load.5
	movl	%ebx, %edi
	movq	%r15, %rsi
	movl	%r14d, %edx
	callq	spec_load.5
	addq	$8, %rsp
	popq	%rbx
	popq	%r14
	popq	%r15
	popq	%rbp
	.cfi_def_cfa %rsp, 8
	retq
.LBB3_2:                                # %func_spec_load.15
	.cfi_def_cfa %rbp, 16
	movl	%ebx, %edi
	movq	%r15, %rsi
	movl	%r14d, %edx
	callq	spec_load.15
	addq	$8, %rsp
	popq	%rbx
	popq	%r14
	popq	%r15
	popq	%rbp
	.cfi_def_cfa %rsp, 8
	retq
.LBB3_3:                                # %func_spec_load.25
	.cfi_def_cfa %rbp, 16
	movl	%ebx, %edi
	movq	%r15, %rsi
	movl	%r14d, %edx
	callq	spec_load.25
	addq	$8, %rsp
	popq	%rbx
	popq	%r14
	popq	%r15
	popq	%rbp
	.cfi_def_cfa %rsp, 8
	retq
.LBB3_4:                                # %func_spec_load.27
	.cfi_def_cfa %rbp, 16
	movl	%ebx, %edi
	movq	%r15, %rsi
	movl	%r14d, %edx
	callq	spec_load.27
	addq	$8, %rsp
	popq	%rbx
	popq	%r14
	popq	%r15
	popq	%rbp
	.cfi_def_cfa %rsp, 8
	retq
.LBB3_5:                                # %func_spec_load.31
	.cfi_def_cfa %rbp, 16
	movl	%ebx, %edi
	movq	%r15, %rsi
	movl	%r14d, %edx
	callq	spec_load.31
	addq	$8, %rsp
	popq	%rbx
	popq	%r14
	popq	%r15
	popq	%rbp
	.cfi_def_cfa %rsp, 8
	retq
.LBB3_6:                                # %func_spec_load.32
	.cfi_def_cfa %rbp, 16
	movl	%ebx, %edi
	movq	%r15, %rsi
	movl	%r14d, %edx
	callq	spec_load.32
	addq	$8, %rsp
	popq	%rbx
	popq	%r14
	popq	%r15
	popq	%rbp
	.cfi_def_cfa %rsp, 8
	retq
.LBB3_7:                                # %func_spec_load.33
	.cfi_def_cfa %rbp, 16
	movl	%ebx, %edi
	movq	%r15, %rsi
	movl	%r14d, %edx
	callq	spec_load.33
	addq	$8, %rsp
	popq	%rbx
	popq	%r14
	popq	%r15
	popq	%rbp
	.cfi_def_cfa %rsp, 8
	retq
.LBB3_8:                                # %func_spec_load.40
	.cfi_def_cfa %rbp, 16
	movl	%ebx, %edi
	movq	%r15, %rsi
	movl	%r14d, %edx
	callq	spec_load.40
	addq	$8, %rsp
	popq	%rbx
	popq	%r14
	popq	%r15
	popq	%rbp
	.cfi_def_cfa %rsp, 8
	retq
.LBB3_9:                                # %func_spec_load.46
	.cfi_def_cfa %rbp, 16
	movl	%ebx, %edi
	movq	%r15, %rsi
	movl	%r14d, %edx
	callq	spec_load.46
	addq	$8, %rsp
	popq	%rbx
	popq	%r14
	popq	%r15
	popq	%rbp
	.cfi_def_cfa %rsp, 8
	retq
.LBB3_10:                               # %func_spec_load.62
	.cfi_def_cfa %rbp, 16
	movl	%ebx, %edi
	movq	%r15, %rsi
	movl	%r14d, %edx
	callq	spec_load.62
	addq	$8, %rsp
	popq	%rbx
	popq	%r14
	popq	%r15
	popq	%rbp
	.cfi_def_cfa %rsp, 8
	retq
.LBB3_11:                               # %func_spec_load.63
	.cfi_def_cfa %rbp, 16
	movl	%ebx, %edi
	movq	%r15, %rsi
	movl	%r14d, %edx
	callq	spec_load.63
	addq	$8, %rsp
	popq	%rbx
	popq	%r14
	popq	%r15
	popq	%rbp
	.cfi_def_cfa %rsp, 8
	retq
.LBB3_12:                               # %func_spec_load.78
	.cfi_def_cfa %rbp, 16
	movl	%ebx, %edi
	movq	%r15, %rsi
	movl	%r14d, %edx
	callq	spec_load.78
	addq	$8, %rsp
	popq	%rbx
	popq	%r14
	popq	%r15
	popq	%rbp
	.cfi_def_cfa %rsp, 8
	retq
.LBB3_13:                               # %func_spec_load.90
	.cfi_def_cfa %rbp, 16
	movl	%ebx, %edi
	movq	%r15, %rsi
	movl	%r14d, %edx
	callq	spec_load.90
	addq	$8, %rsp
	popq	%rbx
	popq	%r14
	popq	%r15
	popq	%rbp
	.cfi_def_cfa %rsp, 8
	retq
.LBB3_14:                               # %func_spec_load.91
	.cfi_def_cfa %rbp, 16
	movl	%ebx, %edi
	movq	%r15, %rsi
	movl	%r14d, %edx
	callq	spec_load.91
	addq	$8, %rsp
	popq	%rbx
	popq	%r14
	popq	%r15
	popq	%rbp
	.cfi_def_cfa %rsp, 8
	retq
.LBB3_15:                               # %func_spec_load.92
	.cfi_def_cfa %rbp, 16
	movl	%ebx, %edi
	movq	%r15, %rsi
	movl	%r14d, %edx
	callq	spec_load.92
	addq	$8, %rsp
	popq	%rbx
	popq	%r14
	popq	%r15
	popq	%rbp
	.cfi_def_cfa %rsp, 8
	retq
.LBB3_16:                               # %func_spec_load.94
	.cfi_def_cfa %rbp, 16
	movl	%ebx, %edi
	movq	%r15, %rsi
	movl	%r14d, %edx
	callq	spec_load.94
	addq	$8, %rsp
	popq	%rbx
	popq	%r14
	popq	%r15
	popq	%rbp
	.cfi_def_cfa %rsp, 8
	retq
.LBB3_17:                               # %ctrl0
	.cfi_def_cfa %rbp, 16
	cmpl	$1, %eax
	je	.LBB3_2
# %bb.18:                               # %ctrl1
	cmpl	$2, %eax
	je	.LBB3_3
# %bb.19:                               # %ctrl2
	cmpl	$3, %eax
	je	.LBB3_4
# %bb.20:                               # %ctrl3
	cmpl	$4, %eax
	je	.LBB3_5
# %bb.21:                               # %ctrl4
	cmpl	$5, %eax
	je	.LBB3_6
# %bb.22:                               # %ctrl5
	cmpl	$6, %eax
	je	.LBB3_7
# %bb.23:                               # %ctrl6
	cmpl	$7, %eax
	je	.LBB3_8
# %bb.24:                               # %ctrl7
	cmpl	$8, %eax
	je	.LBB3_9
# %bb.25:                               # %ctrl8
	cmpl	$9, %eax
	je	.LBB3_10
# %bb.26:                               # %ctrl9
	cmpl	$10, %eax
	je	.LBB3_11
# %bb.27:                               # %ctrl10
	cmpl	$11, %eax
	je	.LBB3_12
# %bb.28:                               # %ctrl11
	cmpl	$12, %eax
	je	.LBB3_13
# %bb.29:                               # %ctrl12
	cmpl	$13, %eax
	je	.LBB3_14
# %bb.30:                               # %ctrl13
	cmpl	$14, %eax
	je	.LBB3_15
	jmp	.LBB3_16
.Lfunc_end3:
	.size	spec_load, .Lfunc_end3-spec_load
	.cfi_endproc
                                        # -- End function
	.globl	spec_read               # -- Begin function spec_read
	.p2align	4, 0x90
	.type	spec_read,@function
spec_read:                              # @spec_read
	.cfi_startproc
# %bb.0:                                # %rand_bb
	pushq	%rbp
	.cfi_def_cfa_offset 16
	.cfi_offset %rbp, -16
	movq	%rsp, %rbp
	.cfi_def_cfa_register %rbp
	pushq	%r15
	pushq	%r14
	pushq	%rbx
	pushq	%rax
	.cfi_offset %rbx, -40
	.cfi_offset %r14, -32
	.cfi_offset %r15, -24
	movl	%edx, %r14d
	movq	%rsi, %r15
	movl	%edi, %ebx
	callq	get_rand
	cmpl	$0, %eax
	jne	.LBB4_17
# %bb.1:                                # %func_spec_read.2
	movl	%ebx, %edi
	movq	%r15, %rsi
	movl	%r14d, %edx
	callq	spec_read.2
	addq	$8, %rsp
	popq	%rbx
	popq	%r14
	popq	%r15
	popq	%rbp
	.cfi_def_cfa %rsp, 8
	retq
.LBB4_2:                                # %func_spec_read.10
	.cfi_def_cfa %rbp, 16
	movl	%ebx, %edi
	movq	%r15, %rsi
	movl	%r14d, %edx
	callq	spec_read.10
	addq	$8, %rsp
	popq	%rbx
	popq	%r14
	popq	%r15
	popq	%rbp
	.cfi_def_cfa %rsp, 8
	retq
.LBB4_3:                                # %func_spec_read.36
	.cfi_def_cfa %rbp, 16
	movl	%ebx, %edi
	movq	%r15, %rsi
	movl	%r14d, %edx
	callq	spec_read.36
	addq	$8, %rsp
	popq	%rbx
	popq	%r14
	popq	%r15
	popq	%rbp
	.cfi_def_cfa %rsp, 8
	retq
.LBB4_4:                                # %func_spec_read.49
	.cfi_def_cfa %rbp, 16
	movl	%ebx, %edi
	movq	%r15, %rsi
	movl	%r14d, %edx
	callq	spec_read.49
	addq	$8, %rsp
	popq	%rbx
	popq	%r14
	popq	%r15
	popq	%rbp
	.cfi_def_cfa %rsp, 8
	retq
.LBB4_5:                                # %func_spec_read.53
	.cfi_def_cfa %rbp, 16
	movl	%ebx, %edi
	movq	%r15, %rsi
	movl	%r14d, %edx
	callq	spec_read.53
	addq	$8, %rsp
	popq	%rbx
	popq	%r14
	popq	%r15
	popq	%rbp
	.cfi_def_cfa %rsp, 8
	retq
.LBB4_6:                                # %func_spec_read.61
	.cfi_def_cfa %rbp, 16
	movl	%ebx, %edi
	movq	%r15, %rsi
	movl	%r14d, %edx
	callq	spec_read.61
	addq	$8, %rsp
	popq	%rbx
	popq	%r14
	popq	%r15
	popq	%rbp
	.cfi_def_cfa %rsp, 8
	retq
.LBB4_7:                                # %func_spec_read.76
	.cfi_def_cfa %rbp, 16
	movl	%ebx, %edi
	movq	%r15, %rsi
	movl	%r14d, %edx
	callq	spec_read.76
	addq	$8, %rsp
	popq	%rbx
	popq	%r14
	popq	%r15
	popq	%rbp
	.cfi_def_cfa %rsp, 8
	retq
.LBB4_8:                                # %func_spec_read.80
	.cfi_def_cfa %rbp, 16
	movl	%ebx, %edi
	movq	%r15, %rsi
	movl	%r14d, %edx
	callq	spec_read.80
	addq	$8, %rsp
	popq	%rbx
	popq	%r14
	popq	%r15
	popq	%rbp
	.cfi_def_cfa %rsp, 8
	retq
.LBB4_9:                                # %func_spec_read.83
	.cfi_def_cfa %rbp, 16
	movl	%ebx, %edi
	movq	%r15, %rsi
	movl	%r14d, %edx
	callq	spec_read.83
	addq	$8, %rsp
	popq	%rbx
	popq	%r14
	popq	%r15
	popq	%rbp
	.cfi_def_cfa %rsp, 8
	retq
.LBB4_10:                               # %func_spec_read.88
	.cfi_def_cfa %rbp, 16
	movl	%ebx, %edi
	movq	%r15, %rsi
	movl	%r14d, %edx
	callq	spec_read.88
	addq	$8, %rsp
	popq	%rbx
	popq	%r14
	popq	%r15
	popq	%rbp
	.cfi_def_cfa %rsp, 8
	retq
.LBB4_11:                               # %func_spec_read.95
	.cfi_def_cfa %rbp, 16
	movl	%ebx, %edi
	movq	%r15, %rsi
	movl	%r14d, %edx
	callq	spec_read.95
	addq	$8, %rsp
	popq	%rbx
	popq	%r14
	popq	%r15
	popq	%rbp
	.cfi_def_cfa %rsp, 8
	retq
.LBB4_12:                               # %func_spec_read.98
	.cfi_def_cfa %rbp, 16
	movl	%ebx, %edi
	movq	%r15, %rsi
	movl	%r14d, %edx
	callq	spec_read.98
	addq	$8, %rsp
	popq	%rbx
	popq	%r14
	popq	%r15
	popq	%rbp
	.cfi_def_cfa %rsp, 8
	retq
.LBB4_13:                               # %func_spec_read.99
	.cfi_def_cfa %rbp, 16
	movl	%ebx, %edi
	movq	%r15, %rsi
	movl	%r14d, %edx
	callq	spec_read.99
	addq	$8, %rsp
	popq	%rbx
	popq	%r14
	popq	%r15
	popq	%rbp
	.cfi_def_cfa %rsp, 8
	retq
.LBB4_14:                               # %func_spec_read.101
	.cfi_def_cfa %rbp, 16
	movl	%ebx, %edi
	movq	%r15, %rsi
	movl	%r14d, %edx
	callq	spec_read.101
	addq	$8, %rsp
	popq	%rbx
	popq	%r14
	popq	%r15
	popq	%rbp
	.cfi_def_cfa %rsp, 8
	retq
.LBB4_15:                               # %func_spec_read.105
	.cfi_def_cfa %rbp, 16
	movl	%ebx, %edi
	movq	%r15, %rsi
	movl	%r14d, %edx
	callq	spec_read.105
	addq	$8, %rsp
	popq	%rbx
	popq	%r14
	popq	%r15
	popq	%rbp
	.cfi_def_cfa %rsp, 8
	retq
.LBB4_16:                               # %func_spec_read.106
	.cfi_def_cfa %rbp, 16
	movl	%ebx, %edi
	movq	%r15, %rsi
	movl	%r14d, %edx
	callq	spec_read.106
	addq	$8, %rsp
	popq	%rbx
	popq	%r14
	popq	%r15
	popq	%rbp
	.cfi_def_cfa %rsp, 8
	retq
.LBB4_17:                               # %ctrl0
	.cfi_def_cfa %rbp, 16
	cmpl	$1, %eax
	je	.LBB4_2
# %bb.18:                               # %ctrl1
	cmpl	$2, %eax
	je	.LBB4_3
# %bb.19:                               # %ctrl2
	cmpl	$3, %eax
	je	.LBB4_4
# %bb.20:                               # %ctrl3
	cmpl	$4, %eax
	je	.LBB4_5
# %bb.21:                               # %ctrl4
	cmpl	$5, %eax
	je	.LBB4_6
# %bb.22:                               # %ctrl5
	cmpl	$6, %eax
	je	.LBB4_7
# %bb.23:                               # %ctrl6
	cmpl	$7, %eax
	je	.LBB4_8
# %bb.24:                               # %ctrl7
	cmpl	$8, %eax
	je	.LBB4_9
# %bb.25:                               # %ctrl8
	cmpl	$9, %eax
	je	.LBB4_10
# %bb.26:                               # %ctrl9
	cmpl	$10, %eax
	je	.LBB4_11
# %bb.27:                               # %ctrl10
	cmpl	$11, %eax
	je	.LBB4_12
# %bb.28:                               # %ctrl11
	cmpl	$12, %eax
	je	.LBB4_13
# %bb.29:                               # %ctrl12
	cmpl	$13, %eax
	je	.LBB4_14
# %bb.30:                               # %ctrl13
	cmpl	$14, %eax
	je	.LBB4_15
	jmp	.LBB4_16
.Lfunc_end4:
	.size	spec_read, .Lfunc_end4-spec_read
	.cfi_endproc
                                        # -- End function
	.globl	spec_fread              # -- Begin function spec_fread
	.p2align	4, 0x90
	.type	spec_fread,@function
spec_fread:                             # @spec_fread
	.cfi_startproc
# %bb.0:                                # %rand_bb
	pushq	%rbp
	.cfi_def_cfa_offset 16
	.cfi_offset %rbp, -16
	movq	%rsp, %rbp
	.cfi_def_cfa_register %rbp
	pushq	%r15
	pushq	%r14
	pushq	%r12
	pushq	%rbx
	.cfi_offset %rbx, -48
	.cfi_offset %r12, -40
	.cfi_offset %r14, -32
	.cfi_offset %r15, -24
	movl	%ecx, %r14d
	movl	%edx, %r15d
	movl	%esi, %r12d
	movq	%rdi, %rbx
	callq	get_rand
	cmpl	$0, %eax
	jne	.LBB5_17
# %bb.1:                                # %func_spec_fread.3
	movq	%rbx, %rdi
	movl	%r12d, %esi
	movl	%r15d, %edx
	movl	%r14d, %ecx
	callq	spec_fread.3
	popq	%rbx
	popq	%r12
	popq	%r14
	popq	%r15
	popq	%rbp
	.cfi_def_cfa %rsp, 8
	retq
.LBB5_2:                                # %func_spec_fread.8
	.cfi_def_cfa %rbp, 16
	movq	%rbx, %rdi
	movl	%r12d, %esi
	movl	%r15d, %edx
	movl	%r14d, %ecx
	callq	spec_fread.8
	popq	%rbx
	popq	%r12
	popq	%r14
	popq	%r15
	popq	%rbp
	.cfi_def_cfa %rsp, 8
	retq
.LBB5_3:                                # %func_spec_fread.12
	.cfi_def_cfa %rbp, 16
	movq	%rbx, %rdi
	movl	%r12d, %esi
	movl	%r15d, %edx
	movl	%r14d, %ecx
	callq	spec_fread.12
	popq	%rbx
	popq	%r12
	popq	%r14
	popq	%r15
	popq	%rbp
	.cfi_def_cfa %rsp, 8
	retq
.LBB5_4:                                # %func_spec_fread.13
	.cfi_def_cfa %rbp, 16
	movq	%rbx, %rdi
	movl	%r12d, %esi
	movl	%r15d, %edx
	movl	%r14d, %ecx
	callq	spec_fread.13
	popq	%rbx
	popq	%r12
	popq	%r14
	popq	%r15
	popq	%rbp
	.cfi_def_cfa %rsp, 8
	retq
.LBB5_5:                                # %func_spec_fread.41
	.cfi_def_cfa %rbp, 16
	movq	%rbx, %rdi
	movl	%r12d, %esi
	movl	%r15d, %edx
	movl	%r14d, %ecx
	callq	spec_fread.41
	popq	%rbx
	popq	%r12
	popq	%r14
	popq	%r15
	popq	%rbp
	.cfi_def_cfa %rsp, 8
	retq
.LBB5_6:                                # %func_spec_fread.58
	.cfi_def_cfa %rbp, 16
	movq	%rbx, %rdi
	movl	%r12d, %esi
	movl	%r15d, %edx
	movl	%r14d, %ecx
	callq	spec_fread.58
	popq	%rbx
	popq	%r12
	popq	%r14
	popq	%r15
	popq	%rbp
	.cfi_def_cfa %rsp, 8
	retq
.LBB5_7:                                # %func_spec_fread.97
	.cfi_def_cfa %rbp, 16
	movq	%rbx, %rdi
	movl	%r12d, %esi
	movl	%r15d, %edx
	movl	%r14d, %ecx
	callq	spec_fread.97
	popq	%rbx
	popq	%r12
	popq	%r14
	popq	%r15
	popq	%rbp
	.cfi_def_cfa %rsp, 8
	retq
.LBB5_8:                                # %func_spec_fread.100
	.cfi_def_cfa %rbp, 16
	movq	%rbx, %rdi
	movl	%r12d, %esi
	movl	%r15d, %edx
	movl	%r14d, %ecx
	callq	spec_fread.100
	popq	%rbx
	popq	%r12
	popq	%r14
	popq	%r15
	popq	%rbp
	.cfi_def_cfa %rsp, 8
	retq
.LBB5_9:                                # %func_spec_fread.103
	.cfi_def_cfa %rbp, 16
	movq	%rbx, %rdi
	movl	%r12d, %esi
	movl	%r15d, %edx
	movl	%r14d, %ecx
	callq	spec_fread.103
	popq	%rbx
	popq	%r12
	popq	%r14
	popq	%r15
	popq	%rbp
	.cfi_def_cfa %rsp, 8
	retq
.LBB5_10:                               # %func_spec_fread.104
	.cfi_def_cfa %rbp, 16
	movq	%rbx, %rdi
	movl	%r12d, %esi
	movl	%r15d, %edx
	movl	%r14d, %ecx
	callq	spec_fread.104
	popq	%rbx
	popq	%r12
	popq	%r14
	popq	%r15
	popq	%rbp
	.cfi_def_cfa %rsp, 8
	retq
.LBB5_11:                               # %func_spec_fread.107
	.cfi_def_cfa %rbp, 16
	movq	%rbx, %rdi
	movl	%r12d, %esi
	movl	%r15d, %edx
	movl	%r14d, %ecx
	callq	spec_fread.107
	popq	%rbx
	popq	%r12
	popq	%r14
	popq	%r15
	popq	%rbp
	.cfi_def_cfa %rsp, 8
	retq
.LBB5_12:                               # %func_spec_fread.108
	.cfi_def_cfa %rbp, 16
	movq	%rbx, %rdi
	movl	%r12d, %esi
	movl	%r15d, %edx
	movl	%r14d, %ecx
	callq	spec_fread.108
	popq	%rbx
	popq	%r12
	popq	%r14
	popq	%r15
	popq	%rbp
	.cfi_def_cfa %rsp, 8
	retq
.LBB5_13:                               # %func_spec_fread.109
	.cfi_def_cfa %rbp, 16
	movq	%rbx, %rdi
	movl	%r12d, %esi
	movl	%r15d, %edx
	movl	%r14d, %ecx
	callq	spec_fread.109
	popq	%rbx
	popq	%r12
	popq	%r14
	popq	%r15
	popq	%rbp
	.cfi_def_cfa %rsp, 8
	retq
.LBB5_14:                               # %func_spec_fread.110
	.cfi_def_cfa %rbp, 16
	movq	%rbx, %rdi
	movl	%r12d, %esi
	movl	%r15d, %edx
	movl	%r14d, %ecx
	callq	spec_fread.110
	popq	%rbx
	popq	%r12
	popq	%r14
	popq	%r15
	popq	%rbp
	.cfi_def_cfa %rsp, 8
	retq
.LBB5_15:                               # %func_spec_fread.111
	.cfi_def_cfa %rbp, 16
	movq	%rbx, %rdi
	movl	%r12d, %esi
	movl	%r15d, %edx
	movl	%r14d, %ecx
	callq	spec_fread.111
	popq	%rbx
	popq	%r12
	popq	%r14
	popq	%r15
	popq	%rbp
	.cfi_def_cfa %rsp, 8
	retq
.LBB5_16:                               # %func_spec_fread.112
	.cfi_def_cfa %rbp, 16
	movq	%rbx, %rdi
	movl	%r12d, %esi
	movl	%r15d, %edx
	movl	%r14d, %ecx
	callq	spec_fread.112
	popq	%rbx
	popq	%r12
	popq	%r14
	popq	%r15
	popq	%rbp
	.cfi_def_cfa %rsp, 8
	retq
.LBB5_17:                               # %ctrl0
	.cfi_def_cfa %rbp, 16
	cmpl	$1, %eax
	je	.LBB5_2
# %bb.18:                               # %ctrl1
	cmpl	$2, %eax
	je	.LBB5_3
# %bb.19:                               # %ctrl2
	cmpl	$3, %eax
	je	.LBB5_4
# %bb.20:                               # %ctrl3
	cmpl	$4, %eax
	je	.LBB5_5
# %bb.21:                               # %ctrl4
	cmpl	$5, %eax
	je	.LBB5_6
# %bb.22:                               # %ctrl5
	cmpl	$6, %eax
	je	.LBB5_7
# %bb.23:                               # %ctrl6
	cmpl	$7, %eax
	je	.LBB5_8
# %bb.24:                               # %ctrl7
	cmpl	$8, %eax
	je	.LBB5_9
# %bb.25:                               # %ctrl8
	cmpl	$9, %eax
	je	.LBB5_10
# %bb.26:                               # %ctrl9
	cmpl	$10, %eax
	je	.LBB5_11
# %bb.27:                               # %ctrl10
	cmpl	$11, %eax
	je	.LBB5_12
# %bb.28:                               # %ctrl11
	cmpl	$12, %eax
	je	.LBB5_13
# %bb.29:                               # %ctrl12
	cmpl	$13, %eax
	je	.LBB5_14
# %bb.30:                               # %ctrl13
	cmpl	$14, %eax
	je	.LBB5_15
	jmp	.LBB5_16
.Lfunc_end5:
	.size	spec_fread, .Lfunc_end5-spec_fread
	.cfi_endproc
                                        # -- End function
	.globl	spec_getc               # -- Begin function spec_getc
	.p2align	4, 0x90
	.type	spec_getc,@function
spec_getc:                              # @spec_getc
	.cfi_startproc
# %bb.0:                                # %rand_bb
	pushq	%rbp
	.cfi_def_cfa_offset 16
	.cfi_offset %rbp, -16
	movq	%rsp, %rbp
	.cfi_def_cfa_register %rbp
	pushq	%rbx
	pushq	%rax
	.cfi_offset %rbx, -24
	movl	%edi, %ebx
	callq	get_rand
	cmpl	$0, %eax
	jne	.LBB6_7
# %bb.1:                                # %func_spec_getc.4
	movl	%ebx, %edi
	callq	spec_getc.4
	addq	$8, %rsp
	popq	%rbx
	popq	%rbp
	.cfi_def_cfa %rsp, 8
	retq
.LBB6_2:                                # %func_spec_getc.24
	.cfi_def_cfa %rbp, 16
	movl	%ebx, %edi
	callq	spec_getc.24
	addq	$8, %rsp
	popq	%rbx
	popq	%rbp
	.cfi_def_cfa %rsp, 8
	retq
.LBB6_3:                                # %func_spec_getc.37
	.cfi_def_cfa %rbp, 16
	movl	%ebx, %edi
	callq	spec_getc.37
	addq	$8, %rsp
	popq	%rbx
	popq	%rbp
	.cfi_def_cfa %rsp, 8
	retq
.LBB6_4:                                # %func_spec_getc.43
	.cfi_def_cfa %rbp, 16
	movl	%ebx, %edi
	callq	spec_getc.43
	addq	$8, %rsp
	popq	%rbx
	popq	%rbp
	.cfi_def_cfa %rsp, 8
	retq
.LBB6_5:                                # %func_spec_getc.50
	.cfi_def_cfa %rbp, 16
	movl	%ebx, %edi
	callq	spec_getc.50
	addq	$8, %rsp
	popq	%rbx
	popq	%rbp
	.cfi_def_cfa %rsp, 8
	retq
.LBB6_6:                                # %func_spec_getc.55
	.cfi_def_cfa %rbp, 16
	movl	%ebx, %edi
	callq	spec_getc.55
	addq	$8, %rsp
	popq	%rbx
	popq	%rbp
	.cfi_def_cfa %rsp, 8
	retq
.LBB6_7:                                # %ctrl0
	.cfi_def_cfa %rbp, 16
	cmpl	$1, %eax
	je	.LBB6_2
# %bb.8:                                # %ctrl1
	cmpl	$2, %eax
	je	.LBB6_3
# %bb.9:                                # %ctrl2
	cmpl	$3, %eax
	je	.LBB6_4
# %bb.10:                               # %ctrl3
	cmpl	$4, %eax
	je	.LBB6_5
	jmp	.LBB6_6
.Lfunc_end6:
	.size	spec_getc, .Lfunc_end6-spec_getc
	.cfi_endproc
                                        # -- End function
	.globl	spec_ungetc             # -- Begin function spec_ungetc
	.p2align	4, 0x90
	.type	spec_ungetc,@function
spec_ungetc:                            # @spec_ungetc
	.cfi_startproc
# %bb.0:                                # %rand_bb
	pushq	%rbp
	.cfi_def_cfa_offset 16
	.cfi_offset %rbp, -16
	movq	%rsp, %rbp
	.cfi_def_cfa_register %rbp
	pushq	%r14
	pushq	%rbx
	.cfi_offset %rbx, -32
	.cfi_offset %r14, -24
	movl	%esi, %r14d
	movl	%edi, %ebx
	callq	get_rand
	cmpl	$0, %eax
	jne	.LBB7_7
# %bb.1:                                # %func_spec_ungetc.9
	movzbl	%bl, %edi
	movl	%r14d, %esi
	callq	spec_ungetc.9
	popq	%rbx
	popq	%r14
	popq	%rbp
	.cfi_def_cfa %rsp, 8
	retq
.LBB7_2:                                # %func_spec_ungetc.11
	.cfi_def_cfa %rbp, 16
	movzbl	%bl, %edi
	movl	%r14d, %esi
	callq	spec_ungetc.11
	popq	%rbx
	popq	%r14
	popq	%rbp
	.cfi_def_cfa %rsp, 8
	retq
.LBB7_3:                                # %func_spec_ungetc.18
	.cfi_def_cfa %rbp, 16
	movzbl	%bl, %edi
	movl	%r14d, %esi
	callq	spec_ungetc.18
	popq	%rbx
	popq	%r14
	popq	%rbp
	.cfi_def_cfa %rsp, 8
	retq
.LBB7_4:                                # %func_spec_ungetc.20
	.cfi_def_cfa %rbp, 16
	movzbl	%bl, %edi
	movl	%r14d, %esi
	callq	spec_ungetc.20
	popq	%rbx
	popq	%r14
	popq	%rbp
	.cfi_def_cfa %rsp, 8
	retq
.LBB7_5:                                # %func_spec_ungetc.23
	.cfi_def_cfa %rbp, 16
	movzbl	%bl, %edi
	movl	%r14d, %esi
	callq	spec_ungetc.23
	popq	%rbx
	popq	%r14
	popq	%rbp
	.cfi_def_cfa %rsp, 8
	retq
.LBB7_6:                                # %func_spec_ungetc.35
	.cfi_def_cfa %rbp, 16
	movzbl	%bl, %edi
	movl	%r14d, %esi
	callq	spec_ungetc.35
	popq	%rbx
	popq	%r14
	popq	%rbp
	.cfi_def_cfa %rsp, 8
	retq
.LBB7_7:                                # %ctrl0
	.cfi_def_cfa %rbp, 16
	cmpl	$1, %eax
	je	.LBB7_2
# %bb.8:                                # %ctrl1
	cmpl	$2, %eax
	je	.LBB7_3
# %bb.9:                                # %ctrl2
	cmpl	$3, %eax
	je	.LBB7_4
# %bb.10:                               # %ctrl3
	cmpl	$4, %eax
	je	.LBB7_5
	jmp	.LBB7_6
.Lfunc_end7:
	.size	spec_ungetc, .Lfunc_end7-spec_ungetc
	.cfi_endproc
                                        # -- End function
	.globl	spec_rewind             # -- Begin function spec_rewind
	.p2align	4, 0x90
	.type	spec_rewind,@function
spec_rewind:                            # @spec_rewind
	.cfi_startproc
# %bb.0:                                # %entry
	pushq	%rbp
	.cfi_def_cfa_offset 16
	.cfi_offset %rbp, -16
	movq	%rsp, %rbp
	.cfi_def_cfa_register %rbp
	movl	%edi, -4(%rbp)
	movslq	-4(%rbp), %rax
	imulq	$24, %rax, %rax
	movabsq	$spec_fd, %rcx
	addq	%rax, %rcx
	movl	$0, 8(%rcx)
	xorl	%eax, %eax
	popq	%rbp
	.cfi_def_cfa %rsp, 8
	retq
.Lfunc_end8:
	.size	spec_rewind, .Lfunc_end8-spec_rewind
	.cfi_endproc
                                        # -- End function
	.globl	spec_reset              # -- Begin function spec_reset
	.p2align	4, 0x90
	.type	spec_reset,@function
spec_reset:                             # @spec_reset
	.cfi_startproc
# %bb.0:                                # %entry
	pushq	%rbp
	.cfi_def_cfa_offset 16
	.cfi_offset %rbp, -16
	movq	%rsp, %rbp
	.cfi_def_cfa_register %rbp
	pushq	%rbx
	pushq	%rax
	.cfi_offset %rbx, -24
	movl	%edi, -12(%rbp)
	movslq	-12(%rbp), %rax
	imulq	$24, %rax, %rax
	movabsq	$spec_fd, %rbx
	movq	%rbx, %rcx
	addq	%rax, %rcx
	movq	16(%rcx), %rdi
	movslq	-12(%rbp), %rax
	imulq	$24, %rax, %rax
	movq	%rbx, %rcx
	addq	%rax, %rcx
	movslq	4(%rcx), %rdx
	xorl	%esi, %esi
	callq	memset
	movslq	-12(%rbp), %rax
	imulq	$24, %rax, %rax
	movq	%rbx, %rcx
	addq	%rax, %rcx
	movl	$0, 4(%rcx)
	movslq	-12(%rbp), %rax
	imulq	$24, %rax, %rax
	addq	%rax, %rbx
	movl	$0, 8(%rbx)
	xorl	%eax, %eax
	addq	$8, %rsp
	popq	%rbx
	popq	%rbp
	.cfi_def_cfa %rsp, 8
	retq
.Lfunc_end9:
	.size	spec_reset, .Lfunc_end9-spec_reset
	.cfi_endproc
                                        # -- End function
	.globl	spec_write              # -- Begin function spec_write
	.p2align	4, 0x90
	.type	spec_write,@function
spec_write:                             # @spec_write
	.cfi_startproc
# %bb.0:                                # %rand_bb
	pushq	%rbp
	.cfi_def_cfa_offset 16
	.cfi_offset %rbp, -16
	movq	%rsp, %rbp
	.cfi_def_cfa_register %rbp
	pushq	%r15
	pushq	%r14
	pushq	%rbx
	pushq	%rax
	.cfi_offset %rbx, -40
	.cfi_offset %r14, -32
	.cfi_offset %r15, -24
	movl	%edx, %r14d
	movq	%rsi, %r15
	movl	%edi, %ebx
	callq	get_rand
	cmpl	$0, %eax
	jne	.LBB10_7
# %bb.1:                                # %func_spec_write.6
	movl	%ebx, %edi
	movq	%r15, %rsi
	movl	%r14d, %edx
	callq	spec_write.6
	addq	$8, %rsp
	popq	%rbx
	popq	%r14
	popq	%r15
	popq	%rbp
	.cfi_def_cfa %rsp, 8
	retq
.LBB10_2:                               # %func_spec_write.7
	.cfi_def_cfa %rbp, 16
	movl	%ebx, %edi
	movq	%r15, %rsi
	movl	%r14d, %edx
	callq	spec_write.7
	addq	$8, %rsp
	popq	%rbx
	popq	%r14
	popq	%r15
	popq	%rbp
	.cfi_def_cfa %rsp, 8
	retq
.LBB10_3:                               # %func_spec_write.16
	.cfi_def_cfa %rbp, 16
	movl	%ebx, %edi
	movq	%r15, %rsi
	movl	%r14d, %edx
	callq	spec_write.16
	addq	$8, %rsp
	popq	%rbx
	popq	%r14
	popq	%r15
	popq	%rbp
	.cfi_def_cfa %rsp, 8
	retq
.LBB10_4:                               # %func_spec_write.22
	.cfi_def_cfa %rbp, 16
	movl	%ebx, %edi
	movq	%r15, %rsi
	movl	%r14d, %edx
	callq	spec_write.22
	addq	$8, %rsp
	popq	%rbx
	popq	%r14
	popq	%r15
	popq	%rbp
	.cfi_def_cfa %rsp, 8
	retq
.LBB10_5:                               # %func_spec_write.34
	.cfi_def_cfa %rbp, 16
	movl	%ebx, %edi
	movq	%r15, %rsi
	movl	%r14d, %edx
	callq	spec_write.34
	addq	$8, %rsp
	popq	%rbx
	popq	%r14
	popq	%r15
	popq	%rbp
	.cfi_def_cfa %rsp, 8
	retq
.LBB10_6:                               # %func_spec_write.56
	.cfi_def_cfa %rbp, 16
	movl	%ebx, %edi
	movq	%r15, %rsi
	movl	%r14d, %edx
	callq	spec_write.56
	addq	$8, %rsp
	popq	%rbx
	popq	%r14
	popq	%r15
	popq	%rbp
	.cfi_def_cfa %rsp, 8
	retq
.LBB10_7:                               # %ctrl0
	.cfi_def_cfa %rbp, 16
	cmpl	$1, %eax
	je	.LBB10_2
# %bb.8:                                # %ctrl1
	cmpl	$2, %eax
	je	.LBB10_3
# %bb.9:                                # %ctrl2
	cmpl	$3, %eax
	je	.LBB10_4
# %bb.10:                               # %ctrl3
	cmpl	$4, %eax
	je	.LBB10_5
	jmp	.LBB10_6
.Lfunc_end10:
	.size	spec_write, .Lfunc_end10-spec_write
	.cfi_endproc
                                        # -- End function
	.globl	spec_fwrite             # -- Begin function spec_fwrite
	.p2align	4, 0x90
	.type	spec_fwrite,@function
spec_fwrite:                            # @spec_fwrite
	.cfi_startproc
# %bb.0:                                # %rand_bb
	pushq	%rbp
	.cfi_def_cfa_offset 16
	.cfi_offset %rbp, -16
	movq	%rsp, %rbp
	.cfi_def_cfa_register %rbp
	pushq	%r15
	pushq	%r14
	pushq	%r12
	pushq	%rbx
	.cfi_offset %rbx, -48
	.cfi_offset %r12, -40
	.cfi_offset %r14, -32
	.cfi_offset %r15, -24
	movl	%ecx, %r14d
	movl	%edx, %r15d
	movl	%esi, %r12d
	movq	%rdi, %rbx
	callq	get_rand
	cmpl	$0, %eax
	jne	.LBB11_17
# %bb.1:                                # %func_spec_fwrite.19
	movq	%rbx, %rdi
	movl	%r12d, %esi
	movl	%r15d, %edx
	movl	%r14d, %ecx
	callq	spec_fwrite.19
	popq	%rbx
	popq	%r12
	popq	%r14
	popq	%r15
	popq	%rbp
	.cfi_def_cfa %rsp, 8
	retq
.LBB11_2:                               # %func_spec_fwrite.26
	.cfi_def_cfa %rbp, 16
	movq	%rbx, %rdi
	movl	%r12d, %esi
	movl	%r15d, %edx
	movl	%r14d, %ecx
	callq	spec_fwrite.26
	popq	%rbx
	popq	%r12
	popq	%r14
	popq	%r15
	popq	%rbp
	.cfi_def_cfa %rsp, 8
	retq
.LBB11_3:                               # %func_spec_fwrite.59
	.cfi_def_cfa %rbp, 16
	movq	%rbx, %rdi
	movl	%r12d, %esi
	movl	%r15d, %edx
	movl	%r14d, %ecx
	callq	spec_fwrite.59
	popq	%rbx
	popq	%r12
	popq	%r14
	popq	%r15
	popq	%rbp
	.cfi_def_cfa %rsp, 8
	retq
.LBB11_4:                               # %func_spec_fwrite.60
	.cfi_def_cfa %rbp, 16
	movq	%rbx, %rdi
	movl	%r12d, %esi
	movl	%r15d, %edx
	movl	%r14d, %ecx
	callq	spec_fwrite.60
	popq	%rbx
	popq	%r12
	popq	%r14
	popq	%r15
	popq	%rbp
	.cfi_def_cfa %rsp, 8
	retq
.LBB11_5:                               # %func_spec_fwrite.64
	.cfi_def_cfa %rbp, 16
	movq	%rbx, %rdi
	movl	%r12d, %esi
	movl	%r15d, %edx
	movl	%r14d, %ecx
	callq	spec_fwrite.64
	popq	%rbx
	popq	%r12
	popq	%r14
	popq	%r15
	popq	%rbp
	.cfi_def_cfa %rsp, 8
	retq
.LBB11_6:                               # %func_spec_fwrite.65
	.cfi_def_cfa %rbp, 16
	movq	%rbx, %rdi
	movl	%r12d, %esi
	movl	%r15d, %edx
	movl	%r14d, %ecx
	callq	spec_fwrite.65
	popq	%rbx
	popq	%r12
	popq	%r14
	popq	%r15
	popq	%rbp
	.cfi_def_cfa %rsp, 8
	retq
.LBB11_7:                               # %func_spec_fwrite.66
	.cfi_def_cfa %rbp, 16
	movq	%rbx, %rdi
	movl	%r12d, %esi
	movl	%r15d, %edx
	movl	%r14d, %ecx
	callq	spec_fwrite.66
	popq	%rbx
	popq	%r12
	popq	%r14
	popq	%r15
	popq	%rbp
	.cfi_def_cfa %rsp, 8
	retq
.LBB11_8:                               # %func_spec_fwrite.67
	.cfi_def_cfa %rbp, 16
	movq	%rbx, %rdi
	movl	%r12d, %esi
	movl	%r15d, %edx
	movl	%r14d, %ecx
	callq	spec_fwrite.67
	popq	%rbx
	popq	%r12
	popq	%r14
	popq	%r15
	popq	%rbp
	.cfi_def_cfa %rsp, 8
	retq
.LBB11_9:                               # %func_spec_fwrite.69
	.cfi_def_cfa %rbp, 16
	movq	%rbx, %rdi
	movl	%r12d, %esi
	movl	%r15d, %edx
	movl	%r14d, %ecx
	callq	spec_fwrite.69
	popq	%rbx
	popq	%r12
	popq	%r14
	popq	%r15
	popq	%rbp
	.cfi_def_cfa %rsp, 8
	retq
.LBB11_10:                              # %func_spec_fwrite.73
	.cfi_def_cfa %rbp, 16
	movq	%rbx, %rdi
	movl	%r12d, %esi
	movl	%r15d, %edx
	movl	%r14d, %ecx
	callq	spec_fwrite.73
	popq	%rbx
	popq	%r12
	popq	%r14
	popq	%r15
	popq	%rbp
	.cfi_def_cfa %rsp, 8
	retq
.LBB11_11:                              # %func_spec_fwrite.74
	.cfi_def_cfa %rbp, 16
	movq	%rbx, %rdi
	movl	%r12d, %esi
	movl	%r15d, %edx
	movl	%r14d, %ecx
	callq	spec_fwrite.74
	popq	%rbx
	popq	%r12
	popq	%r14
	popq	%r15
	popq	%rbp
	.cfi_def_cfa %rsp, 8
	retq
.LBB11_12:                              # %func_spec_fwrite.77
	.cfi_def_cfa %rbp, 16
	movq	%rbx, %rdi
	movl	%r12d, %esi
	movl	%r15d, %edx
	movl	%r14d, %ecx
	callq	spec_fwrite.77
	popq	%rbx
	popq	%r12
	popq	%r14
	popq	%r15
	popq	%rbp
	.cfi_def_cfa %rsp, 8
	retq
.LBB11_13:                              # %func_spec_fwrite.81
	.cfi_def_cfa %rbp, 16
	movq	%rbx, %rdi
	movl	%r12d, %esi
	movl	%r15d, %edx
	movl	%r14d, %ecx
	callq	spec_fwrite.81
	popq	%rbx
	popq	%r12
	popq	%r14
	popq	%r15
	popq	%rbp
	.cfi_def_cfa %rsp, 8
	retq
.LBB11_14:                              # %func_spec_fwrite.82
	.cfi_def_cfa %rbp, 16
	movq	%rbx, %rdi
	movl	%r12d, %esi
	movl	%r15d, %edx
	movl	%r14d, %ecx
	callq	spec_fwrite.82
	popq	%rbx
	popq	%r12
	popq	%r14
	popq	%r15
	popq	%rbp
	.cfi_def_cfa %rsp, 8
	retq
.LBB11_15:                              # %func_spec_fwrite.85
	.cfi_def_cfa %rbp, 16
	movq	%rbx, %rdi
	movl	%r12d, %esi
	movl	%r15d, %edx
	movl	%r14d, %ecx
	callq	spec_fwrite.85
	popq	%rbx
	popq	%r12
	popq	%r14
	popq	%r15
	popq	%rbp
	.cfi_def_cfa %rsp, 8
	retq
.LBB11_16:                              # %func_spec_fwrite.86
	.cfi_def_cfa %rbp, 16
	movq	%rbx, %rdi
	movl	%r12d, %esi
	movl	%r15d, %edx
	movl	%r14d, %ecx
	callq	spec_fwrite.86
	popq	%rbx
	popq	%r12
	popq	%r14
	popq	%r15
	popq	%rbp
	.cfi_def_cfa %rsp, 8
	retq
.LBB11_17:                              # %ctrl0
	.cfi_def_cfa %rbp, 16
	cmpl	$1, %eax
	je	.LBB11_2
# %bb.18:                               # %ctrl1
	cmpl	$2, %eax
	je	.LBB11_3
# %bb.19:                               # %ctrl2
	cmpl	$3, %eax
	je	.LBB11_4
# %bb.20:                               # %ctrl3
	cmpl	$4, %eax
	je	.LBB11_5
# %bb.21:                               # %ctrl4
	cmpl	$5, %eax
	je	.LBB11_6
# %bb.22:                               # %ctrl5
	cmpl	$6, %eax
	je	.LBB11_7
# %bb.23:                               # %ctrl6
	cmpl	$7, %eax
	je	.LBB11_8
# %bb.24:                               # %ctrl7
	cmpl	$8, %eax
	je	.LBB11_9
# %bb.25:                               # %ctrl8
	cmpl	$9, %eax
	je	.LBB11_10
# %bb.26:                               # %ctrl9
	cmpl	$10, %eax
	je	.LBB11_11
# %bb.27:                               # %ctrl10
	cmpl	$11, %eax
	je	.LBB11_12
# %bb.28:                               # %ctrl11
	cmpl	$12, %eax
	je	.LBB11_13
# %bb.29:                               # %ctrl12
	cmpl	$13, %eax
	je	.LBB11_14
# %bb.30:                               # %ctrl13
	cmpl	$14, %eax
	je	.LBB11_15
	jmp	.LBB11_16
.Lfunc_end11:
	.size	spec_fwrite, .Lfunc_end11-spec_fwrite
	.cfi_endproc
                                        # -- End function
	.globl	spec_putc               # -- Begin function spec_putc
	.p2align	4, 0x90
	.type	spec_putc,@function
spec_putc:                              # @spec_putc
	.cfi_startproc
# %bb.0:                                # %rand_bb
	pushq	%rbp
	.cfi_def_cfa_offset 16
	.cfi_offset %rbp, -16
	movq	%rsp, %rbp
	.cfi_def_cfa_register %rbp
	pushq	%r14
	pushq	%rbx
	.cfi_offset %rbx, -32
	.cfi_offset %r14, -24
	movl	%esi, %r14d
	movl	%edi, %ebx
	callq	get_rand
	cmpl	$0, %eax
	jne	.LBB12_2
# %bb.1:                                # %func_spec_putc.17
	movzbl	%bl, %edi
	movl	%r14d, %esi
	callq	spec_putc.17
	popq	%rbx
	popq	%r14
	popq	%rbp
	.cfi_def_cfa %rsp, 8
	retq
.LBB12_2:                               # %func_spec_putc.30
	.cfi_def_cfa %rbp, 16
	movzbl	%bl, %edi
	movl	%r14d, %esi
	callq	spec_putc.30
	popq	%rbx
	popq	%r14
	popq	%rbp
	.cfi_def_cfa %rsp, 8
	retq
.Lfunc_end12:
	.size	spec_putc, .Lfunc_end12-spec_putc
	.cfi_endproc
                                        # -- End function
	.section	.rodata.cst8,"aM",@progbits,8
	.p2align	3               # -- Begin function spec_random_load.1
.LCPI13_0:
	.quad	4629700416936869888     # double 32
.LCPI13_1:
	.quad	4643211215818981376     # double 256
	.text
	.globl	spec_random_load.1
	.p2align	4, 0x90
	.type	spec_random_load.1,@function
spec_random_load.1:                     # @spec_random_load.1
	.cfi_startproc
# %bb.0:                                # %entry
	pushq	%rbp
	.cfi_def_cfa_offset 16
	.cfi_offset %rbp, -16
	movq	%rsp, %rbp
	.cfi_def_cfa_register %rbp
	pushq	%rbx
	subq	$4194328, %rsp          # imm = 0x400018
	.cfi_offset %rbx, -24
	movl	$1241670603, -24(%rbp)  # imm = 0x4A0263CB
	movl	%edi, -20(%rbp)
	movl	$4, %eax
	cmpl	dbglvl, %eax
	jge	.LBB13_2
# %bb.1:                                # %if.then
	movabsq	$.L.str.2, %rdi
	movb	$0, %al
	callq	printf
.LBB13_2:                               # %if.end
	movl	$0, -12(%rbp)
.LBB13_3:                               # %for.cond
                                        # =>This Loop Header: Depth=1
                                        #     Child Loop BB13_7 Depth 2
	cmpl	$32, -12(%rbp)
	jge	.LBB13_12
# %bb.4:                                # %for.body
                                        #   in Loop: Header=BB13_3 Depth=1
	movl	$5, %eax
	cmpl	dbglvl, %eax
	jge	.LBB13_6
# %bb.5:                                # %if.then3
                                        #   in Loop: Header=BB13_3 Depth=1
	movl	-12(%rbp), %esi
	movabsq	$.L.str.3, %rdi
	movb	$0, %al
	callq	printf
.LBB13_6:                               # %if.end5
                                        #   in Loop: Header=BB13_3 Depth=1
	movl	$0, -16(%rbp)
.LBB13_7:                               # %for.cond6
                                        #   Parent Loop BB13_3 Depth=1
                                        # =>  This Inner Loop Header: Depth=2
	cmpl	$131072, -16(%rbp)      # imm = 0x20000
	jge	.LBB13_10
# %bb.8:                                # %for.body8
                                        #   in Loop: Header=BB13_7 Depth=2
	callq	ran
	vmovsd	.LCPI13_1(%rip), %xmm1  # xmm1 = mem[0],zero
	vmulsd	%xmm1, %xmm0, %xmm0
	vcvttsd2si	%xmm0, %eax
	movslq	-12(%rbp), %rcx
	shlq	$17, %rcx
	leaq	-4194336(%rbp), %rdx
	addq	%rcx, %rdx
	movslq	-16(%rbp), %rcx
	movb	%al, (%rdx,%rcx)
# %bb.9:                                # %for.inc
                                        #   in Loop: Header=BB13_7 Depth=2
	movl	-16(%rbp), %eax
	addl	$1, %eax
	movl	%eax, -16(%rbp)
	jmp	.LBB13_7
.LBB13_10:                              # %for.end
                                        #   in Loop: Header=BB13_3 Depth=1
	jmp	.LBB13_11
.LBB13_11:                              # %for.inc13
                                        #   in Loop: Header=BB13_3 Depth=1
	movl	-12(%rbp), %eax
	addl	$1, %eax
	movl	%eax, -12(%rbp)
	jmp	.LBB13_3
.LBB13_12:                              # %for.end15
	movl	$4, %eax
	cmpl	dbglvl, %eax
	jge	.LBB13_14
# %bb.13:                               # %if.then18
	movabsq	$.L.str.4, %rdi
	movb	$0, %al
	callq	printf
.LBB13_14:                              # %if.end20
	movl	$0, -12(%rbp)
.LBB13_15:                              # %for.cond21
                                        # =>This Inner Loop Header: Depth=1
	movl	-12(%rbp), %eax
	movslq	-20(%rbp), %rcx
	imulq	$24, %rcx, %rcx
	movabsq	$spec_fd, %rdx
	addq	%rcx, %rdx
	cmpl	(%rdx), %eax
	jge	.LBB13_18
# %bb.16:                               # %for.body26
                                        #   in Loop: Header=BB13_15 Depth=1
	movslq	-20(%rbp), %rax
	imulq	$24, %rax, %rax
	movabsq	$spec_fd, %rcx
	addq	%rax, %rcx
	movq	16(%rcx), %rbx
	movslq	-12(%rbp), %rax
	addq	%rax, %rbx
	callq	ran
	vmovsd	.LCPI13_0(%rip), %xmm1  # xmm1 = mem[0],zero
	vmulsd	%xmm1, %xmm0, %xmm0
	vcvttsd2si	%xmm0, %eax
	cltq
	shlq	$17, %rax
	leaq	-4194336(%rbp), %rsi
	addq	%rax, %rsi
	movq	%rbx, %rdi
	movl	$131072, %edx           # imm = 0x20000
	callq	memcpy
# %bb.17:                               # %for.inc34
                                        #   in Loop: Header=BB13_15 Depth=1
	movl	-12(%rbp), %eax
	addl	$131072, %eax           # imm = 0x20000
	movl	%eax, -12(%rbp)
	jmp	.LBB13_15
.LBB13_18:                              # %for.end35
	movslq	-20(%rbp), %rax
	imulq	$24, %rax, %rax
	movabsq	$spec_fd, %rcx
	addq	%rax, %rcx
	movl	$1048576, 4(%rcx)       # imm = 0x100000
	cmpl	$1241670603, -24(%rbp)  # imm = 0x4A0263CB
	jne	.LBB13_20
.LBB13_19:
	xorl	%eax, %eax
	addq	$4194328, %rsp          # imm = 0x400018
	popq	%rbx
	popq	%rbp
	.cfi_def_cfa %rsp, 8
	retq
.LBB13_20:                              # %func_exit
	.cfi_def_cfa %rbp, 16
	callq	detect_breach
	jmp	.LBB13_19
.Lfunc_end13:
	.size	spec_random_load.1, .Lfunc_end13-spec_random_load.1
	.cfi_endproc
                                        # -- End function
	.globl	spec_read.2             # -- Begin function spec_read.2
	.p2align	4, 0x90
	.type	spec_read.2,@function
spec_read.2:                            # @spec_read.2
	.cfi_startproc
# %bb.0:                                # %entry
	pushq	%rbp
	.cfi_def_cfa_offset 16
	.cfi_offset %rbp, -16
	movq	%rsp, %rbp
	.cfi_def_cfa_register %rbp
	pushq	%rbx
	subq	$40, %rsp
	.cfi_offset %rbx, -24
	movl	$1250957412, -28(%rbp)  # imm = 0x4A901864
	movl	%edi, -12(%rbp)
	movq	%rsi, -40(%rbp)
	movl	%edx, -20(%rbp)
	movl	$0, -16(%rbp)
	movl	$4, %eax
	cmpl	dbglvl, %eax
	jge	.LBB14_2
# %bb.1:                                # %if.then
	movl	-12(%rbp), %esi
	movq	-40(%rbp), %rdx
	movl	-20(%rbp), %ecx
	movabsq	$.L.str.8, %rdi
	movb	$0, %al
	callq	printf
.LBB14_2:                               # %if.end
	cmpl	$3, -12(%rbp)
	jle	.LBB14_4
# %bb.3:                                # %if.then2
	movq	stderr, %rdi
	movl	-12(%rbp), %edx
	movabsq	$.L.str.9, %rsi
	movb	$0, %al
	callq	fprintf
	xorl	%edi, %edi
	callq	exit
.LBB14_4:                               # %if.end4
	movslq	-12(%rbp), %rax
	imulq	$24, %rax, %rax
	movabsq	$spec_fd, %rcx
	movq	%rcx, %rdx
	addq	%rax, %rdx
	movl	8(%rdx), %eax
	movslq	-12(%rbp), %rdx
	imulq	$24, %rdx, %rdx
	addq	%rdx, %rcx
	cmpl	4(%rcx), %eax
	jl	.LBB14_8
# %bb.5:                                # %if.then8
	movl	$4, %eax
	cmpl	dbglvl, %eax
	jge	.LBB14_7
# %bb.6:                                # %if.then10
	movabsq	$.L.str.10, %rdi
	movb	$0, %al
	callq	printf
.LBB14_7:                               # %if.end12
	movl	$-1, -24(%rbp)
	jmp	.LBB14_14
.LBB14_8:                               # %if.end13
	movslq	-12(%rbp), %rax
	imulq	$24, %rax, %rax
	movabsq	$spec_fd, %rcx
	movq	%rcx, %rdx
	addq	%rax, %rdx
	movl	8(%rdx), %eax
	addl	-20(%rbp), %eax
	movslq	-12(%rbp), %rdx
	imulq	$24, %rdx, %rdx
	addq	%rdx, %rcx
	cmpl	4(%rcx), %eax
	jl	.LBB14_10
# %bb.9:                                # %if.then21
	movslq	-12(%rbp), %rax
	imulq	$24, %rax, %rax
	movabsq	$spec_fd, %rcx
	movq	%rcx, %rdx
	addq	%rax, %rdx
	movl	4(%rdx), %eax
	movslq	-12(%rbp), %rdx
	imulq	$24, %rdx, %rdx
	addq	%rdx, %rcx
	subl	8(%rcx), %eax
	movl	%eax, -16(%rbp)
	jmp	.LBB14_11
.LBB14_10:                              # %if.else
	movl	-20(%rbp), %eax
	movl	%eax, -16(%rbp)
.LBB14_11:                              # %if.end28
	movq	-40(%rbp), %rdi
	movslq	-12(%rbp), %rax
	imulq	$24, %rax, %rax
	movabsq	$spec_fd, %rbx
	movq	%rbx, %rcx
	addq	%rax, %rcx
	movq	16(%rcx), %rsi
	movslq	-12(%rbp), %rax
	imulq	$24, %rax, %rax
	movq	%rbx, %rcx
	addq	%rax, %rcx
	movslq	8(%rcx), %rax
	addq	%rax, %rsi
	movslq	-16(%rbp), %rdx
	callq	memcpy
	movl	-16(%rbp), %eax
	movslq	-12(%rbp), %rcx
	imulq	$24, %rcx, %rcx
	addq	%rcx, %rbx
	addl	8(%rbx), %eax
	movl	%eax, 8(%rbx)
	movl	$4, %eax
	cmpl	dbglvl, %eax
	jge	.LBB14_13
# %bb.12:                               # %if.then43
	movl	-16(%rbp), %esi
	movabsq	$.L.str.11, %rdi
	movb	$0, %al
	callq	printf
.LBB14_13:                              # %if.end45
	movl	-16(%rbp), %eax
	movl	%eax, -24(%rbp)
.LBB14_14:                              # %return
	movl	-24(%rbp), %ebx
	cmpl	$1250957412, -28(%rbp)  # imm = 0x4A901864
	jne	.LBB14_16
.LBB14_15:
	movl	%ebx, %eax
	addq	$40, %rsp
	popq	%rbx
	popq	%rbp
	.cfi_def_cfa %rsp, 8
	retq
.LBB14_16:                              # %func_exit
	.cfi_def_cfa %rbp, 16
	callq	detect_breach
	jmp	.LBB14_15
.Lfunc_end14:
	.size	spec_read.2, .Lfunc_end14-spec_read.2
	.cfi_endproc
                                        # -- End function
	.globl	spec_fread.3            # -- Begin function spec_fread.3
	.p2align	4, 0x90
	.type	spec_fread.3,@function
spec_fread.3:                           # @spec_fread.3
	.cfi_startproc
# %bb.0:                                # %entry
	pushq	%rbp
	.cfi_def_cfa_offset 16
	.cfi_offset %rbp, -16
	movq	%rsp, %rbp
	.cfi_def_cfa_register %rbp
	pushq	%rbx
	subq	$40, %rsp
	.cfi_offset %rbx, -24
	movl	$45490375, -32(%rbp)    # imm = 0x2B620C7
	movq	%rdi, -40(%rbp)
	movl	%esi, -20(%rbp)
	movl	%edx, -24(%rbp)
	movl	%ecx, -12(%rbp)
	movl	$0, -16(%rbp)
	movl	$4, %eax
	cmpl	dbglvl, %eax
	jge	.LBB15_2
# %bb.1:                                # %if.then
	movq	-40(%rbp), %rsi
	movl	-20(%rbp), %edx
	movl	-24(%rbp), %ecx
	movl	-12(%rbp), %r8d
	movabsq	$.L.str.12, %rdi
	movb	$0, %al
	callq	printf
.LBB15_2:                               # %if.end
	cmpl	$3, -12(%rbp)
	jle	.LBB15_4
# %bb.3:                                # %if.then2
	movq	stderr, %rdi
	movl	-12(%rbp), %edx
	movabsq	$.L.str.13, %rsi
	movb	$0, %al
	callq	fprintf
	xorl	%edi, %edi
	callq	exit
.LBB15_4:                               # %if.end4
	movslq	-12(%rbp), %rax
	imulq	$24, %rax, %rax
	movabsq	$spec_fd, %rcx
	movq	%rcx, %rdx
	addq	%rax, %rdx
	movl	8(%rdx), %eax
	movslq	-12(%rbp), %rdx
	imulq	$24, %rdx, %rdx
	addq	%rdx, %rcx
	cmpl	4(%rcx), %eax
	jl	.LBB15_8
# %bb.5:                                # %if.then8
	movl	$4, %eax
	cmpl	dbglvl, %eax
	jge	.LBB15_7
# %bb.6:                                # %if.then10
	movabsq	$.L.str.10, %rdi
	movb	$0, %al
	callq	printf
.LBB15_7:                               # %if.end12
	movl	$-1, -28(%rbp)
	jmp	.LBB15_14
.LBB15_8:                               # %if.end13
	movslq	-12(%rbp), %rax
	imulq	$24, %rax, %rax
	movabsq	$spec_fd, %rcx
	movq	%rcx, %rdx
	addq	%rax, %rdx
	movl	8(%rdx), %eax
	movl	-20(%rbp), %edx
	imull	-24(%rbp), %edx
	addl	%edx, %eax
	movslq	-12(%rbp), %rdx
	imulq	$24, %rdx, %rdx
	addq	%rdx, %rcx
	cmpl	4(%rcx), %eax
	jl	.LBB15_10
# %bb.9:                                # %if.then21
	movslq	-12(%rbp), %rax
	imulq	$24, %rax, %rax
	movabsq	$spec_fd, %rcx
	movq	%rcx, %rdx
	addq	%rax, %rdx
	movl	4(%rdx), %eax
	movslq	-12(%rbp), %rdx
	imulq	$24, %rdx, %rdx
	addq	%rdx, %rcx
	subl	8(%rcx), %eax
	cltd
	idivl	-20(%rbp)
	movl	%eax, -16(%rbp)
	jmp	.LBB15_11
.LBB15_10:                              # %if.else
	movl	-24(%rbp), %eax
	movl	%eax, -16(%rbp)
.LBB15_11:                              # %if.end28
	movq	-40(%rbp), %rdi
	movslq	-12(%rbp), %rax
	imulq	$24, %rax, %rax
	movabsq	$spec_fd, %rbx
	movq	%rbx, %rcx
	addq	%rax, %rcx
	movq	16(%rcx), %rsi
	movslq	-12(%rbp), %rax
	imulq	$24, %rax, %rax
	movq	%rbx, %rcx
	addq	%rax, %rcx
	movslq	8(%rcx), %rax
	addq	%rax, %rsi
	movslq	-16(%rbp), %rdx
	callq	memcpy
	movl	-16(%rbp), %eax
	imull	-20(%rbp), %eax
	movslq	-12(%rbp), %rcx
	imulq	$24, %rcx, %rcx
	addq	%rcx, %rbx
	addl	8(%rbx), %eax
	movl	%eax, 8(%rbx)
	movl	$4, %eax
	cmpl	dbglvl, %eax
	jge	.LBB15_13
# %bb.12:                               # %if.then44
	movl	-16(%rbp), %esi
	imull	-20(%rbp), %esi
	movabsq	$.L.str.11, %rdi
	movb	$0, %al
	callq	printf
.LBB15_13:                              # %if.end47
	movl	-16(%rbp), %eax
	movl	%eax, -28(%rbp)
.LBB15_14:                              # %return
	movl	-28(%rbp), %ebx
	cmpl	$45490375, -32(%rbp)    # imm = 0x2B620C7
	jne	.LBB15_16
.LBB15_15:
	movl	%ebx, %eax
	addq	$40, %rsp
	popq	%rbx
	popq	%rbp
	.cfi_def_cfa %rsp, 8
	retq
.LBB15_16:                              # %func_exit
	.cfi_def_cfa %rbp, 16
	callq	detect_breach
	jmp	.LBB15_15
.Lfunc_end15:
	.size	spec_fread.3, .Lfunc_end15-spec_fread.3
	.cfi_endproc
                                        # -- End function
	.globl	spec_getc.4             # -- Begin function spec_getc.4
	.p2align	4, 0x90
	.type	spec_getc.4,@function
spec_getc.4:                            # @spec_getc.4
	.cfi_startproc
# %bb.0:                                # %entry
	pushq	%rbp
	.cfi_def_cfa_offset 16
	.cfi_offset %rbp, -16
	movq	%rsp, %rbp
	.cfi_def_cfa_register %rbp
	pushq	%rbx
	subq	$24, %rsp
	.cfi_offset %rbx, -24
	movl	$1171474181, -24(%rbp)  # imm = 0x45D34705
	movl	%edi, -12(%rbp)
	movl	$0, -16(%rbp)
	movl	$4, %eax
	cmpl	dbglvl, %eax
	jge	.LBB16_2
# %bb.1:                                # %if.then
	movl	-12(%rbp), %esi
	movabsq	$.L.str.14, %rdi
	movb	$0, %al
	callq	printf
.LBB16_2:                               # %if.end
	cmpl	$3, -12(%rbp)
	jle	.LBB16_4
# %bb.3:                                # %if.then2
	movq	stderr, %rdi
	movl	-12(%rbp), %edx
	movabsq	$.L.str.9, %rsi
	movb	$0, %al
	callq	fprintf
	xorl	%edi, %edi
	callq	exit
.LBB16_4:                               # %if.end4
	movslq	-12(%rbp), %rax
	imulq	$24, %rax, %rax
	movabsq	$spec_fd, %rcx
	movq	%rcx, %rdx
	addq	%rax, %rdx
	movl	8(%rdx), %eax
	movslq	-12(%rbp), %rdx
	imulq	$24, %rdx, %rdx
	addq	%rdx, %rcx
	cmpl	4(%rcx), %eax
	jl	.LBB16_8
# %bb.5:                                # %if.then8
	movl	$4, %eax
	cmpl	dbglvl, %eax
	jge	.LBB16_7
# %bb.6:                                # %if.then10
	movabsq	$.L.str.10, %rdi
	movb	$0, %al
	callq	printf
.LBB16_7:                               # %if.end12
	movl	$-1, -20(%rbp)
	jmp	.LBB16_11
.LBB16_8:                               # %if.end13
	movslq	-12(%rbp), %rax
	imulq	$24, %rax, %rax
	movabsq	$spec_fd, %rcx
	movq	%rcx, %rdx
	addq	%rax, %rdx
	movq	16(%rdx), %rax
	movslq	-12(%rbp), %rdx
	imulq	$24, %rdx, %rdx
	addq	%rdx, %rcx
	movl	8(%rcx), %edx
	movl	%edx, %esi
	addl	$1, %esi
	movl	%esi, 8(%rcx)
	movslq	%edx, %rcx
	movzbl	(%rax,%rcx), %eax
	movl	%eax, -16(%rbp)
	movl	$4, %eax
	cmpl	dbglvl, %eax
	jge	.LBB16_10
# %bb.9:                                # %if.then23
	movl	-16(%rbp), %esi
	movabsq	$.L.str.11, %rdi
	movb	$0, %al
	callq	printf
.LBB16_10:                              # %if.end25
	movl	-16(%rbp), %eax
	movl	%eax, -20(%rbp)
.LBB16_11:                              # %return
	movl	-20(%rbp), %ebx
	cmpl	$1171474181, -24(%rbp)  # imm = 0x45D34705
	jne	.LBB16_13
.LBB16_12:
	movl	%ebx, %eax
	addq	$24, %rsp
	popq	%rbx
	popq	%rbp
	.cfi_def_cfa %rsp, 8
	retq
.LBB16_13:                              # %func_exit
	.cfi_def_cfa %rbp, 16
	callq	detect_breach
	jmp	.LBB16_12
.Lfunc_end16:
	.size	spec_getc.4, .Lfunc_end16-spec_getc.4
	.cfi_endproc
                                        # -- End function
	.globl	spec_load.5             # -- Begin function spec_load.5
	.p2align	4, 0x90
	.type	spec_load.5,@function
spec_load.5:                            # @spec_load.5
	.cfi_startproc
# %bb.0:                                # %entry
	pushq	%rbp
	.cfi_def_cfa_offset 16
	.cfi_offset %rbp, -16
	movq	%rsp, %rbp
	.cfi_def_cfa_register %rbp
	pushq	%r14
	pushq	%rbx
	subq	$48, %rsp
	.cfi_offset %rbx, -32
	.cfi_offset %r14, -24
	movl	$1479292518, -52(%rbp)  # imm = 0x582C3666
	movl	%edi, -20(%rbp)
	movq	%rsi, -48(%rbp)
	movl	%edx, -36(%rbp)
	movq	-48(%rbp), %rdi
	xorl	%esi, %esi
	movb	$0, %al
	callq	open
	movl	%eax, -40(%rbp)
	cmpl	$0, -40(%rbp)
	jge	.LBB17_2
# %bb.1:                                # %if.then
	movq	stderr, %rbx
	movq	-48(%rbp), %r14
	callq	__errno_location
	movl	(%rax), %edi
	callq	strerror
	movq	%rbx, %rdi
	movabsq	$.L.str.5, %rsi
	movq	%r14, %rdx
	movq	%rax, %rcx
	movb	$0, %al
	callq	fprintf
	xorl	%edi, %edi
	callq	exit
.LBB17_2:                               # %if.end
	movslq	-20(%rbp), %rax
	imulq	$24, %rax, %rax
	movabsq	$spec_fd, %rcx
	movq	%rcx, %rdx
	addq	%rax, %rdx
	movl	$0, 4(%rdx)
	movslq	-20(%rbp), %rax
	imulq	$24, %rax, %rax
	addq	%rax, %rcx
	movl	$0, 8(%rcx)
	movl	$0, -28(%rbp)
.LBB17_3:                               # %for.cond
                                        # =>This Inner Loop Header: Depth=1
	movl	-28(%rbp), %eax
	cmpl	-36(%rbp), %eax
	jge	.LBB17_10
# %bb.4:                                # %for.body
                                        #   in Loop: Header=BB17_3 Depth=1
	movl	-40(%rbp), %edi
	movslq	-20(%rbp), %rax
	imulq	$24, %rax, %rax
	movabsq	$spec_fd, %rcx
	addq	%rax, %rcx
	movq	16(%rcx), %rsi
	movslq	-28(%rbp), %rax
	addq	%rax, %rsi
	movl	$131072, %edx           # imm = 0x20000
	callq	read
	movl	%eax, -32(%rbp)
	cmpl	$0, -32(%rbp)
	jne	.LBB17_6
# %bb.5:                                # %if.then12
	jmp	.LBB17_11
.LBB17_6:                               # %if.end13
                                        #   in Loop: Header=BB17_3 Depth=1
	cmpl	$0, -32(%rbp)
	jge	.LBB17_8
# %bb.7:                                # %if.then16
	movq	stderr, %rbx
	movq	-48(%rbp), %r14
	callq	__errno_location
	movl	(%rax), %edi
	callq	strerror
	movq	%rbx, %rdi
	movabsq	$.L.str.6, %rsi
	movq	%r14, %rdx
	movq	%rax, %rcx
	movb	$0, %al
	callq	fprintf
	xorl	%edi, %edi
	callq	exit
.LBB17_8:                               # %if.end20
                                        #   in Loop: Header=BB17_3 Depth=1
	movl	-32(%rbp), %eax
	movslq	-20(%rbp), %rcx
	imulq	$24, %rcx, %rcx
	movabsq	$spec_fd, %rdx
	addq	%rcx, %rdx
	addl	4(%rdx), %eax
	movl	%eax, 4(%rdx)
# %bb.9:                                # %for.inc
                                        #   in Loop: Header=BB17_3 Depth=1
	movl	-32(%rbp), %eax
	addl	-28(%rbp), %eax
	movl	%eax, -28(%rbp)
	jmp	.LBB17_3
.LBB17_10:                              # %for.end.loopexit
	jmp	.LBB17_11
.LBB17_11:                              # %for.end
	movl	-40(%rbp), %edi
	callq	close
.LBB17_12:                              # %while.cond
                                        # =>This Inner Loop Header: Depth=1
	movslq	-20(%rbp), %rax
	imulq	$24, %rax, %rax
	movabsq	$spec_fd, %rcx
	addq	%rax, %rcx
	movl	4(%rcx), %eax
	cmpl	-36(%rbp), %eax
	jge	.LBB17_18
# %bb.13:                               # %while.body
                                        #   in Loop: Header=BB17_12 Depth=1
	movl	-36(%rbp), %eax
	movslq	-20(%rbp), %rcx
	imulq	$24, %rcx, %rcx
	movabsq	$spec_fd, %rdx
	movq	%rdx, %rsi
	addq	%rcx, %rsi
	subl	4(%rsi), %eax
	movl	%eax, -24(%rbp)
	movl	-24(%rbp), %eax
	movslq	-20(%rbp), %rcx
	imulq	$24, %rcx, %rcx
	addq	%rcx, %rdx
	cmpl	4(%rdx), %eax
	jle	.LBB17_15
# %bb.14:                               # %if.then39
                                        #   in Loop: Header=BB17_12 Depth=1
	movslq	-20(%rbp), %rax
	imulq	$24, %rax, %rax
	movabsq	$spec_fd, %rcx
	addq	%rax, %rcx
	movl	4(%rcx), %eax
	movl	%eax, -24(%rbp)
.LBB17_15:                              # %if.end43
                                        #   in Loop: Header=BB17_12 Depth=1
	movl	$3, %eax
	cmpl	dbglvl, %eax
	jge	.LBB17_17
# %bb.16:                               # %if.then46
                                        #   in Loop: Header=BB17_12 Depth=1
	movl	-24(%rbp), %esi
	movabsq	$.L.str.7, %rdi
	movb	$0, %al
	callq	printf
.LBB17_17:                              # %if.end48
                                        #   in Loop: Header=BB17_12 Depth=1
	movslq	-20(%rbp), %rax
	imulq	$24, %rax, %rax
	movabsq	$spec_fd, %rbx
	movq	%rbx, %rcx
	addq	%rax, %rcx
	movq	16(%rcx), %rdi
	movslq	-20(%rbp), %rax
	imulq	$24, %rax, %rax
	movq	%rbx, %rcx
	addq	%rax, %rcx
	movslq	4(%rcx), %rax
	addq	%rax, %rdi
	movslq	-20(%rbp), %rax
	imulq	$24, %rax, %rax
	movq	%rbx, %rcx
	addq	%rax, %rcx
	movq	16(%rcx), %rsi
	movslq	-24(%rbp), %rdx
	callq	memcpy
	movl	-24(%rbp), %eax
	movslq	-20(%rbp), %rcx
	imulq	$24, %rcx, %rcx
	addq	%rcx, %rbx
	addl	4(%rbx), %eax
	movl	%eax, 4(%rbx)
	jmp	.LBB17_12
.LBB17_18:                              # %while.end
	cmpl	$1479292518, -52(%rbp)  # imm = 0x582C3666
	jne	.LBB17_20
.LBB17_19:
	xorl	%eax, %eax
	addq	$48, %rsp
	popq	%rbx
	popq	%r14
	popq	%rbp
	.cfi_def_cfa %rsp, 8
	retq
.LBB17_20:                              # %func_exit
	.cfi_def_cfa %rbp, 16
	callq	detect_breach
	jmp	.LBB17_19
.Lfunc_end17:
	.size	spec_load.5, .Lfunc_end17-spec_load.5
	.cfi_endproc
                                        # -- End function
	.globl	spec_write.6            # -- Begin function spec_write.6
	.p2align	4, 0x90
	.type	spec_write.6,@function
spec_write.6:                           # @spec_write.6
	.cfi_startproc
# %bb.0:                                # %entry
	pushq	%rbp
	.cfi_def_cfa_offset 16
	.cfi_offset %rbp, -16
	movq	%rsp, %rbp
	.cfi_def_cfa_register %rbp
	pushq	%rbx
	subq	$24, %rsp
	.cfi_offset %rbx, -24
	movl	$222546052, -20(%rbp)   # imm = 0xD43C884
	movl	%edi, -12(%rbp)
	movq	%rsi, -32(%rbp)
	movl	%edx, -16(%rbp)
	movl	$4, %eax
	cmpl	dbglvl, %eax
	jge	.LBB18_2
# %bb.1:                                # %if.then
	movl	-12(%rbp), %esi
	movq	-32(%rbp), %rdx
	movl	-16(%rbp), %ecx
	movabsq	$.L.str.18, %rdi
	movb	$0, %al
	callq	printf
.LBB18_2:                               # %if.end
	cmpl	$3, -12(%rbp)
	jle	.LBB18_4
# %bb.3:                                # %if.then2
	movq	stderr, %rdi
	movl	-12(%rbp), %edx
	movabsq	$.L.str.19, %rsi
	movb	$0, %al
	callq	fprintf
	xorl	%edi, %edi
	callq	exit
.LBB18_4:                               # %if.end4
	movslq	-12(%rbp), %rax
	imulq	$24, %rax, %rax
	movabsq	$spec_fd, %rbx
	movq	%rbx, %rcx
	addq	%rax, %rcx
	movq	16(%rcx), %rdi
	movslq	-12(%rbp), %rax
	imulq	$24, %rax, %rax
	movq	%rbx, %rcx
	addq	%rax, %rcx
	movslq	8(%rcx), %rax
	addq	%rax, %rdi
	movq	-32(%rbp), %rsi
	movslq	-16(%rbp), %rdx
	callq	memcpy
	movl	-16(%rbp), %eax
	movslq	-12(%rbp), %rcx
	imulq	$24, %rcx, %rcx
	movq	%rbx, %rdx
	addq	%rcx, %rdx
	addl	4(%rdx), %eax
	movl	%eax, 4(%rdx)
	movl	-16(%rbp), %eax
	movslq	-12(%rbp), %rcx
	imulq	$24, %rcx, %rcx
	addq	%rcx, %rbx
	addl	8(%rbx), %eax
	movl	%eax, 8(%rbx)
	movl	$4, %eax
	cmpl	dbglvl, %eax
	jge	.LBB18_6
# %bb.5:                                # %if.then18
	movl	-16(%rbp), %esi
	movabsq	$.L.str.11, %rdi
	movb	$0, %al
	callq	printf
.LBB18_6:                               # %if.end20
	movl	-16(%rbp), %ebx
	cmpl	$222546052, -20(%rbp)   # imm = 0xD43C884
	jne	.LBB18_8
.LBB18_7:
	movl	%ebx, %eax
	addq	$24, %rsp
	popq	%rbx
	popq	%rbp
	.cfi_def_cfa %rsp, 8
	retq
.LBB18_8:                               # %func_exit
	.cfi_def_cfa %rbp, 16
	callq	detect_breach
	jmp	.LBB18_7
.Lfunc_end18:
	.size	spec_write.6, .Lfunc_end18-spec_write.6
	.cfi_endproc
                                        # -- End function
	.globl	spec_write.7            # -- Begin function spec_write.7
	.p2align	4, 0x90
	.type	spec_write.7,@function
spec_write.7:                           # @spec_write.7
	.cfi_startproc
# %bb.0:                                # %entry
	pushq	%rbp
	.cfi_def_cfa_offset 16
	.cfi_offset %rbp, -16
	movq	%rsp, %rbp
	.cfi_def_cfa_register %rbp
	pushq	%rbx
	subq	$24, %rsp
	.cfi_offset %rbx, -24
	movl	$940648425, -20(%rbp)   # imm = 0x381127E9
	movl	%edi, -12(%rbp)
	movq	%rsi, -32(%rbp)
	movl	%edx, -16(%rbp)
	movl	$4, %eax
	cmpl	dbglvl, %eax
	jge	.LBB19_2
# %bb.1:                                # %if.then
	movl	-12(%rbp), %esi
	movq	-32(%rbp), %rdx
	movl	-16(%rbp), %ecx
	movabsq	$.L.str.18, %rdi
	movb	$0, %al
	callq	printf
.LBB19_2:                               # %if.end
	cmpl	$3, -12(%rbp)
	jle	.LBB19_4
# %bb.3:                                # %if.then2
	movq	stderr, %rdi
	movl	-12(%rbp), %edx
	movabsq	$.L.str.19, %rsi
	movb	$0, %al
	callq	fprintf
	xorl	%edi, %edi
	callq	exit
.LBB19_4:                               # %if.end4
	movslq	-12(%rbp), %rax
	imulq	$24, %rax, %rax
	movabsq	$spec_fd, %rbx
	movq	%rbx, %rcx
	addq	%rax, %rcx
	movq	16(%rcx), %rdi
	movslq	-12(%rbp), %rax
	imulq	$24, %rax, %rax
	movq	%rbx, %rcx
	addq	%rax, %rcx
	movslq	8(%rcx), %rax
	addq	%rax, %rdi
	movq	-32(%rbp), %rsi
	movslq	-16(%rbp), %rdx
	callq	memcpy
	movl	-16(%rbp), %eax
	movslq	-12(%rbp), %rcx
	imulq	$24, %rcx, %rcx
	movq	%rbx, %rdx
	addq	%rcx, %rdx
	addl	4(%rdx), %eax
	movl	%eax, 4(%rdx)
	movl	-16(%rbp), %eax
	movslq	-12(%rbp), %rcx
	imulq	$24, %rcx, %rcx
	addq	%rcx, %rbx
	addl	8(%rbx), %eax
	movl	%eax, 8(%rbx)
	movl	$4, %eax
	cmpl	dbglvl, %eax
	jge	.LBB19_6
# %bb.5:                                # %if.then18
	movl	-16(%rbp), %esi
	movabsq	$.L.str.11, %rdi
	movb	$0, %al
	callq	printf
.LBB19_6:                               # %if.end20
	movl	-16(%rbp), %ebx
	cmpl	$940648425, -20(%rbp)   # imm = 0x381127E9
	jne	.LBB19_8
.LBB19_7:
	movl	%ebx, %eax
	addq	$24, %rsp
	popq	%rbx
	popq	%rbp
	.cfi_def_cfa %rsp, 8
	retq
.LBB19_8:                               # %func_exit
	.cfi_def_cfa %rbp, 16
	callq	detect_breach
	jmp	.LBB19_7
.Lfunc_end19:
	.size	spec_write.7, .Lfunc_end19-spec_write.7
	.cfi_endproc
                                        # -- End function
	.globl	spec_fread.8            # -- Begin function spec_fread.8
	.p2align	4, 0x90
	.type	spec_fread.8,@function
spec_fread.8:                           # @spec_fread.8
	.cfi_startproc
# %bb.0:                                # %entry
	pushq	%rbp
	.cfi_def_cfa_offset 16
	.cfi_offset %rbp, -16
	movq	%rsp, %rbp
	.cfi_def_cfa_register %rbp
	pushq	%rbx
	subq	$40, %rsp
	.cfi_offset %rbx, -24
	movl	$68459152, -32(%rbp)    # imm = 0x4149A90
	movq	%rdi, -40(%rbp)
	movl	%esi, -20(%rbp)
	movl	%edx, -24(%rbp)
	movl	%ecx, -12(%rbp)
	movl	$0, -16(%rbp)
	movl	$4, %eax
	cmpl	dbglvl, %eax
	jge	.LBB20_2
# %bb.1:                                # %if.then
	movq	-40(%rbp), %rsi
	movl	-20(%rbp), %edx
	movl	-24(%rbp), %ecx
	movl	-12(%rbp), %r8d
	movabsq	$.L.str.12, %rdi
	movb	$0, %al
	callq	printf
.LBB20_2:                               # %if.end
	cmpl	$3, -12(%rbp)
	jle	.LBB20_4
# %bb.3:                                # %if.then2
	movq	stderr, %rdi
	movl	-12(%rbp), %edx
	movabsq	$.L.str.13, %rsi
	movb	$0, %al
	callq	fprintf
	xorl	%edi, %edi
	callq	exit
.LBB20_4:                               # %if.end4
	movslq	-12(%rbp), %rax
	imulq	$24, %rax, %rax
	movabsq	$spec_fd, %rcx
	movq	%rcx, %rdx
	addq	%rax, %rdx
	movl	8(%rdx), %eax
	movslq	-12(%rbp), %rdx
	imulq	$24, %rdx, %rdx
	addq	%rdx, %rcx
	cmpl	4(%rcx), %eax
	jl	.LBB20_8
# %bb.5:                                # %if.then8
	movl	$4, %eax
	cmpl	dbglvl, %eax
	jge	.LBB20_7
# %bb.6:                                # %if.then10
	movabsq	$.L.str.10, %rdi
	movb	$0, %al
	callq	printf
.LBB20_7:                               # %if.end12
	movl	$-1, -28(%rbp)
	jmp	.LBB20_14
.LBB20_8:                               # %if.end13
	movslq	-12(%rbp), %rax
	imulq	$24, %rax, %rax
	movabsq	$spec_fd, %rcx
	movq	%rcx, %rdx
	addq	%rax, %rdx
	movl	8(%rdx), %eax
	movl	-20(%rbp), %edx
	imull	-24(%rbp), %edx
	addl	%edx, %eax
	movslq	-12(%rbp), %rdx
	imulq	$24, %rdx, %rdx
	addq	%rdx, %rcx
	cmpl	4(%rcx), %eax
	jl	.LBB20_10
# %bb.9:                                # %if.then21
	movslq	-12(%rbp), %rax
	imulq	$24, %rax, %rax
	movabsq	$spec_fd, %rcx
	movq	%rcx, %rdx
	addq	%rax, %rdx
	movl	4(%rdx), %eax
	movslq	-12(%rbp), %rdx
	imulq	$24, %rdx, %rdx
	addq	%rdx, %rcx
	subl	8(%rcx), %eax
	cltd
	idivl	-20(%rbp)
	movl	%eax, -16(%rbp)
	jmp	.LBB20_11
.LBB20_10:                              # %if.else
	movl	-24(%rbp), %eax
	movl	%eax, -16(%rbp)
.LBB20_11:                              # %if.end28
	movq	-40(%rbp), %rdi
	movslq	-12(%rbp), %rax
	imulq	$24, %rax, %rax
	movabsq	$spec_fd, %rbx
	movq	%rbx, %rcx
	addq	%rax, %rcx
	movq	16(%rcx), %rsi
	movslq	-12(%rbp), %rax
	imulq	$24, %rax, %rax
	movq	%rbx, %rcx
	addq	%rax, %rcx
	movslq	8(%rcx), %rax
	addq	%rax, %rsi
	movslq	-16(%rbp), %rdx
	callq	memcpy
	movl	-16(%rbp), %eax
	imull	-20(%rbp), %eax
	movslq	-12(%rbp), %rcx
	imulq	$24, %rcx, %rcx
	addq	%rcx, %rbx
	addl	8(%rbx), %eax
	movl	%eax, 8(%rbx)
	movl	$4, %eax
	cmpl	dbglvl, %eax
	jge	.LBB20_13
# %bb.12:                               # %if.then44
	movl	-16(%rbp), %esi
	imull	-20(%rbp), %esi
	movabsq	$.L.str.11, %rdi
	movb	$0, %al
	callq	printf
.LBB20_13:                              # %if.end47
	movl	-16(%rbp), %eax
	movl	%eax, -28(%rbp)
.LBB20_14:                              # %return
	movl	-28(%rbp), %ebx
	cmpl	$68459152, -32(%rbp)    # imm = 0x4149A90
	jne	.LBB20_16
.LBB20_15:
	movl	%ebx, %eax
	addq	$40, %rsp
	popq	%rbx
	popq	%rbp
	.cfi_def_cfa %rsp, 8
	retq
.LBB20_16:                              # %func_exit
	.cfi_def_cfa %rbp, 16
	callq	detect_breach
	jmp	.LBB20_15
.Lfunc_end20:
	.size	spec_fread.8, .Lfunc_end20-spec_fread.8
	.cfi_endproc
                                        # -- End function
	.globl	spec_ungetc.9           # -- Begin function spec_ungetc.9
	.p2align	4, 0x90
	.type	spec_ungetc.9,@function
spec_ungetc.9:                          # @spec_ungetc.9
	.cfi_startproc
# %bb.0:                                # %entry
	pushq	%rbp
	.cfi_def_cfa_offset 16
	.cfi_offset %rbp, -16
	movq	%rsp, %rbp
	.cfi_def_cfa_register %rbp
	pushq	%rbx
	subq	$24, %rsp
	.cfi_offset %rbx, -24
	movl	$888860284, -24(%rbp)   # imm = 0x34FAEE7C
	movb	%dil, -9(%rbp)
	movl	%esi, -16(%rbp)
	movl	$0, -20(%rbp)
	movl	$4, %eax
	cmpl	dbglvl, %eax
	jge	.LBB21_2
# %bb.1:                                # %if.then
	movl	-16(%rbp), %esi
	movabsq	$.L.str.15, %rdi
	movb	$0, %al
	callq	printf
.LBB21_2:                               # %if.end
	cmpl	$3, -16(%rbp)
	jle	.LBB21_4
# %bb.3:                                # %if.then2
	movq	stderr, %rdi
	movl	-16(%rbp), %edx
	movabsq	$.L.str.9, %rsi
	movb	$0, %al
	callq	fprintf
	xorl	%edi, %edi
	callq	exit
.LBB21_4:                               # %if.end4
	movslq	-16(%rbp), %rax
	imulq	$24, %rax, %rax
	movabsq	$spec_fd, %rcx
	addq	%rax, %rcx
	cmpl	$0, 8(%rcx)
	jg	.LBB21_6
# %bb.5:                                # %if.then6
	movq	stderr, %rdi
	movslq	-16(%rbp), %rax
	imulq	$24, %rax, %rax
	movabsq	$spec_fd, %rcx
	addq	%rax, %rcx
	movl	8(%rcx), %edx
	movabsq	$.L.str.16, %rsi
	movb	$0, %al
	callq	fprintf
	xorl	%edi, %edi
	callq	exit
.LBB21_6:                               # %if.end11
	movslq	-16(%rbp), %rax
	imulq	$24, %rax, %rax
	movabsq	$spec_fd, %rcx
	movq	%rcx, %rdx
	addq	%rax, %rdx
	movq	16(%rdx), %rax
	movslq	-16(%rbp), %rdx
	imulq	$24, %rdx, %rdx
	addq	%rdx, %rcx
	movl	8(%rcx), %edx
	addl	$-1, %edx
	movl	%edx, 8(%rcx)
	movslq	%edx, %rcx
	movzbl	(%rax,%rcx), %eax
	movzbl	-9(%rbp), %ecx
	cmpl	%ecx, %eax
	je	.LBB21_8
# %bb.7:                                # %if.then22
	movq	stderr, %rdi
	movabsq	$.L.str.17, %rsi
	movb	$0, %al
	callq	fprintf
	xorl	%edi, %edi
	callq	exit
.LBB21_8:                               # %if.end24
	movl	$4, %eax
	cmpl	dbglvl, %eax
	jge	.LBB21_10
# %bb.9:                                # %if.then27
	movl	-20(%rbp), %esi
	movabsq	$.L.str.11, %rdi
	movb	$0, %al
	callq	printf
.LBB21_10:                              # %if.end29
	movzbl	-9(%rbp), %ebx
	cmpl	$888860284, -24(%rbp)   # imm = 0x34FAEE7C
	jne	.LBB21_12
.LBB21_11:
	movl	%ebx, %eax
	addq	$24, %rsp
	popq	%rbx
	popq	%rbp
	.cfi_def_cfa %rsp, 8
	retq
.LBB21_12:                              # %func_exit
	.cfi_def_cfa %rbp, 16
	callq	detect_breach
	jmp	.LBB21_11
.Lfunc_end21:
	.size	spec_ungetc.9, .Lfunc_end21-spec_ungetc.9
	.cfi_endproc
                                        # -- End function
	.globl	spec_read.10            # -- Begin function spec_read.10
	.p2align	4, 0x90
	.type	spec_read.10,@function
spec_read.10:                           # @spec_read.10
	.cfi_startproc
# %bb.0:                                # %entry
	pushq	%rbp
	.cfi_def_cfa_offset 16
	.cfi_offset %rbp, -16
	movq	%rsp, %rbp
	.cfi_def_cfa_register %rbp
	pushq	%rbx
	subq	$40, %rsp
	.cfi_offset %rbx, -24
	movl	$70140056, -28(%rbp)    # imm = 0x42E4098
	movl	%edi, -12(%rbp)
	movq	%rsi, -40(%rbp)
	movl	%edx, -20(%rbp)
	movl	$0, -16(%rbp)
	movl	$4, %eax
	cmpl	dbglvl, %eax
	jge	.LBB22_2
# %bb.1:                                # %if.then
	movl	-12(%rbp), %esi
	movq	-40(%rbp), %rdx
	movl	-20(%rbp), %ecx
	movabsq	$.L.str.8, %rdi
	movb	$0, %al
	callq	printf
.LBB22_2:                               # %if.end
	cmpl	$3, -12(%rbp)
	jle	.LBB22_4
# %bb.3:                                # %if.then2
	movq	stderr, %rdi
	movl	-12(%rbp), %edx
	movabsq	$.L.str.9, %rsi
	movb	$0, %al
	callq	fprintf
	xorl	%edi, %edi
	callq	exit
.LBB22_4:                               # %if.end4
	movslq	-12(%rbp), %rax
	imulq	$24, %rax, %rax
	movabsq	$spec_fd, %rcx
	movq	%rcx, %rdx
	addq	%rax, %rdx
	movl	8(%rdx), %eax
	movslq	-12(%rbp), %rdx
	imulq	$24, %rdx, %rdx
	addq	%rdx, %rcx
	cmpl	4(%rcx), %eax
	jl	.LBB22_8
# %bb.5:                                # %if.then8
	movl	$4, %eax
	cmpl	dbglvl, %eax
	jge	.LBB22_7
# %bb.6:                                # %if.then10
	movabsq	$.L.str.10, %rdi
	movb	$0, %al
	callq	printf
.LBB22_7:                               # %if.end12
	movl	$-1, -24(%rbp)
	jmp	.LBB22_14
.LBB22_8:                               # %if.end13
	movslq	-12(%rbp), %rax
	imulq	$24, %rax, %rax
	movabsq	$spec_fd, %rcx
	movq	%rcx, %rdx
	addq	%rax, %rdx
	movl	8(%rdx), %eax
	addl	-20(%rbp), %eax
	movslq	-12(%rbp), %rdx
	imulq	$24, %rdx, %rdx
	addq	%rdx, %rcx
	cmpl	4(%rcx), %eax
	jl	.LBB22_10
# %bb.9:                                # %if.then21
	movslq	-12(%rbp), %rax
	imulq	$24, %rax, %rax
	movabsq	$spec_fd, %rcx
	movq	%rcx, %rdx
	addq	%rax, %rdx
	movl	4(%rdx), %eax
	movslq	-12(%rbp), %rdx
	imulq	$24, %rdx, %rdx
	addq	%rdx, %rcx
	subl	8(%rcx), %eax
	movl	%eax, -16(%rbp)
	jmp	.LBB22_11
.LBB22_10:                              # %if.else
	movl	-20(%rbp), %eax
	movl	%eax, -16(%rbp)
.LBB22_11:                              # %if.end28
	movq	-40(%rbp), %rdi
	movslq	-12(%rbp), %rax
	imulq	$24, %rax, %rax
	movabsq	$spec_fd, %rbx
	movq	%rbx, %rcx
	addq	%rax, %rcx
	movq	16(%rcx), %rsi
	movslq	-12(%rbp), %rax
	imulq	$24, %rax, %rax
	movq	%rbx, %rcx
	addq	%rax, %rcx
	movslq	8(%rcx), %rax
	addq	%rax, %rsi
	movslq	-16(%rbp), %rdx
	callq	memcpy
	movl	-16(%rbp), %eax
	movslq	-12(%rbp), %rcx
	imulq	$24, %rcx, %rcx
	addq	%rcx, %rbx
	addl	8(%rbx), %eax
	movl	%eax, 8(%rbx)
	movl	$4, %eax
	cmpl	dbglvl, %eax
	jge	.LBB22_13
# %bb.12:                               # %if.then43
	movl	-16(%rbp), %esi
	movabsq	$.L.str.11, %rdi
	movb	$0, %al
	callq	printf
.LBB22_13:                              # %if.end45
	movl	-16(%rbp), %eax
	movl	%eax, -24(%rbp)
.LBB22_14:                              # %return
	movl	-24(%rbp), %ebx
	cmpl	$70140056, -28(%rbp)    # imm = 0x42E4098
	jne	.LBB22_16
.LBB22_15:
	movl	%ebx, %eax
	addq	$40, %rsp
	popq	%rbx
	popq	%rbp
	.cfi_def_cfa %rsp, 8
	retq
.LBB22_16:                              # %func_exit
	.cfi_def_cfa %rbp, 16
	callq	detect_breach
	jmp	.LBB22_15
.Lfunc_end22:
	.size	spec_read.10, .Lfunc_end22-spec_read.10
	.cfi_endproc
                                        # -- End function
	.globl	spec_ungetc.11          # -- Begin function spec_ungetc.11
	.p2align	4, 0x90
	.type	spec_ungetc.11,@function
spec_ungetc.11:                         # @spec_ungetc.11
	.cfi_startproc
# %bb.0:                                # %entry
	pushq	%rbp
	.cfi_def_cfa_offset 16
	.cfi_offset %rbp, -16
	movq	%rsp, %rbp
	.cfi_def_cfa_register %rbp
	pushq	%rbx
	subq	$24, %rsp
	.cfi_offset %rbx, -24
	movl	$195566394, -24(%rbp)   # imm = 0xBA81B3A
	movb	%dil, -9(%rbp)
	movl	%esi, -16(%rbp)
	movl	$0, -20(%rbp)
	movl	$4, %eax
	cmpl	dbglvl, %eax
	jge	.LBB23_2
# %bb.1:                                # %if.then
	movl	-16(%rbp), %esi
	movabsq	$.L.str.15, %rdi
	movb	$0, %al
	callq	printf
.LBB23_2:                               # %if.end
	cmpl	$3, -16(%rbp)
	jle	.LBB23_4
# %bb.3:                                # %if.then2
	movq	stderr, %rdi
	movl	-16(%rbp), %edx
	movabsq	$.L.str.9, %rsi
	movb	$0, %al
	callq	fprintf
	xorl	%edi, %edi
	callq	exit
.LBB23_4:                               # %if.end4
	movslq	-16(%rbp), %rax
	imulq	$24, %rax, %rax
	movabsq	$spec_fd, %rcx
	addq	%rax, %rcx
	cmpl	$0, 8(%rcx)
	jg	.LBB23_6
# %bb.5:                                # %if.then6
	movq	stderr, %rdi
	movslq	-16(%rbp), %rax
	imulq	$24, %rax, %rax
	movabsq	$spec_fd, %rcx
	addq	%rax, %rcx
	movl	8(%rcx), %edx
	movabsq	$.L.str.16, %rsi
	movb	$0, %al
	callq	fprintf
	xorl	%edi, %edi
	callq	exit
.LBB23_6:                               # %if.end11
	movslq	-16(%rbp), %rax
	imulq	$24, %rax, %rax
	movabsq	$spec_fd, %rcx
	movq	%rcx, %rdx
	addq	%rax, %rdx
	movq	16(%rdx), %rax
	movslq	-16(%rbp), %rdx
	imulq	$24, %rdx, %rdx
	addq	%rdx, %rcx
	movl	8(%rcx), %edx
	addl	$-1, %edx
	movl	%edx, 8(%rcx)
	movslq	%edx, %rcx
	movzbl	(%rax,%rcx), %eax
	movzbl	-9(%rbp), %ecx
	cmpl	%ecx, %eax
	je	.LBB23_8
# %bb.7:                                # %if.then22
	movq	stderr, %rdi
	movabsq	$.L.str.17, %rsi
	movb	$0, %al
	callq	fprintf
	xorl	%edi, %edi
	callq	exit
.LBB23_8:                               # %if.end24
	movl	$4, %eax
	cmpl	dbglvl, %eax
	jge	.LBB23_10
# %bb.9:                                # %if.then27
	movl	-20(%rbp), %esi
	movabsq	$.L.str.11, %rdi
	movb	$0, %al
	callq	printf
.LBB23_10:                              # %if.end29
	movzbl	-9(%rbp), %ebx
	cmpl	$195566394, -24(%rbp)   # imm = 0xBA81B3A
	jne	.LBB23_12
.LBB23_11:
	movl	%ebx, %eax
	addq	$24, %rsp
	popq	%rbx
	popq	%rbp
	.cfi_def_cfa %rsp, 8
	retq
.LBB23_12:                              # %func_exit
	.cfi_def_cfa %rbp, 16
	callq	detect_breach
	jmp	.LBB23_11
.Lfunc_end23:
	.size	spec_ungetc.11, .Lfunc_end23-spec_ungetc.11
	.cfi_endproc
                                        # -- End function
	.globl	spec_fread.12           # -- Begin function spec_fread.12
	.p2align	4, 0x90
	.type	spec_fread.12,@function
spec_fread.12:                          # @spec_fread.12
	.cfi_startproc
# %bb.0:                                # %entry
	pushq	%rbp
	.cfi_def_cfa_offset 16
	.cfi_offset %rbp, -16
	movq	%rsp, %rbp
	.cfi_def_cfa_register %rbp
	pushq	%rbx
	subq	$40, %rsp
	.cfi_offset %rbx, -24
	movl	$1155817262, -32(%rbp)  # imm = 0x44E45F2E
	movq	%rdi, -40(%rbp)
	movl	%esi, -20(%rbp)
	movl	%edx, -24(%rbp)
	movl	%ecx, -12(%rbp)
	movl	$0, -16(%rbp)
	movl	$4, %eax
	cmpl	dbglvl, %eax
	jge	.LBB24_2
# %bb.1:                                # %if.then
	movq	-40(%rbp), %rsi
	movl	-20(%rbp), %edx
	movl	-24(%rbp), %ecx
	movl	-12(%rbp), %r8d
	movabsq	$.L.str.12, %rdi
	movb	$0, %al
	callq	printf
.LBB24_2:                               # %if.end
	cmpl	$3, -12(%rbp)
	jle	.LBB24_4
# %bb.3:                                # %if.then2
	movq	stderr, %rdi
	movl	-12(%rbp), %edx
	movabsq	$.L.str.13, %rsi
	movb	$0, %al
	callq	fprintf
	xorl	%edi, %edi
	callq	exit
.LBB24_4:                               # %if.end4
	movslq	-12(%rbp), %rax
	imulq	$24, %rax, %rax
	movabsq	$spec_fd, %rcx
	movq	%rcx, %rdx
	addq	%rax, %rdx
	movl	8(%rdx), %eax
	movslq	-12(%rbp), %rdx
	imulq	$24, %rdx, %rdx
	addq	%rdx, %rcx
	cmpl	4(%rcx), %eax
	jl	.LBB24_8
# %bb.5:                                # %if.then8
	movl	$4, %eax
	cmpl	dbglvl, %eax
	jge	.LBB24_7
# %bb.6:                                # %if.then10
	movabsq	$.L.str.10, %rdi
	movb	$0, %al
	callq	printf
.LBB24_7:                               # %if.end12
	movl	$-1, -28(%rbp)
	jmp	.LBB24_14
.LBB24_8:                               # %if.end13
	movslq	-12(%rbp), %rax
	imulq	$24, %rax, %rax
	movabsq	$spec_fd, %rcx
	movq	%rcx, %rdx
	addq	%rax, %rdx
	movl	8(%rdx), %eax
	movl	-20(%rbp), %edx
	imull	-24(%rbp), %edx
	addl	%edx, %eax
	movslq	-12(%rbp), %rdx
	imulq	$24, %rdx, %rdx
	addq	%rdx, %rcx
	cmpl	4(%rcx), %eax
	jl	.LBB24_10
# %bb.9:                                # %if.then21
	movslq	-12(%rbp), %rax
	imulq	$24, %rax, %rax
	movabsq	$spec_fd, %rcx
	movq	%rcx, %rdx
	addq	%rax, %rdx
	movl	4(%rdx), %eax
	movslq	-12(%rbp), %rdx
	imulq	$24, %rdx, %rdx
	addq	%rdx, %rcx
	subl	8(%rcx), %eax
	cltd
	idivl	-20(%rbp)
	movl	%eax, -16(%rbp)
	jmp	.LBB24_11
.LBB24_10:                              # %if.else
	movl	-24(%rbp), %eax
	movl	%eax, -16(%rbp)
.LBB24_11:                              # %if.end28
	movq	-40(%rbp), %rdi
	movslq	-12(%rbp), %rax
	imulq	$24, %rax, %rax
	movabsq	$spec_fd, %rbx
	movq	%rbx, %rcx
	addq	%rax, %rcx
	movq	16(%rcx), %rsi
	movslq	-12(%rbp), %rax
	imulq	$24, %rax, %rax
	movq	%rbx, %rcx
	addq	%rax, %rcx
	movslq	8(%rcx), %rax
	addq	%rax, %rsi
	movslq	-16(%rbp), %rdx
	callq	memcpy
	movl	-16(%rbp), %eax
	imull	-20(%rbp), %eax
	movslq	-12(%rbp), %rcx
	imulq	$24, %rcx, %rcx
	addq	%rcx, %rbx
	addl	8(%rbx), %eax
	movl	%eax, 8(%rbx)
	movl	$4, %eax
	cmpl	dbglvl, %eax
	jge	.LBB24_13
# %bb.12:                               # %if.then44
	movl	-16(%rbp), %esi
	imull	-20(%rbp), %esi
	movabsq	$.L.str.11, %rdi
	movb	$0, %al
	callq	printf
.LBB24_13:                              # %if.end47
	movl	-16(%rbp), %eax
	movl	%eax, -28(%rbp)
.LBB24_14:                              # %return
	movl	-28(%rbp), %ebx
	cmpl	$1155817262, -32(%rbp)  # imm = 0x44E45F2E
	jne	.LBB24_16
.LBB24_15:
	movl	%ebx, %eax
	addq	$40, %rsp
	popq	%rbx
	popq	%rbp
	.cfi_def_cfa %rsp, 8
	retq
.LBB24_16:                              # %func_exit
	.cfi_def_cfa %rbp, 16
	callq	detect_breach
	jmp	.LBB24_15
.Lfunc_end24:
	.size	spec_fread.12, .Lfunc_end24-spec_fread.12
	.cfi_endproc
                                        # -- End function
	.globl	spec_fread.13           # -- Begin function spec_fread.13
	.p2align	4, 0x90
	.type	spec_fread.13,@function
spec_fread.13:                          # @spec_fread.13
	.cfi_startproc
# %bb.0:                                # %entry
	pushq	%rbp
	.cfi_def_cfa_offset 16
	.cfi_offset %rbp, -16
	movq	%rsp, %rbp
	.cfi_def_cfa_register %rbp
	pushq	%rbx
	subq	$40, %rsp
	.cfi_offset %rbx, -24
	movl	$2043532942, -32(%rbp)  # imm = 0x79CDD68E
	movq	%rdi, -40(%rbp)
	movl	%esi, -20(%rbp)
	movl	%edx, -24(%rbp)
	movl	%ecx, -12(%rbp)
	movl	$0, -16(%rbp)
	movl	$4, %eax
	cmpl	dbglvl, %eax
	jge	.LBB25_2
# %bb.1:                                # %if.then
	movq	-40(%rbp), %rsi
	movl	-20(%rbp), %edx
	movl	-24(%rbp), %ecx
	movl	-12(%rbp), %r8d
	movabsq	$.L.str.12, %rdi
	movb	$0, %al
	callq	printf
.LBB25_2:                               # %if.end
	cmpl	$3, -12(%rbp)
	jle	.LBB25_4
# %bb.3:                                # %if.then2
	movq	stderr, %rdi
	movl	-12(%rbp), %edx
	movabsq	$.L.str.13, %rsi
	movb	$0, %al
	callq	fprintf
	xorl	%edi, %edi
	callq	exit
.LBB25_4:                               # %if.end4
	movslq	-12(%rbp), %rax
	imulq	$24, %rax, %rax
	movabsq	$spec_fd, %rcx
	movq	%rcx, %rdx
	addq	%rax, %rdx
	movl	8(%rdx), %eax
	movslq	-12(%rbp), %rdx
	imulq	$24, %rdx, %rdx
	addq	%rdx, %rcx
	cmpl	4(%rcx), %eax
	jl	.LBB25_8
# %bb.5:                                # %if.then8
	movl	$4, %eax
	cmpl	dbglvl, %eax
	jge	.LBB25_7
# %bb.6:                                # %if.then10
	movabsq	$.L.str.10, %rdi
	movb	$0, %al
	callq	printf
.LBB25_7:                               # %if.end12
	movl	$-1, -28(%rbp)
	jmp	.LBB25_14
.LBB25_8:                               # %if.end13
	movslq	-12(%rbp), %rax
	imulq	$24, %rax, %rax
	movabsq	$spec_fd, %rcx
	movq	%rcx, %rdx
	addq	%rax, %rdx
	movl	8(%rdx), %eax
	movl	-20(%rbp), %edx
	imull	-24(%rbp), %edx
	addl	%edx, %eax
	movslq	-12(%rbp), %rdx
	imulq	$24, %rdx, %rdx
	addq	%rdx, %rcx
	cmpl	4(%rcx), %eax
	jl	.LBB25_10
# %bb.9:                                # %if.then21
	movslq	-12(%rbp), %rax
	imulq	$24, %rax, %rax
	movabsq	$spec_fd, %rcx
	movq	%rcx, %rdx
	addq	%rax, %rdx
	movl	4(%rdx), %eax
	movslq	-12(%rbp), %rdx
	imulq	$24, %rdx, %rdx
	addq	%rdx, %rcx
	subl	8(%rcx), %eax
	cltd
	idivl	-20(%rbp)
	movl	%eax, -16(%rbp)
	jmp	.LBB25_11
.LBB25_10:                              # %if.else
	movl	-24(%rbp), %eax
	movl	%eax, -16(%rbp)
.LBB25_11:                              # %if.end28
	movq	-40(%rbp), %rdi
	movslq	-12(%rbp), %rax
	imulq	$24, %rax, %rax
	movabsq	$spec_fd, %rbx
	movq	%rbx, %rcx
	addq	%rax, %rcx
	movq	16(%rcx), %rsi
	movslq	-12(%rbp), %rax
	imulq	$24, %rax, %rax
	movq	%rbx, %rcx
	addq	%rax, %rcx
	movslq	8(%rcx), %rax
	addq	%rax, %rsi
	movslq	-16(%rbp), %rdx
	callq	memcpy
	movl	-16(%rbp), %eax
	imull	-20(%rbp), %eax
	movslq	-12(%rbp), %rcx
	imulq	$24, %rcx, %rcx
	addq	%rcx, %rbx
	addl	8(%rbx), %eax
	movl	%eax, 8(%rbx)
	movl	$4, %eax
	cmpl	dbglvl, %eax
	jge	.LBB25_13
# %bb.12:                               # %if.then44
	movl	-16(%rbp), %esi
	imull	-20(%rbp), %esi
	movabsq	$.L.str.11, %rdi
	movb	$0, %al
	callq	printf
.LBB25_13:                              # %if.end47
	movl	-16(%rbp), %eax
	movl	%eax, -28(%rbp)
.LBB25_14:                              # %return
	movl	-28(%rbp), %ebx
	cmpl	$2043532942, -32(%rbp)  # imm = 0x79CDD68E
	jne	.LBB25_16
.LBB25_15:
	movl	%ebx, %eax
	addq	$40, %rsp
	popq	%rbx
	popq	%rbp
	.cfi_def_cfa %rsp, 8
	retq
.LBB25_16:                              # %func_exit
	.cfi_def_cfa %rbp, 16
	callq	detect_breach
	jmp	.LBB25_15
.Lfunc_end25:
	.size	spec_fread.13, .Lfunc_end25-spec_fread.13
	.cfi_endproc
                                        # -- End function
	.section	.rodata.cst4,"aM",@progbits,4
	.p2align	2               # -- Begin function ran.14
.LCPI26_0:
	.long	1325400064              # float 2.14748365E+9
	.text
	.globl	ran.14
	.p2align	4, 0x90
	.type	ran.14,@function
ran.14:                                 # @ran.14
	.cfi_startproc
# %bb.0:                                # %entry
	pushq	%rbp
	.cfi_def_cfa_offset 16
	.cfi_offset %rbp, -16
	movq	%rsp, %rbp
	.cfi_def_cfa_register %rbp
	subq	$48, %rsp
	movl	$295090031, -12(%rbp)   # imm = 0x1196B76F
	movq	seedi, %rax
	cqto
	movl	$127773, %ecx           # imm = 0x1F31D
	idivq	%rcx
	movq	%rax, -32(%rbp)
	movq	seedi, %rax
	cqto
	idivq	%rcx
	movq	%rdx, -40(%rbp)
	imulq	$16807, -40(%rbp), %rax # imm = 0x41A7
	imulq	$2836, -32(%rbp), %rcx  # imm = 0xB14
	subq	%rcx, %rax
	movq	%rax, -8(%rbp)
	cmpq	$0, -8(%rbp)
	jle	.LBB26_2
# %bb.1:                                # %if.then
	movq	-8(%rbp), %rax
	movq	%rax, seedi
	jmp	.LBB26_3
.LBB26_2:                               # %if.else
	movq	-8(%rbp), %rax
	addq	$2147483647, %rax       # imm = 0x7FFFFFFF
	movq	%rax, seedi
.LBB26_3:                               # %if.end
	vmovss	.LCPI26_0(%rip), %xmm0  # xmm0 = mem[0],zero,zero,zero
	vcvtsi2ssq	seedi, %xmm0, %xmm1
	vdivss	%xmm0, %xmm1, %xmm0
	vcvtss2sd	%xmm0, %xmm0, %xmm0
	cmpl	$295090031, -12(%rbp)   # imm = 0x1196B76F
	jne	.LBB26_5
.LBB26_4:
	addq	$48, %rsp
	popq	%rbp
	.cfi_def_cfa %rsp, 8
	retq
.LBB26_5:                               # %func_exit
	.cfi_def_cfa %rbp, 16
	vmovsd	%xmm0, -24(%rbp)        # 8-byte Spill
	callq	detect_breach
	vmovsd	-24(%rbp), %xmm0        # 8-byte Reload
                                        # xmm0 = mem[0],zero
	jmp	.LBB26_4
.Lfunc_end26:
	.size	ran.14, .Lfunc_end26-ran.14
	.cfi_endproc
                                        # -- End function
	.globl	spec_load.15            # -- Begin function spec_load.15
	.p2align	4, 0x90
	.type	spec_load.15,@function
spec_load.15:                           # @spec_load.15
	.cfi_startproc
# %bb.0:                                # %entry
	pushq	%rbp
	.cfi_def_cfa_offset 16
	.cfi_offset %rbp, -16
	movq	%rsp, %rbp
	.cfi_def_cfa_register %rbp
	pushq	%r14
	pushq	%rbx
	subq	$48, %rsp
	.cfi_offset %rbx, -32
	.cfi_offset %r14, -24
	movl	$1872990782, -52(%rbp)  # imm = 0x6FA3923E
	movl	%edi, -20(%rbp)
	movq	%rsi, -48(%rbp)
	movl	%edx, -36(%rbp)
	movq	-48(%rbp), %rdi
	xorl	%esi, %esi
	movb	$0, %al
	callq	open
	movl	%eax, -40(%rbp)
	cmpl	$0, -40(%rbp)
	jge	.LBB27_2
# %bb.1:                                # %if.then
	movq	stderr, %rbx
	movq	-48(%rbp), %r14
	callq	__errno_location
	movl	(%rax), %edi
	callq	strerror
	movq	%rbx, %rdi
	movabsq	$.L.str.5, %rsi
	movq	%r14, %rdx
	movq	%rax, %rcx
	movb	$0, %al
	callq	fprintf
	xorl	%edi, %edi
	callq	exit
.LBB27_2:                               # %if.end
	movslq	-20(%rbp), %rax
	imulq	$24, %rax, %rax
	movabsq	$spec_fd, %rcx
	movq	%rcx, %rdx
	addq	%rax, %rdx
	movl	$0, 4(%rdx)
	movslq	-20(%rbp), %rax
	imulq	$24, %rax, %rax
	addq	%rax, %rcx
	movl	$0, 8(%rcx)
	movl	$0, -28(%rbp)
.LBB27_3:                               # %for.cond
                                        # =>This Inner Loop Header: Depth=1
	movl	-28(%rbp), %eax
	cmpl	-36(%rbp), %eax
	jge	.LBB27_10
# %bb.4:                                # %for.body
                                        #   in Loop: Header=BB27_3 Depth=1
	movl	-40(%rbp), %edi
	movslq	-20(%rbp), %rax
	imulq	$24, %rax, %rax
	movabsq	$spec_fd, %rcx
	addq	%rax, %rcx
	movq	16(%rcx), %rsi
	movslq	-28(%rbp), %rax
	addq	%rax, %rsi
	movl	$131072, %edx           # imm = 0x20000
	callq	read
	movl	%eax, -32(%rbp)
	cmpl	$0, -32(%rbp)
	jne	.LBB27_6
# %bb.5:                                # %if.then12
	jmp	.LBB27_11
.LBB27_6:                               # %if.end13
                                        #   in Loop: Header=BB27_3 Depth=1
	cmpl	$0, -32(%rbp)
	jge	.LBB27_8
# %bb.7:                                # %if.then16
	movq	stderr, %rbx
	movq	-48(%rbp), %r14
	callq	__errno_location
	movl	(%rax), %edi
	callq	strerror
	movq	%rbx, %rdi
	movabsq	$.L.str.6, %rsi
	movq	%r14, %rdx
	movq	%rax, %rcx
	movb	$0, %al
	callq	fprintf
	xorl	%edi, %edi
	callq	exit
.LBB27_8:                               # %if.end20
                                        #   in Loop: Header=BB27_3 Depth=1
	movl	-32(%rbp), %eax
	movslq	-20(%rbp), %rcx
	imulq	$24, %rcx, %rcx
	movabsq	$spec_fd, %rdx
	addq	%rcx, %rdx
	addl	4(%rdx), %eax
	movl	%eax, 4(%rdx)
# %bb.9:                                # %for.inc
                                        #   in Loop: Header=BB27_3 Depth=1
	movl	-32(%rbp), %eax
	addl	-28(%rbp), %eax
	movl	%eax, -28(%rbp)
	jmp	.LBB27_3
.LBB27_10:                              # %for.end.loopexit
	jmp	.LBB27_11
.LBB27_11:                              # %for.end
	movl	-40(%rbp), %edi
	callq	close
.LBB27_12:                              # %while.cond
                                        # =>This Inner Loop Header: Depth=1
	movslq	-20(%rbp), %rax
	imulq	$24, %rax, %rax
	movabsq	$spec_fd, %rcx
	addq	%rax, %rcx
	movl	4(%rcx), %eax
	cmpl	-36(%rbp), %eax
	jge	.LBB27_18
# %bb.13:                               # %while.body
                                        #   in Loop: Header=BB27_12 Depth=1
	movl	-36(%rbp), %eax
	movslq	-20(%rbp), %rcx
	imulq	$24, %rcx, %rcx
	movabsq	$spec_fd, %rdx
	movq	%rdx, %rsi
	addq	%rcx, %rsi
	subl	4(%rsi), %eax
	movl	%eax, -24(%rbp)
	movl	-24(%rbp), %eax
	movslq	-20(%rbp), %rcx
	imulq	$24, %rcx, %rcx
	addq	%rcx, %rdx
	cmpl	4(%rdx), %eax
	jle	.LBB27_15
# %bb.14:                               # %if.then39
                                        #   in Loop: Header=BB27_12 Depth=1
	movslq	-20(%rbp), %rax
	imulq	$24, %rax, %rax
	movabsq	$spec_fd, %rcx
	addq	%rax, %rcx
	movl	4(%rcx), %eax
	movl	%eax, -24(%rbp)
.LBB27_15:                              # %if.end43
                                        #   in Loop: Header=BB27_12 Depth=1
	movl	$3, %eax
	cmpl	dbglvl, %eax
	jge	.LBB27_17
# %bb.16:                               # %if.then46
                                        #   in Loop: Header=BB27_12 Depth=1
	movl	-24(%rbp), %esi
	movabsq	$.L.str.7, %rdi
	movb	$0, %al
	callq	printf
.LBB27_17:                              # %if.end48
                                        #   in Loop: Header=BB27_12 Depth=1
	movslq	-20(%rbp), %rax
	imulq	$24, %rax, %rax
	movabsq	$spec_fd, %rbx
	movq	%rbx, %rcx
	addq	%rax, %rcx
	movq	16(%rcx), %rdi
	movslq	-20(%rbp), %rax
	imulq	$24, %rax, %rax
	movq	%rbx, %rcx
	addq	%rax, %rcx
	movslq	4(%rcx), %rax
	addq	%rax, %rdi
	movslq	-20(%rbp), %rax
	imulq	$24, %rax, %rax
	movq	%rbx, %rcx
	addq	%rax, %rcx
	movq	16(%rcx), %rsi
	movslq	-24(%rbp), %rdx
	callq	memcpy
	movl	-24(%rbp), %eax
	movslq	-20(%rbp), %rcx
	imulq	$24, %rcx, %rcx
	addq	%rcx, %rbx
	addl	4(%rbx), %eax
	movl	%eax, 4(%rbx)
	jmp	.LBB27_12
.LBB27_18:                              # %while.end
	cmpl	$1872990782, -52(%rbp)  # imm = 0x6FA3923E
	jne	.LBB27_20
.LBB27_19:
	xorl	%eax, %eax
	addq	$48, %rsp
	popq	%rbx
	popq	%r14
	popq	%rbp
	.cfi_def_cfa %rsp, 8
	retq
.LBB27_20:                              # %func_exit
	.cfi_def_cfa %rbp, 16
	callq	detect_breach
	jmp	.LBB27_19
.Lfunc_end27:
	.size	spec_load.15, .Lfunc_end27-spec_load.15
	.cfi_endproc
                                        # -- End function
	.globl	spec_write.16           # -- Begin function spec_write.16
	.p2align	4, 0x90
	.type	spec_write.16,@function
spec_write.16:                          # @spec_write.16
	.cfi_startproc
# %bb.0:                                # %entry
	pushq	%rbp
	.cfi_def_cfa_offset 16
	.cfi_offset %rbp, -16
	movq	%rsp, %rbp
	.cfi_def_cfa_register %rbp
	pushq	%rbx
	subq	$24, %rsp
	.cfi_offset %rbx, -24
	movl	$1732641119, -20(%rbp)  # imm = 0x6746015F
	movl	%edi, -12(%rbp)
	movq	%rsi, -32(%rbp)
	movl	%edx, -16(%rbp)
	movl	$4, %eax
	cmpl	dbglvl, %eax
	jge	.LBB28_2
# %bb.1:                                # %if.then
	movl	-12(%rbp), %esi
	movq	-32(%rbp), %rdx
	movl	-16(%rbp), %ecx
	movabsq	$.L.str.18, %rdi
	movb	$0, %al
	callq	printf
.LBB28_2:                               # %if.end
	cmpl	$3, -12(%rbp)
	jle	.LBB28_4
# %bb.3:                                # %if.then2
	movq	stderr, %rdi
	movl	-12(%rbp), %edx
	movabsq	$.L.str.19, %rsi
	movb	$0, %al
	callq	fprintf
	xorl	%edi, %edi
	callq	exit
.LBB28_4:                               # %if.end4
	movslq	-12(%rbp), %rax
	imulq	$24, %rax, %rax
	movabsq	$spec_fd, %rbx
	movq	%rbx, %rcx
	addq	%rax, %rcx
	movq	16(%rcx), %rdi
	movslq	-12(%rbp), %rax
	imulq	$24, %rax, %rax
	movq	%rbx, %rcx
	addq	%rax, %rcx
	movslq	8(%rcx), %rax
	addq	%rax, %rdi
	movq	-32(%rbp), %rsi
	movslq	-16(%rbp), %rdx
	callq	memcpy
	movl	-16(%rbp), %eax
	movslq	-12(%rbp), %rcx
	imulq	$24, %rcx, %rcx
	movq	%rbx, %rdx
	addq	%rcx, %rdx
	addl	4(%rdx), %eax
	movl	%eax, 4(%rdx)
	movl	-16(%rbp), %eax
	movslq	-12(%rbp), %rcx
	imulq	$24, %rcx, %rcx
	addq	%rcx, %rbx
	addl	8(%rbx), %eax
	movl	%eax, 8(%rbx)
	movl	$4, %eax
	cmpl	dbglvl, %eax
	jge	.LBB28_6
# %bb.5:                                # %if.then18
	movl	-16(%rbp), %esi
	movabsq	$.L.str.11, %rdi
	movb	$0, %al
	callq	printf
.LBB28_6:                               # %if.end20
	movl	-16(%rbp), %ebx
	cmpl	$1732641119, -20(%rbp)  # imm = 0x6746015F
	jne	.LBB28_8
.LBB28_7:
	movl	%ebx, %eax
	addq	$24, %rsp
	popq	%rbx
	popq	%rbp
	.cfi_def_cfa %rsp, 8
	retq
.LBB28_8:                               # %func_exit
	.cfi_def_cfa %rbp, 16
	callq	detect_breach
	jmp	.LBB28_7
.Lfunc_end28:
	.size	spec_write.16, .Lfunc_end28-spec_write.16
	.cfi_endproc
                                        # -- End function
	.globl	spec_putc.17            # -- Begin function spec_putc.17
	.p2align	4, 0x90
	.type	spec_putc.17,@function
spec_putc.17:                           # @spec_putc.17
	.cfi_startproc
# %bb.0:                                # %entry
	pushq	%rbp
	.cfi_def_cfa_offset 16
	.cfi_offset %rbp, -16
	movq	%rsp, %rbp
	.cfi_def_cfa_register %rbp
	pushq	%rbx
	subq	$24, %rsp
	.cfi_offset %rbx, -24
	movl	$1906880479, -20(%rbp)  # imm = 0x71A8AFDF
	movb	%dil, -9(%rbp)
	movl	%esi, -16(%rbp)
	movl	$4, %eax
	cmpl	dbglvl, %eax
	jge	.LBB29_2
# %bb.1:                                # %if.then
	movzbl	-9(%rbp), %esi
	movl	-16(%rbp), %edx
	movabsq	$.L.str.22, %rdi
	movb	$0, %al
	callq	printf
.LBB29_2:                               # %if.end
	cmpl	$3, -16(%rbp)
	jle	.LBB29_4
# %bb.3:                                # %if.then3
	movq	stderr, %rdi
	movl	-16(%rbp), %edx
	movabsq	$.L.str.19, %rsi
	movb	$0, %al
	callq	fprintf
	xorl	%edi, %edi
	callq	exit
.LBB29_4:                               # %if.end5
	movb	-9(%rbp), %al
	movslq	-16(%rbp), %rcx
	imulq	$24, %rcx, %rcx
	movabsq	$spec_fd, %rdx
	movq	%rdx, %rsi
	addq	%rcx, %rsi
	movq	16(%rsi), %rcx
	movslq	-16(%rbp), %rsi
	imulq	$24, %rsi, %rsi
	movq	%rdx, %rdi
	addq	%rsi, %rdi
	movl	8(%rdi), %ebx
	movl	%ebx, %esi
	addl	$1, %esi
	movl	%esi, 8(%rdi)
	movslq	%ebx, %rsi
	movb	%al, (%rcx,%rsi)
	movslq	-16(%rbp), %rax
	imulq	$24, %rax, %rax
	addq	%rax, %rdx
	movl	4(%rdx), %eax
	addl	$1, %eax
	movl	%eax, 4(%rdx)
	movzbl	-9(%rbp), %ebx
	cmpl	$1906880479, -20(%rbp)  # imm = 0x71A8AFDF
	jne	.LBB29_6
.LBB29_5:
	movl	%ebx, %eax
	addq	$24, %rsp
	popq	%rbx
	popq	%rbp
	.cfi_def_cfa %rsp, 8
	retq
.LBB29_6:                               # %func_exit
	.cfi_def_cfa %rbp, 16
	callq	detect_breach
	jmp	.LBB29_5
.Lfunc_end29:
	.size	spec_putc.17, .Lfunc_end29-spec_putc.17
	.cfi_endproc
                                        # -- End function
	.globl	spec_ungetc.18          # -- Begin function spec_ungetc.18
	.p2align	4, 0x90
	.type	spec_ungetc.18,@function
spec_ungetc.18:                         # @spec_ungetc.18
	.cfi_startproc
# %bb.0:                                # %entry
	pushq	%rbp
	.cfi_def_cfa_offset 16
	.cfi_offset %rbp, -16
	movq	%rsp, %rbp
	.cfi_def_cfa_register %rbp
	pushq	%rbx
	subq	$24, %rsp
	.cfi_offset %rbx, -24
	movl	$1220400421, -24(%rbp)  # imm = 0x48BDD525
	movb	%dil, -9(%rbp)
	movl	%esi, -16(%rbp)
	movl	$0, -20(%rbp)
	movl	$4, %eax
	cmpl	dbglvl, %eax
	jge	.LBB30_2
# %bb.1:                                # %if.then
	movl	-16(%rbp), %esi
	movabsq	$.L.str.15, %rdi
	movb	$0, %al
	callq	printf
.LBB30_2:                               # %if.end
	cmpl	$3, -16(%rbp)
	jle	.LBB30_4
# %bb.3:                                # %if.then2
	movq	stderr, %rdi
	movl	-16(%rbp), %edx
	movabsq	$.L.str.9, %rsi
	movb	$0, %al
	callq	fprintf
	xorl	%edi, %edi
	callq	exit
.LBB30_4:                               # %if.end4
	movslq	-16(%rbp), %rax
	imulq	$24, %rax, %rax
	movabsq	$spec_fd, %rcx
	addq	%rax, %rcx
	cmpl	$0, 8(%rcx)
	jg	.LBB30_6
# %bb.5:                                # %if.then6
	movq	stderr, %rdi
	movslq	-16(%rbp), %rax
	imulq	$24, %rax, %rax
	movabsq	$spec_fd, %rcx
	addq	%rax, %rcx
	movl	8(%rcx), %edx
	movabsq	$.L.str.16, %rsi
	movb	$0, %al
	callq	fprintf
	xorl	%edi, %edi
	callq	exit
.LBB30_6:                               # %if.end11
	movslq	-16(%rbp), %rax
	imulq	$24, %rax, %rax
	movabsq	$spec_fd, %rcx
	movq	%rcx, %rdx
	addq	%rax, %rdx
	movq	16(%rdx), %rax
	movslq	-16(%rbp), %rdx
	imulq	$24, %rdx, %rdx
	addq	%rdx, %rcx
	movl	8(%rcx), %edx
	addl	$-1, %edx
	movl	%edx, 8(%rcx)
	movslq	%edx, %rcx
	movzbl	(%rax,%rcx), %eax
	movzbl	-9(%rbp), %ecx
	cmpl	%ecx, %eax
	je	.LBB30_8
# %bb.7:                                # %if.then22
	movq	stderr, %rdi
	movabsq	$.L.str.17, %rsi
	movb	$0, %al
	callq	fprintf
	xorl	%edi, %edi
	callq	exit
.LBB30_8:                               # %if.end24
	movl	$4, %eax
	cmpl	dbglvl, %eax
	jge	.LBB30_10
# %bb.9:                                # %if.then27
	movl	-20(%rbp), %esi
	movabsq	$.L.str.11, %rdi
	movb	$0, %al
	callq	printf
.LBB30_10:                              # %if.end29
	movzbl	-9(%rbp), %ebx
	cmpl	$1220400421, -24(%rbp)  # imm = 0x48BDD525
	jne	.LBB30_12
.LBB30_11:
	movl	%ebx, %eax
	addq	$24, %rsp
	popq	%rbx
	popq	%rbp
	.cfi_def_cfa %rsp, 8
	retq
.LBB30_12:                              # %func_exit
	.cfi_def_cfa %rbp, 16
	callq	detect_breach
	jmp	.LBB30_11
.Lfunc_end30:
	.size	spec_ungetc.18, .Lfunc_end30-spec_ungetc.18
	.cfi_endproc
                                        # -- End function
	.globl	spec_fwrite.19          # -- Begin function spec_fwrite.19
	.p2align	4, 0x90
	.type	spec_fwrite.19,@function
spec_fwrite.19:                         # @spec_fwrite.19
	.cfi_startproc
# %bb.0:                                # %entry
	pushq	%rbp
	.cfi_def_cfa_offset 16
	.cfi_offset %rbp, -16
	movq	%rsp, %rbp
	.cfi_def_cfa_register %rbp
	pushq	%rbx
	subq	$24, %rsp
	.cfi_offset %rbx, -24
	movl	$95099980, -24(%rbp)    # imm = 0x5AB1C4C
	movq	%rdi, -32(%rbp)
	movl	%esi, -20(%rbp)
	movl	%edx, -16(%rbp)
	movl	%ecx, -12(%rbp)
	movl	$4, %eax
	cmpl	dbglvl, %eax
	jge	.LBB31_2
# %bb.1:                                # %if.then
	movq	-32(%rbp), %rsi
	movl	-20(%rbp), %edx
	movl	-16(%rbp), %ecx
	movl	-12(%rbp), %r8d
	movabsq	$.L.str.20, %rdi
	movb	$0, %al
	callq	printf
.LBB31_2:                               # %if.end
	cmpl	$3, -12(%rbp)
	jle	.LBB31_4
# %bb.3:                                # %if.then2
	movq	stderr, %rdi
	movl	-12(%rbp), %edx
	movabsq	$.L.str.21, %rsi
	movb	$0, %al
	callq	fprintf
	xorl	%edi, %edi
	callq	exit
.LBB31_4:                               # %if.end4
	movslq	-12(%rbp), %rax
	imulq	$24, %rax, %rax
	movabsq	$spec_fd, %rbx
	movq	%rbx, %rcx
	addq	%rax, %rcx
	movq	16(%rcx), %rdi
	movslq	-12(%rbp), %rax
	imulq	$24, %rax, %rax
	movq	%rbx, %rcx
	addq	%rax, %rcx
	movslq	8(%rcx), %rax
	addq	%rax, %rdi
	movq	-32(%rbp), %rsi
	movl	-20(%rbp), %eax
	imull	-16(%rbp), %eax
	movslq	%eax, %rdx
	callq	memcpy
	movl	-20(%rbp), %eax
	imull	-16(%rbp), %eax
	movslq	-12(%rbp), %rcx
	imulq	$24, %rcx, %rcx
	movq	%rbx, %rdx
	addq	%rcx, %rdx
	addl	4(%rdx), %eax
	movl	%eax, 4(%rdx)
	movl	-20(%rbp), %eax
	imull	-16(%rbp), %eax
	movslq	-12(%rbp), %rcx
	imulq	$24, %rcx, %rcx
	addq	%rcx, %rbx
	addl	8(%rbx), %eax
	movl	%eax, 8(%rbx)
	movl	$4, %eax
	cmpl	dbglvl, %eax
	jge	.LBB31_6
# %bb.5:                                # %if.then20
	movl	-16(%rbp), %esi
	movabsq	$.L.str.11, %rdi
	movb	$0, %al
	callq	printf
.LBB31_6:                               # %if.end22
	movl	-16(%rbp), %ebx
	cmpl	$95099980, -24(%rbp)    # imm = 0x5AB1C4C
	jne	.LBB31_8
.LBB31_7:
	movl	%ebx, %eax
	addq	$24, %rsp
	popq	%rbx
	popq	%rbp
	.cfi_def_cfa %rsp, 8
	retq
.LBB31_8:                               # %func_exit
	.cfi_def_cfa %rbp, 16
	callq	detect_breach
	jmp	.LBB31_7
.Lfunc_end31:
	.size	spec_fwrite.19, .Lfunc_end31-spec_fwrite.19
	.cfi_endproc
                                        # -- End function
	.globl	spec_ungetc.20          # -- Begin function spec_ungetc.20
	.p2align	4, 0x90
	.type	spec_ungetc.20,@function
spec_ungetc.20:                         # @spec_ungetc.20
	.cfi_startproc
# %bb.0:                                # %entry
	pushq	%rbp
	.cfi_def_cfa_offset 16
	.cfi_offset %rbp, -16
	movq	%rsp, %rbp
	.cfi_def_cfa_register %rbp
	pushq	%rbx
	subq	$24, %rsp
	.cfi_offset %rbx, -24
	movl	$783455888, -20(%rbp)   # imm = 0x2EB29690
	movb	%dil, -9(%rbp)
	movl	%esi, -16(%rbp)
	movl	$0, -24(%rbp)
	movl	$4, %eax
	cmpl	dbglvl, %eax
	jge	.LBB32_2
# %bb.1:                                # %if.then
	movl	-16(%rbp), %esi
	movabsq	$.L.str.15, %rdi
	movb	$0, %al
	callq	printf
.LBB32_2:                               # %if.end
	cmpl	$3, -16(%rbp)
	jle	.LBB32_4
# %bb.3:                                # %if.then2
	movq	stderr, %rdi
	movl	-16(%rbp), %edx
	movabsq	$.L.str.9, %rsi
	movb	$0, %al
	callq	fprintf
	xorl	%edi, %edi
	callq	exit
.LBB32_4:                               # %if.end4
	movslq	-16(%rbp), %rax
	imulq	$24, %rax, %rax
	movabsq	$spec_fd, %rcx
	addq	%rax, %rcx
	cmpl	$0, 8(%rcx)
	jg	.LBB32_6
# %bb.5:                                # %if.then6
	movq	stderr, %rdi
	movslq	-16(%rbp), %rax
	imulq	$24, %rax, %rax
	movabsq	$spec_fd, %rcx
	addq	%rax, %rcx
	movl	8(%rcx), %edx
	movabsq	$.L.str.16, %rsi
	movb	$0, %al
	callq	fprintf
	xorl	%edi, %edi
	callq	exit
.LBB32_6:                               # %if.end11
	movslq	-16(%rbp), %rax
	imulq	$24, %rax, %rax
	movabsq	$spec_fd, %rcx
	movq	%rcx, %rdx
	addq	%rax, %rdx
	movq	16(%rdx), %rax
	movslq	-16(%rbp), %rdx
	imulq	$24, %rdx, %rdx
	addq	%rdx, %rcx
	movl	8(%rcx), %edx
	addl	$-1, %edx
	movl	%edx, 8(%rcx)
	movslq	%edx, %rcx
	movzbl	(%rax,%rcx), %eax
	movzbl	-9(%rbp), %ecx
	cmpl	%ecx, %eax
	je	.LBB32_8
# %bb.7:                                # %if.then22
	movq	stderr, %rdi
	movabsq	$.L.str.17, %rsi
	movb	$0, %al
	callq	fprintf
	xorl	%edi, %edi
	callq	exit
.LBB32_8:                               # %if.end24
	movl	$4, %eax
	cmpl	dbglvl, %eax
	jge	.LBB32_10
# %bb.9:                                # %if.then27
	movl	-24(%rbp), %esi
	movabsq	$.L.str.11, %rdi
	movb	$0, %al
	callq	printf
.LBB32_10:                              # %if.end29
	movzbl	-9(%rbp), %ebx
	cmpl	$783455888, -20(%rbp)   # imm = 0x2EB29690
	jne	.LBB32_12
.LBB32_11:
	movl	%ebx, %eax
	addq	$24, %rsp
	popq	%rbx
	popq	%rbp
	.cfi_def_cfa %rsp, 8
	retq
.LBB32_12:                              # %func_exit
	.cfi_def_cfa %rbp, 16
	callq	detect_breach
	jmp	.LBB32_11
.Lfunc_end32:
	.size	spec_ungetc.20, .Lfunc_end32-spec_ungetc.20
	.cfi_endproc
                                        # -- End function
	.section	.rodata.cst8,"aM",@progbits,8
	.p2align	3               # -- Begin function spec_random_load.21
.LCPI33_0:
	.quad	4629700416936869888     # double 32
.LCPI33_1:
	.quad	4643211215818981376     # double 256
	.text
	.globl	spec_random_load.21
	.p2align	4, 0x90
	.type	spec_random_load.21,@function
spec_random_load.21:                    # @spec_random_load.21
	.cfi_startproc
# %bb.0:                                # %entry
	pushq	%rbp
	.cfi_def_cfa_offset 16
	.cfi_offset %rbp, -16
	movq	%rsp, %rbp
	.cfi_def_cfa_register %rbp
	pushq	%rbx
	subq	$4194328, %rsp          # imm = 0x400018
	.cfi_offset %rbx, -24
	movl	$1413407757, -24(%rbp)  # imm = 0x543EE40D
	movl	%edi, -20(%rbp)
	movl	$4, %eax
	cmpl	dbglvl, %eax
	jge	.LBB33_2
# %bb.1:                                # %if.then
	movabsq	$.L.str.2, %rdi
	movb	$0, %al
	callq	printf
.LBB33_2:                               # %if.end
	movl	$0, -12(%rbp)
.LBB33_3:                               # %for.cond
                                        # =>This Loop Header: Depth=1
                                        #     Child Loop BB33_7 Depth 2
	cmpl	$32, -12(%rbp)
	jge	.LBB33_12
# %bb.4:                                # %for.body
                                        #   in Loop: Header=BB33_3 Depth=1
	movl	$5, %eax
	cmpl	dbglvl, %eax
	jge	.LBB33_6
# %bb.5:                                # %if.then3
                                        #   in Loop: Header=BB33_3 Depth=1
	movl	-12(%rbp), %esi
	movabsq	$.L.str.3, %rdi
	movb	$0, %al
	callq	printf
.LBB33_6:                               # %if.end5
                                        #   in Loop: Header=BB33_3 Depth=1
	movl	$0, -16(%rbp)
.LBB33_7:                               # %for.cond6
                                        #   Parent Loop BB33_3 Depth=1
                                        # =>  This Inner Loop Header: Depth=2
	cmpl	$131072, -16(%rbp)      # imm = 0x20000
	jge	.LBB33_10
# %bb.8:                                # %for.body8
                                        #   in Loop: Header=BB33_7 Depth=2
	callq	ran
	vmovsd	.LCPI33_1(%rip), %xmm1  # xmm1 = mem[0],zero
	vmulsd	%xmm1, %xmm0, %xmm0
	vcvttsd2si	%xmm0, %eax
	movslq	-12(%rbp), %rcx
	shlq	$17, %rcx
	leaq	-4194336(%rbp), %rdx
	addq	%rcx, %rdx
	movslq	-16(%rbp), %rcx
	movb	%al, (%rdx,%rcx)
# %bb.9:                                # %for.inc
                                        #   in Loop: Header=BB33_7 Depth=2
	movl	-16(%rbp), %eax
	addl	$1, %eax
	movl	%eax, -16(%rbp)
	jmp	.LBB33_7
.LBB33_10:                              # %for.end
                                        #   in Loop: Header=BB33_3 Depth=1
	jmp	.LBB33_11
.LBB33_11:                              # %for.inc13
                                        #   in Loop: Header=BB33_3 Depth=1
	movl	-12(%rbp), %eax
	addl	$1, %eax
	movl	%eax, -12(%rbp)
	jmp	.LBB33_3
.LBB33_12:                              # %for.end15
	movl	$4, %eax
	cmpl	dbglvl, %eax
	jge	.LBB33_14
# %bb.13:                               # %if.then18
	movabsq	$.L.str.4, %rdi
	movb	$0, %al
	callq	printf
.LBB33_14:                              # %if.end20
	movl	$0, -12(%rbp)
.LBB33_15:                              # %for.cond21
                                        # =>This Inner Loop Header: Depth=1
	movl	-12(%rbp), %eax
	movslq	-20(%rbp), %rcx
	imulq	$24, %rcx, %rcx
	movabsq	$spec_fd, %rdx
	addq	%rcx, %rdx
	cmpl	(%rdx), %eax
	jge	.LBB33_18
# %bb.16:                               # %for.body26
                                        #   in Loop: Header=BB33_15 Depth=1
	movslq	-20(%rbp), %rax
	imulq	$24, %rax, %rax
	movabsq	$spec_fd, %rcx
	addq	%rax, %rcx
	movq	16(%rcx), %rbx
	movslq	-12(%rbp), %rax
	addq	%rax, %rbx
	callq	ran
	vmovsd	.LCPI33_0(%rip), %xmm1  # xmm1 = mem[0],zero
	vmulsd	%xmm1, %xmm0, %xmm0
	vcvttsd2si	%xmm0, %eax
	cltq
	shlq	$17, %rax
	leaq	-4194336(%rbp), %rsi
	addq	%rax, %rsi
	movq	%rbx, %rdi
	movl	$131072, %edx           # imm = 0x20000
	callq	memcpy
# %bb.17:                               # %for.inc34
                                        #   in Loop: Header=BB33_15 Depth=1
	movl	-12(%rbp), %eax
	addl	$131072, %eax           # imm = 0x20000
	movl	%eax, -12(%rbp)
	jmp	.LBB33_15
.LBB33_18:                              # %for.end35
	movslq	-20(%rbp), %rax
	imulq	$24, %rax, %rax
	movabsq	$spec_fd, %rcx
	addq	%rax, %rcx
	movl	$1048576, 4(%rcx)       # imm = 0x100000
	cmpl	$1413407757, -24(%rbp)  # imm = 0x543EE40D
	jne	.LBB33_20
.LBB33_19:
	xorl	%eax, %eax
	addq	$4194328, %rsp          # imm = 0x400018
	popq	%rbx
	popq	%rbp
	.cfi_def_cfa %rsp, 8
	retq
.LBB33_20:                              # %func_exit
	.cfi_def_cfa %rbp, 16
	callq	detect_breach
	jmp	.LBB33_19
.Lfunc_end33:
	.size	spec_random_load.21, .Lfunc_end33-spec_random_load.21
	.cfi_endproc
                                        # -- End function
	.globl	spec_write.22           # -- Begin function spec_write.22
	.p2align	4, 0x90
	.type	spec_write.22,@function
spec_write.22:                          # @spec_write.22
	.cfi_startproc
# %bb.0:                                # %entry
	pushq	%rbp
	.cfi_def_cfa_offset 16
	.cfi_offset %rbp, -16
	movq	%rsp, %rbp
	.cfi_def_cfa_register %rbp
	pushq	%rbx
	subq	$24, %rsp
	.cfi_offset %rbx, -24
	movl	$371395796, -20(%rbp)   # imm = 0x16230CD4
	movl	%edi, -12(%rbp)
	movq	%rsi, -32(%rbp)
	movl	%edx, -16(%rbp)
	movl	$4, %eax
	cmpl	dbglvl, %eax
	jge	.LBB34_2
# %bb.1:                                # %if.then
	movl	-12(%rbp), %esi
	movq	-32(%rbp), %rdx
	movl	-16(%rbp), %ecx
	movabsq	$.L.str.18, %rdi
	movb	$0, %al
	callq	printf
.LBB34_2:                               # %if.end
	cmpl	$3, -12(%rbp)
	jle	.LBB34_4
# %bb.3:                                # %if.then2
	movq	stderr, %rdi
	movl	-12(%rbp), %edx
	movabsq	$.L.str.19, %rsi
	movb	$0, %al
	callq	fprintf
	xorl	%edi, %edi
	callq	exit
.LBB34_4:                               # %if.end4
	movslq	-12(%rbp), %rax
	imulq	$24, %rax, %rax
	movabsq	$spec_fd, %rbx
	movq	%rbx, %rcx
	addq	%rax, %rcx
	movq	16(%rcx), %rdi
	movslq	-12(%rbp), %rax
	imulq	$24, %rax, %rax
	movq	%rbx, %rcx
	addq	%rax, %rcx
	movslq	8(%rcx), %rax
	addq	%rax, %rdi
	movq	-32(%rbp), %rsi
	movslq	-16(%rbp), %rdx
	callq	memcpy
	movl	-16(%rbp), %eax
	movslq	-12(%rbp), %rcx
	imulq	$24, %rcx, %rcx
	movq	%rbx, %rdx
	addq	%rcx, %rdx
	addl	4(%rdx), %eax
	movl	%eax, 4(%rdx)
	movl	-16(%rbp), %eax
	movslq	-12(%rbp), %rcx
	imulq	$24, %rcx, %rcx
	addq	%rcx, %rbx
	addl	8(%rbx), %eax
	movl	%eax, 8(%rbx)
	movl	$4, %eax
	cmpl	dbglvl, %eax
	jge	.LBB34_6
# %bb.5:                                # %if.then18
	movl	-16(%rbp), %esi
	movabsq	$.L.str.11, %rdi
	movb	$0, %al
	callq	printf
.LBB34_6:                               # %if.end20
	movl	-16(%rbp), %ebx
	cmpl	$371395796, -20(%rbp)   # imm = 0x16230CD4
	jne	.LBB34_8
.LBB34_7:
	movl	%ebx, %eax
	addq	$24, %rsp
	popq	%rbx
	popq	%rbp
	.cfi_def_cfa %rsp, 8
	retq
.LBB34_8:                               # %func_exit
	.cfi_def_cfa %rbp, 16
	callq	detect_breach
	jmp	.LBB34_7
.Lfunc_end34:
	.size	spec_write.22, .Lfunc_end34-spec_write.22
	.cfi_endproc
                                        # -- End function
	.globl	spec_ungetc.23          # -- Begin function spec_ungetc.23
	.p2align	4, 0x90
	.type	spec_ungetc.23,@function
spec_ungetc.23:                         # @spec_ungetc.23
	.cfi_startproc
# %bb.0:                                # %entry
	pushq	%rbp
	.cfi_def_cfa_offset 16
	.cfi_offset %rbp, -16
	movq	%rsp, %rbp
	.cfi_def_cfa_register %rbp
	pushq	%rbx
	subq	$24, %rsp
	.cfi_offset %rbx, -24
	movl	$1108193123, -20(%rbp)  # imm = 0x420DAF63
	movb	%dil, -9(%rbp)
	movl	%esi, -16(%rbp)
	movl	$0, -24(%rbp)
	movl	$4, %eax
	cmpl	dbglvl, %eax
	jge	.LBB35_2
# %bb.1:                                # %if.then
	movl	-16(%rbp), %esi
	movabsq	$.L.str.15, %rdi
	movb	$0, %al
	callq	printf
.LBB35_2:                               # %if.end
	cmpl	$3, -16(%rbp)
	jle	.LBB35_4
# %bb.3:                                # %if.then2
	movq	stderr, %rdi
	movl	-16(%rbp), %edx
	movabsq	$.L.str.9, %rsi
	movb	$0, %al
	callq	fprintf
	xorl	%edi, %edi
	callq	exit
.LBB35_4:                               # %if.end4
	movslq	-16(%rbp), %rax
	imulq	$24, %rax, %rax
	movabsq	$spec_fd, %rcx
	addq	%rax, %rcx
	cmpl	$0, 8(%rcx)
	jg	.LBB35_6
# %bb.5:                                # %if.then6
	movq	stderr, %rdi
	movslq	-16(%rbp), %rax
	imulq	$24, %rax, %rax
	movabsq	$spec_fd, %rcx
	addq	%rax, %rcx
	movl	8(%rcx), %edx
	movabsq	$.L.str.16, %rsi
	movb	$0, %al
	callq	fprintf
	xorl	%edi, %edi
	callq	exit
.LBB35_6:                               # %if.end11
	movslq	-16(%rbp), %rax
	imulq	$24, %rax, %rax
	movabsq	$spec_fd, %rcx
	movq	%rcx, %rdx
	addq	%rax, %rdx
	movq	16(%rdx), %rax
	movslq	-16(%rbp), %rdx
	imulq	$24, %rdx, %rdx
	addq	%rdx, %rcx
	movl	8(%rcx), %edx
	addl	$-1, %edx
	movl	%edx, 8(%rcx)
	movslq	%edx, %rcx
	movzbl	(%rax,%rcx), %eax
	movzbl	-9(%rbp), %ecx
	cmpl	%ecx, %eax
	je	.LBB35_8
# %bb.7:                                # %if.then22
	movq	stderr, %rdi
	movabsq	$.L.str.17, %rsi
	movb	$0, %al
	callq	fprintf
	xorl	%edi, %edi
	callq	exit
.LBB35_8:                               # %if.end24
	movl	$4, %eax
	cmpl	dbglvl, %eax
	jge	.LBB35_10
# %bb.9:                                # %if.then27
	movl	-24(%rbp), %esi
	movabsq	$.L.str.11, %rdi
	movb	$0, %al
	callq	printf
.LBB35_10:                              # %if.end29
	movzbl	-9(%rbp), %ebx
	cmpl	$1108193123, -20(%rbp)  # imm = 0x420DAF63
	jne	.LBB35_12
.LBB35_11:
	movl	%ebx, %eax
	addq	$24, %rsp
	popq	%rbx
	popq	%rbp
	.cfi_def_cfa %rsp, 8
	retq
.LBB35_12:                              # %func_exit
	.cfi_def_cfa %rbp, 16
	callq	detect_breach
	jmp	.LBB35_11
.Lfunc_end35:
	.size	spec_ungetc.23, .Lfunc_end35-spec_ungetc.23
	.cfi_endproc
                                        # -- End function
	.globl	spec_getc.24            # -- Begin function spec_getc.24
	.p2align	4, 0x90
	.type	spec_getc.24,@function
spec_getc.24:                           # @spec_getc.24
	.cfi_startproc
# %bb.0:                                # %entry
	pushq	%rbp
	.cfi_def_cfa_offset 16
	.cfi_offset %rbp, -16
	movq	%rsp, %rbp
	.cfi_def_cfa_register %rbp
	pushq	%rbx
	subq	$24, %rsp
	.cfi_offset %rbx, -24
	movl	$1732114, -24(%rbp)     # imm = 0x1A6E12
	movl	%edi, -12(%rbp)
	movl	$0, -16(%rbp)
	movl	$4, %eax
	cmpl	dbglvl, %eax
	jge	.LBB36_2
# %bb.1:                                # %if.then
	movl	-12(%rbp), %esi
	movabsq	$.L.str.14, %rdi
	movb	$0, %al
	callq	printf
.LBB36_2:                               # %if.end
	cmpl	$3, -12(%rbp)
	jle	.LBB36_4
# %bb.3:                                # %if.then2
	movq	stderr, %rdi
	movl	-12(%rbp), %edx
	movabsq	$.L.str.9, %rsi
	movb	$0, %al
	callq	fprintf
	xorl	%edi, %edi
	callq	exit
.LBB36_4:                               # %if.end4
	movslq	-12(%rbp), %rax
	imulq	$24, %rax, %rax
	movabsq	$spec_fd, %rcx
	movq	%rcx, %rdx
	addq	%rax, %rdx
	movl	8(%rdx), %eax
	movslq	-12(%rbp), %rdx
	imulq	$24, %rdx, %rdx
	addq	%rdx, %rcx
	cmpl	4(%rcx), %eax
	jl	.LBB36_8
# %bb.5:                                # %if.then8
	movl	$4, %eax
	cmpl	dbglvl, %eax
	jge	.LBB36_7
# %bb.6:                                # %if.then10
	movabsq	$.L.str.10, %rdi
	movb	$0, %al
	callq	printf
.LBB36_7:                               # %if.end12
	movl	$-1, -20(%rbp)
	jmp	.LBB36_11
.LBB36_8:                               # %if.end13
	movslq	-12(%rbp), %rax
	imulq	$24, %rax, %rax
	movabsq	$spec_fd, %rcx
	movq	%rcx, %rdx
	addq	%rax, %rdx
	movq	16(%rdx), %rax
	movslq	-12(%rbp), %rdx
	imulq	$24, %rdx, %rdx
	addq	%rdx, %rcx
	movl	8(%rcx), %edx
	movl	%edx, %esi
	addl	$1, %esi
	movl	%esi, 8(%rcx)
	movslq	%edx, %rcx
	movzbl	(%rax,%rcx), %eax
	movl	%eax, -16(%rbp)
	movl	$4, %eax
	cmpl	dbglvl, %eax
	jge	.LBB36_10
# %bb.9:                                # %if.then23
	movl	-16(%rbp), %esi
	movabsq	$.L.str.11, %rdi
	movb	$0, %al
	callq	printf
.LBB36_10:                              # %if.end25
	movl	-16(%rbp), %eax
	movl	%eax, -20(%rbp)
.LBB36_11:                              # %return
	movl	-20(%rbp), %ebx
	cmpl	$1732114, -24(%rbp)     # imm = 0x1A6E12
	jne	.LBB36_13
.LBB36_12:
	movl	%ebx, %eax
	addq	$24, %rsp
	popq	%rbx
	popq	%rbp
	.cfi_def_cfa %rsp, 8
	retq
.LBB36_13:                              # %func_exit
	.cfi_def_cfa %rbp, 16
	callq	detect_breach
	jmp	.LBB36_12
.Lfunc_end36:
	.size	spec_getc.24, .Lfunc_end36-spec_getc.24
	.cfi_endproc
                                        # -- End function
	.globl	spec_load.25            # -- Begin function spec_load.25
	.p2align	4, 0x90
	.type	spec_load.25,@function
spec_load.25:                           # @spec_load.25
	.cfi_startproc
# %bb.0:                                # %entry
	pushq	%rbp
	.cfi_def_cfa_offset 16
	.cfi_offset %rbp, -16
	movq	%rsp, %rbp
	.cfi_def_cfa_register %rbp
	pushq	%r14
	pushq	%rbx
	subq	$48, %rsp
	.cfi_offset %rbx, -32
	.cfi_offset %r14, -24
	movl	$1293838055, -52(%rbp)  # imm = 0x4D1E66E7
	movl	%edi, -20(%rbp)
	movq	%rsi, -48(%rbp)
	movl	%edx, -40(%rbp)
	movq	-48(%rbp), %rdi
	xorl	%esi, %esi
	movb	$0, %al
	callq	open
	movl	%eax, -36(%rbp)
	cmpl	$0, -36(%rbp)
	jge	.LBB37_2
# %bb.1:                                # %if.then
	movq	stderr, %rbx
	movq	-48(%rbp), %r14
	callq	__errno_location
	movl	(%rax), %edi
	callq	strerror
	movq	%rbx, %rdi
	movabsq	$.L.str.5, %rsi
	movq	%r14, %rdx
	movq	%rax, %rcx
	movb	$0, %al
	callq	fprintf
	xorl	%edi, %edi
	callq	exit
.LBB37_2:                               # %if.end
	movslq	-20(%rbp), %rax
	imulq	$24, %rax, %rax
	movabsq	$spec_fd, %rcx
	movq	%rcx, %rdx
	addq	%rax, %rdx
	movl	$0, 4(%rdx)
	movslq	-20(%rbp), %rax
	imulq	$24, %rax, %rax
	addq	%rax, %rcx
	movl	$0, 8(%rcx)
	movl	$0, -32(%rbp)
.LBB37_3:                               # %for.cond
                                        # =>This Inner Loop Header: Depth=1
	movl	-32(%rbp), %eax
	cmpl	-40(%rbp), %eax
	jge	.LBB37_10
# %bb.4:                                # %for.body
                                        #   in Loop: Header=BB37_3 Depth=1
	movl	-36(%rbp), %edi
	movslq	-20(%rbp), %rax
	imulq	$24, %rax, %rax
	movabsq	$spec_fd, %rcx
	addq	%rax, %rcx
	movq	16(%rcx), %rsi
	movslq	-32(%rbp), %rax
	addq	%rax, %rsi
	movl	$131072, %edx           # imm = 0x20000
	callq	read
	movl	%eax, -28(%rbp)
	cmpl	$0, -28(%rbp)
	jne	.LBB37_6
# %bb.5:                                # %if.then12
	jmp	.LBB37_11
.LBB37_6:                               # %if.end13
                                        #   in Loop: Header=BB37_3 Depth=1
	cmpl	$0, -28(%rbp)
	jge	.LBB37_8
# %bb.7:                                # %if.then16
	movq	stderr, %rbx
	movq	-48(%rbp), %r14
	callq	__errno_location
	movl	(%rax), %edi
	callq	strerror
	movq	%rbx, %rdi
	movabsq	$.L.str.6, %rsi
	movq	%r14, %rdx
	movq	%rax, %rcx
	movb	$0, %al
	callq	fprintf
	xorl	%edi, %edi
	callq	exit
.LBB37_8:                               # %if.end20
                                        #   in Loop: Header=BB37_3 Depth=1
	movl	-28(%rbp), %eax
	movslq	-20(%rbp), %rcx
	imulq	$24, %rcx, %rcx
	movabsq	$spec_fd, %rdx
	addq	%rcx, %rdx
	addl	4(%rdx), %eax
	movl	%eax, 4(%rdx)
# %bb.9:                                # %for.inc
                                        #   in Loop: Header=BB37_3 Depth=1
	movl	-28(%rbp), %eax
	addl	-32(%rbp), %eax
	movl	%eax, -32(%rbp)
	jmp	.LBB37_3
.LBB37_10:                              # %for.end.loopexit
	jmp	.LBB37_11
.LBB37_11:                              # %for.end
	movl	-36(%rbp), %edi
	callq	close
.LBB37_12:                              # %while.cond
                                        # =>This Inner Loop Header: Depth=1
	movslq	-20(%rbp), %rax
	imulq	$24, %rax, %rax
	movabsq	$spec_fd, %rcx
	addq	%rax, %rcx
	movl	4(%rcx), %eax
	cmpl	-40(%rbp), %eax
	jge	.LBB37_18
# %bb.13:                               # %while.body
                                        #   in Loop: Header=BB37_12 Depth=1
	movl	-40(%rbp), %eax
	movslq	-20(%rbp), %rcx
	imulq	$24, %rcx, %rcx
	movabsq	$spec_fd, %rdx
	movq	%rdx, %rsi
	addq	%rcx, %rsi
	subl	4(%rsi), %eax
	movl	%eax, -24(%rbp)
	movl	-24(%rbp), %eax
	movslq	-20(%rbp), %rcx
	imulq	$24, %rcx, %rcx
	addq	%rcx, %rdx
	cmpl	4(%rdx), %eax
	jle	.LBB37_15
# %bb.14:                               # %if.then39
                                        #   in Loop: Header=BB37_12 Depth=1
	movslq	-20(%rbp), %rax
	imulq	$24, %rax, %rax
	movabsq	$spec_fd, %rcx
	addq	%rax, %rcx
	movl	4(%rcx), %eax
	movl	%eax, -24(%rbp)
.LBB37_15:                              # %if.end43
                                        #   in Loop: Header=BB37_12 Depth=1
	movl	$3, %eax
	cmpl	dbglvl, %eax
	jge	.LBB37_17
# %bb.16:                               # %if.then46
                                        #   in Loop: Header=BB37_12 Depth=1
	movl	-24(%rbp), %esi
	movabsq	$.L.str.7, %rdi
	movb	$0, %al
	callq	printf
.LBB37_17:                              # %if.end48
                                        #   in Loop: Header=BB37_12 Depth=1
	movslq	-20(%rbp), %rax
	imulq	$24, %rax, %rax
	movabsq	$spec_fd, %rbx
	movq	%rbx, %rcx
	addq	%rax, %rcx
	movq	16(%rcx), %rdi
	movslq	-20(%rbp), %rax
	imulq	$24, %rax, %rax
	movq	%rbx, %rcx
	addq	%rax, %rcx
	movslq	4(%rcx), %rax
	addq	%rax, %rdi
	movslq	-20(%rbp), %rax
	imulq	$24, %rax, %rax
	movq	%rbx, %rcx
	addq	%rax, %rcx
	movq	16(%rcx), %rsi
	movslq	-24(%rbp), %rdx
	callq	memcpy
	movl	-24(%rbp), %eax
	movslq	-20(%rbp), %rcx
	imulq	$24, %rcx, %rcx
	addq	%rcx, %rbx
	addl	4(%rbx), %eax
	movl	%eax, 4(%rbx)
	jmp	.LBB37_12
.LBB37_18:                              # %while.end
	cmpl	$1293838055, -52(%rbp)  # imm = 0x4D1E66E7
	jne	.LBB37_20
.LBB37_19:
	xorl	%eax, %eax
	addq	$48, %rsp
	popq	%rbx
	popq	%r14
	popq	%rbp
	.cfi_def_cfa %rsp, 8
	retq
.LBB37_20:                              # %func_exit
	.cfi_def_cfa %rbp, 16
	callq	detect_breach
	jmp	.LBB37_19
.Lfunc_end37:
	.size	spec_load.25, .Lfunc_end37-spec_load.25
	.cfi_endproc
                                        # -- End function
	.globl	spec_fwrite.26          # -- Begin function spec_fwrite.26
	.p2align	4, 0x90
	.type	spec_fwrite.26,@function
spec_fwrite.26:                         # @spec_fwrite.26
	.cfi_startproc
# %bb.0:                                # %entry
	pushq	%rbp
	.cfi_def_cfa_offset 16
	.cfi_offset %rbp, -16
	movq	%rsp, %rbp
	.cfi_def_cfa_register %rbp
	pushq	%rbx
	subq	$24, %rsp
	.cfi_offset %rbx, -24
	movl	$2100351328, -24(%rbp)  # imm = 0x7D30D160
	movq	%rdi, -32(%rbp)
	movl	%esi, -20(%rbp)
	movl	%edx, -16(%rbp)
	movl	%ecx, -12(%rbp)
	movl	$4, %eax
	cmpl	dbglvl, %eax
	jge	.LBB38_2
# %bb.1:                                # %if.then
	movq	-32(%rbp), %rsi
	movl	-20(%rbp), %edx
	movl	-16(%rbp), %ecx
	movl	-12(%rbp), %r8d
	movabsq	$.L.str.20, %rdi
	movb	$0, %al
	callq	printf
.LBB38_2:                               # %if.end
	cmpl	$3, -12(%rbp)
	jle	.LBB38_4
# %bb.3:                                # %if.then2
	movq	stderr, %rdi
	movl	-12(%rbp), %edx
	movabsq	$.L.str.21, %rsi
	movb	$0, %al
	callq	fprintf
	xorl	%edi, %edi
	callq	exit
.LBB38_4:                               # %if.end4
	movslq	-12(%rbp), %rax
	imulq	$24, %rax, %rax
	movabsq	$spec_fd, %rbx
	movq	%rbx, %rcx
	addq	%rax, %rcx
	movq	16(%rcx), %rdi
	movslq	-12(%rbp), %rax
	imulq	$24, %rax, %rax
	movq	%rbx, %rcx
	addq	%rax, %rcx
	movslq	8(%rcx), %rax
	addq	%rax, %rdi
	movq	-32(%rbp), %rsi
	movl	-20(%rbp), %eax
	imull	-16(%rbp), %eax
	movslq	%eax, %rdx
	callq	memcpy
	movl	-20(%rbp), %eax
	imull	-16(%rbp), %eax
	movslq	-12(%rbp), %rcx
	imulq	$24, %rcx, %rcx
	movq	%rbx, %rdx
	addq	%rcx, %rdx
	addl	4(%rdx), %eax
	movl	%eax, 4(%rdx)
	movl	-20(%rbp), %eax
	imull	-16(%rbp), %eax
	movslq	-12(%rbp), %rcx
	imulq	$24, %rcx, %rcx
	addq	%rcx, %rbx
	addl	8(%rbx), %eax
	movl	%eax, 8(%rbx)
	movl	$4, %eax
	cmpl	dbglvl, %eax
	jge	.LBB38_6
# %bb.5:                                # %if.then20
	movl	-16(%rbp), %esi
	movabsq	$.L.str.11, %rdi
	movb	$0, %al
	callq	printf
.LBB38_6:                               # %if.end22
	movl	-16(%rbp), %ebx
	cmpl	$2100351328, -24(%rbp)  # imm = 0x7D30D160
	jne	.LBB38_8
.LBB38_7:
	movl	%ebx, %eax
	addq	$24, %rsp
	popq	%rbx
	popq	%rbp
	.cfi_def_cfa %rsp, 8
	retq
.LBB38_8:                               # %func_exit
	.cfi_def_cfa %rbp, 16
	callq	detect_breach
	jmp	.LBB38_7
.Lfunc_end38:
	.size	spec_fwrite.26, .Lfunc_end38-spec_fwrite.26
	.cfi_endproc
                                        # -- End function
	.globl	spec_load.27            # -- Begin function spec_load.27
	.p2align	4, 0x90
	.type	spec_load.27,@function
spec_load.27:                           # @spec_load.27
	.cfi_startproc
# %bb.0:                                # %entry
	pushq	%rbp
	.cfi_def_cfa_offset 16
	.cfi_offset %rbp, -16
	movq	%rsp, %rbp
	.cfi_def_cfa_register %rbp
	pushq	%r14
	pushq	%rbx
	subq	$48, %rsp
	.cfi_offset %rbx, -32
	.cfi_offset %r14, -24
	movl	$1394876359, -52(%rbp)  # imm = 0x53241FC7
	movl	%edi, -20(%rbp)
	movq	%rsi, -48(%rbp)
	movl	%edx, -36(%rbp)
	movq	-48(%rbp), %rdi
	xorl	%esi, %esi
	movb	$0, %al
	callq	open
	movl	%eax, -40(%rbp)
	cmpl	$0, -40(%rbp)
	jge	.LBB39_2
# %bb.1:                                # %if.then
	movq	stderr, %rbx
	movq	-48(%rbp), %r14
	callq	__errno_location
	movl	(%rax), %edi
	callq	strerror
	movq	%rbx, %rdi
	movabsq	$.L.str.5, %rsi
	movq	%r14, %rdx
	movq	%rax, %rcx
	movb	$0, %al
	callq	fprintf
	xorl	%edi, %edi
	callq	exit
.LBB39_2:                               # %if.end
	movslq	-20(%rbp), %rax
	imulq	$24, %rax, %rax
	movabsq	$spec_fd, %rcx
	movq	%rcx, %rdx
	addq	%rax, %rdx
	movl	$0, 4(%rdx)
	movslq	-20(%rbp), %rax
	imulq	$24, %rax, %rax
	addq	%rax, %rcx
	movl	$0, 8(%rcx)
	movl	$0, -28(%rbp)
.LBB39_3:                               # %for.cond
                                        # =>This Inner Loop Header: Depth=1
	movl	-28(%rbp), %eax
	cmpl	-36(%rbp), %eax
	jge	.LBB39_10
# %bb.4:                                # %for.body
                                        #   in Loop: Header=BB39_3 Depth=1
	movl	-40(%rbp), %edi
	movslq	-20(%rbp), %rax
	imulq	$24, %rax, %rax
	movabsq	$spec_fd, %rcx
	addq	%rax, %rcx
	movq	16(%rcx), %rsi
	movslq	-28(%rbp), %rax
	addq	%rax, %rsi
	movl	$131072, %edx           # imm = 0x20000
	callq	read
	movl	%eax, -32(%rbp)
	cmpl	$0, -32(%rbp)
	jne	.LBB39_6
# %bb.5:                                # %if.then12
	jmp	.LBB39_11
.LBB39_6:                               # %if.end13
                                        #   in Loop: Header=BB39_3 Depth=1
	cmpl	$0, -32(%rbp)
	jge	.LBB39_8
# %bb.7:                                # %if.then16
	movq	stderr, %rbx
	movq	-48(%rbp), %r14
	callq	__errno_location
	movl	(%rax), %edi
	callq	strerror
	movq	%rbx, %rdi
	movabsq	$.L.str.6, %rsi
	movq	%r14, %rdx
	movq	%rax, %rcx
	movb	$0, %al
	callq	fprintf
	xorl	%edi, %edi
	callq	exit
.LBB39_8:                               # %if.end20
                                        #   in Loop: Header=BB39_3 Depth=1
	movl	-32(%rbp), %eax
	movslq	-20(%rbp), %rcx
	imulq	$24, %rcx, %rcx
	movabsq	$spec_fd, %rdx
	addq	%rcx, %rdx
	addl	4(%rdx), %eax
	movl	%eax, 4(%rdx)
# %bb.9:                                # %for.inc
                                        #   in Loop: Header=BB39_3 Depth=1
	movl	-32(%rbp), %eax
	addl	-28(%rbp), %eax
	movl	%eax, -28(%rbp)
	jmp	.LBB39_3
.LBB39_10:                              # %for.end.loopexit
	jmp	.LBB39_11
.LBB39_11:                              # %for.end
	movl	-40(%rbp), %edi
	callq	close
.LBB39_12:                              # %while.cond
                                        # =>This Inner Loop Header: Depth=1
	movslq	-20(%rbp), %rax
	imulq	$24, %rax, %rax
	movabsq	$spec_fd, %rcx
	addq	%rax, %rcx
	movl	4(%rcx), %eax
	cmpl	-36(%rbp), %eax
	jge	.LBB39_18
# %bb.13:                               # %while.body
                                        #   in Loop: Header=BB39_12 Depth=1
	movl	-36(%rbp), %eax
	movslq	-20(%rbp), %rcx
	imulq	$24, %rcx, %rcx
	movabsq	$spec_fd, %rdx
	movq	%rdx, %rsi
	addq	%rcx, %rsi
	subl	4(%rsi), %eax
	movl	%eax, -24(%rbp)
	movl	-24(%rbp), %eax
	movslq	-20(%rbp), %rcx
	imulq	$24, %rcx, %rcx
	addq	%rcx, %rdx
	cmpl	4(%rdx), %eax
	jle	.LBB39_15
# %bb.14:                               # %if.then39
                                        #   in Loop: Header=BB39_12 Depth=1
	movslq	-20(%rbp), %rax
	imulq	$24, %rax, %rax
	movabsq	$spec_fd, %rcx
	addq	%rax, %rcx
	movl	4(%rcx), %eax
	movl	%eax, -24(%rbp)
.LBB39_15:                              # %if.end43
                                        #   in Loop: Header=BB39_12 Depth=1
	movl	$3, %eax
	cmpl	dbglvl, %eax
	jge	.LBB39_17
# %bb.16:                               # %if.then46
                                        #   in Loop: Header=BB39_12 Depth=1
	movl	-24(%rbp), %esi
	movabsq	$.L.str.7, %rdi
	movb	$0, %al
	callq	printf
.LBB39_17:                              # %if.end48
                                        #   in Loop: Header=BB39_12 Depth=1
	movslq	-20(%rbp), %rax
	imulq	$24, %rax, %rax
	movabsq	$spec_fd, %rbx
	movq	%rbx, %rcx
	addq	%rax, %rcx
	movq	16(%rcx), %rdi
	movslq	-20(%rbp), %rax
	imulq	$24, %rax, %rax
	movq	%rbx, %rcx
	addq	%rax, %rcx
	movslq	4(%rcx), %rax
	addq	%rax, %rdi
	movslq	-20(%rbp), %rax
	imulq	$24, %rax, %rax
	movq	%rbx, %rcx
	addq	%rax, %rcx
	movq	16(%rcx), %rsi
	movslq	-24(%rbp), %rdx
	callq	memcpy
	movl	-24(%rbp), %eax
	movslq	-20(%rbp), %rcx
	imulq	$24, %rcx, %rcx
	addq	%rcx, %rbx
	addl	4(%rbx), %eax
	movl	%eax, 4(%rbx)
	jmp	.LBB39_12
.LBB39_18:                              # %while.end
	cmpl	$1394876359, -52(%rbp)  # imm = 0x53241FC7
	jne	.LBB39_20
.LBB39_19:
	xorl	%eax, %eax
	addq	$48, %rsp
	popq	%rbx
	popq	%r14
	popq	%rbp
	.cfi_def_cfa %rsp, 8
	retq
.LBB39_20:                              # %func_exit
	.cfi_def_cfa %rbp, 16
	callq	detect_breach
	jmp	.LBB39_19
.Lfunc_end39:
	.size	spec_load.27, .Lfunc_end39-spec_load.27
	.cfi_endproc
                                        # -- End function
	.section	.rodata.cst8,"aM",@progbits,8
	.p2align	3               # -- Begin function spec_random_load.28
.LCPI40_0:
	.quad	4629700416936869888     # double 32
.LCPI40_1:
	.quad	4643211215818981376     # double 256
	.text
	.globl	spec_random_load.28
	.p2align	4, 0x90
	.type	spec_random_load.28,@function
spec_random_load.28:                    # @spec_random_load.28
	.cfi_startproc
# %bb.0:                                # %entry
	pushq	%rbp
	.cfi_def_cfa_offset 16
	.cfi_offset %rbp, -16
	movq	%rsp, %rbp
	.cfi_def_cfa_register %rbp
	pushq	%rbx
	subq	$4194328, %rsp          # imm = 0x400018
	.cfi_offset %rbx, -24
	movl	$441773566, -24(%rbp)   # imm = 0x1A54EDFE
	movl	%edi, -20(%rbp)
	movl	$4, %eax
	cmpl	dbglvl, %eax
	jge	.LBB40_2
# %bb.1:                                # %if.then
	movabsq	$.L.str.2, %rdi
	movb	$0, %al
	callq	printf
.LBB40_2:                               # %if.end
	movl	$0, -12(%rbp)
.LBB40_3:                               # %for.cond
                                        # =>This Loop Header: Depth=1
                                        #     Child Loop BB40_7 Depth 2
	cmpl	$32, -12(%rbp)
	jge	.LBB40_12
# %bb.4:                                # %for.body
                                        #   in Loop: Header=BB40_3 Depth=1
	movl	$5, %eax
	cmpl	dbglvl, %eax
	jge	.LBB40_6
# %bb.5:                                # %if.then3
                                        #   in Loop: Header=BB40_3 Depth=1
	movl	-12(%rbp), %esi
	movabsq	$.L.str.3, %rdi
	movb	$0, %al
	callq	printf
.LBB40_6:                               # %if.end5
                                        #   in Loop: Header=BB40_3 Depth=1
	movl	$0, -16(%rbp)
.LBB40_7:                               # %for.cond6
                                        #   Parent Loop BB40_3 Depth=1
                                        # =>  This Inner Loop Header: Depth=2
	cmpl	$131072, -16(%rbp)      # imm = 0x20000
	jge	.LBB40_10
# %bb.8:                                # %for.body8
                                        #   in Loop: Header=BB40_7 Depth=2
	callq	ran
	vmovsd	.LCPI40_1(%rip), %xmm1  # xmm1 = mem[0],zero
	vmulsd	%xmm1, %xmm0, %xmm0
	vcvttsd2si	%xmm0, %eax
	movslq	-12(%rbp), %rcx
	shlq	$17, %rcx
	leaq	-4194336(%rbp), %rdx
	addq	%rcx, %rdx
	movslq	-16(%rbp), %rcx
	movb	%al, (%rdx,%rcx)
# %bb.9:                                # %for.inc
                                        #   in Loop: Header=BB40_7 Depth=2
	movl	-16(%rbp), %eax
	addl	$1, %eax
	movl	%eax, -16(%rbp)
	jmp	.LBB40_7
.LBB40_10:                              # %for.end
                                        #   in Loop: Header=BB40_3 Depth=1
	jmp	.LBB40_11
.LBB40_11:                              # %for.inc13
                                        #   in Loop: Header=BB40_3 Depth=1
	movl	-12(%rbp), %eax
	addl	$1, %eax
	movl	%eax, -12(%rbp)
	jmp	.LBB40_3
.LBB40_12:                              # %for.end15
	movl	$4, %eax
	cmpl	dbglvl, %eax
	jge	.LBB40_14
# %bb.13:                               # %if.then18
	movabsq	$.L.str.4, %rdi
	movb	$0, %al
	callq	printf
.LBB40_14:                              # %if.end20
	movl	$0, -12(%rbp)
.LBB40_15:                              # %for.cond21
                                        # =>This Inner Loop Header: Depth=1
	movl	-12(%rbp), %eax
	movslq	-20(%rbp), %rcx
	imulq	$24, %rcx, %rcx
	movabsq	$spec_fd, %rdx
	addq	%rcx, %rdx
	cmpl	(%rdx), %eax
	jge	.LBB40_18
# %bb.16:                               # %for.body26
                                        #   in Loop: Header=BB40_15 Depth=1
	movslq	-20(%rbp), %rax
	imulq	$24, %rax, %rax
	movabsq	$spec_fd, %rcx
	addq	%rax, %rcx
	movq	16(%rcx), %rbx
	movslq	-12(%rbp), %rax
	addq	%rax, %rbx
	callq	ran
	vmovsd	.LCPI40_0(%rip), %xmm1  # xmm1 = mem[0],zero
	vmulsd	%xmm1, %xmm0, %xmm0
	vcvttsd2si	%xmm0, %eax
	cltq
	shlq	$17, %rax
	leaq	-4194336(%rbp), %rsi
	addq	%rax, %rsi
	movq	%rbx, %rdi
	movl	$131072, %edx           # imm = 0x20000
	callq	memcpy
# %bb.17:                               # %for.inc34
                                        #   in Loop: Header=BB40_15 Depth=1
	movl	-12(%rbp), %eax
	addl	$131072, %eax           # imm = 0x20000
	movl	%eax, -12(%rbp)
	jmp	.LBB40_15
.LBB40_18:                              # %for.end35
	movslq	-20(%rbp), %rax
	imulq	$24, %rax, %rax
	movabsq	$spec_fd, %rcx
	addq	%rax, %rcx
	movl	$1048576, 4(%rcx)       # imm = 0x100000
	cmpl	$441773566, -24(%rbp)   # imm = 0x1A54EDFE
	jne	.LBB40_20
.LBB40_19:
	xorl	%eax, %eax
	addq	$4194328, %rsp          # imm = 0x400018
	popq	%rbx
	popq	%rbp
	.cfi_def_cfa %rsp, 8
	retq
.LBB40_20:                              # %func_exit
	.cfi_def_cfa %rbp, 16
	callq	detect_breach
	jmp	.LBB40_19
.Lfunc_end40:
	.size	spec_random_load.28, .Lfunc_end40-spec_random_load.28
	.cfi_endproc
                                        # -- End function
	.globl	spec_init.29            # -- Begin function spec_init.29
	.p2align	4, 0x90
	.type	spec_init.29,@function
spec_init.29:                           # @spec_init.29
	.cfi_startproc
# %bb.0:                                # %entry
	pushq	%rbp
	.cfi_def_cfa_offset 16
	.cfi_offset %rbp, -16
	movq	%rsp, %rbp
	.cfi_def_cfa_register %rbp
	pushq	%rbx
	subq	$24, %rsp
	.cfi_offset %rbx, -24
	movl	$1868337585, -24(%rbp)  # imm = 0x6F5C91B1
	movl	$3, %eax
	cmpl	dbglvl, %eax
	jge	.LBB41_2
# %bb.1:                                # %if.then
	movabsq	$.L.str, %rdi
	movb	$0, %al
	callq	printf
.LBB41_2:                               # %if.end
	movl	$0, -12(%rbp)
.LBB41_3:                               # %for.cond
                                        # =>This Loop Header: Depth=1
                                        #     Child Loop BB41_7 Depth 2
	cmpl	$3, -12(%rbp)
	jge	.LBB41_12
# %bb.4:                                # %for.body
                                        #   in Loop: Header=BB41_3 Depth=1
	movslq	-12(%rbp), %rax
	imulq	$24, %rax, %rax
	movabsq	$spec_fd, %rbx
	movq	%rbx, %rcx
	addq	%rax, %rcx
	movl	(%rcx), %eax
	movl	%eax, -20(%rbp)
	movslq	-12(%rbp), %rax
	imulq	$24, %rax, %rax
	movq	%rbx, %rdi
	addq	%rax, %rdi
	xorl	%esi, %esi
	movl	$24, %edx
	callq	memset
	movl	-20(%rbp), %eax
	movslq	-12(%rbp), %rcx
	imulq	$24, %rcx, %rcx
	addq	%rcx, %rbx
	movl	%eax, (%rbx)
	movl	-20(%rbp), %eax
	addl	$1048576, %eax          # imm = 0x100000
	movslq	%eax, %rdi
	callq	malloc
	movslq	-12(%rbp), %rcx
	imulq	$24, %rcx, %rcx
	movabsq	$spec_fd, %rdx
	movq	%rdx, %rsi
	addq	%rcx, %rsi
	movq	%rax, 16(%rsi)
	movslq	-12(%rbp), %rax
	imulq	$24, %rax, %rax
	addq	%rax, %rdx
	cmpq	$0, 16(%rdx)
	jne	.LBB41_6
# %bb.5:                                # %if.then16
	movabsq	$.L.str.1, %rdi
	movb	$0, %al
	callq	printf
	xorl	%edi, %edi
	callq	exit
.LBB41_6:                               # %if.end18
                                        #   in Loop: Header=BB41_3 Depth=1
	movl	$0, -16(%rbp)
.LBB41_7:                               # %for.cond19
                                        #   Parent Loop BB41_3 Depth=1
                                        # =>  This Inner Loop Header: Depth=2
	movl	-16(%rbp), %eax
	cmpl	-20(%rbp), %eax
	jge	.LBB41_10
# %bb.8:                                # %for.body22
                                        #   in Loop: Header=BB41_7 Depth=2
	movslq	-12(%rbp), %rax
	imulq	$24, %rax, %rax
	movabsq	$spec_fd, %rcx
	addq	%rax, %rcx
	movq	16(%rcx), %rax
	movslq	-16(%rbp), %rcx
	movb	$0, (%rax,%rcx)
# %bb.9:                                # %for.inc
                                        #   in Loop: Header=BB41_7 Depth=2
	movl	-16(%rbp), %eax
	addl	$1024, %eax             # imm = 0x400
	movl	%eax, -16(%rbp)
	jmp	.LBB41_7
.LBB41_10:                              # %for.end
                                        #   in Loop: Header=BB41_3 Depth=1
	jmp	.LBB41_11
.LBB41_11:                              # %for.inc29
                                        #   in Loop: Header=BB41_3 Depth=1
	movl	-12(%rbp), %eax
	addl	$1, %eax
	movl	%eax, -12(%rbp)
	jmp	.LBB41_3
.LBB41_12:                              # %for.end30
	cmpl	$1868337585, -24(%rbp)  # imm = 0x6F5C91B1
	jne	.LBB41_14
.LBB41_13:
	xorl	%eax, %eax
	addq	$24, %rsp
	popq	%rbx
	popq	%rbp
	.cfi_def_cfa %rsp, 8
	retq
.LBB41_14:                              # %func_exit
	.cfi_def_cfa %rbp, 16
	callq	detect_breach
	jmp	.LBB41_13
.Lfunc_end41:
	.size	spec_init.29, .Lfunc_end41-spec_init.29
	.cfi_endproc
                                        # -- End function
	.globl	spec_putc.30            # -- Begin function spec_putc.30
	.p2align	4, 0x90
	.type	spec_putc.30,@function
spec_putc.30:                           # @spec_putc.30
	.cfi_startproc
# %bb.0:                                # %entry
	pushq	%rbp
	.cfi_def_cfa_offset 16
	.cfi_offset %rbp, -16
	movq	%rsp, %rbp
	.cfi_def_cfa_register %rbp
	pushq	%rbx
	subq	$24, %rsp
	.cfi_offset %rbx, -24
	movl	$1052495361, -20(%rbp)  # imm = 0x3EBBCE01
	movb	%dil, -9(%rbp)
	movl	%esi, -16(%rbp)
	movl	$4, %eax
	cmpl	dbglvl, %eax
	jge	.LBB42_2
# %bb.1:                                # %if.then
	movzbl	-9(%rbp), %esi
	movl	-16(%rbp), %edx
	movabsq	$.L.str.22, %rdi
	movb	$0, %al
	callq	printf
.LBB42_2:                               # %if.end
	cmpl	$3, -16(%rbp)
	jle	.LBB42_4
# %bb.3:                                # %if.then3
	movq	stderr, %rdi
	movl	-16(%rbp), %edx
	movabsq	$.L.str.19, %rsi
	movb	$0, %al
	callq	fprintf
	xorl	%edi, %edi
	callq	exit
.LBB42_4:                               # %if.end5
	movb	-9(%rbp), %al
	movslq	-16(%rbp), %rcx
	imulq	$24, %rcx, %rcx
	movabsq	$spec_fd, %rdx
	movq	%rdx, %rsi
	addq	%rcx, %rsi
	movq	16(%rsi), %rcx
	movslq	-16(%rbp), %rsi
	imulq	$24, %rsi, %rsi
	movq	%rdx, %rdi
	addq	%rsi, %rdi
	movl	8(%rdi), %ebx
	movl	%ebx, %esi
	addl	$1, %esi
	movl	%esi, 8(%rdi)
	movslq	%ebx, %rsi
	movb	%al, (%rcx,%rsi)
	movslq	-16(%rbp), %rax
	imulq	$24, %rax, %rax
	addq	%rax, %rdx
	movl	4(%rdx), %eax
	addl	$1, %eax
	movl	%eax, 4(%rdx)
	movzbl	-9(%rbp), %ebx
	cmpl	$1052495361, -20(%rbp)  # imm = 0x3EBBCE01
	jne	.LBB42_6
.LBB42_5:
	movl	%ebx, %eax
	addq	$24, %rsp
	popq	%rbx
	popq	%rbp
	.cfi_def_cfa %rsp, 8
	retq
.LBB42_6:                               # %func_exit
	.cfi_def_cfa %rbp, 16
	callq	detect_breach
	jmp	.LBB42_5
.Lfunc_end42:
	.size	spec_putc.30, .Lfunc_end42-spec_putc.30
	.cfi_endproc
                                        # -- End function
	.globl	spec_load.31            # -- Begin function spec_load.31
	.p2align	4, 0x90
	.type	spec_load.31,@function
spec_load.31:                           # @spec_load.31
	.cfi_startproc
# %bb.0:                                # %entry
	pushq	%rbp
	.cfi_def_cfa_offset 16
	.cfi_offset %rbp, -16
	movq	%rsp, %rbp
	.cfi_def_cfa_register %rbp
	pushq	%r14
	pushq	%rbx
	subq	$48, %rsp
	.cfi_offset %rbx, -32
	.cfi_offset %r14, -24
	movl	$441297757, -52(%rbp)   # imm = 0x1A4DAB5D
	movl	%edi, -20(%rbp)
	movq	%rsi, -48(%rbp)
	movl	%edx, -36(%rbp)
	movq	-48(%rbp), %rdi
	xorl	%esi, %esi
	movb	$0, %al
	callq	open
	movl	%eax, -40(%rbp)
	cmpl	$0, -40(%rbp)
	jge	.LBB43_2
# %bb.1:                                # %if.then
	movq	stderr, %rbx
	movq	-48(%rbp), %r14
	callq	__errno_location
	movl	(%rax), %edi
	callq	strerror
	movq	%rbx, %rdi
	movabsq	$.L.str.5, %rsi
	movq	%r14, %rdx
	movq	%rax, %rcx
	movb	$0, %al
	callq	fprintf
	xorl	%edi, %edi
	callq	exit
.LBB43_2:                               # %if.end
	movslq	-20(%rbp), %rax
	imulq	$24, %rax, %rax
	movabsq	$spec_fd, %rcx
	movq	%rcx, %rdx
	addq	%rax, %rdx
	movl	$0, 4(%rdx)
	movslq	-20(%rbp), %rax
	imulq	$24, %rax, %rax
	addq	%rax, %rcx
	movl	$0, 8(%rcx)
	movl	$0, -28(%rbp)
.LBB43_3:                               # %for.cond
                                        # =>This Inner Loop Header: Depth=1
	movl	-28(%rbp), %eax
	cmpl	-36(%rbp), %eax
	jge	.LBB43_10
# %bb.4:                                # %for.body
                                        #   in Loop: Header=BB43_3 Depth=1
	movl	-40(%rbp), %edi
	movslq	-20(%rbp), %rax
	imulq	$24, %rax, %rax
	movabsq	$spec_fd, %rcx
	addq	%rax, %rcx
	movq	16(%rcx), %rsi
	movslq	-28(%rbp), %rax
	addq	%rax, %rsi
	movl	$131072, %edx           # imm = 0x20000
	callq	read
	movl	%eax, -32(%rbp)
	cmpl	$0, -32(%rbp)
	jne	.LBB43_6
# %bb.5:                                # %if.then12
	jmp	.LBB43_11
.LBB43_6:                               # %if.end13
                                        #   in Loop: Header=BB43_3 Depth=1
	cmpl	$0, -32(%rbp)
	jge	.LBB43_8
# %bb.7:                                # %if.then16
	movq	stderr, %rbx
	movq	-48(%rbp), %r14
	callq	__errno_location
	movl	(%rax), %edi
	callq	strerror
	movq	%rbx, %rdi
	movabsq	$.L.str.6, %rsi
	movq	%r14, %rdx
	movq	%rax, %rcx
	movb	$0, %al
	callq	fprintf
	xorl	%edi, %edi
	callq	exit
.LBB43_8:                               # %if.end20
                                        #   in Loop: Header=BB43_3 Depth=1
	movl	-32(%rbp), %eax
	movslq	-20(%rbp), %rcx
	imulq	$24, %rcx, %rcx
	movabsq	$spec_fd, %rdx
	addq	%rcx, %rdx
	addl	4(%rdx), %eax
	movl	%eax, 4(%rdx)
# %bb.9:                                # %for.inc
                                        #   in Loop: Header=BB43_3 Depth=1
	movl	-32(%rbp), %eax
	addl	-28(%rbp), %eax
	movl	%eax, -28(%rbp)
	jmp	.LBB43_3
.LBB43_10:                              # %for.end.loopexit
	jmp	.LBB43_11
.LBB43_11:                              # %for.end
	movl	-40(%rbp), %edi
	callq	close
.LBB43_12:                              # %while.cond
                                        # =>This Inner Loop Header: Depth=1
	movslq	-20(%rbp), %rax
	imulq	$24, %rax, %rax
	movabsq	$spec_fd, %rcx
	addq	%rax, %rcx
	movl	4(%rcx), %eax
	cmpl	-36(%rbp), %eax
	jge	.LBB43_18
# %bb.13:                               # %while.body
                                        #   in Loop: Header=BB43_12 Depth=1
	movl	-36(%rbp), %eax
	movslq	-20(%rbp), %rcx
	imulq	$24, %rcx, %rcx
	movabsq	$spec_fd, %rdx
	movq	%rdx, %rsi
	addq	%rcx, %rsi
	subl	4(%rsi), %eax
	movl	%eax, -24(%rbp)
	movl	-24(%rbp), %eax
	movslq	-20(%rbp), %rcx
	imulq	$24, %rcx, %rcx
	addq	%rcx, %rdx
	cmpl	4(%rdx), %eax
	jle	.LBB43_15
# %bb.14:                               # %if.then39
                                        #   in Loop: Header=BB43_12 Depth=1
	movslq	-20(%rbp), %rax
	imulq	$24, %rax, %rax
	movabsq	$spec_fd, %rcx
	addq	%rax, %rcx
	movl	4(%rcx), %eax
	movl	%eax, -24(%rbp)
.LBB43_15:                              # %if.end43
                                        #   in Loop: Header=BB43_12 Depth=1
	movl	$3, %eax
	cmpl	dbglvl, %eax
	jge	.LBB43_17
# %bb.16:                               # %if.then46
                                        #   in Loop: Header=BB43_12 Depth=1
	movl	-24(%rbp), %esi
	movabsq	$.L.str.7, %rdi
	movb	$0, %al
	callq	printf
.LBB43_17:                              # %if.end48
                                        #   in Loop: Header=BB43_12 Depth=1
	movslq	-20(%rbp), %rax
	imulq	$24, %rax, %rax
	movabsq	$spec_fd, %rbx
	movq	%rbx, %rcx
	addq	%rax, %rcx
	movq	16(%rcx), %rdi
	movslq	-20(%rbp), %rax
	imulq	$24, %rax, %rax
	movq	%rbx, %rcx
	addq	%rax, %rcx
	movslq	4(%rcx), %rax
	addq	%rax, %rdi
	movslq	-20(%rbp), %rax
	imulq	$24, %rax, %rax
	movq	%rbx, %rcx
	addq	%rax, %rcx
	movq	16(%rcx), %rsi
	movslq	-24(%rbp), %rdx
	callq	memcpy
	movl	-24(%rbp), %eax
	movslq	-20(%rbp), %rcx
	imulq	$24, %rcx, %rcx
	addq	%rcx, %rbx
	addl	4(%rbx), %eax
	movl	%eax, 4(%rbx)
	jmp	.LBB43_12
.LBB43_18:                              # %while.end
	cmpl	$441297757, -52(%rbp)   # imm = 0x1A4DAB5D
	jne	.LBB43_20
.LBB43_19:
	xorl	%eax, %eax
	addq	$48, %rsp
	popq	%rbx
	popq	%r14
	popq	%rbp
	.cfi_def_cfa %rsp, 8
	retq
.LBB43_20:                              # %func_exit
	.cfi_def_cfa %rbp, 16
	callq	detect_breach
	jmp	.LBB43_19
.Lfunc_end43:
	.size	spec_load.31, .Lfunc_end43-spec_load.31
	.cfi_endproc
                                        # -- End function
	.globl	spec_load.32            # -- Begin function spec_load.32
	.p2align	4, 0x90
	.type	spec_load.32,@function
spec_load.32:                           # @spec_load.32
	.cfi_startproc
# %bb.0:                                # %entry
	pushq	%rbp
	.cfi_def_cfa_offset 16
	.cfi_offset %rbp, -16
	movq	%rsp, %rbp
	.cfi_def_cfa_register %rbp
	pushq	%r14
	pushq	%rbx
	subq	$48, %rsp
	.cfi_offset %rbx, -32
	.cfi_offset %r14, -24
	movl	$1405313989, -52(%rbp)  # imm = 0x53C363C5
	movl	%edi, -20(%rbp)
	movq	%rsi, -48(%rbp)
	movl	%edx, -36(%rbp)
	movq	-48(%rbp), %rdi
	xorl	%esi, %esi
	movb	$0, %al
	callq	open
	movl	%eax, -40(%rbp)
	cmpl	$0, -40(%rbp)
	jge	.LBB44_2
# %bb.1:                                # %if.then
	movq	stderr, %rbx
	movq	-48(%rbp), %r14
	callq	__errno_location
	movl	(%rax), %edi
	callq	strerror
	movq	%rbx, %rdi
	movabsq	$.L.str.5, %rsi
	movq	%r14, %rdx
	movq	%rax, %rcx
	movb	$0, %al
	callq	fprintf
	xorl	%edi, %edi
	callq	exit
.LBB44_2:                               # %if.end
	movslq	-20(%rbp), %rax
	imulq	$24, %rax, %rax
	movabsq	$spec_fd, %rcx
	movq	%rcx, %rdx
	addq	%rax, %rdx
	movl	$0, 4(%rdx)
	movslq	-20(%rbp), %rax
	imulq	$24, %rax, %rax
	addq	%rax, %rcx
	movl	$0, 8(%rcx)
	movl	$0, -32(%rbp)
.LBB44_3:                               # %for.cond
                                        # =>This Inner Loop Header: Depth=1
	movl	-32(%rbp), %eax
	cmpl	-36(%rbp), %eax
	jge	.LBB44_10
# %bb.4:                                # %for.body
                                        #   in Loop: Header=BB44_3 Depth=1
	movl	-40(%rbp), %edi
	movslq	-20(%rbp), %rax
	imulq	$24, %rax, %rax
	movabsq	$spec_fd, %rcx
	addq	%rax, %rcx
	movq	16(%rcx), %rsi
	movslq	-32(%rbp), %rax
	addq	%rax, %rsi
	movl	$131072, %edx           # imm = 0x20000
	callq	read
	movl	%eax, -28(%rbp)
	cmpl	$0, -28(%rbp)
	jne	.LBB44_6
# %bb.5:                                # %if.then12
	jmp	.LBB44_11
.LBB44_6:                               # %if.end13
                                        #   in Loop: Header=BB44_3 Depth=1
	cmpl	$0, -28(%rbp)
	jge	.LBB44_8
# %bb.7:                                # %if.then16
	movq	stderr, %rbx
	movq	-48(%rbp), %r14
	callq	__errno_location
	movl	(%rax), %edi
	callq	strerror
	movq	%rbx, %rdi
	movabsq	$.L.str.6, %rsi
	movq	%r14, %rdx
	movq	%rax, %rcx
	movb	$0, %al
	callq	fprintf
	xorl	%edi, %edi
	callq	exit
.LBB44_8:                               # %if.end20
                                        #   in Loop: Header=BB44_3 Depth=1
	movl	-28(%rbp), %eax
	movslq	-20(%rbp), %rcx
	imulq	$24, %rcx, %rcx
	movabsq	$spec_fd, %rdx
	addq	%rcx, %rdx
	addl	4(%rdx), %eax
	movl	%eax, 4(%rdx)
# %bb.9:                                # %for.inc
                                        #   in Loop: Header=BB44_3 Depth=1
	movl	-28(%rbp), %eax
	addl	-32(%rbp), %eax
	movl	%eax, -32(%rbp)
	jmp	.LBB44_3
.LBB44_10:                              # %for.end.loopexit
	jmp	.LBB44_11
.LBB44_11:                              # %for.end
	movl	-40(%rbp), %edi
	callq	close
.LBB44_12:                              # %while.cond
                                        # =>This Inner Loop Header: Depth=1
	movslq	-20(%rbp), %rax
	imulq	$24, %rax, %rax
	movabsq	$spec_fd, %rcx
	addq	%rax, %rcx
	movl	4(%rcx), %eax
	cmpl	-36(%rbp), %eax
	jge	.LBB44_18
# %bb.13:                               # %while.body
                                        #   in Loop: Header=BB44_12 Depth=1
	movl	-36(%rbp), %eax
	movslq	-20(%rbp), %rcx
	imulq	$24, %rcx, %rcx
	movabsq	$spec_fd, %rdx
	movq	%rdx, %rsi
	addq	%rcx, %rsi
	subl	4(%rsi), %eax
	movl	%eax, -24(%rbp)
	movl	-24(%rbp), %eax
	movslq	-20(%rbp), %rcx
	imulq	$24, %rcx, %rcx
	addq	%rcx, %rdx
	cmpl	4(%rdx), %eax
	jle	.LBB44_15
# %bb.14:                               # %if.then39
                                        #   in Loop: Header=BB44_12 Depth=1
	movslq	-20(%rbp), %rax
	imulq	$24, %rax, %rax
	movabsq	$spec_fd, %rcx
	addq	%rax, %rcx
	movl	4(%rcx), %eax
	movl	%eax, -24(%rbp)
.LBB44_15:                              # %if.end43
                                        #   in Loop: Header=BB44_12 Depth=1
	movl	$3, %eax
	cmpl	dbglvl, %eax
	jge	.LBB44_17
# %bb.16:                               # %if.then46
                                        #   in Loop: Header=BB44_12 Depth=1
	movl	-24(%rbp), %esi
	movabsq	$.L.str.7, %rdi
	movb	$0, %al
	callq	printf
.LBB44_17:                              # %if.end48
                                        #   in Loop: Header=BB44_12 Depth=1
	movslq	-20(%rbp), %rax
	imulq	$24, %rax, %rax
	movabsq	$spec_fd, %rbx
	movq	%rbx, %rcx
	addq	%rax, %rcx
	movq	16(%rcx), %rdi
	movslq	-20(%rbp), %rax
	imulq	$24, %rax, %rax
	movq	%rbx, %rcx
	addq	%rax, %rcx
	movslq	4(%rcx), %rax
	addq	%rax, %rdi
	movslq	-20(%rbp), %rax
	imulq	$24, %rax, %rax
	movq	%rbx, %rcx
	addq	%rax, %rcx
	movq	16(%rcx), %rsi
	movslq	-24(%rbp), %rdx
	callq	memcpy
	movl	-24(%rbp), %eax
	movslq	-20(%rbp), %rcx
	imulq	$24, %rcx, %rcx
	addq	%rcx, %rbx
	addl	4(%rbx), %eax
	movl	%eax, 4(%rbx)
	jmp	.LBB44_12
.LBB44_18:                              # %while.end
	cmpl	$1405313989, -52(%rbp)  # imm = 0x53C363C5
	jne	.LBB44_20
.LBB44_19:
	xorl	%eax, %eax
	addq	$48, %rsp
	popq	%rbx
	popq	%r14
	popq	%rbp
	.cfi_def_cfa %rsp, 8
	retq
.LBB44_20:                              # %func_exit
	.cfi_def_cfa %rbp, 16
	callq	detect_breach
	jmp	.LBB44_19
.Lfunc_end44:
	.size	spec_load.32, .Lfunc_end44-spec_load.32
	.cfi_endproc
                                        # -- End function
	.globl	spec_load.33            # -- Begin function spec_load.33
	.p2align	4, 0x90
	.type	spec_load.33,@function
spec_load.33:                           # @spec_load.33
	.cfi_startproc
# %bb.0:                                # %entry
	pushq	%rbp
	.cfi_def_cfa_offset 16
	.cfi_offset %rbp, -16
	movq	%rsp, %rbp
	.cfi_def_cfa_register %rbp
	pushq	%r14
	pushq	%rbx
	subq	$48, %rsp
	.cfi_offset %rbx, -32
	.cfi_offset %r14, -24
	movl	$1293959120, -52(%rbp)  # imm = 0x4D203FD0
	movl	%edi, -20(%rbp)
	movq	%rsi, -48(%rbp)
	movl	%edx, -36(%rbp)
	movq	-48(%rbp), %rdi
	xorl	%esi, %esi
	movb	$0, %al
	callq	open
	movl	%eax, -40(%rbp)
	cmpl	$0, -40(%rbp)
	jge	.LBB45_2
# %bb.1:                                # %if.then
	movq	stderr, %rbx
	movq	-48(%rbp), %r14
	callq	__errno_location
	movl	(%rax), %edi
	callq	strerror
	movq	%rbx, %rdi
	movabsq	$.L.str.5, %rsi
	movq	%r14, %rdx
	movq	%rax, %rcx
	movb	$0, %al
	callq	fprintf
	xorl	%edi, %edi
	callq	exit
.LBB45_2:                               # %if.end
	movslq	-20(%rbp), %rax
	imulq	$24, %rax, %rax
	movabsq	$spec_fd, %rcx
	movq	%rcx, %rdx
	addq	%rax, %rdx
	movl	$0, 4(%rdx)
	movslq	-20(%rbp), %rax
	imulq	$24, %rax, %rax
	addq	%rax, %rcx
	movl	$0, 8(%rcx)
	movl	$0, -32(%rbp)
.LBB45_3:                               # %for.cond
                                        # =>This Inner Loop Header: Depth=1
	movl	-32(%rbp), %eax
	cmpl	-36(%rbp), %eax
	jge	.LBB45_10
# %bb.4:                                # %for.body
                                        #   in Loop: Header=BB45_3 Depth=1
	movl	-40(%rbp), %edi
	movslq	-20(%rbp), %rax
	imulq	$24, %rax, %rax
	movabsq	$spec_fd, %rcx
	addq	%rax, %rcx
	movq	16(%rcx), %rsi
	movslq	-32(%rbp), %rax
	addq	%rax, %rsi
	movl	$131072, %edx           # imm = 0x20000
	callq	read
	movl	%eax, -28(%rbp)
	cmpl	$0, -28(%rbp)
	jne	.LBB45_6
# %bb.5:                                # %if.then12
	jmp	.LBB45_11
.LBB45_6:                               # %if.end13
                                        #   in Loop: Header=BB45_3 Depth=1
	cmpl	$0, -28(%rbp)
	jge	.LBB45_8
# %bb.7:                                # %if.then16
	movq	stderr, %rbx
	movq	-48(%rbp), %r14
	callq	__errno_location
	movl	(%rax), %edi
	callq	strerror
	movq	%rbx, %rdi
	movabsq	$.L.str.6, %rsi
	movq	%r14, %rdx
	movq	%rax, %rcx
	movb	$0, %al
	callq	fprintf
	xorl	%edi, %edi
	callq	exit
.LBB45_8:                               # %if.end20
                                        #   in Loop: Header=BB45_3 Depth=1
	movl	-28(%rbp), %eax
	movslq	-20(%rbp), %rcx
	imulq	$24, %rcx, %rcx
	movabsq	$spec_fd, %rdx
	addq	%rcx, %rdx
	addl	4(%rdx), %eax
	movl	%eax, 4(%rdx)
# %bb.9:                                # %for.inc
                                        #   in Loop: Header=BB45_3 Depth=1
	movl	-28(%rbp), %eax
	addl	-32(%rbp), %eax
	movl	%eax, -32(%rbp)
	jmp	.LBB45_3
.LBB45_10:                              # %for.end.loopexit
	jmp	.LBB45_11
.LBB45_11:                              # %for.end
	movl	-40(%rbp), %edi
	callq	close
.LBB45_12:                              # %while.cond
                                        # =>This Inner Loop Header: Depth=1
	movslq	-20(%rbp), %rax
	imulq	$24, %rax, %rax
	movabsq	$spec_fd, %rcx
	addq	%rax, %rcx
	movl	4(%rcx), %eax
	cmpl	-36(%rbp), %eax
	jge	.LBB45_18
# %bb.13:                               # %while.body
                                        #   in Loop: Header=BB45_12 Depth=1
	movl	-36(%rbp), %eax
	movslq	-20(%rbp), %rcx
	imulq	$24, %rcx, %rcx
	movabsq	$spec_fd, %rdx
	movq	%rdx, %rsi
	addq	%rcx, %rsi
	subl	4(%rsi), %eax
	movl	%eax, -24(%rbp)
	movl	-24(%rbp), %eax
	movslq	-20(%rbp), %rcx
	imulq	$24, %rcx, %rcx
	addq	%rcx, %rdx
	cmpl	4(%rdx), %eax
	jle	.LBB45_15
# %bb.14:                               # %if.then39
                                        #   in Loop: Header=BB45_12 Depth=1
	movslq	-20(%rbp), %rax
	imulq	$24, %rax, %rax
	movabsq	$spec_fd, %rcx
	addq	%rax, %rcx
	movl	4(%rcx), %eax
	movl	%eax, -24(%rbp)
.LBB45_15:                              # %if.end43
                                        #   in Loop: Header=BB45_12 Depth=1
	movl	$3, %eax
	cmpl	dbglvl, %eax
	jge	.LBB45_17
# %bb.16:                               # %if.then46
                                        #   in Loop: Header=BB45_12 Depth=1
	movl	-24(%rbp), %esi
	movabsq	$.L.str.7, %rdi
	movb	$0, %al
	callq	printf
.LBB45_17:                              # %if.end48
                                        #   in Loop: Header=BB45_12 Depth=1
	movslq	-20(%rbp), %rax
	imulq	$24, %rax, %rax
	movabsq	$spec_fd, %rbx
	movq	%rbx, %rcx
	addq	%rax, %rcx
	movq	16(%rcx), %rdi
	movslq	-20(%rbp), %rax
	imulq	$24, %rax, %rax
	movq	%rbx, %rcx
	addq	%rax, %rcx
	movslq	4(%rcx), %rax
	addq	%rax, %rdi
	movslq	-20(%rbp), %rax
	imulq	$24, %rax, %rax
	movq	%rbx, %rcx
	addq	%rax, %rcx
	movq	16(%rcx), %rsi
	movslq	-24(%rbp), %rdx
	callq	memcpy
	movl	-24(%rbp), %eax
	movslq	-20(%rbp), %rcx
	imulq	$24, %rcx, %rcx
	addq	%rcx, %rbx
	addl	4(%rbx), %eax
	movl	%eax, 4(%rbx)
	jmp	.LBB45_12
.LBB45_18:                              # %while.end
	cmpl	$1293959120, -52(%rbp)  # imm = 0x4D203FD0
	jne	.LBB45_20
.LBB45_19:
	xorl	%eax, %eax
	addq	$48, %rsp
	popq	%rbx
	popq	%r14
	popq	%rbp
	.cfi_def_cfa %rsp, 8
	retq
.LBB45_20:                              # %func_exit
	.cfi_def_cfa %rbp, 16
	callq	detect_breach
	jmp	.LBB45_19
.Lfunc_end45:
	.size	spec_load.33, .Lfunc_end45-spec_load.33
	.cfi_endproc
                                        # -- End function
	.globl	spec_write.34           # -- Begin function spec_write.34
	.p2align	4, 0x90
	.type	spec_write.34,@function
spec_write.34:                          # @spec_write.34
	.cfi_startproc
# %bb.0:                                # %entry
	pushq	%rbp
	.cfi_def_cfa_offset 16
	.cfi_offset %rbp, -16
	movq	%rsp, %rbp
	.cfi_def_cfa_register %rbp
	pushq	%rbx
	subq	$24, %rsp
	.cfi_offset %rbx, -24
	movl	$1305532388, -20(%rbp)  # imm = 0x4DD0D7E4
	movl	%edi, -12(%rbp)
	movq	%rsi, -32(%rbp)
	movl	%edx, -16(%rbp)
	movl	$4, %eax
	cmpl	dbglvl, %eax
	jge	.LBB46_2
# %bb.1:                                # %if.then
	movl	-12(%rbp), %esi
	movq	-32(%rbp), %rdx
	movl	-16(%rbp), %ecx
	movabsq	$.L.str.18, %rdi
	movb	$0, %al
	callq	printf
.LBB46_2:                               # %if.end
	cmpl	$3, -12(%rbp)
	jle	.LBB46_4
# %bb.3:                                # %if.then2
	movq	stderr, %rdi
	movl	-12(%rbp), %edx
	movabsq	$.L.str.19, %rsi
	movb	$0, %al
	callq	fprintf
	xorl	%edi, %edi
	callq	exit
.LBB46_4:                               # %if.end4
	movslq	-12(%rbp), %rax
	imulq	$24, %rax, %rax
	movabsq	$spec_fd, %rbx
	movq	%rbx, %rcx
	addq	%rax, %rcx
	movq	16(%rcx), %rdi
	movslq	-12(%rbp), %rax
	imulq	$24, %rax, %rax
	movq	%rbx, %rcx
	addq	%rax, %rcx
	movslq	8(%rcx), %rax
	addq	%rax, %rdi
	movq	-32(%rbp), %rsi
	movslq	-16(%rbp), %rdx
	callq	memcpy
	movl	-16(%rbp), %eax
	movslq	-12(%rbp), %rcx
	imulq	$24, %rcx, %rcx
	movq	%rbx, %rdx
	addq	%rcx, %rdx
	addl	4(%rdx), %eax
	movl	%eax, 4(%rdx)
	movl	-16(%rbp), %eax
	movslq	-12(%rbp), %rcx
	imulq	$24, %rcx, %rcx
	addq	%rcx, %rbx
	addl	8(%rbx), %eax
	movl	%eax, 8(%rbx)
	movl	$4, %eax
	cmpl	dbglvl, %eax
	jge	.LBB46_6
# %bb.5:                                # %if.then18
	movl	-16(%rbp), %esi
	movabsq	$.L.str.11, %rdi
	movb	$0, %al
	callq	printf
.LBB46_6:                               # %if.end20
	movl	-16(%rbp), %ebx
	cmpl	$1305532388, -20(%rbp)  # imm = 0x4DD0D7E4
	jne	.LBB46_8
.LBB46_7:
	movl	%ebx, %eax
	addq	$24, %rsp
	popq	%rbx
	popq	%rbp
	.cfi_def_cfa %rsp, 8
	retq
.LBB46_8:                               # %func_exit
	.cfi_def_cfa %rbp, 16
	callq	detect_breach
	jmp	.LBB46_7
.Lfunc_end46:
	.size	spec_write.34, .Lfunc_end46-spec_write.34
	.cfi_endproc
                                        # -- End function
	.globl	spec_ungetc.35          # -- Begin function spec_ungetc.35
	.p2align	4, 0x90
	.type	spec_ungetc.35,@function
spec_ungetc.35:                         # @spec_ungetc.35
	.cfi_startproc
# %bb.0:                                # %entry
	pushq	%rbp
	.cfi_def_cfa_offset 16
	.cfi_offset %rbp, -16
	movq	%rsp, %rbp
	.cfi_def_cfa_register %rbp
	pushq	%rbx
	subq	$24, %rsp
	.cfi_offset %rbx, -24
	movl	$773699617, -24(%rbp)   # imm = 0x2E1DB821
	movb	%dil, -9(%rbp)
	movl	%esi, -16(%rbp)
	movl	$0, -20(%rbp)
	movl	$4, %eax
	cmpl	dbglvl, %eax
	jge	.LBB47_2
# %bb.1:                                # %if.then
	movl	-16(%rbp), %esi
	movabsq	$.L.str.15, %rdi
	movb	$0, %al
	callq	printf
.LBB47_2:                               # %if.end
	cmpl	$3, -16(%rbp)
	jle	.LBB47_4
# %bb.3:                                # %if.then2
	movq	stderr, %rdi
	movl	-16(%rbp), %edx
	movabsq	$.L.str.9, %rsi
	movb	$0, %al
	callq	fprintf
	xorl	%edi, %edi
	callq	exit
.LBB47_4:                               # %if.end4
	movslq	-16(%rbp), %rax
	imulq	$24, %rax, %rax
	movabsq	$spec_fd, %rcx
	addq	%rax, %rcx
	cmpl	$0, 8(%rcx)
	jg	.LBB47_6
# %bb.5:                                # %if.then6
	movq	stderr, %rdi
	movslq	-16(%rbp), %rax
	imulq	$24, %rax, %rax
	movabsq	$spec_fd, %rcx
	addq	%rax, %rcx
	movl	8(%rcx), %edx
	movabsq	$.L.str.16, %rsi
	movb	$0, %al
	callq	fprintf
	xorl	%edi, %edi
	callq	exit
.LBB47_6:                               # %if.end11
	movslq	-16(%rbp), %rax
	imulq	$24, %rax, %rax
	movabsq	$spec_fd, %rcx
	movq	%rcx, %rdx
	addq	%rax, %rdx
	movq	16(%rdx), %rax
	movslq	-16(%rbp), %rdx
	imulq	$24, %rdx, %rdx
	addq	%rdx, %rcx
	movl	8(%rcx), %edx
	addl	$-1, %edx
	movl	%edx, 8(%rcx)
	movslq	%edx, %rcx
	movzbl	(%rax,%rcx), %eax
	movzbl	-9(%rbp), %ecx
	cmpl	%ecx, %eax
	je	.LBB47_8
# %bb.7:                                # %if.then22
	movq	stderr, %rdi
	movabsq	$.L.str.17, %rsi
	movb	$0, %al
	callq	fprintf
	xorl	%edi, %edi
	callq	exit
.LBB47_8:                               # %if.end24
	movl	$4, %eax
	cmpl	dbglvl, %eax
	jge	.LBB47_10
# %bb.9:                                # %if.then27
	movl	-20(%rbp), %esi
	movabsq	$.L.str.11, %rdi
	movb	$0, %al
	callq	printf
.LBB47_10:                              # %if.end29
	movzbl	-9(%rbp), %ebx
	cmpl	$773699617, -24(%rbp)   # imm = 0x2E1DB821
	jne	.LBB47_12
.LBB47_11:
	movl	%ebx, %eax
	addq	$24, %rsp
	popq	%rbx
	popq	%rbp
	.cfi_def_cfa %rsp, 8
	retq
.LBB47_12:                              # %func_exit
	.cfi_def_cfa %rbp, 16
	callq	detect_breach
	jmp	.LBB47_11
.Lfunc_end47:
	.size	spec_ungetc.35, .Lfunc_end47-spec_ungetc.35
	.cfi_endproc
                                        # -- End function
	.globl	spec_read.36            # -- Begin function spec_read.36
	.p2align	4, 0x90
	.type	spec_read.36,@function
spec_read.36:                           # @spec_read.36
	.cfi_startproc
# %bb.0:                                # %entry
	pushq	%rbp
	.cfi_def_cfa_offset 16
	.cfi_offset %rbp, -16
	movq	%rsp, %rbp
	.cfi_def_cfa_register %rbp
	pushq	%rbx
	subq	$40, %rsp
	.cfi_offset %rbx, -24
	movl	$70578183, -28(%rbp)    # imm = 0x434F007
	movl	%edi, -12(%rbp)
	movq	%rsi, -40(%rbp)
	movl	%edx, -20(%rbp)
	movl	$0, -16(%rbp)
	movl	$4, %eax
	cmpl	dbglvl, %eax
	jge	.LBB48_2
# %bb.1:                                # %if.then
	movl	-12(%rbp), %esi
	movq	-40(%rbp), %rdx
	movl	-20(%rbp), %ecx
	movabsq	$.L.str.8, %rdi
	movb	$0, %al
	callq	printf
.LBB48_2:                               # %if.end
	cmpl	$3, -12(%rbp)
	jle	.LBB48_4
# %bb.3:                                # %if.then2
	movq	stderr, %rdi
	movl	-12(%rbp), %edx
	movabsq	$.L.str.9, %rsi
	movb	$0, %al
	callq	fprintf
	xorl	%edi, %edi
	callq	exit
.LBB48_4:                               # %if.end4
	movslq	-12(%rbp), %rax
	imulq	$24, %rax, %rax
	movabsq	$spec_fd, %rcx
	movq	%rcx, %rdx
	addq	%rax, %rdx
	movl	8(%rdx), %eax
	movslq	-12(%rbp), %rdx
	imulq	$24, %rdx, %rdx
	addq	%rdx, %rcx
	cmpl	4(%rcx), %eax
	jl	.LBB48_8
# %bb.5:                                # %if.then8
	movl	$4, %eax
	cmpl	dbglvl, %eax
	jge	.LBB48_7
# %bb.6:                                # %if.then10
	movabsq	$.L.str.10, %rdi
	movb	$0, %al
	callq	printf
.LBB48_7:                               # %if.end12
	movl	$-1, -24(%rbp)
	jmp	.LBB48_14
.LBB48_8:                               # %if.end13
	movslq	-12(%rbp), %rax
	imulq	$24, %rax, %rax
	movabsq	$spec_fd, %rcx
	movq	%rcx, %rdx
	addq	%rax, %rdx
	movl	8(%rdx), %eax
	addl	-20(%rbp), %eax
	movslq	-12(%rbp), %rdx
	imulq	$24, %rdx, %rdx
	addq	%rdx, %rcx
	cmpl	4(%rcx), %eax
	jl	.LBB48_10
# %bb.9:                                # %if.then21
	movslq	-12(%rbp), %rax
	imulq	$24, %rax, %rax
	movabsq	$spec_fd, %rcx
	movq	%rcx, %rdx
	addq	%rax, %rdx
	movl	4(%rdx), %eax
	movslq	-12(%rbp), %rdx
	imulq	$24, %rdx, %rdx
	addq	%rdx, %rcx
	subl	8(%rcx), %eax
	movl	%eax, -16(%rbp)
	jmp	.LBB48_11
.LBB48_10:                              # %if.else
	movl	-20(%rbp), %eax
	movl	%eax, -16(%rbp)
.LBB48_11:                              # %if.end28
	movq	-40(%rbp), %rdi
	movslq	-12(%rbp), %rax
	imulq	$24, %rax, %rax
	movabsq	$spec_fd, %rbx
	movq	%rbx, %rcx
	addq	%rax, %rcx
	movq	16(%rcx), %rsi
	movslq	-12(%rbp), %rax
	imulq	$24, %rax, %rax
	movq	%rbx, %rcx
	addq	%rax, %rcx
	movslq	8(%rcx), %rax
	addq	%rax, %rsi
	movslq	-16(%rbp), %rdx
	callq	memcpy
	movl	-16(%rbp), %eax
	movslq	-12(%rbp), %rcx
	imulq	$24, %rcx, %rcx
	addq	%rcx, %rbx
	addl	8(%rbx), %eax
	movl	%eax, 8(%rbx)
	movl	$4, %eax
	cmpl	dbglvl, %eax
	jge	.LBB48_13
# %bb.12:                               # %if.then43
	movl	-16(%rbp), %esi
	movabsq	$.L.str.11, %rdi
	movb	$0, %al
	callq	printf
.LBB48_13:                              # %if.end45
	movl	-16(%rbp), %eax
	movl	%eax, -24(%rbp)
.LBB48_14:                              # %return
	movl	-24(%rbp), %ebx
	cmpl	$70578183, -28(%rbp)    # imm = 0x434F007
	jne	.LBB48_16
.LBB48_15:
	movl	%ebx, %eax
	addq	$40, %rsp
	popq	%rbx
	popq	%rbp
	.cfi_def_cfa %rsp, 8
	retq
.LBB48_16:                              # %func_exit
	.cfi_def_cfa %rbp, 16
	callq	detect_breach
	jmp	.LBB48_15
.Lfunc_end48:
	.size	spec_read.36, .Lfunc_end48-spec_read.36
	.cfi_endproc
                                        # -- End function
	.globl	spec_getc.37            # -- Begin function spec_getc.37
	.p2align	4, 0x90
	.type	spec_getc.37,@function
spec_getc.37:                           # @spec_getc.37
	.cfi_startproc
# %bb.0:                                # %entry
	pushq	%rbp
	.cfi_def_cfa_offset 16
	.cfi_offset %rbp, -16
	movq	%rsp, %rbp
	.cfi_def_cfa_register %rbp
	pushq	%rbx
	subq	$24, %rsp
	.cfi_offset %rbx, -24
	movl	$2003924953, -24(%rbp)  # imm = 0x777177D9
	movl	%edi, -12(%rbp)
	movl	$0, -16(%rbp)
	movl	$4, %eax
	cmpl	dbglvl, %eax
	jge	.LBB49_2
# %bb.1:                                # %if.then
	movl	-12(%rbp), %esi
	movabsq	$.L.str.14, %rdi
	movb	$0, %al
	callq	printf
.LBB49_2:                               # %if.end
	cmpl	$3, -12(%rbp)
	jle	.LBB49_4
# %bb.3:                                # %if.then2
	movq	stderr, %rdi
	movl	-12(%rbp), %edx
	movabsq	$.L.str.9, %rsi
	movb	$0, %al
	callq	fprintf
	xorl	%edi, %edi
	callq	exit
.LBB49_4:                               # %if.end4
	movslq	-12(%rbp), %rax
	imulq	$24, %rax, %rax
	movabsq	$spec_fd, %rcx
	movq	%rcx, %rdx
	addq	%rax, %rdx
	movl	8(%rdx), %eax
	movslq	-12(%rbp), %rdx
	imulq	$24, %rdx, %rdx
	addq	%rdx, %rcx
	cmpl	4(%rcx), %eax
	jl	.LBB49_8
# %bb.5:                                # %if.then8
	movl	$4, %eax
	cmpl	dbglvl, %eax
	jge	.LBB49_7
# %bb.6:                                # %if.then10
	movabsq	$.L.str.10, %rdi
	movb	$0, %al
	callq	printf
.LBB49_7:                               # %if.end12
	movl	$-1, -20(%rbp)
	jmp	.LBB49_11
.LBB49_8:                               # %if.end13
	movslq	-12(%rbp), %rax
	imulq	$24, %rax, %rax
	movabsq	$spec_fd, %rcx
	movq	%rcx, %rdx
	addq	%rax, %rdx
	movq	16(%rdx), %rax
	movslq	-12(%rbp), %rdx
	imulq	$24, %rdx, %rdx
	addq	%rdx, %rcx
	movl	8(%rcx), %edx
	movl	%edx, %esi
	addl	$1, %esi
	movl	%esi, 8(%rcx)
	movslq	%edx, %rcx
	movzbl	(%rax,%rcx), %eax
	movl	%eax, -16(%rbp)
	movl	$4, %eax
	cmpl	dbglvl, %eax
	jge	.LBB49_10
# %bb.9:                                # %if.then23
	movl	-16(%rbp), %esi
	movabsq	$.L.str.11, %rdi
	movb	$0, %al
	callq	printf
.LBB49_10:                              # %if.end25
	movl	-16(%rbp), %eax
	movl	%eax, -20(%rbp)
.LBB49_11:                              # %return
	movl	-20(%rbp), %ebx
	cmpl	$2003924953, -24(%rbp)  # imm = 0x777177D9
	jne	.LBB49_13
.LBB49_12:
	movl	%ebx, %eax
	addq	$24, %rsp
	popq	%rbx
	popq	%rbp
	.cfi_def_cfa %rsp, 8
	retq
.LBB49_13:                              # %func_exit
	.cfi_def_cfa %rbp, 16
	callq	detect_breach
	jmp	.LBB49_12
.Lfunc_end49:
	.size	spec_getc.37, .Lfunc_end49-spec_getc.37
	.cfi_endproc
                                        # -- End function
	.section	.rodata.cst8,"aM",@progbits,8
	.p2align	3               # -- Begin function spec_random_load.38
.LCPI50_0:
	.quad	4629700416936869888     # double 32
.LCPI50_1:
	.quad	4643211215818981376     # double 256
	.text
	.globl	spec_random_load.38
	.p2align	4, 0x90
	.type	spec_random_load.38,@function
spec_random_load.38:                    # @spec_random_load.38
	.cfi_startproc
# %bb.0:                                # %entry
	pushq	%rbp
	.cfi_def_cfa_offset 16
	.cfi_offset %rbp, -16
	movq	%rsp, %rbp
	.cfi_def_cfa_register %rbp
	pushq	%rbx
	subq	$4194328, %rsp          # imm = 0x400018
	.cfi_offset %rbx, -24
	movl	$1157390969, -24(%rbp)  # imm = 0x44FC6279
	movl	%edi, -20(%rbp)
	movl	$4, %eax
	cmpl	dbglvl, %eax
	jge	.LBB50_2
# %bb.1:                                # %if.then
	movabsq	$.L.str.2, %rdi
	movb	$0, %al
	callq	printf
.LBB50_2:                               # %if.end
	movl	$0, -12(%rbp)
.LBB50_3:                               # %for.cond
                                        # =>This Loop Header: Depth=1
                                        #     Child Loop BB50_7 Depth 2
	cmpl	$32, -12(%rbp)
	jge	.LBB50_12
# %bb.4:                                # %for.body
                                        #   in Loop: Header=BB50_3 Depth=1
	movl	$5, %eax
	cmpl	dbglvl, %eax
	jge	.LBB50_6
# %bb.5:                                # %if.then3
                                        #   in Loop: Header=BB50_3 Depth=1
	movl	-12(%rbp), %esi
	movabsq	$.L.str.3, %rdi
	movb	$0, %al
	callq	printf
.LBB50_6:                               # %if.end5
                                        #   in Loop: Header=BB50_3 Depth=1
	movl	$0, -16(%rbp)
.LBB50_7:                               # %for.cond6
                                        #   Parent Loop BB50_3 Depth=1
                                        # =>  This Inner Loop Header: Depth=2
	cmpl	$131072, -16(%rbp)      # imm = 0x20000
	jge	.LBB50_10
# %bb.8:                                # %for.body8
                                        #   in Loop: Header=BB50_7 Depth=2
	callq	ran
	vmovsd	.LCPI50_1(%rip), %xmm1  # xmm1 = mem[0],zero
	vmulsd	%xmm1, %xmm0, %xmm0
	vcvttsd2si	%xmm0, %eax
	movslq	-12(%rbp), %rcx
	shlq	$17, %rcx
	leaq	-4194336(%rbp), %rdx
	addq	%rcx, %rdx
	movslq	-16(%rbp), %rcx
	movb	%al, (%rdx,%rcx)
# %bb.9:                                # %for.inc
                                        #   in Loop: Header=BB50_7 Depth=2
	movl	-16(%rbp), %eax
	addl	$1, %eax
	movl	%eax, -16(%rbp)
	jmp	.LBB50_7
.LBB50_10:                              # %for.end
                                        #   in Loop: Header=BB50_3 Depth=1
	jmp	.LBB50_11
.LBB50_11:                              # %for.inc13
                                        #   in Loop: Header=BB50_3 Depth=1
	movl	-12(%rbp), %eax
	addl	$1, %eax
	movl	%eax, -12(%rbp)
	jmp	.LBB50_3
.LBB50_12:                              # %for.end15
	movl	$4, %eax
	cmpl	dbglvl, %eax
	jge	.LBB50_14
# %bb.13:                               # %if.then18
	movabsq	$.L.str.4, %rdi
	movb	$0, %al
	callq	printf
.LBB50_14:                              # %if.end20
	movl	$0, -12(%rbp)
.LBB50_15:                              # %for.cond21
                                        # =>This Inner Loop Header: Depth=1
	movl	-12(%rbp), %eax
	movslq	-20(%rbp), %rcx
	imulq	$24, %rcx, %rcx
	movabsq	$spec_fd, %rdx
	addq	%rcx, %rdx
	cmpl	(%rdx), %eax
	jge	.LBB50_18
# %bb.16:                               # %for.body26
                                        #   in Loop: Header=BB50_15 Depth=1
	movslq	-20(%rbp), %rax
	imulq	$24, %rax, %rax
	movabsq	$spec_fd, %rcx
	addq	%rax, %rcx
	movq	16(%rcx), %rbx
	movslq	-12(%rbp), %rax
	addq	%rax, %rbx
	callq	ran
	vmovsd	.LCPI50_0(%rip), %xmm1  # xmm1 = mem[0],zero
	vmulsd	%xmm1, %xmm0, %xmm0
	vcvttsd2si	%xmm0, %eax
	cltq
	shlq	$17, %rax
	leaq	-4194336(%rbp), %rsi
	addq	%rax, %rsi
	movq	%rbx, %rdi
	movl	$131072, %edx           # imm = 0x20000
	callq	memcpy
# %bb.17:                               # %for.inc34
                                        #   in Loop: Header=BB50_15 Depth=1
	movl	-12(%rbp), %eax
	addl	$131072, %eax           # imm = 0x20000
	movl	%eax, -12(%rbp)
	jmp	.LBB50_15
.LBB50_18:                              # %for.end35
	movslq	-20(%rbp), %rax
	imulq	$24, %rax, %rax
	movabsq	$spec_fd, %rcx
	addq	%rax, %rcx
	movl	$1048576, 4(%rcx)       # imm = 0x100000
	cmpl	$1157390969, -24(%rbp)  # imm = 0x44FC6279
	jne	.LBB50_20
.LBB50_19:
	xorl	%eax, %eax
	addq	$4194328, %rsp          # imm = 0x400018
	popq	%rbx
	popq	%rbp
	.cfi_def_cfa %rsp, 8
	retq
.LBB50_20:                              # %func_exit
	.cfi_def_cfa %rbp, 16
	callq	detect_breach
	jmp	.LBB50_19
.Lfunc_end50:
	.size	spec_random_load.38, .Lfunc_end50-spec_random_load.38
	.cfi_endproc
                                        # -- End function
	.section	.rodata.cst4,"aM",@progbits,4
	.p2align	2               # -- Begin function ran.39
.LCPI51_0:
	.long	1325400064              # float 2.14748365E+9
	.text
	.globl	ran.39
	.p2align	4, 0x90
	.type	ran.39,@function
ran.39:                                 # @ran.39
	.cfi_startproc
# %bb.0:                                # %entry
	pushq	%rbp
	.cfi_def_cfa_offset 16
	.cfi_offset %rbp, -16
	movq	%rsp, %rbp
	.cfi_def_cfa_register %rbp
	subq	$48, %rsp
	movl	$1100834930, -12(%rbp)  # imm = 0x419D6872
	movq	seedi, %rax
	cqto
	movl	$127773, %ecx           # imm = 0x1F31D
	idivq	%rcx
	movq	%rax, -32(%rbp)
	movq	seedi, %rax
	cqto
	idivq	%rcx
	movq	%rdx, -40(%rbp)
	imulq	$16807, -40(%rbp), %rax # imm = 0x41A7
	imulq	$2836, -32(%rbp), %rcx  # imm = 0xB14
	subq	%rcx, %rax
	movq	%rax, -8(%rbp)
	cmpq	$0, -8(%rbp)
	jle	.LBB51_2
# %bb.1:                                # %if.then
	movq	-8(%rbp), %rax
	movq	%rax, seedi
	jmp	.LBB51_3
.LBB51_2:                               # %if.else
	movq	-8(%rbp), %rax
	addq	$2147483647, %rax       # imm = 0x7FFFFFFF
	movq	%rax, seedi
.LBB51_3:                               # %if.end
	vmovss	.LCPI51_0(%rip), %xmm0  # xmm0 = mem[0],zero,zero,zero
	vcvtsi2ssq	seedi, %xmm0, %xmm1
	vdivss	%xmm0, %xmm1, %xmm0
	vcvtss2sd	%xmm0, %xmm0, %xmm0
	cmpl	$1100834930, -12(%rbp)  # imm = 0x419D6872
	jne	.LBB51_5
.LBB51_4:
	addq	$48, %rsp
	popq	%rbp
	.cfi_def_cfa %rsp, 8
	retq
.LBB51_5:                               # %func_exit
	.cfi_def_cfa %rbp, 16
	vmovsd	%xmm0, -24(%rbp)        # 8-byte Spill
	callq	detect_breach
	vmovsd	-24(%rbp), %xmm0        # 8-byte Reload
                                        # xmm0 = mem[0],zero
	jmp	.LBB51_4
.Lfunc_end51:
	.size	ran.39, .Lfunc_end51-ran.39
	.cfi_endproc
                                        # -- End function
	.globl	spec_load.40            # -- Begin function spec_load.40
	.p2align	4, 0x90
	.type	spec_load.40,@function
spec_load.40:                           # @spec_load.40
	.cfi_startproc
# %bb.0:                                # %entry
	pushq	%rbp
	.cfi_def_cfa_offset 16
	.cfi_offset %rbp, -16
	movq	%rsp, %rbp
	.cfi_def_cfa_register %rbp
	pushq	%r14
	pushq	%rbx
	subq	$48, %rsp
	.cfi_offset %rbx, -32
	.cfi_offset %r14, -24
	movl	$1601783082, -52(%rbp)  # imm = 0x5F79452A
	movl	%edi, -20(%rbp)
	movq	%rsi, -48(%rbp)
	movl	%edx, -36(%rbp)
	movq	-48(%rbp), %rdi
	xorl	%esi, %esi
	movb	$0, %al
	callq	open
	movl	%eax, -40(%rbp)
	cmpl	$0, -40(%rbp)
	jge	.LBB52_2
# %bb.1:                                # %if.then
	movq	stderr, %rbx
	movq	-48(%rbp), %r14
	callq	__errno_location
	movl	(%rax), %edi
	callq	strerror
	movq	%rbx, %rdi
	movabsq	$.L.str.5, %rsi
	movq	%r14, %rdx
	movq	%rax, %rcx
	movb	$0, %al
	callq	fprintf
	xorl	%edi, %edi
	callq	exit
.LBB52_2:                               # %if.end
	movslq	-20(%rbp), %rax
	imulq	$24, %rax, %rax
	movabsq	$spec_fd, %rcx
	movq	%rcx, %rdx
	addq	%rax, %rdx
	movl	$0, 4(%rdx)
	movslq	-20(%rbp), %rax
	imulq	$24, %rax, %rax
	addq	%rax, %rcx
	movl	$0, 8(%rcx)
	movl	$0, -28(%rbp)
.LBB52_3:                               # %for.cond
                                        # =>This Inner Loop Header: Depth=1
	movl	-28(%rbp), %eax
	cmpl	-36(%rbp), %eax
	jge	.LBB52_10
# %bb.4:                                # %for.body
                                        #   in Loop: Header=BB52_3 Depth=1
	movl	-40(%rbp), %edi
	movslq	-20(%rbp), %rax
	imulq	$24, %rax, %rax
	movabsq	$spec_fd, %rcx
	addq	%rax, %rcx
	movq	16(%rcx), %rsi
	movslq	-28(%rbp), %rax
	addq	%rax, %rsi
	movl	$131072, %edx           # imm = 0x20000
	callq	read
	movl	%eax, -32(%rbp)
	cmpl	$0, -32(%rbp)
	jne	.LBB52_6
# %bb.5:                                # %if.then12
	jmp	.LBB52_11
.LBB52_6:                               # %if.end13
                                        #   in Loop: Header=BB52_3 Depth=1
	cmpl	$0, -32(%rbp)
	jge	.LBB52_8
# %bb.7:                                # %if.then16
	movq	stderr, %rbx
	movq	-48(%rbp), %r14
	callq	__errno_location
	movl	(%rax), %edi
	callq	strerror
	movq	%rbx, %rdi
	movabsq	$.L.str.6, %rsi
	movq	%r14, %rdx
	movq	%rax, %rcx
	movb	$0, %al
	callq	fprintf
	xorl	%edi, %edi
	callq	exit
.LBB52_8:                               # %if.end20
                                        #   in Loop: Header=BB52_3 Depth=1
	movl	-32(%rbp), %eax
	movslq	-20(%rbp), %rcx
	imulq	$24, %rcx, %rcx
	movabsq	$spec_fd, %rdx
	addq	%rcx, %rdx
	addl	4(%rdx), %eax
	movl	%eax, 4(%rdx)
# %bb.9:                                # %for.inc
                                        #   in Loop: Header=BB52_3 Depth=1
	movl	-32(%rbp), %eax
	addl	-28(%rbp), %eax
	movl	%eax, -28(%rbp)
	jmp	.LBB52_3
.LBB52_10:                              # %for.end.loopexit
	jmp	.LBB52_11
.LBB52_11:                              # %for.end
	movl	-40(%rbp), %edi
	callq	close
.LBB52_12:                              # %while.cond
                                        # =>This Inner Loop Header: Depth=1
	movslq	-20(%rbp), %rax
	imulq	$24, %rax, %rax
	movabsq	$spec_fd, %rcx
	addq	%rax, %rcx
	movl	4(%rcx), %eax
	cmpl	-36(%rbp), %eax
	jge	.LBB52_18
# %bb.13:                               # %while.body
                                        #   in Loop: Header=BB52_12 Depth=1
	movl	-36(%rbp), %eax
	movslq	-20(%rbp), %rcx
	imulq	$24, %rcx, %rcx
	movabsq	$spec_fd, %rdx
	movq	%rdx, %rsi
	addq	%rcx, %rsi
	subl	4(%rsi), %eax
	movl	%eax, -24(%rbp)
	movl	-24(%rbp), %eax
	movslq	-20(%rbp), %rcx
	imulq	$24, %rcx, %rcx
	addq	%rcx, %rdx
	cmpl	4(%rdx), %eax
	jle	.LBB52_15
# %bb.14:                               # %if.then39
                                        #   in Loop: Header=BB52_12 Depth=1
	movslq	-20(%rbp), %rax
	imulq	$24, %rax, %rax
	movabsq	$spec_fd, %rcx
	addq	%rax, %rcx
	movl	4(%rcx), %eax
	movl	%eax, -24(%rbp)
.LBB52_15:                              # %if.end43
                                        #   in Loop: Header=BB52_12 Depth=1
	movl	$3, %eax
	cmpl	dbglvl, %eax
	jge	.LBB52_17
# %bb.16:                               # %if.then46
                                        #   in Loop: Header=BB52_12 Depth=1
	movl	-24(%rbp), %esi
	movabsq	$.L.str.7, %rdi
	movb	$0, %al
	callq	printf
.LBB52_17:                              # %if.end48
                                        #   in Loop: Header=BB52_12 Depth=1
	movslq	-20(%rbp), %rax
	imulq	$24, %rax, %rax
	movabsq	$spec_fd, %rbx
	movq	%rbx, %rcx
	addq	%rax, %rcx
	movq	16(%rcx), %rdi
	movslq	-20(%rbp), %rax
	imulq	$24, %rax, %rax
	movq	%rbx, %rcx
	addq	%rax, %rcx
	movslq	4(%rcx), %rax
	addq	%rax, %rdi
	movslq	-20(%rbp), %rax
	imulq	$24, %rax, %rax
	movq	%rbx, %rcx
	addq	%rax, %rcx
	movq	16(%rcx), %rsi
	movslq	-24(%rbp), %rdx
	callq	memcpy
	movl	-24(%rbp), %eax
	movslq	-20(%rbp), %rcx
	imulq	$24, %rcx, %rcx
	addq	%rcx, %rbx
	addl	4(%rbx), %eax
	movl	%eax, 4(%rbx)
	jmp	.LBB52_12
.LBB52_18:                              # %while.end
	cmpl	$1601783082, -52(%rbp)  # imm = 0x5F79452A
	jne	.LBB52_20
.LBB52_19:
	xorl	%eax, %eax
	addq	$48, %rsp
	popq	%rbx
	popq	%r14
	popq	%rbp
	.cfi_def_cfa %rsp, 8
	retq
.LBB52_20:                              # %func_exit
	.cfi_def_cfa %rbp, 16
	callq	detect_breach
	jmp	.LBB52_19
.Lfunc_end52:
	.size	spec_load.40, .Lfunc_end52-spec_load.40
	.cfi_endproc
                                        # -- End function
	.globl	spec_fread.41           # -- Begin function spec_fread.41
	.p2align	4, 0x90
	.type	spec_fread.41,@function
spec_fread.41:                          # @spec_fread.41
	.cfi_startproc
# %bb.0:                                # %entry
	pushq	%rbp
	.cfi_def_cfa_offset 16
	.cfi_offset %rbp, -16
	movq	%rsp, %rbp
	.cfi_def_cfa_register %rbp
	pushq	%rbx
	subq	$40, %rsp
	.cfi_offset %rbx, -24
	movl	$1674470562, -32(%rbp)  # imm = 0x63CE64A2
	movq	%rdi, -40(%rbp)
	movl	%esi, -20(%rbp)
	movl	%edx, -24(%rbp)
	movl	%ecx, -12(%rbp)
	movl	$0, -16(%rbp)
	movl	$4, %eax
	cmpl	dbglvl, %eax
	jge	.LBB53_2
# %bb.1:                                # %if.then
	movq	-40(%rbp), %rsi
	movl	-20(%rbp), %edx
	movl	-24(%rbp), %ecx
	movl	-12(%rbp), %r8d
	movabsq	$.L.str.12, %rdi
	movb	$0, %al
	callq	printf
.LBB53_2:                               # %if.end
	cmpl	$3, -12(%rbp)
	jle	.LBB53_4
# %bb.3:                                # %if.then2
	movq	stderr, %rdi
	movl	-12(%rbp), %edx
	movabsq	$.L.str.13, %rsi
	movb	$0, %al
	callq	fprintf
	xorl	%edi, %edi
	callq	exit
.LBB53_4:                               # %if.end4
	movslq	-12(%rbp), %rax
	imulq	$24, %rax, %rax
	movabsq	$spec_fd, %rcx
	movq	%rcx, %rdx
	addq	%rax, %rdx
	movl	8(%rdx), %eax
	movslq	-12(%rbp), %rdx
	imulq	$24, %rdx, %rdx
	addq	%rdx, %rcx
	cmpl	4(%rcx), %eax
	jl	.LBB53_8
# %bb.5:                                # %if.then8
	movl	$4, %eax
	cmpl	dbglvl, %eax
	jge	.LBB53_7
# %bb.6:                                # %if.then10
	movabsq	$.L.str.10, %rdi
	movb	$0, %al
	callq	printf
.LBB53_7:                               # %if.end12
	movl	$-1, -28(%rbp)
	jmp	.LBB53_14
.LBB53_8:                               # %if.end13
	movslq	-12(%rbp), %rax
	imulq	$24, %rax, %rax
	movabsq	$spec_fd, %rcx
	movq	%rcx, %rdx
	addq	%rax, %rdx
	movl	8(%rdx), %eax
	movl	-20(%rbp), %edx
	imull	-24(%rbp), %edx
	addl	%edx, %eax
	movslq	-12(%rbp), %rdx
	imulq	$24, %rdx, %rdx
	addq	%rdx, %rcx
	cmpl	4(%rcx), %eax
	jl	.LBB53_10
# %bb.9:                                # %if.then21
	movslq	-12(%rbp), %rax
	imulq	$24, %rax, %rax
	movabsq	$spec_fd, %rcx
	movq	%rcx, %rdx
	addq	%rax, %rdx
	movl	4(%rdx), %eax
	movslq	-12(%rbp), %rdx
	imulq	$24, %rdx, %rdx
	addq	%rdx, %rcx
	subl	8(%rcx), %eax
	cltd
	idivl	-20(%rbp)
	movl	%eax, -16(%rbp)
	jmp	.LBB53_11
.LBB53_10:                              # %if.else
	movl	-24(%rbp), %eax
	movl	%eax, -16(%rbp)
.LBB53_11:                              # %if.end28
	movq	-40(%rbp), %rdi
	movslq	-12(%rbp), %rax
	imulq	$24, %rax, %rax
	movabsq	$spec_fd, %rbx
	movq	%rbx, %rcx
	addq	%rax, %rcx
	movq	16(%rcx), %rsi
	movslq	-12(%rbp), %rax
	imulq	$24, %rax, %rax
	movq	%rbx, %rcx
	addq	%rax, %rcx
	movslq	8(%rcx), %rax
	addq	%rax, %rsi
	movslq	-16(%rbp), %rdx
	callq	memcpy
	movl	-16(%rbp), %eax
	imull	-20(%rbp), %eax
	movslq	-12(%rbp), %rcx
	imulq	$24, %rcx, %rcx
	addq	%rcx, %rbx
	addl	8(%rbx), %eax
	movl	%eax, 8(%rbx)
	movl	$4, %eax
	cmpl	dbglvl, %eax
	jge	.LBB53_13
# %bb.12:                               # %if.then44
	movl	-16(%rbp), %esi
	imull	-20(%rbp), %esi
	movabsq	$.L.str.11, %rdi
	movb	$0, %al
	callq	printf
.LBB53_13:                              # %if.end47
	movl	-16(%rbp), %eax
	movl	%eax, -28(%rbp)
.LBB53_14:                              # %return
	movl	-28(%rbp), %ebx
	cmpl	$1674470562, -32(%rbp)  # imm = 0x63CE64A2
	jne	.LBB53_16
.LBB53_15:
	movl	%ebx, %eax
	addq	$40, %rsp
	popq	%rbx
	popq	%rbp
	.cfi_def_cfa %rsp, 8
	retq
.LBB53_16:                              # %func_exit
	.cfi_def_cfa %rbp, 16
	callq	detect_breach
	jmp	.LBB53_15
.Lfunc_end53:
	.size	spec_fread.41, .Lfunc_end53-spec_fread.41
	.cfi_endproc
                                        # -- End function
	.globl	spec_init.42            # -- Begin function spec_init.42
	.p2align	4, 0x90
	.type	spec_init.42,@function
spec_init.42:                           # @spec_init.42
	.cfi_startproc
# %bb.0:                                # %entry
	pushq	%rbp
	.cfi_def_cfa_offset 16
	.cfi_offset %rbp, -16
	movq	%rsp, %rbp
	.cfi_def_cfa_register %rbp
	pushq	%rbx
	subq	$24, %rsp
	.cfi_offset %rbx, -24
	movl	$1944423927, -24(%rbp)  # imm = 0x73E58DF7
	movl	$3, %eax
	cmpl	dbglvl, %eax
	jge	.LBB54_2
# %bb.1:                                # %if.then
	movabsq	$.L.str, %rdi
	movb	$0, %al
	callq	printf
.LBB54_2:                               # %if.end
	movl	$0, -12(%rbp)
.LBB54_3:                               # %for.cond
                                        # =>This Loop Header: Depth=1
                                        #     Child Loop BB54_7 Depth 2
	cmpl	$3, -12(%rbp)
	jge	.LBB54_12
# %bb.4:                                # %for.body
                                        #   in Loop: Header=BB54_3 Depth=1
	movslq	-12(%rbp), %rax
	imulq	$24, %rax, %rax
	movabsq	$spec_fd, %rbx
	movq	%rbx, %rcx
	addq	%rax, %rcx
	movl	(%rcx), %eax
	movl	%eax, -20(%rbp)
	movslq	-12(%rbp), %rax
	imulq	$24, %rax, %rax
	movq	%rbx, %rdi
	addq	%rax, %rdi
	xorl	%esi, %esi
	movl	$24, %edx
	callq	memset
	movl	-20(%rbp), %eax
	movslq	-12(%rbp), %rcx
	imulq	$24, %rcx, %rcx
	addq	%rcx, %rbx
	movl	%eax, (%rbx)
	movl	-20(%rbp), %eax
	addl	$1048576, %eax          # imm = 0x100000
	movslq	%eax, %rdi
	callq	malloc
	movslq	-12(%rbp), %rcx
	imulq	$24, %rcx, %rcx
	movabsq	$spec_fd, %rdx
	movq	%rdx, %rsi
	addq	%rcx, %rsi
	movq	%rax, 16(%rsi)
	movslq	-12(%rbp), %rax
	imulq	$24, %rax, %rax
	addq	%rax, %rdx
	cmpq	$0, 16(%rdx)
	jne	.LBB54_6
# %bb.5:                                # %if.then16
	movabsq	$.L.str.1, %rdi
	movb	$0, %al
	callq	printf
	xorl	%edi, %edi
	callq	exit
.LBB54_6:                               # %if.end18
                                        #   in Loop: Header=BB54_3 Depth=1
	movl	$0, -16(%rbp)
.LBB54_7:                               # %for.cond19
                                        #   Parent Loop BB54_3 Depth=1
                                        # =>  This Inner Loop Header: Depth=2
	movl	-16(%rbp), %eax
	cmpl	-20(%rbp), %eax
	jge	.LBB54_10
# %bb.8:                                # %for.body22
                                        #   in Loop: Header=BB54_7 Depth=2
	movslq	-12(%rbp), %rax
	imulq	$24, %rax, %rax
	movabsq	$spec_fd, %rcx
	addq	%rax, %rcx
	movq	16(%rcx), %rax
	movslq	-16(%rbp), %rcx
	movb	$0, (%rax,%rcx)
# %bb.9:                                # %for.inc
                                        #   in Loop: Header=BB54_7 Depth=2
	movl	-16(%rbp), %eax
	addl	$1024, %eax             # imm = 0x400
	movl	%eax, -16(%rbp)
	jmp	.LBB54_7
.LBB54_10:                              # %for.end
                                        #   in Loop: Header=BB54_3 Depth=1
	jmp	.LBB54_11
.LBB54_11:                              # %for.inc29
                                        #   in Loop: Header=BB54_3 Depth=1
	movl	-12(%rbp), %eax
	addl	$1, %eax
	movl	%eax, -12(%rbp)
	jmp	.LBB54_3
.LBB54_12:                              # %for.end30
	cmpl	$1944423927, -24(%rbp)  # imm = 0x73E58DF7
	jne	.LBB54_14
.LBB54_13:
	xorl	%eax, %eax
	addq	$24, %rsp
	popq	%rbx
	popq	%rbp
	.cfi_def_cfa %rsp, 8
	retq
.LBB54_14:                              # %func_exit
	.cfi_def_cfa %rbp, 16
	callq	detect_breach
	jmp	.LBB54_13
.Lfunc_end54:
	.size	spec_init.42, .Lfunc_end54-spec_init.42
	.cfi_endproc
                                        # -- End function
	.globl	spec_getc.43            # -- Begin function spec_getc.43
	.p2align	4, 0x90
	.type	spec_getc.43,@function
spec_getc.43:                           # @spec_getc.43
	.cfi_startproc
# %bb.0:                                # %entry
	pushq	%rbp
	.cfi_def_cfa_offset 16
	.cfi_offset %rbp, -16
	movq	%rsp, %rbp
	.cfi_def_cfa_register %rbp
	pushq	%rbx
	subq	$24, %rsp
	.cfi_offset %rbx, -24
	movl	$1521519589, -24(%rbp)  # imm = 0x5AB08BE5
	movl	%edi, -12(%rbp)
	movl	$0, -16(%rbp)
	movl	$4, %eax
	cmpl	dbglvl, %eax
	jge	.LBB55_2
# %bb.1:                                # %if.then
	movl	-12(%rbp), %esi
	movabsq	$.L.str.14, %rdi
	movb	$0, %al
	callq	printf
.LBB55_2:                               # %if.end
	cmpl	$3, -12(%rbp)
	jle	.LBB55_4
# %bb.3:                                # %if.then2
	movq	stderr, %rdi
	movl	-12(%rbp), %edx
	movabsq	$.L.str.9, %rsi
	movb	$0, %al
	callq	fprintf
	xorl	%edi, %edi
	callq	exit
.LBB55_4:                               # %if.end4
	movslq	-12(%rbp), %rax
	imulq	$24, %rax, %rax
	movabsq	$spec_fd, %rcx
	movq	%rcx, %rdx
	addq	%rax, %rdx
	movl	8(%rdx), %eax
	movslq	-12(%rbp), %rdx
	imulq	$24, %rdx, %rdx
	addq	%rdx, %rcx
	cmpl	4(%rcx), %eax
	jl	.LBB55_8
# %bb.5:                                # %if.then8
	movl	$4, %eax
	cmpl	dbglvl, %eax
	jge	.LBB55_7
# %bb.6:                                # %if.then10
	movabsq	$.L.str.10, %rdi
	movb	$0, %al
	callq	printf
.LBB55_7:                               # %if.end12
	movl	$-1, -20(%rbp)
	jmp	.LBB55_11
.LBB55_8:                               # %if.end13
	movslq	-12(%rbp), %rax
	imulq	$24, %rax, %rax
	movabsq	$spec_fd, %rcx
	movq	%rcx, %rdx
	addq	%rax, %rdx
	movq	16(%rdx), %rax
	movslq	-12(%rbp), %rdx
	imulq	$24, %rdx, %rdx
	addq	%rdx, %rcx
	movl	8(%rcx), %edx
	movl	%edx, %esi
	addl	$1, %esi
	movl	%esi, 8(%rcx)
	movslq	%edx, %rcx
	movzbl	(%rax,%rcx), %eax
	movl	%eax, -16(%rbp)
	movl	$4, %eax
	cmpl	dbglvl, %eax
	jge	.LBB55_10
# %bb.9:                                # %if.then23
	movl	-16(%rbp), %esi
	movabsq	$.L.str.11, %rdi
	movb	$0, %al
	callq	printf
.LBB55_10:                              # %if.end25
	movl	-16(%rbp), %eax
	movl	%eax, -20(%rbp)
.LBB55_11:                              # %return
	movl	-20(%rbp), %ebx
	cmpl	$1521519589, -24(%rbp)  # imm = 0x5AB08BE5
	jne	.LBB55_13
.LBB55_12:
	movl	%ebx, %eax
	addq	$24, %rsp
	popq	%rbx
	popq	%rbp
	.cfi_def_cfa %rsp, 8
	retq
.LBB55_13:                              # %func_exit
	.cfi_def_cfa %rbp, 16
	callq	detect_breach
	jmp	.LBB55_12
.Lfunc_end55:
	.size	spec_getc.43, .Lfunc_end55-spec_getc.43
	.cfi_endproc
                                        # -- End function
	.section	.rodata.cst4,"aM",@progbits,4
	.p2align	2               # -- Begin function ran.44
.LCPI56_0:
	.long	1325400064              # float 2.14748365E+9
	.text
	.globl	ran.44
	.p2align	4, 0x90
	.type	ran.44,@function
ran.44:                                 # @ran.44
	.cfi_startproc
# %bb.0:                                # %entry
	pushq	%rbp
	.cfi_def_cfa_offset 16
	.cfi_offset %rbp, -16
	movq	%rsp, %rbp
	.cfi_def_cfa_register %rbp
	subq	$48, %rsp
	movl	$1835917287, -12(%rbp)  # imm = 0x6D6DDFE7
	movq	seedi, %rax
	cqto
	movl	$127773, %ecx           # imm = 0x1F31D
	idivq	%rcx
	movq	%rax, -32(%rbp)
	movq	seedi, %rax
	cqto
	idivq	%rcx
	movq	%rdx, -40(%rbp)
	imulq	$16807, -40(%rbp), %rax # imm = 0x41A7
	imulq	$2836, -32(%rbp), %rcx  # imm = 0xB14
	subq	%rcx, %rax
	movq	%rax, -8(%rbp)
	cmpq	$0, -8(%rbp)
	jle	.LBB56_2
# %bb.1:                                # %if.then
	movq	-8(%rbp), %rax
	movq	%rax, seedi
	jmp	.LBB56_3
.LBB56_2:                               # %if.else
	movq	-8(%rbp), %rax
	addq	$2147483647, %rax       # imm = 0x7FFFFFFF
	movq	%rax, seedi
.LBB56_3:                               # %if.end
	vmovss	.LCPI56_0(%rip), %xmm0  # xmm0 = mem[0],zero,zero,zero
	vcvtsi2ssq	seedi, %xmm0, %xmm1
	vdivss	%xmm0, %xmm1, %xmm0
	vcvtss2sd	%xmm0, %xmm0, %xmm0
	cmpl	$1835917287, -12(%rbp)  # imm = 0x6D6DDFE7
	jne	.LBB56_5
.LBB56_4:
	addq	$48, %rsp
	popq	%rbp
	.cfi_def_cfa %rsp, 8
	retq
.LBB56_5:                               # %func_exit
	.cfi_def_cfa %rbp, 16
	vmovsd	%xmm0, -24(%rbp)        # 8-byte Spill
	callq	detect_breach
	vmovsd	-24(%rbp), %xmm0        # 8-byte Reload
                                        # xmm0 = mem[0],zero
	jmp	.LBB56_4
.Lfunc_end56:
	.size	ran.44, .Lfunc_end56-ran.44
	.cfi_endproc
                                        # -- End function
	.section	.rodata.cst8,"aM",@progbits,8
	.p2align	3               # -- Begin function spec_random_load.45
.LCPI57_0:
	.quad	4629700416936869888     # double 32
.LCPI57_1:
	.quad	4643211215818981376     # double 256
	.text
	.globl	spec_random_load.45
	.p2align	4, 0x90
	.type	spec_random_load.45,@function
spec_random_load.45:                    # @spec_random_load.45
	.cfi_startproc
# %bb.0:                                # %entry
	pushq	%rbp
	.cfi_def_cfa_offset 16
	.cfi_offset %rbp, -16
	movq	%rsp, %rbp
	.cfi_def_cfa_register %rbp
	pushq	%rbx
	subq	$4194328, %rsp          # imm = 0x400018
	.cfi_offset %rbx, -24
	movl	$1590447173, -24(%rbp)  # imm = 0x5ECC4C45
	movl	%edi, -20(%rbp)
	movl	$4, %eax
	cmpl	dbglvl, %eax
	jge	.LBB57_2
# %bb.1:                                # %if.then
	movabsq	$.L.str.2, %rdi
	movb	$0, %al
	callq	printf
.LBB57_2:                               # %if.end
	movl	$0, -12(%rbp)
.LBB57_3:                               # %for.cond
                                        # =>This Loop Header: Depth=1
                                        #     Child Loop BB57_7 Depth 2
	cmpl	$32, -12(%rbp)
	jge	.LBB57_12
# %bb.4:                                # %for.body
                                        #   in Loop: Header=BB57_3 Depth=1
	movl	$5, %eax
	cmpl	dbglvl, %eax
	jge	.LBB57_6
# %bb.5:                                # %if.then3
                                        #   in Loop: Header=BB57_3 Depth=1
	movl	-12(%rbp), %esi
	movabsq	$.L.str.3, %rdi
	movb	$0, %al
	callq	printf
.LBB57_6:                               # %if.end5
                                        #   in Loop: Header=BB57_3 Depth=1
	movl	$0, -16(%rbp)
.LBB57_7:                               # %for.cond6
                                        #   Parent Loop BB57_3 Depth=1
                                        # =>  This Inner Loop Header: Depth=2
	cmpl	$131072, -16(%rbp)      # imm = 0x20000
	jge	.LBB57_10
# %bb.8:                                # %for.body8
                                        #   in Loop: Header=BB57_7 Depth=2
	callq	ran
	vmovsd	.LCPI57_1(%rip), %xmm1  # xmm1 = mem[0],zero
	vmulsd	%xmm1, %xmm0, %xmm0
	vcvttsd2si	%xmm0, %eax
	movslq	-12(%rbp), %rcx
	shlq	$17, %rcx
	leaq	-4194336(%rbp), %rdx
	addq	%rcx, %rdx
	movslq	-16(%rbp), %rcx
	movb	%al, (%rdx,%rcx)
# %bb.9:                                # %for.inc
                                        #   in Loop: Header=BB57_7 Depth=2
	movl	-16(%rbp), %eax
	addl	$1, %eax
	movl	%eax, -16(%rbp)
	jmp	.LBB57_7
.LBB57_10:                              # %for.end
                                        #   in Loop: Header=BB57_3 Depth=1
	jmp	.LBB57_11
.LBB57_11:                              # %for.inc13
                                        #   in Loop: Header=BB57_3 Depth=1
	movl	-12(%rbp), %eax
	addl	$1, %eax
	movl	%eax, -12(%rbp)
	jmp	.LBB57_3
.LBB57_12:                              # %for.end15
	movl	$4, %eax
	cmpl	dbglvl, %eax
	jge	.LBB57_14
# %bb.13:                               # %if.then18
	movabsq	$.L.str.4, %rdi
	movb	$0, %al
	callq	printf
.LBB57_14:                              # %if.end20
	movl	$0, -12(%rbp)
.LBB57_15:                              # %for.cond21
                                        # =>This Inner Loop Header: Depth=1
	movl	-12(%rbp), %eax
	movslq	-20(%rbp), %rcx
	imulq	$24, %rcx, %rcx
	movabsq	$spec_fd, %rdx
	addq	%rcx, %rdx
	cmpl	(%rdx), %eax
	jge	.LBB57_18
# %bb.16:                               # %for.body26
                                        #   in Loop: Header=BB57_15 Depth=1
	movslq	-20(%rbp), %rax
	imulq	$24, %rax, %rax
	movabsq	$spec_fd, %rcx
	addq	%rax, %rcx
	movq	16(%rcx), %rbx
	movslq	-12(%rbp), %rax
	addq	%rax, %rbx
	callq	ran
	vmovsd	.LCPI57_0(%rip), %xmm1  # xmm1 = mem[0],zero
	vmulsd	%xmm1, %xmm0, %xmm0
	vcvttsd2si	%xmm0, %eax
	cltq
	shlq	$17, %rax
	leaq	-4194336(%rbp), %rsi
	addq	%rax, %rsi
	movq	%rbx, %rdi
	movl	$131072, %edx           # imm = 0x20000
	callq	memcpy
# %bb.17:                               # %for.inc34
                                        #   in Loop: Header=BB57_15 Depth=1
	movl	-12(%rbp), %eax
	addl	$131072, %eax           # imm = 0x20000
	movl	%eax, -12(%rbp)
	jmp	.LBB57_15
.LBB57_18:                              # %for.end35
	movslq	-20(%rbp), %rax
	imulq	$24, %rax, %rax
	movabsq	$spec_fd, %rcx
	addq	%rax, %rcx
	movl	$1048576, 4(%rcx)       # imm = 0x100000
	cmpl	$1590447173, -24(%rbp)  # imm = 0x5ECC4C45
	jne	.LBB57_20
.LBB57_19:
	xorl	%eax, %eax
	addq	$4194328, %rsp          # imm = 0x400018
	popq	%rbx
	popq	%rbp
	.cfi_def_cfa %rsp, 8
	retq
.LBB57_20:                              # %func_exit
	.cfi_def_cfa %rbp, 16
	callq	detect_breach
	jmp	.LBB57_19
.Lfunc_end57:
	.size	spec_random_load.45, .Lfunc_end57-spec_random_load.45
	.cfi_endproc
                                        # -- End function
	.globl	spec_load.46            # -- Begin function spec_load.46
	.p2align	4, 0x90
	.type	spec_load.46,@function
spec_load.46:                           # @spec_load.46
	.cfi_startproc
# %bb.0:                                # %entry
	pushq	%rbp
	.cfi_def_cfa_offset 16
	.cfi_offset %rbp, -16
	movq	%rsp, %rbp
	.cfi_def_cfa_register %rbp
	pushq	%r14
	pushq	%rbx
	subq	$48, %rsp
	.cfi_offset %rbx, -32
	.cfi_offset %r14, -24
	movl	$1225721857, -52(%rbp)  # imm = 0x490F0801
	movl	%edi, -20(%rbp)
	movq	%rsi, -48(%rbp)
	movl	%edx, -36(%rbp)
	movq	-48(%rbp), %rdi
	xorl	%esi, %esi
	movb	$0, %al
	callq	open
	movl	%eax, -40(%rbp)
	cmpl	$0, -40(%rbp)
	jge	.LBB58_2
# %bb.1:                                # %if.then
	movq	stderr, %rbx
	movq	-48(%rbp), %r14
	callq	__errno_location
	movl	(%rax), %edi
	callq	strerror
	movq	%rbx, %rdi
	movabsq	$.L.str.5, %rsi
	movq	%r14, %rdx
	movq	%rax, %rcx
	movb	$0, %al
	callq	fprintf
	xorl	%edi, %edi
	callq	exit
.LBB58_2:                               # %if.end
	movslq	-20(%rbp), %rax
	imulq	$24, %rax, %rax
	movabsq	$spec_fd, %rcx
	movq	%rcx, %rdx
	addq	%rax, %rdx
	movl	$0, 4(%rdx)
	movslq	-20(%rbp), %rax
	imulq	$24, %rax, %rax
	addq	%rax, %rcx
	movl	$0, 8(%rcx)
	movl	$0, -32(%rbp)
.LBB58_3:                               # %for.cond
                                        # =>This Inner Loop Header: Depth=1
	movl	-32(%rbp), %eax
	cmpl	-36(%rbp), %eax
	jge	.LBB58_10
# %bb.4:                                # %for.body
                                        #   in Loop: Header=BB58_3 Depth=1
	movl	-40(%rbp), %edi
	movslq	-20(%rbp), %rax
	imulq	$24, %rax, %rax
	movabsq	$spec_fd, %rcx
	addq	%rax, %rcx
	movq	16(%rcx), %rsi
	movslq	-32(%rbp), %rax
	addq	%rax, %rsi
	movl	$131072, %edx           # imm = 0x20000
	callq	read
	movl	%eax, -28(%rbp)
	cmpl	$0, -28(%rbp)
	jne	.LBB58_6
# %bb.5:                                # %if.then12
	jmp	.LBB58_11
.LBB58_6:                               # %if.end13
                                        #   in Loop: Header=BB58_3 Depth=1
	cmpl	$0, -28(%rbp)
	jge	.LBB58_8
# %bb.7:                                # %if.then16
	movq	stderr, %rbx
	movq	-48(%rbp), %r14
	callq	__errno_location
	movl	(%rax), %edi
	callq	strerror
	movq	%rbx, %rdi
	movabsq	$.L.str.6, %rsi
	movq	%r14, %rdx
	movq	%rax, %rcx
	movb	$0, %al
	callq	fprintf
	xorl	%edi, %edi
	callq	exit
.LBB58_8:                               # %if.end20
                                        #   in Loop: Header=BB58_3 Depth=1
	movl	-28(%rbp), %eax
	movslq	-20(%rbp), %rcx
	imulq	$24, %rcx, %rcx
	movabsq	$spec_fd, %rdx
	addq	%rcx, %rdx
	addl	4(%rdx), %eax
	movl	%eax, 4(%rdx)
# %bb.9:                                # %for.inc
                                        #   in Loop: Header=BB58_3 Depth=1
	movl	-28(%rbp), %eax
	addl	-32(%rbp), %eax
	movl	%eax, -32(%rbp)
	jmp	.LBB58_3
.LBB58_10:                              # %for.end.loopexit
	jmp	.LBB58_11
.LBB58_11:                              # %for.end
	movl	-40(%rbp), %edi
	callq	close
.LBB58_12:                              # %while.cond
                                        # =>This Inner Loop Header: Depth=1
	movslq	-20(%rbp), %rax
	imulq	$24, %rax, %rax
	movabsq	$spec_fd, %rcx
	addq	%rax, %rcx
	movl	4(%rcx), %eax
	cmpl	-36(%rbp), %eax
	jge	.LBB58_18
# %bb.13:                               # %while.body
                                        #   in Loop: Header=BB58_12 Depth=1
	movl	-36(%rbp), %eax
	movslq	-20(%rbp), %rcx
	imulq	$24, %rcx, %rcx
	movabsq	$spec_fd, %rdx
	movq	%rdx, %rsi
	addq	%rcx, %rsi
	subl	4(%rsi), %eax
	movl	%eax, -24(%rbp)
	movl	-24(%rbp), %eax
	movslq	-20(%rbp), %rcx
	imulq	$24, %rcx, %rcx
	addq	%rcx, %rdx
	cmpl	4(%rdx), %eax
	jle	.LBB58_15
# %bb.14:                               # %if.then39
                                        #   in Loop: Header=BB58_12 Depth=1
	movslq	-20(%rbp), %rax
	imulq	$24, %rax, %rax
	movabsq	$spec_fd, %rcx
	addq	%rax, %rcx
	movl	4(%rcx), %eax
	movl	%eax, -24(%rbp)
.LBB58_15:                              # %if.end43
                                        #   in Loop: Header=BB58_12 Depth=1
	movl	$3, %eax
	cmpl	dbglvl, %eax
	jge	.LBB58_17
# %bb.16:                               # %if.then46
                                        #   in Loop: Header=BB58_12 Depth=1
	movl	-24(%rbp), %esi
	movabsq	$.L.str.7, %rdi
	movb	$0, %al
	callq	printf
.LBB58_17:                              # %if.end48
                                        #   in Loop: Header=BB58_12 Depth=1
	movslq	-20(%rbp), %rax
	imulq	$24, %rax, %rax
	movabsq	$spec_fd, %rbx
	movq	%rbx, %rcx
	addq	%rax, %rcx
	movq	16(%rcx), %rdi
	movslq	-20(%rbp), %rax
	imulq	$24, %rax, %rax
	movq	%rbx, %rcx
	addq	%rax, %rcx
	movslq	4(%rcx), %rax
	addq	%rax, %rdi
	movslq	-20(%rbp), %rax
	imulq	$24, %rax, %rax
	movq	%rbx, %rcx
	addq	%rax, %rcx
	movq	16(%rcx), %rsi
	movslq	-24(%rbp), %rdx
	callq	memcpy
	movl	-24(%rbp), %eax
	movslq	-20(%rbp), %rcx
	imulq	$24, %rcx, %rcx
	addq	%rcx, %rbx
	addl	4(%rbx), %eax
	movl	%eax, 4(%rbx)
	jmp	.LBB58_12
.LBB58_18:                              # %while.end
	cmpl	$1225721857, -52(%rbp)  # imm = 0x490F0801
	jne	.LBB58_20
.LBB58_19:
	xorl	%eax, %eax
	addq	$48, %rsp
	popq	%rbx
	popq	%r14
	popq	%rbp
	.cfi_def_cfa %rsp, 8
	retq
.LBB58_20:                              # %func_exit
	.cfi_def_cfa %rbp, 16
	callq	detect_breach
	jmp	.LBB58_19
.Lfunc_end58:
	.size	spec_load.46, .Lfunc_end58-spec_load.46
	.cfi_endproc
                                        # -- End function
	.section	.rodata.cst8,"aM",@progbits,8
	.p2align	3               # -- Begin function spec_random_load.47
.LCPI59_0:
	.quad	4629700416936869888     # double 32
.LCPI59_1:
	.quad	4643211215818981376     # double 256
	.text
	.globl	spec_random_load.47
	.p2align	4, 0x90
	.type	spec_random_load.47,@function
spec_random_load.47:                    # @spec_random_load.47
	.cfi_startproc
# %bb.0:                                # %entry
	pushq	%rbp
	.cfi_def_cfa_offset 16
	.cfi_offset %rbp, -16
	movq	%rsp, %rbp
	.cfi_def_cfa_register %rbp
	pushq	%rbx
	subq	$4194328, %rsp          # imm = 0x400018
	.cfi_offset %rbx, -24
	movl	$719181961, -24(%rbp)   # imm = 0x2ADDD889
	movl	%edi, -20(%rbp)
	movl	$4, %eax
	cmpl	dbglvl, %eax
	jge	.LBB59_2
# %bb.1:                                # %if.then
	movabsq	$.L.str.2, %rdi
	movb	$0, %al
	callq	printf
.LBB59_2:                               # %if.end
	movl	$0, -12(%rbp)
.LBB59_3:                               # %for.cond
                                        # =>This Loop Header: Depth=1
                                        #     Child Loop BB59_7 Depth 2
	cmpl	$32, -12(%rbp)
	jge	.LBB59_12
# %bb.4:                                # %for.body
                                        #   in Loop: Header=BB59_3 Depth=1
	movl	$5, %eax
	cmpl	dbglvl, %eax
	jge	.LBB59_6
# %bb.5:                                # %if.then3
                                        #   in Loop: Header=BB59_3 Depth=1
	movl	-12(%rbp), %esi
	movabsq	$.L.str.3, %rdi
	movb	$0, %al
	callq	printf
.LBB59_6:                               # %if.end5
                                        #   in Loop: Header=BB59_3 Depth=1
	movl	$0, -16(%rbp)
.LBB59_7:                               # %for.cond6
                                        #   Parent Loop BB59_3 Depth=1
                                        # =>  This Inner Loop Header: Depth=2
	cmpl	$131072, -16(%rbp)      # imm = 0x20000
	jge	.LBB59_10
# %bb.8:                                # %for.body8
                                        #   in Loop: Header=BB59_7 Depth=2
	callq	ran
	vmovsd	.LCPI59_1(%rip), %xmm1  # xmm1 = mem[0],zero
	vmulsd	%xmm1, %xmm0, %xmm0
	vcvttsd2si	%xmm0, %eax
	movslq	-12(%rbp), %rcx
	shlq	$17, %rcx
	leaq	-4194336(%rbp), %rdx
	addq	%rcx, %rdx
	movslq	-16(%rbp), %rcx
	movb	%al, (%rdx,%rcx)
# %bb.9:                                # %for.inc
                                        #   in Loop: Header=BB59_7 Depth=2
	movl	-16(%rbp), %eax
	addl	$1, %eax
	movl	%eax, -16(%rbp)
	jmp	.LBB59_7
.LBB59_10:                              # %for.end
                                        #   in Loop: Header=BB59_3 Depth=1
	jmp	.LBB59_11
.LBB59_11:                              # %for.inc13
                                        #   in Loop: Header=BB59_3 Depth=1
	movl	-12(%rbp), %eax
	addl	$1, %eax
	movl	%eax, -12(%rbp)
	jmp	.LBB59_3
.LBB59_12:                              # %for.end15
	movl	$4, %eax
	cmpl	dbglvl, %eax
	jge	.LBB59_14
# %bb.13:                               # %if.then18
	movabsq	$.L.str.4, %rdi
	movb	$0, %al
	callq	printf
.LBB59_14:                              # %if.end20
	movl	$0, -12(%rbp)
.LBB59_15:                              # %for.cond21
                                        # =>This Inner Loop Header: Depth=1
	movl	-12(%rbp), %eax
	movslq	-20(%rbp), %rcx
	imulq	$24, %rcx, %rcx
	movabsq	$spec_fd, %rdx
	addq	%rcx, %rdx
	cmpl	(%rdx), %eax
	jge	.LBB59_18
# %bb.16:                               # %for.body26
                                        #   in Loop: Header=BB59_15 Depth=1
	movslq	-20(%rbp), %rax
	imulq	$24, %rax, %rax
	movabsq	$spec_fd, %rcx
	addq	%rax, %rcx
	movq	16(%rcx), %rbx
	movslq	-12(%rbp), %rax
	addq	%rax, %rbx
	callq	ran
	vmovsd	.LCPI59_0(%rip), %xmm1  # xmm1 = mem[0],zero
	vmulsd	%xmm1, %xmm0, %xmm0
	vcvttsd2si	%xmm0, %eax
	cltq
	shlq	$17, %rax
	leaq	-4194336(%rbp), %rsi
	addq	%rax, %rsi
	movq	%rbx, %rdi
	movl	$131072, %edx           # imm = 0x20000
	callq	memcpy
# %bb.17:                               # %for.inc34
                                        #   in Loop: Header=BB59_15 Depth=1
	movl	-12(%rbp), %eax
	addl	$131072, %eax           # imm = 0x20000
	movl	%eax, -12(%rbp)
	jmp	.LBB59_15
.LBB59_18:                              # %for.end35
	movslq	-20(%rbp), %rax
	imulq	$24, %rax, %rax
	movabsq	$spec_fd, %rcx
	addq	%rax, %rcx
	movl	$1048576, 4(%rcx)       # imm = 0x100000
	cmpl	$719181961, -24(%rbp)   # imm = 0x2ADDD889
	jne	.LBB59_20
.LBB59_19:
	xorl	%eax, %eax
	addq	$4194328, %rsp          # imm = 0x400018
	popq	%rbx
	popq	%rbp
	.cfi_def_cfa %rsp, 8
	retq
.LBB59_20:                              # %func_exit
	.cfi_def_cfa %rbp, 16
	callq	detect_breach
	jmp	.LBB59_19
.Lfunc_end59:
	.size	spec_random_load.47, .Lfunc_end59-spec_random_load.47
	.cfi_endproc
                                        # -- End function
	.globl	spec_init.48            # -- Begin function spec_init.48
	.p2align	4, 0x90
	.type	spec_init.48,@function
spec_init.48:                           # @spec_init.48
	.cfi_startproc
# %bb.0:                                # %entry
	pushq	%rbp
	.cfi_def_cfa_offset 16
	.cfi_offset %rbp, -16
	movq	%rsp, %rbp
	.cfi_def_cfa_register %rbp
	pushq	%rbx
	subq	$24, %rsp
	.cfi_offset %rbx, -24
	movl	$566853860, -24(%rbp)   # imm = 0x21C980E4
	movl	$3, %eax
	cmpl	dbglvl, %eax
	jge	.LBB60_2
# %bb.1:                                # %if.then
	movabsq	$.L.str, %rdi
	movb	$0, %al
	callq	printf
.LBB60_2:                               # %if.end
	movl	$0, -12(%rbp)
.LBB60_3:                               # %for.cond
                                        # =>This Loop Header: Depth=1
                                        #     Child Loop BB60_7 Depth 2
	cmpl	$3, -12(%rbp)
	jge	.LBB60_12
# %bb.4:                                # %for.body
                                        #   in Loop: Header=BB60_3 Depth=1
	movslq	-12(%rbp), %rax
	imulq	$24, %rax, %rax
	movabsq	$spec_fd, %rbx
	movq	%rbx, %rcx
	addq	%rax, %rcx
	movl	(%rcx), %eax
	movl	%eax, -20(%rbp)
	movslq	-12(%rbp), %rax
	imulq	$24, %rax, %rax
	movq	%rbx, %rdi
	addq	%rax, %rdi
	xorl	%esi, %esi
	movl	$24, %edx
	callq	memset
	movl	-20(%rbp), %eax
	movslq	-12(%rbp), %rcx
	imulq	$24, %rcx, %rcx
	addq	%rcx, %rbx
	movl	%eax, (%rbx)
	movl	-20(%rbp), %eax
	addl	$1048576, %eax          # imm = 0x100000
	movslq	%eax, %rdi
	callq	malloc
	movslq	-12(%rbp), %rcx
	imulq	$24, %rcx, %rcx
	movabsq	$spec_fd, %rdx
	movq	%rdx, %rsi
	addq	%rcx, %rsi
	movq	%rax, 16(%rsi)
	movslq	-12(%rbp), %rax
	imulq	$24, %rax, %rax
	addq	%rax, %rdx
	cmpq	$0, 16(%rdx)
	jne	.LBB60_6
# %bb.5:                                # %if.then16
	movabsq	$.L.str.1, %rdi
	movb	$0, %al
	callq	printf
	xorl	%edi, %edi
	callq	exit
.LBB60_6:                               # %if.end18
                                        #   in Loop: Header=BB60_3 Depth=1
	movl	$0, -16(%rbp)
.LBB60_7:                               # %for.cond19
                                        #   Parent Loop BB60_3 Depth=1
                                        # =>  This Inner Loop Header: Depth=2
	movl	-16(%rbp), %eax
	cmpl	-20(%rbp), %eax
	jge	.LBB60_10
# %bb.8:                                # %for.body22
                                        #   in Loop: Header=BB60_7 Depth=2
	movslq	-12(%rbp), %rax
	imulq	$24, %rax, %rax
	movabsq	$spec_fd, %rcx
	addq	%rax, %rcx
	movq	16(%rcx), %rax
	movslq	-16(%rbp), %rcx
	movb	$0, (%rax,%rcx)
# %bb.9:                                # %for.inc
                                        #   in Loop: Header=BB60_7 Depth=2
	movl	-16(%rbp), %eax
	addl	$1024, %eax             # imm = 0x400
	movl	%eax, -16(%rbp)
	jmp	.LBB60_7
.LBB60_10:                              # %for.end
                                        #   in Loop: Header=BB60_3 Depth=1
	jmp	.LBB60_11
.LBB60_11:                              # %for.inc29
                                        #   in Loop: Header=BB60_3 Depth=1
	movl	-12(%rbp), %eax
	addl	$1, %eax
	movl	%eax, -12(%rbp)
	jmp	.LBB60_3
.LBB60_12:                              # %for.end30
	cmpl	$566853860, -24(%rbp)   # imm = 0x21C980E4
	jne	.LBB60_14
.LBB60_13:
	xorl	%eax, %eax
	addq	$24, %rsp
	popq	%rbx
	popq	%rbp
	.cfi_def_cfa %rsp, 8
	retq
.LBB60_14:                              # %func_exit
	.cfi_def_cfa %rbp, 16
	callq	detect_breach
	jmp	.LBB60_13
.Lfunc_end60:
	.size	spec_init.48, .Lfunc_end60-spec_init.48
	.cfi_endproc
                                        # -- End function
	.globl	spec_read.49            # -- Begin function spec_read.49
	.p2align	4, 0x90
	.type	spec_read.49,@function
spec_read.49:                           # @spec_read.49
	.cfi_startproc
# %bb.0:                                # %entry
	pushq	%rbp
	.cfi_def_cfa_offset 16
	.cfi_offset %rbp, -16
	movq	%rsp, %rbp
	.cfi_def_cfa_register %rbp
	pushq	%rbx
	subq	$40, %rsp
	.cfi_offset %rbx, -24
	movl	$935135349, -28(%rbp)   # imm = 0x37BD0875
	movl	%edi, -12(%rbp)
	movq	%rsi, -40(%rbp)
	movl	%edx, -20(%rbp)
	movl	$0, -16(%rbp)
	movl	$4, %eax
	cmpl	dbglvl, %eax
	jge	.LBB61_2
# %bb.1:                                # %if.then
	movl	-12(%rbp), %esi
	movq	-40(%rbp), %rdx
	movl	-20(%rbp), %ecx
	movabsq	$.L.str.8, %rdi
	movb	$0, %al
	callq	printf
.LBB61_2:                               # %if.end
	cmpl	$3, -12(%rbp)
	jle	.LBB61_4
# %bb.3:                                # %if.then2
	movq	stderr, %rdi
	movl	-12(%rbp), %edx
	movabsq	$.L.str.9, %rsi
	movb	$0, %al
	callq	fprintf
	xorl	%edi, %edi
	callq	exit
.LBB61_4:                               # %if.end4
	movslq	-12(%rbp), %rax
	imulq	$24, %rax, %rax
	movabsq	$spec_fd, %rcx
	movq	%rcx, %rdx
	addq	%rax, %rdx
	movl	8(%rdx), %eax
	movslq	-12(%rbp), %rdx
	imulq	$24, %rdx, %rdx
	addq	%rdx, %rcx
	cmpl	4(%rcx), %eax
	jl	.LBB61_8
# %bb.5:                                # %if.then8
	movl	$4, %eax
	cmpl	dbglvl, %eax
	jge	.LBB61_7
# %bb.6:                                # %if.then10
	movabsq	$.L.str.10, %rdi
	movb	$0, %al
	callq	printf
.LBB61_7:                               # %if.end12
	movl	$-1, -24(%rbp)
	jmp	.LBB61_14
.LBB61_8:                               # %if.end13
	movslq	-12(%rbp), %rax
	imulq	$24, %rax, %rax
	movabsq	$spec_fd, %rcx
	movq	%rcx, %rdx
	addq	%rax, %rdx
	movl	8(%rdx), %eax
	addl	-20(%rbp), %eax
	movslq	-12(%rbp), %rdx
	imulq	$24, %rdx, %rdx
	addq	%rdx, %rcx
	cmpl	4(%rcx), %eax
	jl	.LBB61_10
# %bb.9:                                # %if.then21
	movslq	-12(%rbp), %rax
	imulq	$24, %rax, %rax
	movabsq	$spec_fd, %rcx
	movq	%rcx, %rdx
	addq	%rax, %rdx
	movl	4(%rdx), %eax
	movslq	-12(%rbp), %rdx
	imulq	$24, %rdx, %rdx
	addq	%rdx, %rcx
	subl	8(%rcx), %eax
	movl	%eax, -16(%rbp)
	jmp	.LBB61_11
.LBB61_10:                              # %if.else
	movl	-20(%rbp), %eax
	movl	%eax, -16(%rbp)
.LBB61_11:                              # %if.end28
	movq	-40(%rbp), %rdi
	movslq	-12(%rbp), %rax
	imulq	$24, %rax, %rax
	movabsq	$spec_fd, %rbx
	movq	%rbx, %rcx
	addq	%rax, %rcx
	movq	16(%rcx), %rsi
	movslq	-12(%rbp), %rax
	imulq	$24, %rax, %rax
	movq	%rbx, %rcx
	addq	%rax, %rcx
	movslq	8(%rcx), %rax
	addq	%rax, %rsi
	movslq	-16(%rbp), %rdx
	callq	memcpy
	movl	-16(%rbp), %eax
	movslq	-12(%rbp), %rcx
	imulq	$24, %rcx, %rcx
	addq	%rcx, %rbx
	addl	8(%rbx), %eax
	movl	%eax, 8(%rbx)
	movl	$4, %eax
	cmpl	dbglvl, %eax
	jge	.LBB61_13
# %bb.12:                               # %if.then43
	movl	-16(%rbp), %esi
	movabsq	$.L.str.11, %rdi
	movb	$0, %al
	callq	printf
.LBB61_13:                              # %if.end45
	movl	-16(%rbp), %eax
	movl	%eax, -24(%rbp)
.LBB61_14:                              # %return
	movl	-24(%rbp), %ebx
	cmpl	$935135349, -28(%rbp)   # imm = 0x37BD0875
	jne	.LBB61_16
.LBB61_15:
	movl	%ebx, %eax
	addq	$40, %rsp
	popq	%rbx
	popq	%rbp
	.cfi_def_cfa %rsp, 8
	retq
.LBB61_16:                              # %func_exit
	.cfi_def_cfa %rbp, 16
	callq	detect_breach
	jmp	.LBB61_15
.Lfunc_end61:
	.size	spec_read.49, .Lfunc_end61-spec_read.49
	.cfi_endproc
                                        # -- End function
	.globl	spec_getc.50            # -- Begin function spec_getc.50
	.p2align	4, 0x90
	.type	spec_getc.50,@function
spec_getc.50:                           # @spec_getc.50
	.cfi_startproc
# %bb.0:                                # %entry
	pushq	%rbp
	.cfi_def_cfa_offset 16
	.cfi_offset %rbp, -16
	movq	%rsp, %rbp
	.cfi_def_cfa_register %rbp
	pushq	%rbx
	subq	$24, %rsp
	.cfi_offset %rbx, -24
	movl	$1171435081, -24(%rbp)  # imm = 0x45D2AE49
	movl	%edi, -12(%rbp)
	movl	$0, -16(%rbp)
	movl	$4, %eax
	cmpl	dbglvl, %eax
	jge	.LBB62_2
# %bb.1:                                # %if.then
	movl	-12(%rbp), %esi
	movabsq	$.L.str.14, %rdi
	movb	$0, %al
	callq	printf
.LBB62_2:                               # %if.end
	cmpl	$3, -12(%rbp)
	jle	.LBB62_4
# %bb.3:                                # %if.then2
	movq	stderr, %rdi
	movl	-12(%rbp), %edx
	movabsq	$.L.str.9, %rsi
	movb	$0, %al
	callq	fprintf
	xorl	%edi, %edi
	callq	exit
.LBB62_4:                               # %if.end4
	movslq	-12(%rbp), %rax
	imulq	$24, %rax, %rax
	movabsq	$spec_fd, %rcx
	movq	%rcx, %rdx
	addq	%rax, %rdx
	movl	8(%rdx), %eax
	movslq	-12(%rbp), %rdx
	imulq	$24, %rdx, %rdx
	addq	%rdx, %rcx
	cmpl	4(%rcx), %eax
	jl	.LBB62_8
# %bb.5:                                # %if.then8
	movl	$4, %eax
	cmpl	dbglvl, %eax
	jge	.LBB62_7
# %bb.6:                                # %if.then10
	movabsq	$.L.str.10, %rdi
	movb	$0, %al
	callq	printf
.LBB62_7:                               # %if.end12
	movl	$-1, -20(%rbp)
	jmp	.LBB62_11
.LBB62_8:                               # %if.end13
	movslq	-12(%rbp), %rax
	imulq	$24, %rax, %rax
	movabsq	$spec_fd, %rcx
	movq	%rcx, %rdx
	addq	%rax, %rdx
	movq	16(%rdx), %rax
	movslq	-12(%rbp), %rdx
	imulq	$24, %rdx, %rdx
	addq	%rdx, %rcx
	movl	8(%rcx), %edx
	movl	%edx, %esi
	addl	$1, %esi
	movl	%esi, 8(%rcx)
	movslq	%edx, %rcx
	movzbl	(%rax,%rcx), %eax
	movl	%eax, -16(%rbp)
	movl	$4, %eax
	cmpl	dbglvl, %eax
	jge	.LBB62_10
# %bb.9:                                # %if.then23
	movl	-16(%rbp), %esi
	movabsq	$.L.str.11, %rdi
	movb	$0, %al
	callq	printf
.LBB62_10:                              # %if.end25
	movl	-16(%rbp), %eax
	movl	%eax, -20(%rbp)
.LBB62_11:                              # %return
	movl	-20(%rbp), %ebx
	cmpl	$1171435081, -24(%rbp)  # imm = 0x45D2AE49
	jne	.LBB62_13
.LBB62_12:
	movl	%ebx, %eax
	addq	$24, %rsp
	popq	%rbx
	popq	%rbp
	.cfi_def_cfa %rsp, 8
	retq
.LBB62_13:                              # %func_exit
	.cfi_def_cfa %rbp, 16
	callq	detect_breach
	jmp	.LBB62_12
.Lfunc_end62:
	.size	spec_getc.50, .Lfunc_end62-spec_getc.50
	.cfi_endproc
                                        # -- End function
	.section	.rodata.cst8,"aM",@progbits,8
	.p2align	3               # -- Begin function spec_random_load.51
.LCPI63_0:
	.quad	4629700416936869888     # double 32
.LCPI63_1:
	.quad	4643211215818981376     # double 256
	.text
	.globl	spec_random_load.51
	.p2align	4, 0x90
	.type	spec_random_load.51,@function
spec_random_load.51:                    # @spec_random_load.51
	.cfi_startproc
# %bb.0:                                # %entry
	pushq	%rbp
	.cfi_def_cfa_offset 16
	.cfi_offset %rbp, -16
	movq	%rsp, %rbp
	.cfi_def_cfa_register %rbp
	pushq	%rbx
	subq	$4194328, %rsp          # imm = 0x400018
	.cfi_offset %rbx, -24
	movl	$669875372, -24(%rbp)   # imm = 0x27ED7CAC
	movl	%edi, -20(%rbp)
	movl	$4, %eax
	cmpl	dbglvl, %eax
	jge	.LBB63_2
# %bb.1:                                # %if.then
	movabsq	$.L.str.2, %rdi
	movb	$0, %al
	callq	printf
.LBB63_2:                               # %if.end
	movl	$0, -12(%rbp)
.LBB63_3:                               # %for.cond
                                        # =>This Loop Header: Depth=1
                                        #     Child Loop BB63_7 Depth 2
	cmpl	$32, -12(%rbp)
	jge	.LBB63_12
# %bb.4:                                # %for.body
                                        #   in Loop: Header=BB63_3 Depth=1
	movl	$5, %eax
	cmpl	dbglvl, %eax
	jge	.LBB63_6
# %bb.5:                                # %if.then3
                                        #   in Loop: Header=BB63_3 Depth=1
	movl	-12(%rbp), %esi
	movabsq	$.L.str.3, %rdi
	movb	$0, %al
	callq	printf
.LBB63_6:                               # %if.end5
                                        #   in Loop: Header=BB63_3 Depth=1
	movl	$0, -16(%rbp)
.LBB63_7:                               # %for.cond6
                                        #   Parent Loop BB63_3 Depth=1
                                        # =>  This Inner Loop Header: Depth=2
	cmpl	$131072, -16(%rbp)      # imm = 0x20000
	jge	.LBB63_10
# %bb.8:                                # %for.body8
                                        #   in Loop: Header=BB63_7 Depth=2
	callq	ran
	vmovsd	.LCPI63_1(%rip), %xmm1  # xmm1 = mem[0],zero
	vmulsd	%xmm1, %xmm0, %xmm0
	vcvttsd2si	%xmm0, %eax
	movslq	-12(%rbp), %rcx
	shlq	$17, %rcx
	leaq	-4194336(%rbp), %rdx
	addq	%rcx, %rdx
	movslq	-16(%rbp), %rcx
	movb	%al, (%rdx,%rcx)
# %bb.9:                                # %for.inc
                                        #   in Loop: Header=BB63_7 Depth=2
	movl	-16(%rbp), %eax
	addl	$1, %eax
	movl	%eax, -16(%rbp)
	jmp	.LBB63_7
.LBB63_10:                              # %for.end
                                        #   in Loop: Header=BB63_3 Depth=1
	jmp	.LBB63_11
.LBB63_11:                              # %for.inc13
                                        #   in Loop: Header=BB63_3 Depth=1
	movl	-12(%rbp), %eax
	addl	$1, %eax
	movl	%eax, -12(%rbp)
	jmp	.LBB63_3
.LBB63_12:                              # %for.end15
	movl	$4, %eax
	cmpl	dbglvl, %eax
	jge	.LBB63_14
# %bb.13:                               # %if.then18
	movabsq	$.L.str.4, %rdi
	movb	$0, %al
	callq	printf
.LBB63_14:                              # %if.end20
	movl	$0, -12(%rbp)
.LBB63_15:                              # %for.cond21
                                        # =>This Inner Loop Header: Depth=1
	movl	-12(%rbp), %eax
	movslq	-20(%rbp), %rcx
	imulq	$24, %rcx, %rcx
	movabsq	$spec_fd, %rdx
	addq	%rcx, %rdx
	cmpl	(%rdx), %eax
	jge	.LBB63_18
# %bb.16:                               # %for.body26
                                        #   in Loop: Header=BB63_15 Depth=1
	movslq	-20(%rbp), %rax
	imulq	$24, %rax, %rax
	movabsq	$spec_fd, %rcx
	addq	%rax, %rcx
	movq	16(%rcx), %rbx
	movslq	-12(%rbp), %rax
	addq	%rax, %rbx
	callq	ran
	vmovsd	.LCPI63_0(%rip), %xmm1  # xmm1 = mem[0],zero
	vmulsd	%xmm1, %xmm0, %xmm0
	vcvttsd2si	%xmm0, %eax
	cltq
	shlq	$17, %rax
	leaq	-4194336(%rbp), %rsi
	addq	%rax, %rsi
	movq	%rbx, %rdi
	movl	$131072, %edx           # imm = 0x20000
	callq	memcpy
# %bb.17:                               # %for.inc34
                                        #   in Loop: Header=BB63_15 Depth=1
	movl	-12(%rbp), %eax
	addl	$131072, %eax           # imm = 0x20000
	movl	%eax, -12(%rbp)
	jmp	.LBB63_15
.LBB63_18:                              # %for.end35
	movslq	-20(%rbp), %rax
	imulq	$24, %rax, %rax
	movabsq	$spec_fd, %rcx
	addq	%rax, %rcx
	movl	$1048576, 4(%rcx)       # imm = 0x100000
	cmpl	$669875372, -24(%rbp)   # imm = 0x27ED7CAC
	jne	.LBB63_20
.LBB63_19:
	xorl	%eax, %eax
	addq	$4194328, %rsp          # imm = 0x400018
	popq	%rbx
	popq	%rbp
	.cfi_def_cfa %rsp, 8
	retq
.LBB63_20:                              # %func_exit
	.cfi_def_cfa %rbp, 16
	callq	detect_breach
	jmp	.LBB63_19
.Lfunc_end63:
	.size	spec_random_load.51, .Lfunc_end63-spec_random_load.51
	.cfi_endproc
                                        # -- End function
	.section	.rodata.cst4,"aM",@progbits,4
	.p2align	2               # -- Begin function ran.52
.LCPI64_0:
	.long	1325400064              # float 2.14748365E+9
	.text
	.globl	ran.52
	.p2align	4, 0x90
	.type	ran.52,@function
ran.52:                                 # @ran.52
	.cfi_startproc
# %bb.0:                                # %entry
	pushq	%rbp
	.cfi_def_cfa_offset 16
	.cfi_offset %rbp, -16
	movq	%rsp, %rbp
	.cfi_def_cfa_register %rbp
	subq	$48, %rsp
	movl	$150121506, -12(%rbp)   # imm = 0x8F2AC22
	movq	seedi, %rax
	cqto
	movl	$127773, %ecx           # imm = 0x1F31D
	idivq	%rcx
	movq	%rax, -40(%rbp)
	movq	seedi, %rax
	cqto
	idivq	%rcx
	movq	%rdx, -32(%rbp)
	imulq	$16807, -32(%rbp), %rax # imm = 0x41A7
	imulq	$2836, -40(%rbp), %rcx  # imm = 0xB14
	subq	%rcx, %rax
	movq	%rax, -8(%rbp)
	cmpq	$0, -8(%rbp)
	jle	.LBB64_2
# %bb.1:                                # %if.then
	movq	-8(%rbp), %rax
	movq	%rax, seedi
	jmp	.LBB64_3
.LBB64_2:                               # %if.else
	movq	-8(%rbp), %rax
	addq	$2147483647, %rax       # imm = 0x7FFFFFFF
	movq	%rax, seedi
.LBB64_3:                               # %if.end
	vmovss	.LCPI64_0(%rip), %xmm0  # xmm0 = mem[0],zero,zero,zero
	vcvtsi2ssq	seedi, %xmm0, %xmm1
	vdivss	%xmm0, %xmm1, %xmm0
	vcvtss2sd	%xmm0, %xmm0, %xmm0
	cmpl	$150121506, -12(%rbp)   # imm = 0x8F2AC22
	jne	.LBB64_5
.LBB64_4:
	addq	$48, %rsp
	popq	%rbp
	.cfi_def_cfa %rsp, 8
	retq
.LBB64_5:                               # %func_exit
	.cfi_def_cfa %rbp, 16
	vmovsd	%xmm0, -24(%rbp)        # 8-byte Spill
	callq	detect_breach
	vmovsd	-24(%rbp), %xmm0        # 8-byte Reload
                                        # xmm0 = mem[0],zero
	jmp	.LBB64_4
.Lfunc_end64:
	.size	ran.52, .Lfunc_end64-ran.52
	.cfi_endproc
                                        # -- End function
	.globl	spec_read.53            # -- Begin function spec_read.53
	.p2align	4, 0x90
	.type	spec_read.53,@function
spec_read.53:                           # @spec_read.53
	.cfi_startproc
# %bb.0:                                # %entry
	pushq	%rbp
	.cfi_def_cfa_offset 16
	.cfi_offset %rbp, -16
	movq	%rsp, %rbp
	.cfi_def_cfa_register %rbp
	pushq	%rbx
	subq	$40, %rsp
	.cfi_offset %rbx, -24
	movl	$124378878, -28(%rbp)   # imm = 0x769DEFE
	movl	%edi, -12(%rbp)
	movq	%rsi, -40(%rbp)
	movl	%edx, -20(%rbp)
	movl	$0, -16(%rbp)
	movl	$4, %eax
	cmpl	dbglvl, %eax
	jge	.LBB65_2
# %bb.1:                                # %if.then
	movl	-12(%rbp), %esi
	movq	-40(%rbp), %rdx
	movl	-20(%rbp), %ecx
	movabsq	$.L.str.8, %rdi
	movb	$0, %al
	callq	printf
.LBB65_2:                               # %if.end
	cmpl	$3, -12(%rbp)
	jle	.LBB65_4
# %bb.3:                                # %if.then2
	movq	stderr, %rdi
	movl	-12(%rbp), %edx
	movabsq	$.L.str.9, %rsi
	movb	$0, %al
	callq	fprintf
	xorl	%edi, %edi
	callq	exit
.LBB65_4:                               # %if.end4
	movslq	-12(%rbp), %rax
	imulq	$24, %rax, %rax
	movabsq	$spec_fd, %rcx
	movq	%rcx, %rdx
	addq	%rax, %rdx
	movl	8(%rdx), %eax
	movslq	-12(%rbp), %rdx
	imulq	$24, %rdx, %rdx
	addq	%rdx, %rcx
	cmpl	4(%rcx), %eax
	jl	.LBB65_8
# %bb.5:                                # %if.then8
	movl	$4, %eax
	cmpl	dbglvl, %eax
	jge	.LBB65_7
# %bb.6:                                # %if.then10
	movabsq	$.L.str.10, %rdi
	movb	$0, %al
	callq	printf
.LBB65_7:                               # %if.end12
	movl	$-1, -24(%rbp)
	jmp	.LBB65_14
.LBB65_8:                               # %if.end13
	movslq	-12(%rbp), %rax
	imulq	$24, %rax, %rax
	movabsq	$spec_fd, %rcx
	movq	%rcx, %rdx
	addq	%rax, %rdx
	movl	8(%rdx), %eax
	addl	-20(%rbp), %eax
	movslq	-12(%rbp), %rdx
	imulq	$24, %rdx, %rdx
	addq	%rdx, %rcx
	cmpl	4(%rcx), %eax
	jl	.LBB65_10
# %bb.9:                                # %if.then21
	movslq	-12(%rbp), %rax
	imulq	$24, %rax, %rax
	movabsq	$spec_fd, %rcx
	movq	%rcx, %rdx
	addq	%rax, %rdx
	movl	4(%rdx), %eax
	movslq	-12(%rbp), %rdx
	imulq	$24, %rdx, %rdx
	addq	%rdx, %rcx
	subl	8(%rcx), %eax
	movl	%eax, -16(%rbp)
	jmp	.LBB65_11
.LBB65_10:                              # %if.else
	movl	-20(%rbp), %eax
	movl	%eax, -16(%rbp)
.LBB65_11:                              # %if.end28
	movq	-40(%rbp), %rdi
	movslq	-12(%rbp), %rax
	imulq	$24, %rax, %rax
	movabsq	$spec_fd, %rbx
	movq	%rbx, %rcx
	addq	%rax, %rcx
	movq	16(%rcx), %rsi
	movslq	-12(%rbp), %rax
	imulq	$24, %rax, %rax
	movq	%rbx, %rcx
	addq	%rax, %rcx
	movslq	8(%rcx), %rax
	addq	%rax, %rsi
	movslq	-16(%rbp), %rdx
	callq	memcpy
	movl	-16(%rbp), %eax
	movslq	-12(%rbp), %rcx
	imulq	$24, %rcx, %rcx
	addq	%rcx, %rbx
	addl	8(%rbx), %eax
	movl	%eax, 8(%rbx)
	movl	$4, %eax
	cmpl	dbglvl, %eax
	jge	.LBB65_13
# %bb.12:                               # %if.then43
	movl	-16(%rbp), %esi
	movabsq	$.L.str.11, %rdi
	movb	$0, %al
	callq	printf
.LBB65_13:                              # %if.end45
	movl	-16(%rbp), %eax
	movl	%eax, -24(%rbp)
.LBB65_14:                              # %return
	movl	-24(%rbp), %ebx
	cmpl	$124378878, -28(%rbp)   # imm = 0x769DEFE
	jne	.LBB65_16
.LBB65_15:
	movl	%ebx, %eax
	addq	$40, %rsp
	popq	%rbx
	popq	%rbp
	.cfi_def_cfa %rsp, 8
	retq
.LBB65_16:                              # %func_exit
	.cfi_def_cfa %rbp, 16
	callq	detect_breach
	jmp	.LBB65_15
.Lfunc_end65:
	.size	spec_read.53, .Lfunc_end65-spec_read.53
	.cfi_endproc
                                        # -- End function
	.globl	spec_init.54            # -- Begin function spec_init.54
	.p2align	4, 0x90
	.type	spec_init.54,@function
spec_init.54:                           # @spec_init.54
	.cfi_startproc
# %bb.0:                                # %entry
	pushq	%rbp
	.cfi_def_cfa_offset 16
	.cfi_offset %rbp, -16
	movq	%rsp, %rbp
	.cfi_def_cfa_register %rbp
	pushq	%rbx
	subq	$24, %rsp
	.cfi_offset %rbx, -24
	movl	$1159068996, -24(%rbp)  # imm = 0x4515FD44
	movl	$3, %eax
	cmpl	dbglvl, %eax
	jge	.LBB66_2
# %bb.1:                                # %if.then
	movabsq	$.L.str, %rdi
	movb	$0, %al
	callq	printf
.LBB66_2:                               # %if.end
	movl	$0, -12(%rbp)
.LBB66_3:                               # %for.cond
                                        # =>This Loop Header: Depth=1
                                        #     Child Loop BB66_7 Depth 2
	cmpl	$3, -12(%rbp)
	jge	.LBB66_12
# %bb.4:                                # %for.body
                                        #   in Loop: Header=BB66_3 Depth=1
	movslq	-12(%rbp), %rax
	imulq	$24, %rax, %rax
	movabsq	$spec_fd, %rbx
	movq	%rbx, %rcx
	addq	%rax, %rcx
	movl	(%rcx), %eax
	movl	%eax, -20(%rbp)
	movslq	-12(%rbp), %rax
	imulq	$24, %rax, %rax
	movq	%rbx, %rdi
	addq	%rax, %rdi
	xorl	%esi, %esi
	movl	$24, %edx
	callq	memset
	movl	-20(%rbp), %eax
	movslq	-12(%rbp), %rcx
	imulq	$24, %rcx, %rcx
	addq	%rcx, %rbx
	movl	%eax, (%rbx)
	movl	-20(%rbp), %eax
	addl	$1048576, %eax          # imm = 0x100000
	movslq	%eax, %rdi
	callq	malloc
	movslq	-12(%rbp), %rcx
	imulq	$24, %rcx, %rcx
	movabsq	$spec_fd, %rdx
	movq	%rdx, %rsi
	addq	%rcx, %rsi
	movq	%rax, 16(%rsi)
	movslq	-12(%rbp), %rax
	imulq	$24, %rax, %rax
	addq	%rax, %rdx
	cmpq	$0, 16(%rdx)
	jne	.LBB66_6
# %bb.5:                                # %if.then16
	movabsq	$.L.str.1, %rdi
	movb	$0, %al
	callq	printf
	xorl	%edi, %edi
	callq	exit
.LBB66_6:                               # %if.end18
                                        #   in Loop: Header=BB66_3 Depth=1
	movl	$0, -16(%rbp)
.LBB66_7:                               # %for.cond19
                                        #   Parent Loop BB66_3 Depth=1
                                        # =>  This Inner Loop Header: Depth=2
	movl	-16(%rbp), %eax
	cmpl	-20(%rbp), %eax
	jge	.LBB66_10
# %bb.8:                                # %for.body22
                                        #   in Loop: Header=BB66_7 Depth=2
	movslq	-12(%rbp), %rax
	imulq	$24, %rax, %rax
	movabsq	$spec_fd, %rcx
	addq	%rax, %rcx
	movq	16(%rcx), %rax
	movslq	-16(%rbp), %rcx
	movb	$0, (%rax,%rcx)
# %bb.9:                                # %for.inc
                                        #   in Loop: Header=BB66_7 Depth=2
	movl	-16(%rbp), %eax
	addl	$1024, %eax             # imm = 0x400
	movl	%eax, -16(%rbp)
	jmp	.LBB66_7
.LBB66_10:                              # %for.end
                                        #   in Loop: Header=BB66_3 Depth=1
	jmp	.LBB66_11
.LBB66_11:                              # %for.inc29
                                        #   in Loop: Header=BB66_3 Depth=1
	movl	-12(%rbp), %eax
	addl	$1, %eax
	movl	%eax, -12(%rbp)
	jmp	.LBB66_3
.LBB66_12:                              # %for.end30
	cmpl	$1159068996, -24(%rbp)  # imm = 0x4515FD44
	jne	.LBB66_14
.LBB66_13:
	xorl	%eax, %eax
	addq	$24, %rsp
	popq	%rbx
	popq	%rbp
	.cfi_def_cfa %rsp, 8
	retq
.LBB66_14:                              # %func_exit
	.cfi_def_cfa %rbp, 16
	callq	detect_breach
	jmp	.LBB66_13
.Lfunc_end66:
	.size	spec_init.54, .Lfunc_end66-spec_init.54
	.cfi_endproc
                                        # -- End function
	.globl	spec_getc.55            # -- Begin function spec_getc.55
	.p2align	4, 0x90
	.type	spec_getc.55,@function
spec_getc.55:                           # @spec_getc.55
	.cfi_startproc
# %bb.0:                                # %entry
	pushq	%rbp
	.cfi_def_cfa_offset 16
	.cfi_offset %rbp, -16
	movq	%rsp, %rbp
	.cfi_def_cfa_register %rbp
	pushq	%rbx
	subq	$24, %rsp
	.cfi_offset %rbx, -24
	movl	$530481532, -24(%rbp)   # imm = 0x1F9E817C
	movl	%edi, -12(%rbp)
	movl	$0, -16(%rbp)
	movl	$4, %eax
	cmpl	dbglvl, %eax
	jge	.LBB67_2
# %bb.1:                                # %if.then
	movl	-12(%rbp), %esi
	movabsq	$.L.str.14, %rdi
	movb	$0, %al
	callq	printf
.LBB67_2:                               # %if.end
	cmpl	$3, -12(%rbp)
	jle	.LBB67_4
# %bb.3:                                # %if.then2
	movq	stderr, %rdi
	movl	-12(%rbp), %edx
	movabsq	$.L.str.9, %rsi
	movb	$0, %al
	callq	fprintf
	xorl	%edi, %edi
	callq	exit
.LBB67_4:                               # %if.end4
	movslq	-12(%rbp), %rax
	imulq	$24, %rax, %rax
	movabsq	$spec_fd, %rcx
	movq	%rcx, %rdx
	addq	%rax, %rdx
	movl	8(%rdx), %eax
	movslq	-12(%rbp), %rdx
	imulq	$24, %rdx, %rdx
	addq	%rdx, %rcx
	cmpl	4(%rcx), %eax
	jl	.LBB67_8
# %bb.5:                                # %if.then8
	movl	$4, %eax
	cmpl	dbglvl, %eax
	jge	.LBB67_7
# %bb.6:                                # %if.then10
	movabsq	$.L.str.10, %rdi
	movb	$0, %al
	callq	printf
.LBB67_7:                               # %if.end12
	movl	$-1, -20(%rbp)
	jmp	.LBB67_11
.LBB67_8:                               # %if.end13
	movslq	-12(%rbp), %rax
	imulq	$24, %rax, %rax
	movabsq	$spec_fd, %rcx
	movq	%rcx, %rdx
	addq	%rax, %rdx
	movq	16(%rdx), %rax
	movslq	-12(%rbp), %rdx
	imulq	$24, %rdx, %rdx
	addq	%rdx, %rcx
	movl	8(%rcx), %edx
	movl	%edx, %esi
	addl	$1, %esi
	movl	%esi, 8(%rcx)
	movslq	%edx, %rcx
	movzbl	(%rax,%rcx), %eax
	movl	%eax, -16(%rbp)
	movl	$4, %eax
	cmpl	dbglvl, %eax
	jge	.LBB67_10
# %bb.9:                                # %if.then23
	movl	-16(%rbp), %esi
	movabsq	$.L.str.11, %rdi
	movb	$0, %al
	callq	printf
.LBB67_10:                              # %if.end25
	movl	-16(%rbp), %eax
	movl	%eax, -20(%rbp)
.LBB67_11:                              # %return
	movl	-20(%rbp), %ebx
	cmpl	$530481532, -24(%rbp)   # imm = 0x1F9E817C
	jne	.LBB67_13
.LBB67_12:
	movl	%ebx, %eax
	addq	$24, %rsp
	popq	%rbx
	popq	%rbp
	.cfi_def_cfa %rsp, 8
	retq
.LBB67_13:                              # %func_exit
	.cfi_def_cfa %rbp, 16
	callq	detect_breach
	jmp	.LBB67_12
.Lfunc_end67:
	.size	spec_getc.55, .Lfunc_end67-spec_getc.55
	.cfi_endproc
                                        # -- End function
	.globl	spec_write.56           # -- Begin function spec_write.56
	.p2align	4, 0x90
	.type	spec_write.56,@function
spec_write.56:                          # @spec_write.56
	.cfi_startproc
# %bb.0:                                # %entry
	pushq	%rbp
	.cfi_def_cfa_offset 16
	.cfi_offset %rbp, -16
	movq	%rsp, %rbp
	.cfi_def_cfa_register %rbp
	pushq	%rbx
	subq	$24, %rsp
	.cfi_offset %rbx, -24
	movl	$779077389, -20(%rbp)   # imm = 0x2E6FC70D
	movl	%edi, -12(%rbp)
	movq	%rsi, -32(%rbp)
	movl	%edx, -16(%rbp)
	movl	$4, %eax
	cmpl	dbglvl, %eax
	jge	.LBB68_2
# %bb.1:                                # %if.then
	movl	-12(%rbp), %esi
	movq	-32(%rbp), %rdx
	movl	-16(%rbp), %ecx
	movabsq	$.L.str.18, %rdi
	movb	$0, %al
	callq	printf
.LBB68_2:                               # %if.end
	cmpl	$3, -12(%rbp)
	jle	.LBB68_4
# %bb.3:                                # %if.then2
	movq	stderr, %rdi
	movl	-12(%rbp), %edx
	movabsq	$.L.str.19, %rsi
	movb	$0, %al
	callq	fprintf
	xorl	%edi, %edi
	callq	exit
.LBB68_4:                               # %if.end4
	movslq	-12(%rbp), %rax
	imulq	$24, %rax, %rax
	movabsq	$spec_fd, %rbx
	movq	%rbx, %rcx
	addq	%rax, %rcx
	movq	16(%rcx), %rdi
	movslq	-12(%rbp), %rax
	imulq	$24, %rax, %rax
	movq	%rbx, %rcx
	addq	%rax, %rcx
	movslq	8(%rcx), %rax
	addq	%rax, %rdi
	movq	-32(%rbp), %rsi
	movslq	-16(%rbp), %rdx
	callq	memcpy
	movl	-16(%rbp), %eax
	movslq	-12(%rbp), %rcx
	imulq	$24, %rcx, %rcx
	movq	%rbx, %rdx
	addq	%rcx, %rdx
	addl	4(%rdx), %eax
	movl	%eax, 4(%rdx)
	movl	-16(%rbp), %eax
	movslq	-12(%rbp), %rcx
	imulq	$24, %rcx, %rcx
	addq	%rcx, %rbx
	addl	8(%rbx), %eax
	movl	%eax, 8(%rbx)
	movl	$4, %eax
	cmpl	dbglvl, %eax
	jge	.LBB68_6
# %bb.5:                                # %if.then18
	movl	-16(%rbp), %esi
	movabsq	$.L.str.11, %rdi
	movb	$0, %al
	callq	printf
.LBB68_6:                               # %if.end20
	movl	-16(%rbp), %ebx
	cmpl	$779077389, -20(%rbp)   # imm = 0x2E6FC70D
	jne	.LBB68_8
.LBB68_7:
	movl	%ebx, %eax
	addq	$24, %rsp
	popq	%rbx
	popq	%rbp
	.cfi_def_cfa %rsp, 8
	retq
.LBB68_8:                               # %func_exit
	.cfi_def_cfa %rbp, 16
	callq	detect_breach
	jmp	.LBB68_7
.Lfunc_end68:
	.size	spec_write.56, .Lfunc_end68-spec_write.56
	.cfi_endproc
                                        # -- End function
	.section	.rodata.cst8,"aM",@progbits,8
	.p2align	3               # -- Begin function spec_random_load.57
.LCPI69_0:
	.quad	4629700416936869888     # double 32
.LCPI69_1:
	.quad	4643211215818981376     # double 256
	.text
	.globl	spec_random_load.57
	.p2align	4, 0x90
	.type	spec_random_load.57,@function
spec_random_load.57:                    # @spec_random_load.57
	.cfi_startproc
# %bb.0:                                # %entry
	pushq	%rbp
	.cfi_def_cfa_offset 16
	.cfi_offset %rbp, -16
	movq	%rsp, %rbp
	.cfi_def_cfa_register %rbp
	pushq	%rbx
	subq	$4194328, %rsp          # imm = 0x400018
	.cfi_offset %rbx, -24
	movl	$1201852832, -24(%rbp)  # imm = 0x47A2D1A0
	movl	%edi, -20(%rbp)
	movl	$4, %eax
	cmpl	dbglvl, %eax
	jge	.LBB69_2
# %bb.1:                                # %if.then
	movabsq	$.L.str.2, %rdi
	movb	$0, %al
	callq	printf
.LBB69_2:                               # %if.end
	movl	$0, -12(%rbp)
.LBB69_3:                               # %for.cond
                                        # =>This Loop Header: Depth=1
                                        #     Child Loop BB69_7 Depth 2
	cmpl	$32, -12(%rbp)
	jge	.LBB69_12
# %bb.4:                                # %for.body
                                        #   in Loop: Header=BB69_3 Depth=1
	movl	$5, %eax
	cmpl	dbglvl, %eax
	jge	.LBB69_6
# %bb.5:                                # %if.then3
                                        #   in Loop: Header=BB69_3 Depth=1
	movl	-12(%rbp), %esi
	movabsq	$.L.str.3, %rdi
	movb	$0, %al
	callq	printf
.LBB69_6:                               # %if.end5
                                        #   in Loop: Header=BB69_3 Depth=1
	movl	$0, -16(%rbp)
.LBB69_7:                               # %for.cond6
                                        #   Parent Loop BB69_3 Depth=1
                                        # =>  This Inner Loop Header: Depth=2
	cmpl	$131072, -16(%rbp)      # imm = 0x20000
	jge	.LBB69_10
# %bb.8:                                # %for.body8
                                        #   in Loop: Header=BB69_7 Depth=2
	callq	ran
	vmovsd	.LCPI69_1(%rip), %xmm1  # xmm1 = mem[0],zero
	vmulsd	%xmm1, %xmm0, %xmm0
	vcvttsd2si	%xmm0, %eax
	movslq	-12(%rbp), %rcx
	shlq	$17, %rcx
	leaq	-4194336(%rbp), %rdx
	addq	%rcx, %rdx
	movslq	-16(%rbp), %rcx
	movb	%al, (%rdx,%rcx)
# %bb.9:                                # %for.inc
                                        #   in Loop: Header=BB69_7 Depth=2
	movl	-16(%rbp), %eax
	addl	$1, %eax
	movl	%eax, -16(%rbp)
	jmp	.LBB69_7
.LBB69_10:                              # %for.end
                                        #   in Loop: Header=BB69_3 Depth=1
	jmp	.LBB69_11
.LBB69_11:                              # %for.inc13
                                        #   in Loop: Header=BB69_3 Depth=1
	movl	-12(%rbp), %eax
	addl	$1, %eax
	movl	%eax, -12(%rbp)
	jmp	.LBB69_3
.LBB69_12:                              # %for.end15
	movl	$4, %eax
	cmpl	dbglvl, %eax
	jge	.LBB69_14
# %bb.13:                               # %if.then18
	movabsq	$.L.str.4, %rdi
	movb	$0, %al
	callq	printf
.LBB69_14:                              # %if.end20
	movl	$0, -12(%rbp)
.LBB69_15:                              # %for.cond21
                                        # =>This Inner Loop Header: Depth=1
	movl	-12(%rbp), %eax
	movslq	-20(%rbp), %rcx
	imulq	$24, %rcx, %rcx
	movabsq	$spec_fd, %rdx
	addq	%rcx, %rdx
	cmpl	(%rdx), %eax
	jge	.LBB69_18
# %bb.16:                               # %for.body26
                                        #   in Loop: Header=BB69_15 Depth=1
	movslq	-20(%rbp), %rax
	imulq	$24, %rax, %rax
	movabsq	$spec_fd, %rcx
	addq	%rax, %rcx
	movq	16(%rcx), %rbx
	movslq	-12(%rbp), %rax
	addq	%rax, %rbx
	callq	ran
	vmovsd	.LCPI69_0(%rip), %xmm1  # xmm1 = mem[0],zero
	vmulsd	%xmm1, %xmm0, %xmm0
	vcvttsd2si	%xmm0, %eax
	cltq
	shlq	$17, %rax
	leaq	-4194336(%rbp), %rsi
	addq	%rax, %rsi
	movq	%rbx, %rdi
	movl	$131072, %edx           # imm = 0x20000
	callq	memcpy
# %bb.17:                               # %for.inc34
                                        #   in Loop: Header=BB69_15 Depth=1
	movl	-12(%rbp), %eax
	addl	$131072, %eax           # imm = 0x20000
	movl	%eax, -12(%rbp)
	jmp	.LBB69_15
.LBB69_18:                              # %for.end35
	movslq	-20(%rbp), %rax
	imulq	$24, %rax, %rax
	movabsq	$spec_fd, %rcx
	addq	%rax, %rcx
	movl	$1048576, 4(%rcx)       # imm = 0x100000
	cmpl	$1201852832, -24(%rbp)  # imm = 0x47A2D1A0
	jne	.LBB69_20
.LBB69_19:
	xorl	%eax, %eax
	addq	$4194328, %rsp          # imm = 0x400018
	popq	%rbx
	popq	%rbp
	.cfi_def_cfa %rsp, 8
	retq
.LBB69_20:                              # %func_exit
	.cfi_def_cfa %rbp, 16
	callq	detect_breach
	jmp	.LBB69_19
.Lfunc_end69:
	.size	spec_random_load.57, .Lfunc_end69-spec_random_load.57
	.cfi_endproc
                                        # -- End function
	.globl	spec_fread.58           # -- Begin function spec_fread.58
	.p2align	4, 0x90
	.type	spec_fread.58,@function
spec_fread.58:                          # @spec_fread.58
	.cfi_startproc
# %bb.0:                                # %entry
	pushq	%rbp
	.cfi_def_cfa_offset 16
	.cfi_offset %rbp, -16
	movq	%rsp, %rbp
	.cfi_def_cfa_register %rbp
	pushq	%rbx
	subq	$40, %rsp
	.cfi_offset %rbx, -24
	movl	$1477362615, -32(%rbp)  # imm = 0x580EC3B7
	movq	%rdi, -40(%rbp)
	movl	%esi, -20(%rbp)
	movl	%edx, -24(%rbp)
	movl	%ecx, -12(%rbp)
	movl	$0, -16(%rbp)
	movl	$4, %eax
	cmpl	dbglvl, %eax
	jge	.LBB70_2
# %bb.1:                                # %if.then
	movq	-40(%rbp), %rsi
	movl	-20(%rbp), %edx
	movl	-24(%rbp), %ecx
	movl	-12(%rbp), %r8d
	movabsq	$.L.str.12, %rdi
	movb	$0, %al
	callq	printf
.LBB70_2:                               # %if.end
	cmpl	$3, -12(%rbp)
	jle	.LBB70_4
# %bb.3:                                # %if.then2
	movq	stderr, %rdi
	movl	-12(%rbp), %edx
	movabsq	$.L.str.13, %rsi
	movb	$0, %al
	callq	fprintf
	xorl	%edi, %edi
	callq	exit
.LBB70_4:                               # %if.end4
	movslq	-12(%rbp), %rax
	imulq	$24, %rax, %rax
	movabsq	$spec_fd, %rcx
	movq	%rcx, %rdx
	addq	%rax, %rdx
	movl	8(%rdx), %eax
	movslq	-12(%rbp), %rdx
	imulq	$24, %rdx, %rdx
	addq	%rdx, %rcx
	cmpl	4(%rcx), %eax
	jl	.LBB70_8
# %bb.5:                                # %if.then8
	movl	$4, %eax
	cmpl	dbglvl, %eax
	jge	.LBB70_7
# %bb.6:                                # %if.then10
	movabsq	$.L.str.10, %rdi
	movb	$0, %al
	callq	printf
.LBB70_7:                               # %if.end12
	movl	$-1, -28(%rbp)
	jmp	.LBB70_14
.LBB70_8:                               # %if.end13
	movslq	-12(%rbp), %rax
	imulq	$24, %rax, %rax
	movabsq	$spec_fd, %rcx
	movq	%rcx, %rdx
	addq	%rax, %rdx
	movl	8(%rdx), %eax
	movl	-20(%rbp), %edx
	imull	-24(%rbp), %edx
	addl	%edx, %eax
	movslq	-12(%rbp), %rdx
	imulq	$24, %rdx, %rdx
	addq	%rdx, %rcx
	cmpl	4(%rcx), %eax
	jl	.LBB70_10
# %bb.9:                                # %if.then21
	movslq	-12(%rbp), %rax
	imulq	$24, %rax, %rax
	movabsq	$spec_fd, %rcx
	movq	%rcx, %rdx
	addq	%rax, %rdx
	movl	4(%rdx), %eax
	movslq	-12(%rbp), %rdx
	imulq	$24, %rdx, %rdx
	addq	%rdx, %rcx
	subl	8(%rcx), %eax
	cltd
	idivl	-20(%rbp)
	movl	%eax, -16(%rbp)
	jmp	.LBB70_11
.LBB70_10:                              # %if.else
	movl	-24(%rbp), %eax
	movl	%eax, -16(%rbp)
.LBB70_11:                              # %if.end28
	movq	-40(%rbp), %rdi
	movslq	-12(%rbp), %rax
	imulq	$24, %rax, %rax
	movabsq	$spec_fd, %rbx
	movq	%rbx, %rcx
	addq	%rax, %rcx
	movq	16(%rcx), %rsi
	movslq	-12(%rbp), %rax
	imulq	$24, %rax, %rax
	movq	%rbx, %rcx
	addq	%rax, %rcx
	movslq	8(%rcx), %rax
	addq	%rax, %rsi
	movslq	-16(%rbp), %rdx
	callq	memcpy
	movl	-16(%rbp), %eax
	imull	-20(%rbp), %eax
	movslq	-12(%rbp), %rcx
	imulq	$24, %rcx, %rcx
	addq	%rcx, %rbx
	addl	8(%rbx), %eax
	movl	%eax, 8(%rbx)
	movl	$4, %eax
	cmpl	dbglvl, %eax
	jge	.LBB70_13
# %bb.12:                               # %if.then44
	movl	-16(%rbp), %esi
	imull	-20(%rbp), %esi
	movabsq	$.L.str.11, %rdi
	movb	$0, %al
	callq	printf
.LBB70_13:                              # %if.end47
	movl	-16(%rbp), %eax
	movl	%eax, -28(%rbp)
.LBB70_14:                              # %return
	movl	-28(%rbp), %ebx
	cmpl	$1477362615, -32(%rbp)  # imm = 0x580EC3B7
	jne	.LBB70_16
.LBB70_15:
	movl	%ebx, %eax
	addq	$40, %rsp
	popq	%rbx
	popq	%rbp
	.cfi_def_cfa %rsp, 8
	retq
.LBB70_16:                              # %func_exit
	.cfi_def_cfa %rbp, 16
	callq	detect_breach
	jmp	.LBB70_15
.Lfunc_end70:
	.size	spec_fread.58, .Lfunc_end70-spec_fread.58
	.cfi_endproc
                                        # -- End function
	.globl	spec_fwrite.59          # -- Begin function spec_fwrite.59
	.p2align	4, 0x90
	.type	spec_fwrite.59,@function
spec_fwrite.59:                         # @spec_fwrite.59
	.cfi_startproc
# %bb.0:                                # %entry
	pushq	%rbp
	.cfi_def_cfa_offset 16
	.cfi_offset %rbp, -16
	movq	%rsp, %rbp
	.cfi_def_cfa_register %rbp
	pushq	%rbx
	subq	$24, %rsp
	.cfi_offset %rbx, -24
	movl	$1767713247, -24(%rbp)  # imm = 0x695D29DF
	movq	%rdi, -32(%rbp)
	movl	%esi, -20(%rbp)
	movl	%edx, -16(%rbp)
	movl	%ecx, -12(%rbp)
	movl	$4, %eax
	cmpl	dbglvl, %eax
	jge	.LBB71_2
# %bb.1:                                # %if.then
	movq	-32(%rbp), %rsi
	movl	-20(%rbp), %edx
	movl	-16(%rbp), %ecx
	movl	-12(%rbp), %r8d
	movabsq	$.L.str.20, %rdi
	movb	$0, %al
	callq	printf
.LBB71_2:                               # %if.end
	cmpl	$3, -12(%rbp)
	jle	.LBB71_4
# %bb.3:                                # %if.then2
	movq	stderr, %rdi
	movl	-12(%rbp), %edx
	movabsq	$.L.str.21, %rsi
	movb	$0, %al
	callq	fprintf
	xorl	%edi, %edi
	callq	exit
.LBB71_4:                               # %if.end4
	movslq	-12(%rbp), %rax
	imulq	$24, %rax, %rax
	movabsq	$spec_fd, %rbx
	movq	%rbx, %rcx
	addq	%rax, %rcx
	movq	16(%rcx), %rdi
	movslq	-12(%rbp), %rax
	imulq	$24, %rax, %rax
	movq	%rbx, %rcx
	addq	%rax, %rcx
	movslq	8(%rcx), %rax
	addq	%rax, %rdi
	movq	-32(%rbp), %rsi
	movl	-20(%rbp), %eax
	imull	-16(%rbp), %eax
	movslq	%eax, %rdx
	callq	memcpy
	movl	-20(%rbp), %eax
	imull	-16(%rbp), %eax
	movslq	-12(%rbp), %rcx
	imulq	$24, %rcx, %rcx
	movq	%rbx, %rdx
	addq	%rcx, %rdx
	addl	4(%rdx), %eax
	movl	%eax, 4(%rdx)
	movl	-20(%rbp), %eax
	imull	-16(%rbp), %eax
	movslq	-12(%rbp), %rcx
	imulq	$24, %rcx, %rcx
	addq	%rcx, %rbx
	addl	8(%rbx), %eax
	movl	%eax, 8(%rbx)
	movl	$4, %eax
	cmpl	dbglvl, %eax
	jge	.LBB71_6
# %bb.5:                                # %if.then20
	movl	-16(%rbp), %esi
	movabsq	$.L.str.11, %rdi
	movb	$0, %al
	callq	printf
.LBB71_6:                               # %if.end22
	movl	-16(%rbp), %ebx
	cmpl	$1767713247, -24(%rbp)  # imm = 0x695D29DF
	jne	.LBB71_8
.LBB71_7:
	movl	%ebx, %eax
	addq	$24, %rsp
	popq	%rbx
	popq	%rbp
	.cfi_def_cfa %rsp, 8
	retq
.LBB71_8:                               # %func_exit
	.cfi_def_cfa %rbp, 16
	callq	detect_breach
	jmp	.LBB71_7
.Lfunc_end71:
	.size	spec_fwrite.59, .Lfunc_end71-spec_fwrite.59
	.cfi_endproc
                                        # -- End function
	.globl	spec_fwrite.60          # -- Begin function spec_fwrite.60
	.p2align	4, 0x90
	.type	spec_fwrite.60,@function
spec_fwrite.60:                         # @spec_fwrite.60
	.cfi_startproc
# %bb.0:                                # %entry
	pushq	%rbp
	.cfi_def_cfa_offset 16
	.cfi_offset %rbp, -16
	movq	%rsp, %rbp
	.cfi_def_cfa_register %rbp
	pushq	%rbx
	subq	$24, %rsp
	.cfi_offset %rbx, -24
	movl	$2128026657, -24(%rbp)  # imm = 0x7ED71C21
	movq	%rdi, -32(%rbp)
	movl	%esi, -20(%rbp)
	movl	%edx, -16(%rbp)
	movl	%ecx, -12(%rbp)
	movl	$4, %eax
	cmpl	dbglvl, %eax
	jge	.LBB72_2
# %bb.1:                                # %if.then
	movq	-32(%rbp), %rsi
	movl	-20(%rbp), %edx
	movl	-16(%rbp), %ecx
	movl	-12(%rbp), %r8d
	movabsq	$.L.str.20, %rdi
	movb	$0, %al
	callq	printf
.LBB72_2:                               # %if.end
	cmpl	$3, -12(%rbp)
	jle	.LBB72_4
# %bb.3:                                # %if.then2
	movq	stderr, %rdi
	movl	-12(%rbp), %edx
	movabsq	$.L.str.21, %rsi
	movb	$0, %al
	callq	fprintf
	xorl	%edi, %edi
	callq	exit
.LBB72_4:                               # %if.end4
	movslq	-12(%rbp), %rax
	imulq	$24, %rax, %rax
	movabsq	$spec_fd, %rbx
	movq	%rbx, %rcx
	addq	%rax, %rcx
	movq	16(%rcx), %rdi
	movslq	-12(%rbp), %rax
	imulq	$24, %rax, %rax
	movq	%rbx, %rcx
	addq	%rax, %rcx
	movslq	8(%rcx), %rax
	addq	%rax, %rdi
	movq	-32(%rbp), %rsi
	movl	-20(%rbp), %eax
	imull	-16(%rbp), %eax
	movslq	%eax, %rdx
	callq	memcpy
	movl	-20(%rbp), %eax
	imull	-16(%rbp), %eax
	movslq	-12(%rbp), %rcx
	imulq	$24, %rcx, %rcx
	movq	%rbx, %rdx
	addq	%rcx, %rdx
	addl	4(%rdx), %eax
	movl	%eax, 4(%rdx)
	movl	-20(%rbp), %eax
	imull	-16(%rbp), %eax
	movslq	-12(%rbp), %rcx
	imulq	$24, %rcx, %rcx
	addq	%rcx, %rbx
	addl	8(%rbx), %eax
	movl	%eax, 8(%rbx)
	movl	$4, %eax
	cmpl	dbglvl, %eax
	jge	.LBB72_6
# %bb.5:                                # %if.then20
	movl	-16(%rbp), %esi
	movabsq	$.L.str.11, %rdi
	movb	$0, %al
	callq	printf
.LBB72_6:                               # %if.end22
	movl	-16(%rbp), %ebx
	cmpl	$2128026657, -24(%rbp)  # imm = 0x7ED71C21
	jne	.LBB72_8
.LBB72_7:
	movl	%ebx, %eax
	addq	$24, %rsp
	popq	%rbx
	popq	%rbp
	.cfi_def_cfa %rsp, 8
	retq
.LBB72_8:                               # %func_exit
	.cfi_def_cfa %rbp, 16
	callq	detect_breach
	jmp	.LBB72_7
.Lfunc_end72:
	.size	spec_fwrite.60, .Lfunc_end72-spec_fwrite.60
	.cfi_endproc
                                        # -- End function
	.globl	spec_read.61            # -- Begin function spec_read.61
	.p2align	4, 0x90
	.type	spec_read.61,@function
spec_read.61:                           # @spec_read.61
	.cfi_startproc
# %bb.0:                                # %entry
	pushq	%rbp
	.cfi_def_cfa_offset 16
	.cfi_offset %rbp, -16
	movq	%rsp, %rbp
	.cfi_def_cfa_register %rbp
	pushq	%rbx
	subq	$40, %rsp
	.cfi_offset %rbx, -24
	movl	$1993328329, -28(%rbp)  # imm = 0x76CFC6C9
	movl	%edi, -12(%rbp)
	movq	%rsi, -40(%rbp)
	movl	%edx, -20(%rbp)
	movl	$0, -16(%rbp)
	movl	$4, %eax
	cmpl	dbglvl, %eax
	jge	.LBB73_2
# %bb.1:                                # %if.then
	movl	-12(%rbp), %esi
	movq	-40(%rbp), %rdx
	movl	-20(%rbp), %ecx
	movabsq	$.L.str.8, %rdi
	movb	$0, %al
	callq	printf
.LBB73_2:                               # %if.end
	cmpl	$3, -12(%rbp)
	jle	.LBB73_4
# %bb.3:                                # %if.then2
	movq	stderr, %rdi
	movl	-12(%rbp), %edx
	movabsq	$.L.str.9, %rsi
	movb	$0, %al
	callq	fprintf
	xorl	%edi, %edi
	callq	exit
.LBB73_4:                               # %if.end4
	movslq	-12(%rbp), %rax
	imulq	$24, %rax, %rax
	movabsq	$spec_fd, %rcx
	movq	%rcx, %rdx
	addq	%rax, %rdx
	movl	8(%rdx), %eax
	movslq	-12(%rbp), %rdx
	imulq	$24, %rdx, %rdx
	addq	%rdx, %rcx
	cmpl	4(%rcx), %eax
	jl	.LBB73_8
# %bb.5:                                # %if.then8
	movl	$4, %eax
	cmpl	dbglvl, %eax
	jge	.LBB73_7
# %bb.6:                                # %if.then10
	movabsq	$.L.str.10, %rdi
	movb	$0, %al
	callq	printf
.LBB73_7:                               # %if.end12
	movl	$-1, -24(%rbp)
	jmp	.LBB73_14
.LBB73_8:                               # %if.end13
	movslq	-12(%rbp), %rax
	imulq	$24, %rax, %rax
	movabsq	$spec_fd, %rcx
	movq	%rcx, %rdx
	addq	%rax, %rdx
	movl	8(%rdx), %eax
	addl	-20(%rbp), %eax
	movslq	-12(%rbp), %rdx
	imulq	$24, %rdx, %rdx
	addq	%rdx, %rcx
	cmpl	4(%rcx), %eax
	jl	.LBB73_10
# %bb.9:                                # %if.then21
	movslq	-12(%rbp), %rax
	imulq	$24, %rax, %rax
	movabsq	$spec_fd, %rcx
	movq	%rcx, %rdx
	addq	%rax, %rdx
	movl	4(%rdx), %eax
	movslq	-12(%rbp), %rdx
	imulq	$24, %rdx, %rdx
	addq	%rdx, %rcx
	subl	8(%rcx), %eax
	movl	%eax, -16(%rbp)
	jmp	.LBB73_11
.LBB73_10:                              # %if.else
	movl	-20(%rbp), %eax
	movl	%eax, -16(%rbp)
.LBB73_11:                              # %if.end28
	movq	-40(%rbp), %rdi
	movslq	-12(%rbp), %rax
	imulq	$24, %rax, %rax
	movabsq	$spec_fd, %rbx
	movq	%rbx, %rcx
	addq	%rax, %rcx
	movq	16(%rcx), %rsi
	movslq	-12(%rbp), %rax
	imulq	$24, %rax, %rax
	movq	%rbx, %rcx
	addq	%rax, %rcx
	movslq	8(%rcx), %rax
	addq	%rax, %rsi
