	.text
	.file	"spec.c"
	.globl	ran                     # -- Begin function ran
	.p2align	4, 0x90
	.type	ran,@function
ran:                                    # @ran
	.cfi_startproc
# %bb.0:                                # %rand_bb
	pushq	%rbp
	.cfi_def_cfa_offset 16
	.cfi_offset %rbp, -16
	movq	%rsp, %rbp
	.cfi_def_cfa_register %rbp
	callq	get_rand
	cmpl	$0, %eax
	jne	.LBB0_5
# %bb.1:                                # %func_ran.5
	callq	ran.5
	popq	%rbp
	.cfi_def_cfa %rsp, 8
	retq
.LBB0_2:                                # %func_ran.26
	.cfi_def_cfa %rbp, 16
	callq	ran.26
	popq	%rbp
	.cfi_def_cfa %rsp, 8
	retq
.LBB0_3:                                # %func_ran.33
	.cfi_def_cfa %rbp, 16
	callq	ran.33
	popq	%rbp
	.cfi_def_cfa %rsp, 8
	retq
.LBB0_4:                                # %func_ran.34
	.cfi_def_cfa %rbp, 16
	callq	ran.34
	popq	%rbp
	.cfi_def_cfa %rsp, 8
	retq
.LBB0_5:                                # %ctrl0
	.cfi_def_cfa %rbp, 16
	cmpl	$1, %eax
	je	.LBB0_2
# %bb.6:                                # %ctrl1
	cmpl	$2, %eax
	je	.LBB0_3
	jmp	.LBB0_4
.Lfunc_end0:
	.size	ran, .Lfunc_end0-ran
	.cfi_endproc
                                        # -- End function
	.globl	spec_init               # -- Begin function spec_init
	.p2align	4, 0x90
	.type	spec_init,@function
spec_init:                              # @spec_init
	.cfi_startproc
# %bb.0:                                # %rand_bb
	pushq	%rbp
	.cfi_def_cfa_offset 16
	.cfi_offset %rbp, -16
	movq	%rsp, %rbp
	.cfi_def_cfa_register %rbp
	callq	get_rand
	cmpl	$0, %eax
	jne	.LBB1_5
# %bb.1:                                # %func_spec_init.6
	callq	spec_init.6
	popq	%rbp
	.cfi_def_cfa %rsp, 8
	retq
.LBB1_2:                                # %func_spec_init.9
	.cfi_def_cfa %rbp, 16
	callq	spec_init.9
	popq	%rbp
	.cfi_def_cfa %rsp, 8
	retq
.LBB1_3:                                # %func_spec_init.23
	.cfi_def_cfa %rbp, 16
	callq	spec_init.23
	popq	%rbp
	.cfi_def_cfa %rsp, 8
	retq
.LBB1_4:                                # %func_spec_init.27
	.cfi_def_cfa %rbp, 16
	callq	spec_init.27
	popq	%rbp
	.cfi_def_cfa %rsp, 8
	retq
.LBB1_5:                                # %ctrl0
	.cfi_def_cfa %rbp, 16
	cmpl	$1, %eax
	je	.LBB1_2
# %bb.6:                                # %ctrl1
	cmpl	$2, %eax
	je	.LBB1_3
	jmp	.LBB1_4
.Lfunc_end1:
	.size	spec_init, .Lfunc_end1-spec_init
	.cfi_endproc
                                        # -- End function
	.globl	spec_random_load        # -- Begin function spec_random_load
	.p2align	4, 0x90
	.type	spec_random_load,@function
spec_random_load:                       # @spec_random_load
	.cfi_startproc
# %bb.0:                                # %rand_bb
	pushq	%rbp
	.cfi_def_cfa_offset 16
	.cfi_offset %rbp, -16
	movq	%rsp, %rbp
	.cfi_def_cfa_register %rbp
	pushq	%rbx
	pushq	%rax
	.cfi_offset %rbx, -24
	movl	%edi, %ebx
	callq	get_rand
	cmpl	$0, %eax
	jne	.LBB2_5
# %bb.1:                                # %func_spec_random_load.16
	movl	%ebx, %edi
	callq	spec_random_load.16
	addq	$8, %rsp
	popq	%rbx
	popq	%rbp
	.cfi_def_cfa %rsp, 8
	retq
.LBB2_2:                                # %func_spec_random_load.24
	.cfi_def_cfa %rbp, 16
	movl	%ebx, %edi
	callq	spec_random_load.24
	addq	$8, %rsp
	popq	%rbx
	popq	%rbp
	.cfi_def_cfa %rsp, 8
	retq
.LBB2_3:                                # %func_spec_random_load.36
	.cfi_def_cfa %rbp, 16
	movl	%ebx, %edi
	callq	spec_random_load.36
	addq	$8, %rsp
	popq	%rbx
	popq	%rbp
	.cfi_def_cfa %rsp, 8
	retq
.LBB2_4:                                # %func_spec_random_load.38
	.cfi_def_cfa %rbp, 16
	movl	%ebx, %edi
	callq	spec_random_load.38
	addq	$8, %rsp
	popq	%rbx
	popq	%rbp
	.cfi_def_cfa %rsp, 8
	retq
.LBB2_5:                                # %ctrl0
	.cfi_def_cfa %rbp, 16
	cmpl	$1, %eax
	je	.LBB2_2
# %bb.6:                                # %ctrl1
	cmpl	$2, %eax
	je	.LBB2_3
	jmp	.LBB2_4
.Lfunc_end2:
	.size	spec_random_load, .Lfunc_end2-spec_random_load
	.cfi_endproc
                                        # -- End function
	.globl	spec_load               # -- Begin function spec_load
	.p2align	4, 0x90
	.type	spec_load,@function
spec_load:                              # @spec_load
	.cfi_startproc
# %bb.0:                                # %rand_bb
	pushq	%rbp
	.cfi_def_cfa_offset 16
	.cfi_offset %rbp, -16
	movq	%rsp, %rbp
	.cfi_def_cfa_register %rbp
	pushq	%r15
	pushq	%r14
	pushq	%rbx
	pushq	%rax
	.cfi_offset %rbx, -40
	.cfi_offset %r14, -32
	.cfi_offset %r15, -24
	movl	%edx, %r14d
	movq	%rsi, %r15
	movl	%edi, %ebx
	callq	get_rand
	cmpl	$0, %eax
	jne	.LBB3_5
# %bb.1:                                # %func_spec_load.8
	movl	%ebx, %edi
	movq	%r15, %rsi
	movl	%r14d, %edx
	callq	spec_load.8
	addq	$8, %rsp
	popq	%rbx
	popq	%r14
	popq	%r15
	popq	%rbp
	.cfi_def_cfa %rsp, 8
	retq
.LBB3_2:                                # %func_spec_load.19
	.cfi_def_cfa %rbp, 16
	movl	%ebx, %edi
	movq	%r15, %rsi
	movl	%r14d, %edx
	callq	spec_load.19
	addq	$8, %rsp
	popq	%rbx
	popq	%r14
	popq	%r15
	popq	%rbp
	.cfi_def_cfa %rsp, 8
	retq
.LBB3_3:                                # %func_spec_load.28
	.cfi_def_cfa %rbp, 16
	movl	%ebx, %edi
	movq	%r15, %rsi
	movl	%r14d, %edx
	callq	spec_load.28
	addq	$8, %rsp
	popq	%rbx
	popq	%r14
	popq	%r15
	popq	%rbp
	.cfi_def_cfa %rsp, 8
	retq
.LBB3_4:                                # %func_spec_load.40
	.cfi_def_cfa %rbp, 16
	movl	%ebx, %edi
	movq	%r15, %rsi
	movl	%r14d, %edx
	callq	spec_load.40
	addq	$8, %rsp
	popq	%rbx
	popq	%r14
	popq	%r15
	popq	%rbp
	.cfi_def_cfa %rsp, 8
	retq
.LBB3_5:                                # %ctrl0
	.cfi_def_cfa %rbp, 16
	cmpl	$1, %eax
	je	.LBB3_2
# %bb.6:                                # %ctrl1
	cmpl	$2, %eax
	je	.LBB3_3
	jmp	.LBB3_4
.Lfunc_end3:
	.size	spec_load, .Lfunc_end3-spec_load
	.cfi_endproc
                                        # -- End function
	.globl	spec_read               # -- Begin function spec_read
	.p2align	4, 0x90
	.type	spec_read,@function
spec_read:                              # @spec_read
	.cfi_startproc
# %bb.0:                                # %rand_bb
	pushq	%rbp
	.cfi_def_cfa_offset 16
	.cfi_offset %rbp, -16
	movq	%rsp, %rbp
	.cfi_def_cfa_register %rbp
	pushq	%r15
	pushq	%r14
	pushq	%rbx
	pushq	%rax
	.cfi_offset %rbx, -40
	.cfi_offset %r14, -32
	.cfi_offset %r15, -24
	movl	%edx, %r14d
	movq	%rsi, %r15
	movl	%edi, %ebx
	callq	get_rand
	cmpl	$0, %eax
	jne	.LBB4_5
# %bb.1:                                # %func_spec_read.1
	movl	%ebx, %edi
	movq	%r15, %rsi
	movl	%r14d, %edx
	callq	spec_read.1
	addq	$8, %rsp
	popq	%rbx
	popq	%r14
	popq	%r15
	popq	%rbp
	.cfi_def_cfa %rsp, 8
	retq
.LBB4_2:                                # %func_spec_read.11
	.cfi_def_cfa %rbp, 16
	movl	%ebx, %edi
	movq	%r15, %rsi
	movl	%r14d, %edx
	callq	spec_read.11
	addq	$8, %rsp
	popq	%rbx
	popq	%r14
	popq	%r15
	popq	%rbp
	.cfi_def_cfa %rsp, 8
	retq
.LBB4_3:                                # %func_spec_read.29
	.cfi_def_cfa %rbp, 16
	movl	%ebx, %edi
	movq	%r15, %rsi
	movl	%r14d, %edx
	callq	spec_read.29
	addq	$8, %rsp
	popq	%rbx
	popq	%r14
	popq	%r15
	popq	%rbp
	.cfi_def_cfa %rsp, 8
	retq
.LBB4_4:                                # %func_spec_read.32
	.cfi_def_cfa %rbp, 16
	movl	%ebx, %edi
	movq	%r15, %rsi
	movl	%r14d, %edx
	callq	spec_read.32
	addq	$8, %rsp
	popq	%rbx
	popq	%r14
	popq	%r15
	popq	%rbp
	.cfi_def_cfa %rsp, 8
	retq
.LBB4_5:                                # %ctrl0
	.cfi_def_cfa %rbp, 16
	cmpl	$1, %eax
	je	.LBB4_2
# %bb.6:                                # %ctrl1
	cmpl	$2, %eax
	je	.LBB4_3
	jmp	.LBB4_4
.Lfunc_end4:
	.size	spec_read, .Lfunc_end4-spec_read
	.cfi_endproc
                                        # -- End function
	.globl	spec_fread              # -- Begin function spec_fread
	.p2align	4, 0x90
	.type	spec_fread,@function
spec_fread:                             # @spec_fread
	.cfi_startproc
# %bb.0:                                # %rand_bb
	pushq	%rbp
	.cfi_def_cfa_offset 16
	.cfi_offset %rbp, -16
	movq	%rsp, %rbp
	.cfi_def_cfa_register %rbp
	pushq	%r15
	pushq	%r14
	pushq	%r12
	pushq	%rbx
	.cfi_offset %rbx, -48
	.cfi_offset %r12, -40
	.cfi_offset %r14, -32
	.cfi_offset %r15, -24
	movl	%ecx, %r14d
	movl	%edx, %r15d
	movl	%esi, %r12d
	movq	%rdi, %rbx
	callq	get_rand
	cmpl	$0, %eax
	jne	.LBB5_5
# %bb.1:                                # %func_spec_fread.12
	movq	%rbx, %rdi
	movl	%r12d, %esi
	movl	%r15d, %edx
	movl	%r14d, %ecx
	callq	spec_fread.12
	popq	%rbx
	popq	%r12
	popq	%r14
	popq	%r15
	popq	%rbp
	.cfi_def_cfa %rsp, 8
	retq
.LBB5_2:                                # %func_spec_fread.20
	.cfi_def_cfa %rbp, 16
	movq	%rbx, %rdi
	movl	%r12d, %esi
	movl	%r15d, %edx
	movl	%r14d, %ecx
	callq	spec_fread.20
	popq	%rbx
	popq	%r12
	popq	%r14
	popq	%r15
	popq	%rbp
	.cfi_def_cfa %rsp, 8
	retq
.LBB5_3:                                # %func_spec_fread.31
	.cfi_def_cfa %rbp, 16
	movq	%rbx, %rdi
	movl	%r12d, %esi
	movl	%r15d, %edx
	movl	%r14d, %ecx
	callq	spec_fread.31
	popq	%rbx
	popq	%r12
	popq	%r14
	popq	%r15
	popq	%rbp
	.cfi_def_cfa %rsp, 8
	retq
.LBB5_4:                                # %func_spec_fread.37
	.cfi_def_cfa %rbp, 16
	movq	%rbx, %rdi
	movl	%r12d, %esi
	movl	%r15d, %edx
	movl	%r14d, %ecx
	callq	spec_fread.37
	popq	%rbx
	popq	%r12
	popq	%r14
	popq	%r15
	popq	%rbp
	.cfi_def_cfa %rsp, 8
	retq
.LBB5_5:                                # %ctrl0
	.cfi_def_cfa %rbp, 16
	cmpl	$1, %eax
	je	.LBB5_2
# %bb.6:                                # %ctrl1
	cmpl	$2, %eax
	je	.LBB5_3
	jmp	.LBB5_4
.Lfunc_end5:
	.size	spec_fread, .Lfunc_end5-spec_fread
	.cfi_endproc
                                        # -- End function
	.globl	spec_getc               # -- Begin function spec_getc
	.p2align	4, 0x90
	.type	spec_getc,@function
spec_getc:                              # @spec_getc
	.cfi_startproc
# %bb.0:                                # %rand_bb
	pushq	%rbp
	.cfi_def_cfa_offset 16
	.cfi_offset %rbp, -16
	movq	%rsp, %rbp
	.cfi_def_cfa_register %rbp
	pushq	%rbx
	pushq	%rax
	.cfi_offset %rbx, -24
	movl	%edi, %ebx
	callq	get_rand
	cmpl	$0, %eax
	jne	.LBB6_5
# %bb.1:                                # %func_spec_getc.2
	movl	%ebx, %edi
	callq	spec_getc.2
	addq	$8, %rsp
	popq	%rbx
	popq	%rbp
	.cfi_def_cfa %rsp, 8
	retq
.LBB6_2:                                # %func_spec_getc.4
	.cfi_def_cfa %rbp, 16
	movl	%ebx, %edi
	callq	spec_getc.4
	addq	$8, %rsp
	popq	%rbx
	popq	%rbp
	.cfi_def_cfa %rsp, 8
	retq
.LBB6_3:                                # %func_spec_getc.21
	.cfi_def_cfa %rbp, 16
	movl	%ebx, %edi
	callq	spec_getc.21
	addq	$8, %rsp
	popq	%rbx
	popq	%rbp
	.cfi_def_cfa %rsp, 8
	retq
.LBB6_4:                                # %func_spec_getc.22
	.cfi_def_cfa %rbp, 16
	movl	%ebx, %edi
	callq	spec_getc.22
	addq	$8, %rsp
	popq	%rbx
	popq	%rbp
	.cfi_def_cfa %rsp, 8
	retq
.LBB6_5:                                # %ctrl0
	.cfi_def_cfa %rbp, 16
	cmpl	$1, %eax
	je	.LBB6_2
# %bb.6:                                # %ctrl1
	cmpl	$2, %eax
	je	.LBB6_3
	jmp	.LBB6_4
.Lfunc_end6:
	.size	spec_getc, .Lfunc_end6-spec_getc
	.cfi_endproc
                                        # -- End function
	.globl	spec_ungetc             # -- Begin function spec_ungetc
	.p2align	4, 0x90
	.type	spec_ungetc,@function
spec_ungetc:                            # @spec_ungetc
	.cfi_startproc
# %bb.0:                                # %rand_bb
	pushq	%rbp
	.cfi_def_cfa_offset 16
	.cfi_offset %rbp, -16
	movq	%rsp, %rbp
	.cfi_def_cfa_register %rbp
	pushq	%r14
	pushq	%rbx
	.cfi_offset %rbx, -32
	.cfi_offset %r14, -24
	movl	%esi, %r14d
	movl	%edi, %ebx
	callq	get_rand
	cmpl	$0, %eax
	jne	.LBB7_5
# %bb.1:                                # %func_spec_ungetc.35
	movzbl	%bl, %edi
	movl	%r14d, %esi
	callq	spec_ungetc.35
	popq	%rbx
	popq	%r14
	popq	%rbp
	.cfi_def_cfa %rsp, 8
	retq
.LBB7_2:                                # %func_spec_ungetc.39
	.cfi_def_cfa %rbp, 16
	movzbl	%bl, %edi
	movl	%r14d, %esi
	callq	spec_ungetc.39
	popq	%rbx
	popq	%r14
	popq	%rbp
	.cfi_def_cfa %rsp, 8
	retq
.LBB7_3:                                # %func_spec_ungetc.41
	.cfi_def_cfa %rbp, 16
	movzbl	%bl, %edi
	movl	%r14d, %esi
	callq	spec_ungetc.41
	popq	%rbx
	popq	%r14
	popq	%rbp
	.cfi_def_cfa %rsp, 8
	retq
.LBB7_4:                                # %func_spec_ungetc.42
	.cfi_def_cfa %rbp, 16
	movzbl	%bl, %edi
	movl	%r14d, %esi
	callq	spec_ungetc.42
	popq	%rbx
	popq	%r14
	popq	%rbp
	.cfi_def_cfa %rsp, 8
	retq
.LBB7_5:                                # %ctrl0
	.cfi_def_cfa %rbp, 16
	cmpl	$1, %eax
	je	.LBB7_2
# %bb.6:                                # %ctrl1
	cmpl	$2, %eax
	je	.LBB7_3
	jmp	.LBB7_4
.Lfunc_end7:
	.size	spec_ungetc, .Lfunc_end7-spec_ungetc
	.cfi_endproc
                                        # -- End function
	.globl	spec_rewind             # -- Begin function spec_rewind
	.p2align	4, 0x90
	.type	spec_rewind,@function
spec_rewind:                            # @spec_rewind
	.cfi_startproc
# %bb.0:                                # %entry
	pushq	%rbp
	.cfi_def_cfa_offset 16
	.cfi_offset %rbp, -16
	movq	%rsp, %rbp
	.cfi_def_cfa_register %rbp
	movl	%edi, -4(%rbp)
	movslq	-4(%rbp), %rax
	imulq	$24, %rax, %rax
	movabsq	$spec_fd, %rcx
	addq	%rax, %rcx
	movl	$0, 8(%rcx)
	xorl	%eax, %eax
	popq	%rbp
	.cfi_def_cfa %rsp, 8
	retq
.Lfunc_end8:
	.size	spec_rewind, .Lfunc_end8-spec_rewind
	.cfi_endproc
                                        # -- End function
	.globl	spec_reset              # -- Begin function spec_reset
	.p2align	4, 0x90
	.type	spec_reset,@function
spec_reset:                             # @spec_reset
	.cfi_startproc
# %bb.0:                                # %entry
	pushq	%rbp
	.cfi_def_cfa_offset 16
	.cfi_offset %rbp, -16
	movq	%rsp, %rbp
	.cfi_def_cfa_register %rbp
	pushq	%rbx
	pushq	%rax
	.cfi_offset %rbx, -24
	movl	%edi, -12(%rbp)
	movslq	-12(%rbp), %rax
	imulq	$24, %rax, %rax
	movabsq	$spec_fd, %rbx
	movq	%rbx, %rcx
	addq	%rax, %rcx
	movq	16(%rcx), %rdi
	movslq	-12(%rbp), %rax
	imulq	$24, %rax, %rax
	movq	%rbx, %rcx
	addq	%rax, %rcx
	movslq	4(%rcx), %rdx
	xorl	%esi, %esi
	callq	memset
	movslq	-12(%rbp), %rax
	imulq	$24, %rax, %rax
	movq	%rbx, %rcx
	addq	%rax, %rcx
	movl	$0, 4(%rcx)
	movslq	-12(%rbp), %rax
	imulq	$24, %rax, %rax
	addq	%rax, %rbx
	movl	$0, 8(%rbx)
	xorl	%eax, %eax
	addq	$8, %rsp
	popq	%rbx
	popq	%rbp
	.cfi_def_cfa %rsp, 8
	retq
.Lfunc_end9:
	.size	spec_reset, .Lfunc_end9-spec_reset
	.cfi_endproc
                                        # -- End function
	.globl	spec_write              # -- Begin function spec_write
	.p2align	4, 0x90
	.type	spec_write,@function
spec_write:                             # @spec_write
	.cfi_startproc
# %bb.0:                                # %rand_bb
	pushq	%rbp
	.cfi_def_cfa_offset 16
	.cfi_offset %rbp, -16
	movq	%rsp, %rbp
	.cfi_def_cfa_register %rbp
	pushq	%r15
	pushq	%r14
	pushq	%rbx
	pushq	%rax
	.cfi_offset %rbx, -40
	.cfi_offset %r14, -32
	.cfi_offset %r15, -24
	movl	%edx, %r14d
	movq	%rsi, %r15
	movl	%edi, %ebx
	callq	get_rand
	cmpl	$0, %eax
	jne	.LBB10_5
# %bb.1:                                # %func_spec_write.7
	movl	%ebx, %edi
	movq	%r15, %rsi
	movl	%r14d, %edx
	callq	spec_write.7
	addq	$8, %rsp
	popq	%rbx
	popq	%r14
	popq	%r15
	popq	%rbp
	.cfi_def_cfa %rsp, 8
	retq
.LBB10_2:                               # %func_spec_write.14
	.cfi_def_cfa %rbp, 16
	movl	%ebx, %edi
	movq	%r15, %rsi
	movl	%r14d, %edx
	callq	spec_write.14
	addq	$8, %rsp
	popq	%rbx
	popq	%r14
	popq	%r15
	popq	%rbp
	.cfi_def_cfa %rsp, 8
	retq
.LBB10_3:                               # %func_spec_write.25
	.cfi_def_cfa %rbp, 16
	movl	%ebx, %edi
	movq	%r15, %rsi
	movl	%r14d, %edx
	callq	spec_write.25
	addq	$8, %rsp
	popq	%rbx
	popq	%r14
	popq	%r15
	popq	%rbp
	.cfi_def_cfa %rsp, 8
	retq
.LBB10_4:                               # %func_spec_write.30
	.cfi_def_cfa %rbp, 16
	movl	%ebx, %edi
	movq	%r15, %rsi
	movl	%r14d, %edx
	callq	spec_write.30
	addq	$8, %rsp
	popq	%rbx
	popq	%r14
	popq	%r15
	popq	%rbp
	.cfi_def_cfa %rsp, 8
	retq
.LBB10_5:                               # %ctrl0
	.cfi_def_cfa %rbp, 16
	cmpl	$1, %eax
	je	.LBB10_2
# %bb.6:                                # %ctrl1
	cmpl	$2, %eax
	je	.LBB10_3
	jmp	.LBB10_4
.Lfunc_end10:
	.size	spec_write, .Lfunc_end10-spec_write
	.cfi_endproc
                                        # -- End function
	.globl	spec_fwrite             # -- Begin function spec_fwrite
	.p2align	4, 0x90
	.type	spec_fwrite,@function
spec_fwrite:                            # @spec_fwrite
	.cfi_startproc
# %bb.0:                                # %rand_bb
	pushq	%rbp
	.cfi_def_cfa_offset 16
	.cfi_offset %rbp, -16
	movq	%rsp, %rbp
	.cfi_def_cfa_register %rbp
	pushq	%r15
	pushq	%r14
	pushq	%r12
	pushq	%rbx
	.cfi_offset %rbx, -48
	.cfi_offset %r12, -40
	.cfi_offset %r14, -32
	.cfi_offset %r15, -24
	movl	%ecx, %r14d
	movl	%edx, %r15d
	movl	%esi, %r12d
	movq	%rdi, %rbx
	callq	get_rand
	cmpl	$0, %eax
	jne	.LBB11_5
# %bb.1:                                # %func_spec_fwrite.3
	movq	%rbx, %rdi
	movl	%r12d, %esi
	movl	%r15d, %edx
	movl	%r14d, %ecx
	callq	spec_fwrite.3
	popq	%rbx
	popq	%r12
	popq	%r14
	popq	%r15
	popq	%rbp
	.cfi_def_cfa %rsp, 8
	retq
.LBB11_2:                               # %func_spec_fwrite.10
	.cfi_def_cfa %rbp, 16
	movq	%rbx, %rdi
	movl	%r12d, %esi
	movl	%r15d, %edx
	movl	%r14d, %ecx
	callq	spec_fwrite.10
	popq	%rbx
	popq	%r12
	popq	%r14
	popq	%r15
	popq	%rbp
	.cfi_def_cfa %rsp, 8
	retq
.LBB11_3:                               # %func_spec_fwrite.13
	.cfi_def_cfa %rbp, 16
	movq	%rbx, %rdi
	movl	%r12d, %esi
	movl	%r15d, %edx
	movl	%r14d, %ecx
	callq	spec_fwrite.13
	popq	%rbx
	popq	%r12
	popq	%r14
	popq	%r15
	popq	%rbp
	.cfi_def_cfa %rsp, 8
	retq
.LBB11_4:                               # %func_spec_fwrite.17
	.cfi_def_cfa %rbp, 16
	movq	%rbx, %rdi
	movl	%r12d, %esi
	movl	%r15d, %edx
	movl	%r14d, %ecx
	callq	spec_fwrite.17
	popq	%rbx
	popq	%r12
	popq	%r14
	popq	%r15
	popq	%rbp
	.cfi_def_cfa %rsp, 8
	retq
.LBB11_5:                               # %ctrl0
	.cfi_def_cfa %rbp, 16
	cmpl	$1, %eax
	je	.LBB11_2
# %bb.6:                                # %ctrl1
	cmpl	$2, %eax
	je	.LBB11_3
	jmp	.LBB11_4
.Lfunc_end11:
	.size	spec_fwrite, .Lfunc_end11-spec_fwrite
	.cfi_endproc
                                        # -- End function
	.globl	spec_putc               # -- Begin function spec_putc
	.p2align	4, 0x90
	.type	spec_putc,@function
spec_putc:                              # @spec_putc
	.cfi_startproc
# %bb.0:                                # %rand_bb
	pushq	%rbp
	.cfi_def_cfa_offset 16
	.cfi_offset %rbp, -16
	movq	%rsp, %rbp
	.cfi_def_cfa_register %rbp
	pushq	%r14
	pushq	%rbx
	.cfi_offset %rbx, -32
	.cfi_offset %r14, -24
	movl	%esi, %r14d
	movl	%edi, %ebx
	callq	get_rand
	cmpl	$0, %eax
	jne	.LBB12_2
# %bb.1:                                # %func_spec_putc.15
	movzbl	%bl, %edi
	movl	%r14d, %esi
	callq	spec_putc.15
	popq	%rbx
	popq	%r14
	popq	%rbp
	.cfi_def_cfa %rsp, 8
	retq
.LBB12_2:                               # %func_spec_putc.18
	.cfi_def_cfa %rbp, 16
	movzbl	%bl, %edi
	movl	%r14d, %esi
	callq	spec_putc.18
	popq	%rbx
	popq	%r14
	popq	%rbp
	.cfi_def_cfa %rsp, 8
	retq
.Lfunc_end12:
	.size	spec_putc, .Lfunc_end12-spec_putc
	.cfi_endproc
                                        # -- End function
	.globl	spec_read.1             # -- Begin function spec_read.1
	.p2align	4, 0x90
	.type	spec_read.1,@function
spec_read.1:                            # @spec_read.1
	.cfi_startproc
# %bb.0:                                # %entry
	pushq	%rbp
	.cfi_def_cfa_offset 16
	.cfi_offset %rbp, -16
	movq	%rsp, %rbp
	.cfi_def_cfa_register %rbp
	pushq	%rbx
	subq	$40, %rsp
	.cfi_offset %rbx, -24
	movl	$224411935, -28(%rbp)   # imm = 0xD60411F
	movl	%edi, -12(%rbp)
	movq	%rsi, -40(%rbp)
	movl	%edx, -20(%rbp)
	movl	$0, -16(%rbp)
	movl	$4, %eax
	cmpl	dbglvl, %eax
	jge	.LBB13_2
# %bb.1:                                # %if.then
	movl	-12(%rbp), %esi
	movq	-40(%rbp), %rdx
	movl	-20(%rbp), %ecx
	movabsq	$.L.str.8, %rdi
	movb	$0, %al
	callq	printf
.LBB13_2:                               # %if.end
	cmpl	$3, -12(%rbp)
	jle	.LBB13_4
# %bb.3:                                # %if.then2
	movq	stderr, %rdi
	movl	-12(%rbp), %edx
	movabsq	$.L.str.9, %rsi
	movb	$0, %al
	callq	fprintf
	xorl	%edi, %edi
	callq	exit
.LBB13_4:                               # %if.end4
	movslq	-12(%rbp), %rax
	imulq	$24, %rax, %rax
	movabsq	$spec_fd, %rcx
	movq	%rcx, %rdx
	addq	%rax, %rdx
	movl	8(%rdx), %eax
	movslq	-12(%rbp), %rdx
	imulq	$24, %rdx, %rdx
	addq	%rdx, %rcx
	cmpl	4(%rcx), %eax
	jl	.LBB13_8
# %bb.5:                                # %if.then8
	movl	$4, %eax
	cmpl	dbglvl, %eax
	jge	.LBB13_7
# %bb.6:                                # %if.then10
	movabsq	$.L.str.10, %rdi
	movb	$0, %al
	callq	printf
.LBB13_7:                               # %if.end12
	movl	$-1, -24(%rbp)
	jmp	.LBB13_14
.LBB13_8:                               # %if.end13
	movslq	-12(%rbp), %rax
	imulq	$24, %rax, %rax
	movabsq	$spec_fd, %rcx
	movq	%rcx, %rdx
	addq	%rax, %rdx
	movl	8(%rdx), %eax
	addl	-20(%rbp), %eax
	movslq	-12(%rbp), %rdx
	imulq	$24, %rdx, %rdx
	addq	%rdx, %rcx
	cmpl	4(%rcx), %eax
	jl	.LBB13_10
# %bb.9:                                # %if.then21
	movslq	-12(%rbp), %rax
	imulq	$24, %rax, %rax
	movabsq	$spec_fd, %rcx
	movq	%rcx, %rdx
	addq	%rax, %rdx
	movl	4(%rdx), %eax
	movslq	-12(%rbp), %rdx
	imulq	$24, %rdx, %rdx
	addq	%rdx, %rcx
	subl	8(%rcx), %eax
	movl	%eax, -16(%rbp)
	jmp	.LBB13_11
.LBB13_10:                              # %if.else
	movl	-20(%rbp), %eax
	movl	%eax, -16(%rbp)
.LBB13_11:                              # %if.end28
	movq	-40(%rbp), %rdi
	movslq	-12(%rbp), %rax
	imulq	$24, %rax, %rax
	movabsq	$spec_fd, %rbx
	movq	%rbx, %rcx
	addq	%rax, %rcx
	movq	16(%rcx), %rsi
	movslq	-12(%rbp), %rax
	imulq	$24, %rax, %rax
	movq	%rbx, %rcx
	addq	%rax, %rcx
	movslq	8(%rcx), %rax
	addq	%rax, %rsi
	movslq	-16(%rbp), %rdx
	callq	memcpy
	movl	-16(%rbp), %eax
	movslq	-12(%rbp), %rcx
	imulq	$24, %rcx, %rcx
	addq	%rcx, %rbx
	addl	8(%rbx), %eax
	movl	%eax, 8(%rbx)
	movl	$4, %eax
	cmpl	dbglvl, %eax
	jge	.LBB13_13
# %bb.12:                               # %if.then43
	movl	-16(%rbp), %esi
	movabsq	$.L.str.11, %rdi
	movb	$0, %al
	callq	printf
.LBB13_13:                              # %if.end45
	movl	-16(%rbp), %eax
	movl	%eax, -24(%rbp)
.LBB13_14:                              # %return
	movl	-24(%rbp), %ebx
	cmpl	$224411935, -28(%rbp)   # imm = 0xD60411F
	jne	.LBB13_16
.LBB13_15:
	movl	%ebx, %eax
	addq	$40, %rsp
	popq	%rbx
	popq	%rbp
	.cfi_def_cfa %rsp, 8
	retq
.LBB13_16:                              # %func_exit
	.cfi_def_cfa %rbp, 16
	callq	detect_breach
	jmp	.LBB13_15
.Lfunc_end13:
	.size	spec_read.1, .Lfunc_end13-spec_read.1
	.cfi_endproc
                                        # -- End function
	.globl	spec_getc.2             # -- Begin function spec_getc.2
	.p2align	4, 0x90
	.type	spec_getc.2,@function
spec_getc.2:                            # @spec_getc.2
	.cfi_startproc
# %bb.0:                                # %entry
	pushq	%rbp
	.cfi_def_cfa_offset 16
	.cfi_offset %rbp, -16
	movq	%rsp, %rbp
	.cfi_def_cfa_register %rbp
	pushq	%rbx
	subq	$24, %rsp
	.cfi_offset %rbx, -24
	movl	$2072229446, -24(%rbp)  # imm = 0x7B83B646
	movl	%edi, -12(%rbp)
	movl	$0, -16(%rbp)
	movl	$4, %eax
	cmpl	dbglvl, %eax
	jge	.LBB14_2
# %bb.1:                                # %if.then
	movl	-12(%rbp), %esi
	movabsq	$.L.str.14, %rdi
	movb	$0, %al
	callq	printf
.LBB14_2:                               # %if.end
	cmpl	$3, -12(%rbp)
	jle	.LBB14_4
# %bb.3:                                # %if.then2
	movq	stderr, %rdi
	movl	-12(%rbp), %edx
	movabsq	$.L.str.9, %rsi
	movb	$0, %al
	callq	fprintf
	xorl	%edi, %edi
	callq	exit
.LBB14_4:                               # %if.end4
	movslq	-12(%rbp), %rax
	imulq	$24, %rax, %rax
	movabsq	$spec_fd, %rcx
	movq	%rcx, %rdx
	addq	%rax, %rdx
	movl	8(%rdx), %eax
	movslq	-12(%rbp), %rdx
	imulq	$24, %rdx, %rdx
	addq	%rdx, %rcx
	cmpl	4(%rcx), %eax
	jl	.LBB14_8
# %bb.5:                                # %if.then8
	movl	$4, %eax
	cmpl	dbglvl, %eax
	jge	.LBB14_7
# %bb.6:                                # %if.then10
	movabsq	$.L.str.10, %rdi
	movb	$0, %al
	callq	printf
.LBB14_7:                               # %if.end12
	movl	$-1, -20(%rbp)
	jmp	.LBB14_11
.LBB14_8:                               # %if.end13
	movslq	-12(%rbp), %rax
	imulq	$24, %rax, %rax
	movabsq	$spec_fd, %rcx
	movq	%rcx, %rdx
	addq	%rax, %rdx
	movq	16(%rdx), %rax
	movslq	-12(%rbp), %rdx
	imulq	$24, %rdx, %rdx
	addq	%rdx, %rcx
	movl	8(%rcx), %edx
	movl	%edx, %esi
	addl	$1, %esi
	movl	%esi, 8(%rcx)
	movslq	%edx, %rcx
	movzbl	(%rax,%rcx), %eax
	movl	%eax, -16(%rbp)
	movl	$4, %eax
	cmpl	dbglvl, %eax
	jge	.LBB14_10
# %bb.9:                                # %if.then23
	movl	-16(%rbp), %esi
	movabsq	$.L.str.11, %rdi
	movb	$0, %al
	callq	printf
.LBB14_10:                              # %if.end25
	movl	-16(%rbp), %eax
	movl	%eax, -20(%rbp)
.LBB14_11:                              # %return
	movl	-20(%rbp), %ebx
	cmpl	$2072229446, -24(%rbp)  # imm = 0x7B83B646
	jne	.LBB14_13
.LBB14_12:
	movl	%ebx, %eax
	addq	$24, %rsp
	popq	%rbx
	popq	%rbp
	.cfi_def_cfa %rsp, 8
	retq
.LBB14_13:                              # %func_exit
	.cfi_def_cfa %rbp, 16
	callq	detect_breach
	jmp	.LBB14_12
.Lfunc_end14:
	.size	spec_getc.2, .Lfunc_end14-spec_getc.2
	.cfi_endproc
                                        # -- End function
	.globl	spec_fwrite.3           # -- Begin function spec_fwrite.3
	.p2align	4, 0x90
	.type	spec_fwrite.3,@function
spec_fwrite.3:                          # @spec_fwrite.3
	.cfi_startproc
# %bb.0:                                # %entry
	pushq	%rbp
	.cfi_def_cfa_offset 16
	.cfi_offset %rbp, -16
	movq	%rsp, %rbp
	.cfi_def_cfa_register %rbp
	pushq	%rbx
	subq	$24, %rsp
	.cfi_offset %rbx, -24
	movl	$1946799160, -24(%rbp)  # imm = 0x7409CC38
	movq	%rdi, -32(%rbp)
	movl	%esi, -20(%rbp)
	movl	%edx, -16(%rbp)
	movl	%ecx, -12(%rbp)
	movl	$4, %eax
	cmpl	dbglvl, %eax
	jge	.LBB15_2
# %bb.1:                                # %if.then
	movq	-32(%rbp), %rsi
	movl	-20(%rbp), %edx
	movl	-16(%rbp), %ecx
	movl	-12(%rbp), %r8d
	movabsq	$.L.str.20, %rdi
	movb	$0, %al
	callq	printf
.LBB15_2:                               # %if.end
	cmpl	$3, -12(%rbp)
	jle	.LBB15_4
# %bb.3:                                # %if.then2
	movq	stderr, %rdi
	movl	-12(%rbp), %edx
	movabsq	$.L.str.21, %rsi
	movb	$0, %al
	callq	fprintf
	xorl	%edi, %edi
	callq	exit
.LBB15_4:                               # %if.end4
	movslq	-12(%rbp), %rax
	imulq	$24, %rax, %rax
	movabsq	$spec_fd, %rbx
	movq	%rbx, %rcx
	addq	%rax, %rcx
	movq	16(%rcx), %rdi
	movslq	-12(%rbp), %rax
	imulq	$24, %rax, %rax
	movq	%rbx, %rcx
	addq	%rax, %rcx
	movslq	8(%rcx), %rax
	addq	%rax, %rdi
	movq	-32(%rbp), %rsi
	movl	-20(%rbp), %eax
	imull	-16(%rbp), %eax
	movslq	%eax, %rdx
	callq	memcpy
	movl	-20(%rbp), %eax
	imull	-16(%rbp), %eax
	movslq	-12(%rbp), %rcx
	imulq	$24, %rcx, %rcx
	movq	%rbx, %rdx
	addq	%rcx, %rdx
	addl	4(%rdx), %eax
	movl	%eax, 4(%rdx)
	movl	-20(%rbp), %eax
	imull	-16(%rbp), %eax
	movslq	-12(%rbp), %rcx
	imulq	$24, %rcx, %rcx
	addq	%rcx, %rbx
	addl	8(%rbx), %eax
	movl	%eax, 8(%rbx)
	movl	$4, %eax
	cmpl	dbglvl, %eax
	jge	.LBB15_6
# %bb.5:                                # %if.then20
	movl	-16(%rbp), %esi
	movabsq	$.L.str.11, %rdi
	movb	$0, %al
	callq	printf
.LBB15_6:                               # %if.end22
	movl	-16(%rbp), %ebx
	cmpl	$1946799160, -24(%rbp)  # imm = 0x7409CC38
	jne	.LBB15_8
.LBB15_7:
	movl	%ebx, %eax
	addq	$24, %rsp
	popq	%rbx
	popq	%rbp
	.cfi_def_cfa %rsp, 8
	retq
.LBB15_8:                               # %func_exit
	.cfi_def_cfa %rbp, 16
	callq	detect_breach
	jmp	.LBB15_7
.Lfunc_end15:
	.size	spec_fwrite.3, .Lfunc_end15-spec_fwrite.3
	.cfi_endproc
                                        # -- End function
	.globl	spec_getc.4             # -- Begin function spec_getc.4
	.p2align	4, 0x90
	.type	spec_getc.4,@function
spec_getc.4:                            # @spec_getc.4
	.cfi_startproc
# %bb.0:                                # %entry
	pushq	%rbp
	.cfi_def_cfa_offset 16
	.cfi_offset %rbp, -16
	movq	%rsp, %rbp
	.cfi_def_cfa_register %rbp
	pushq	%rbx
	subq	$24, %rsp
	.cfi_offset %rbx, -24
	movl	$1501850236, -24(%rbp)  # imm = 0x59846A7C
	movl	%edi, -12(%rbp)
	movl	$0, -16(%rbp)
	movl	$4, %eax
	cmpl	dbglvl, %eax
	jge	.LBB16_2
# %bb.1:                                # %if.then
	movl	-12(%rbp), %esi
	movabsq	$.L.str.14, %rdi
	movb	$0, %al
	callq	printf
.LBB16_2:                               # %if.end
	cmpl	$3, -12(%rbp)
	jle	.LBB16_4
# %bb.3:                                # %if.then2
	movq	stderr, %rdi
	movl	-12(%rbp), %edx
	movabsq	$.L.str.9, %rsi
	movb	$0, %al
	callq	fprintf
	xorl	%edi, %edi
	callq	exit
.LBB16_4:                               # %if.end4
	movslq	-12(%rbp), %rax
	imulq	$24, %rax, %rax
	movabsq	$spec_fd, %rcx
	movq	%rcx, %rdx
	addq	%rax, %rdx
	movl	8(%rdx), %eax
	movslq	-12(%rbp), %rdx
	imulq	$24, %rdx, %rdx
	addq	%rdx, %rcx
	cmpl	4(%rcx), %eax
	jl	.LBB16_8
# %bb.5:                                # %if.then8
	movl	$4, %eax
	cmpl	dbglvl, %eax
	jge	.LBB16_7
# %bb.6:                                # %if.then10
	movabsq	$.L.str.10, %rdi
	movb	$0, %al
	callq	printf
.LBB16_7:                               # %if.end12
	movl	$-1, -20(%rbp)
	jmp	.LBB16_11
.LBB16_8:                               # %if.end13
	movslq	-12(%rbp), %rax
	imulq	$24, %rax, %rax
	movabsq	$spec_fd, %rcx
	movq	%rcx, %rdx
	addq	%rax, %rdx
	movq	16(%rdx), %rax
	movslq	-12(%rbp), %rdx
	imulq	$24, %rdx, %rdx
	addq	%rdx, %rcx
	movl	8(%rcx), %edx
	movl	%edx, %esi
	addl	$1, %esi
	movl	%esi, 8(%rcx)
	movslq	%edx, %rcx
	movzbl	(%rax,%rcx), %eax
	movl	%eax, -16(%rbp)
	movl	$4, %eax
	cmpl	dbglvl, %eax
	jge	.LBB16_10
# %bb.9:                                # %if.then23
	movl	-16(%rbp), %esi
	movabsq	$.L.str.11, %rdi
	movb	$0, %al
	callq	printf
.LBB16_10:                              # %if.end25
	movl	-16(%rbp), %eax
	movl	%eax, -20(%rbp)
.LBB16_11:                              # %return
	movl	-20(%rbp), %ebx
	cmpl	$1501850236, -24(%rbp)  # imm = 0x59846A7C
	jne	.LBB16_13
.LBB16_12:
	movl	%ebx, %eax
	addq	$24, %rsp
	popq	%rbx
	popq	%rbp
	.cfi_def_cfa %rsp, 8
	retq
.LBB16_13:                              # %func_exit
	.cfi_def_cfa %rbp, 16
	callq	detect_breach
	jmp	.LBB16_12
.Lfunc_end16:
	.size	spec_getc.4, .Lfunc_end16-spec_getc.4
	.cfi_endproc
                                        # -- End function
	.section	.rodata.cst4,"aM",@progbits,4
	.p2align	2               # -- Begin function ran.5
.LCPI17_0:
	.long	1325400064              # float 2.14748365E+9
	.text
	.globl	ran.5
	.p2align	4, 0x90
	.type	ran.5,@function
ran.5:                                  # @ran.5
	.cfi_startproc
# %bb.0:                                # %entry
	pushq	%rbp
	.cfi_def_cfa_offset 16
	.cfi_offset %rbp, -16
	movq	%rsp, %rbp
	.cfi_def_cfa_register %rbp
	subq	$48, %rsp
	movl	$493113092, -12(%rbp)   # imm = 0x1D644F04
	movq	seedi, %rax
	cqto
	movl	$127773, %ecx           # imm = 0x1F31D
	idivq	%rcx
	movq	%rax, -32(%rbp)
	movq	seedi, %rax
	cqto
	idivq	%rcx
	movq	%rdx, -40(%rbp)
	imulq	$16807, -40(%rbp), %rax # imm = 0x41A7
	imulq	$2836, -32(%rbp), %rcx  # imm = 0xB14
	subq	%rcx, %rax
	movq	%rax, -8(%rbp)
	cmpq	$0, -8(%rbp)
	jle	.LBB17_2
# %bb.1:                                # %if.then
	movq	-8(%rbp), %rax
	movq	%rax, seedi
	jmp	.LBB17_3
.LBB17_2:                               # %if.else
	movq	-8(%rbp), %rax
	addq	$2147483647, %rax       # imm = 0x7FFFFFFF
	movq	%rax, seedi
.LBB17_3:                               # %if.end
	vmovss	.LCPI17_0(%rip), %xmm0  # xmm0 = mem[0],zero,zero,zero
	vcvtsi2ssq	seedi, %xmm0, %xmm1
	vdivss	%xmm0, %xmm1, %xmm0
	vcvtss2sd	%xmm0, %xmm0, %xmm0
	cmpl	$493113092, -12(%rbp)   # imm = 0x1D644F04
	jne	.LBB17_5
.LBB17_4:
	addq	$48, %rsp
	popq	%rbp
	.cfi_def_cfa %rsp, 8
	retq
.LBB17_5:                               # %func_exit
	.cfi_def_cfa %rbp, 16
	vmovsd	%xmm0, -24(%rbp)        # 8-byte Spill
	callq	detect_breach
	vmovsd	-24(%rbp), %xmm0        # 8-byte Reload
                                        # xmm0 = mem[0],zero
	jmp	.LBB17_4
.Lfunc_end17:
	.size	ran.5, .Lfunc_end17-ran.5
	.cfi_endproc
                                        # -- End function
	.globl	spec_init.6             # -- Begin function spec_init.6
	.p2align	4, 0x90
	.type	spec_init.6,@function
spec_init.6:                            # @spec_init.6
	.cfi_startproc
# %bb.0:                                # %entry
	pushq	%rbp
	.cfi_def_cfa_offset 16
	.cfi_offset %rbp, -16
	movq	%rsp, %rbp
	.cfi_def_cfa_register %rbp
	pushq	%rbx
	subq	$24, %rsp
	.cfi_offset %rbx, -24
	movl	$1036540698, -24(%rbp)  # imm = 0x3DC85B1A
	movl	$3, %eax
	cmpl	dbglvl, %eax
	jge	.LBB18_2
# %bb.1:                                # %if.then
	movabsq	$.L.str, %rdi
	movb	$0, %al
	callq	printf
.LBB18_2:                               # %if.end
	movl	$0, -12(%rbp)
.LBB18_3:                               # %for.cond
                                        # =>This Loop Header: Depth=1
                                        #     Child Loop BB18_7 Depth 2
	cmpl	$3, -12(%rbp)
	jge	.LBB18_12
# %bb.4:                                # %for.body
                                        #   in Loop: Header=BB18_3 Depth=1
	movslq	-12(%rbp), %rax
	imulq	$24, %rax, %rax
	movabsq	$spec_fd, %rbx
	movq	%rbx, %rcx
	addq	%rax, %rcx
	movl	(%rcx), %eax
	movl	%eax, -20(%rbp)
	movslq	-12(%rbp), %rax
	imulq	$24, %rax, %rax
	movq	%rbx, %rdi
	addq	%rax, %rdi
	xorl	%esi, %esi
	movl	$24, %edx
	callq	memset
	movl	-20(%rbp), %eax
	movslq	-12(%rbp), %rcx
	imulq	$24, %rcx, %rcx
	addq	%rcx, %rbx
	movl	%eax, (%rbx)
	movl	-20(%rbp), %eax
	addl	$1048576, %eax          # imm = 0x100000
	movslq	%eax, %rdi
	callq	malloc
	movslq	-12(%rbp), %rcx
	imulq	$24, %rcx, %rcx
	movabsq	$spec_fd, %rdx
	movq	%rdx, %rsi
	addq	%rcx, %rsi
	movq	%rax, 16(%rsi)
	movslq	-12(%rbp), %rax
	imulq	$24, %rax, %rax
	addq	%rax, %rdx
	cmpq	$0, 16(%rdx)
	jne	.LBB18_6
# %bb.5:                                # %if.then16
	movabsq	$.L.str.1, %rdi
	movb	$0, %al
	callq	printf
	xorl	%edi, %edi
	callq	exit
.LBB18_6:                               # %if.end18
                                        #   in Loop: Header=BB18_3 Depth=1
	movl	$0, -16(%rbp)
.LBB18_7:                               # %for.cond19
                                        #   Parent Loop BB18_3 Depth=1
                                        # =>  This Inner Loop Header: Depth=2
	movl	-16(%rbp), %eax
	cmpl	-20(%rbp), %eax
	jge	.LBB18_10
# %bb.8:                                # %for.body22
                                        #   in Loop: Header=BB18_7 Depth=2
	movslq	-12(%rbp), %rax
	imulq	$24, %rax, %rax
	movabsq	$spec_fd, %rcx
	addq	%rax, %rcx
	movq	16(%rcx), %rax
	movslq	-16(%rbp), %rcx
	movb	$0, (%rax,%rcx)
# %bb.9:                                # %for.inc
                                        #   in Loop: Header=BB18_7 Depth=2
	movl	-16(%rbp), %eax
	addl	$1024, %eax             # imm = 0x400
	movl	%eax, -16(%rbp)
	jmp	.LBB18_7
.LBB18_10:                              # %for.end
                                        #   in Loop: Header=BB18_3 Depth=1
	jmp	.LBB18_11
.LBB18_11:                              # %for.inc29
                                        #   in Loop: Header=BB18_3 Depth=1
	movl	-12(%rbp), %eax
	addl	$1, %eax
	movl	%eax, -12(%rbp)
	jmp	.LBB18_3
.LBB18_12:                              # %for.end30
	cmpl	$1036540698, -24(%rbp)  # imm = 0x3DC85B1A
	jne	.LBB18_14
.LBB18_13:
	xorl	%eax, %eax
	addq	$24, %rsp
	popq	%rbx
	popq	%rbp
	.cfi_def_cfa %rsp, 8
	retq
.LBB18_14:                              # %func_exit
	.cfi_def_cfa %rbp, 16
	callq	detect_breach
	jmp	.LBB18_13
.Lfunc_end18:
	.size	spec_init.6, .Lfunc_end18-spec_init.6
	.cfi_endproc
                                        # -- End function
	.globl	spec_write.7            # -- Begin function spec_write.7
	.p2align	4, 0x90
	.type	spec_write.7,@function
spec_write.7:                           # @spec_write.7
	.cfi_startproc
# %bb.0:                                # %entry
	pushq	%rbp
	.cfi_def_cfa_offset 16
	.cfi_offset %rbp, -16
	movq	%rsp, %rbp
	.cfi_def_cfa_register %rbp
	pushq	%rbx
	subq	$24, %rsp
	.cfi_offset %rbx, -24
	movl	$154311244, -20(%rbp)   # imm = 0x9329A4C
	movl	%edi, -12(%rbp)
	movq	%rsi, -32(%rbp)
	movl	%edx, -16(%rbp)
	movl	$4, %eax
	cmpl	dbglvl, %eax
	jge	.LBB19_2
# %bb.1:                                # %if.then
	movl	-12(%rbp), %esi
	movq	-32(%rbp), %rdx
	movl	-16(%rbp), %ecx
	movabsq	$.L.str.18, %rdi
	movb	$0, %al
	callq	printf
.LBB19_2:                               # %if.end
	cmpl	$3, -12(%rbp)
	jle	.LBB19_4
# %bb.3:                                # %if.then2
	movq	stderr, %rdi
	movl	-12(%rbp), %edx
	movabsq	$.L.str.19, %rsi
	movb	$0, %al
	callq	fprintf
	xorl	%edi, %edi
	callq	exit
.LBB19_4:                               # %if.end4
	movslq	-12(%rbp), %rax
	imulq	$24, %rax, %rax
	movabsq	$spec_fd, %rbx
	movq	%rbx, %rcx
	addq	%rax, %rcx
	movq	16(%rcx), %rdi
	movslq	-12(%rbp), %rax
	imulq	$24, %rax, %rax
	movq	%rbx, %rcx
	addq	%rax, %rcx
	movslq	8(%rcx), %rax
	addq	%rax, %rdi
	movq	-32(%rbp), %rsi
	movslq	-16(%rbp), %rdx
	callq	memcpy
	movl	-16(%rbp), %eax
	movslq	-12(%rbp), %rcx
	imulq	$24, %rcx, %rcx
	movq	%rbx, %rdx
	addq	%rcx, %rdx
	addl	4(%rdx), %eax
	movl	%eax, 4(%rdx)
	movl	-16(%rbp), %eax
	movslq	-12(%rbp), %rcx
	imulq	$24, %rcx, %rcx
	addq	%rcx, %rbx
	addl	8(%rbx), %eax
	movl	%eax, 8(%rbx)
	movl	$4, %eax
	cmpl	dbglvl, %eax
	jge	.LBB19_6
# %bb.5:                                # %if.then18
	movl	-16(%rbp), %esi
	movabsq	$.L.str.11, %rdi
	movb	$0, %al
	callq	printf
.LBB19_6:                               # %if.end20
	movl	-16(%rbp), %ebx
	cmpl	$154311244, -20(%rbp)   # imm = 0x9329A4C
	jne	.LBB19_8
.LBB19_7:
	movl	%ebx, %eax
	addq	$24, %rsp
	popq	%rbx
	popq	%rbp
	.cfi_def_cfa %rsp, 8
	retq
.LBB19_8:                               # %func_exit
	.cfi_def_cfa %rbp, 16
	callq	detect_breach
	jmp	.LBB19_7
.Lfunc_end19:
	.size	spec_write.7, .Lfunc_end19-spec_write.7
	.cfi_endproc
                                        # -- End function
	.globl	spec_load.8             # -- Begin function spec_load.8
	.p2align	4, 0x90
	.type	spec_load.8,@function
spec_load.8:                            # @spec_load.8
	.cfi_startproc
# %bb.0:                                # %entry
	pushq	%rbp
	.cfi_def_cfa_offset 16
	.cfi_offset %rbp, -16
	movq	%rsp, %rbp
	.cfi_def_cfa_register %rbp
	pushq	%r14
	pushq	%rbx
	subq	$48, %rsp
	.cfi_offset %rbx, -32
	.cfi_offset %r14, -24
	movl	$414985818, -52(%rbp)   # imm = 0x18BC2E5A
	movl	%edi, -20(%rbp)
	movq	%rsi, -48(%rbp)
	movl	%edx, -40(%rbp)
	movq	-48(%rbp), %rdi
	xorl	%esi, %esi
	movb	$0, %al
	callq	open
	movl	%eax, -36(%rbp)
	cmpl	$0, -36(%rbp)
	jge	.LBB20_2
# %bb.1:                                # %if.then
	movq	stderr, %rbx
	movq	-48(%rbp), %r14
	callq	__errno_location
	movl	(%rax), %edi
	callq	strerror
	movq	%rbx, %rdi
	movabsq	$.L.str.5, %rsi
	movq	%r14, %rdx
	movq	%rax, %rcx
	movb	$0, %al
	callq	fprintf
	xorl	%edi, %edi
	callq	exit
.LBB20_2:                               # %if.end
	movslq	-20(%rbp), %rax
	imulq	$24, %rax, %rax
	movabsq	$spec_fd, %rcx
	movq	%rcx, %rdx
	addq	%rax, %rdx
	movl	$0, 4(%rdx)
	movslq	-20(%rbp), %rax
	imulq	$24, %rax, %rax
	addq	%rax, %rcx
	movl	$0, 8(%rcx)
	movl	$0, -32(%rbp)
.LBB20_3:                               # %for.cond
                                        # =>This Inner Loop Header: Depth=1
	movl	-32(%rbp), %eax
	cmpl	-40(%rbp), %eax
	jge	.LBB20_10
# %bb.4:                                # %for.body
                                        #   in Loop: Header=BB20_3 Depth=1
	movl	-36(%rbp), %edi
	movslq	-20(%rbp), %rax
	imulq	$24, %rax, %rax
	movabsq	$spec_fd, %rcx
	addq	%rax, %rcx
	movq	16(%rcx), %rsi
	movslq	-32(%rbp), %rax
	addq	%rax, %rsi
	movl	$131072, %edx           # imm = 0x20000
	callq	read
	movl	%eax, -28(%rbp)
	cmpl	$0, -28(%rbp)
	jne	.LBB20_6
# %bb.5:                                # %if.then12
	jmp	.LBB20_11
.LBB20_6:                               # %if.end13
                                        #   in Loop: Header=BB20_3 Depth=1
	cmpl	$0, -28(%rbp)
	jge	.LBB20_8
# %bb.7:                                # %if.then16
	movq	stderr, %rbx
	movq	-48(%rbp), %r14
	callq	__errno_location
	movl	(%rax), %edi
	callq	strerror
	movq	%rbx, %rdi
	movabsq	$.L.str.6, %rsi
	movq	%r14, %rdx
	movq	%rax, %rcx
	movb	$0, %al
	callq	fprintf
	xorl	%edi, %edi
	callq	exit
.LBB20_8:                               # %if.end20
                                        #   in Loop: Header=BB20_3 Depth=1
	movl	-28(%rbp), %eax
	movslq	-20(%rbp), %rcx
	imulq	$24, %rcx, %rcx
	movabsq	$spec_fd, %rdx
	addq	%rcx, %rdx
	addl	4(%rdx), %eax
	movl	%eax, 4(%rdx)
# %bb.9:                                # %for.inc
                                        #   in Loop: Header=BB20_3 Depth=1
	movl	-28(%rbp), %eax
	addl	-32(%rbp), %eax
	movl	%eax, -32(%rbp)
	jmp	.LBB20_3
.LBB20_10:                              # %for.end.loopexit
	jmp	.LBB20_11
.LBB20_11:                              # %for.end
	movl	-36(%rbp), %edi
	callq	close
.LBB20_12:                              # %while.cond
                                        # =>This Inner Loop Header: Depth=1
	movslq	-20(%rbp), %rax
	imulq	$24, %rax, %rax
	movabsq	$spec_fd, %rcx
	addq	%rax, %rcx
	movl	4(%rcx), %eax
	cmpl	-40(%rbp), %eax
	jge	.LBB20_18
# %bb.13:                               # %while.body
                                        #   in Loop: Header=BB20_12 Depth=1
	movl	-40(%rbp), %eax
	movslq	-20(%rbp), %rcx
	imulq	$24, %rcx, %rcx
	movabsq	$spec_fd, %rdx
	movq	%rdx, %rsi
	addq	%rcx, %rsi
	subl	4(%rsi), %eax
	movl	%eax, -24(%rbp)
	movl	-24(%rbp), %eax
	movslq	-20(%rbp), %rcx
	imulq	$24, %rcx, %rcx
	addq	%rcx, %rdx
	cmpl	4(%rdx), %eax
	jle	.LBB20_15
# %bb.14:                               # %if.then39
                                        #   in Loop: Header=BB20_12 Depth=1
	movslq	-20(%rbp), %rax
	imulq	$24, %rax, %rax
	movabsq	$spec_fd, %rcx
	addq	%rax, %rcx
	movl	4(%rcx), %eax
	movl	%eax, -24(%rbp)
.LBB20_15:                              # %if.end43
                                        #   in Loop: Header=BB20_12 Depth=1
	movl	$3, %eax
	cmpl	dbglvl, %eax
	jge	.LBB20_17
# %bb.16:                               # %if.then46
                                        #   in Loop: Header=BB20_12 Depth=1
	movl	-24(%rbp), %esi
	movabsq	$.L.str.7, %rdi
	movb	$0, %al
	callq	printf
.LBB20_17:                              # %if.end48
                                        #   in Loop: Header=BB20_12 Depth=1
	movslq	-20(%rbp), %rax
	imulq	$24, %rax, %rax
	movabsq	$spec_fd, %rbx
	movq	%rbx, %rcx
	addq	%rax, %rcx
	movq	16(%rcx), %rdi
	movslq	-20(%rbp), %rax
	imulq	$24, %rax, %rax
	movq	%rbx, %rcx
	addq	%rax, %rcx
	movslq	4(%rcx), %rax
	addq	%rax, %rdi
	movslq	-20(%rbp), %rax
	imulq	$24, %rax, %rax
	movq	%rbx, %rcx
	addq	%rax, %rcx
	movq	16(%rcx), %rsi
	movslq	-24(%rbp), %rdx
	callq	memcpy
	movl	-24(%rbp), %eax
	movslq	-20(%rbp), %rcx
	imulq	$24, %rcx, %rcx
	addq	%rcx, %rbx
	addl	4(%rbx), %eax
	movl	%eax, 4(%rbx)
	jmp	.LBB20_12
.LBB20_18:                              # %while.end
	cmpl	$414985818, -52(%rbp)   # imm = 0x18BC2E5A
	jne	.LBB20_20
.LBB20_19:
	xorl	%eax, %eax
	addq	$48, %rsp
	popq	%rbx
	popq	%r14
	popq	%rbp
	.cfi_def_cfa %rsp, 8
	retq
.LBB20_20:                              # %func_exit
	.cfi_def_cfa %rbp, 16
	callq	detect_breach
	jmp	.LBB20_19
.Lfunc_end20:
	.size	spec_load.8, .Lfunc_end20-spec_load.8
	.cfi_endproc
                                        # -- End function
	.globl	spec_init.9             # -- Begin function spec_init.9
	.p2align	4, 0x90
	.type	spec_init.9,@function
spec_init.9:                            # @spec_init.9
	.cfi_startproc
# %bb.0:                                # %entry
	pushq	%rbp
	.cfi_def_cfa_offset 16
	.cfi_offset %rbp, -16
	movq	%rsp, %rbp
	.cfi_def_cfa_register %rbp
	pushq	%rbx
	subq	$24, %rsp
	.cfi_offset %rbx, -24
	movl	$891335147, -24(%rbp)   # imm = 0x3520B1EB
	movl	$3, %eax
	cmpl	dbglvl, %eax
	jge	.LBB21_2
# %bb.1:                                # %if.then
	movabsq	$.L.str, %rdi
	movb	$0, %al
	callq	printf
.LBB21_2:                               # %if.end
	movl	$0, -12(%rbp)
.LBB21_3:                               # %for.cond
                                        # =>This Loop Header: Depth=1
                                        #     Child Loop BB21_7 Depth 2
	cmpl	$3, -12(%rbp)
	jge	.LBB21_12
# %bb.4:                                # %for.body
                                        #   in Loop: Header=BB21_3 Depth=1
	movslq	-12(%rbp), %rax
	imulq	$24, %rax, %rax
	movabsq	$spec_fd, %rbx
	movq	%rbx, %rcx
	addq	%rax, %rcx
	movl	(%rcx), %eax
	movl	%eax, -20(%rbp)
	movslq	-12(%rbp), %rax
	imulq	$24, %rax, %rax
	movq	%rbx, %rdi
	addq	%rax, %rdi
	xorl	%esi, %esi
	movl	$24, %edx
	callq	memset
	movl	-20(%rbp), %eax
	movslq	-12(%rbp), %rcx
	imulq	$24, %rcx, %rcx
	addq	%rcx, %rbx
	movl	%eax, (%rbx)
	movl	-20(%rbp), %eax
	addl	$1048576, %eax          # imm = 0x100000
	movslq	%eax, %rdi
	callq	malloc
	movslq	-12(%rbp), %rcx
	imulq	$24, %rcx, %rcx
	movabsq	$spec_fd, %rdx
	movq	%rdx, %rsi
	addq	%rcx, %rsi
	movq	%rax, 16(%rsi)
	movslq	-12(%rbp), %rax
	imulq	$24, %rax, %rax
	addq	%rax, %rdx
	cmpq	$0, 16(%rdx)
	jne	.LBB21_6
# %bb.5:                                # %if.then16
	movabsq	$.L.str.1, %rdi
	movb	$0, %al
	callq	printf
	xorl	%edi, %edi
	callq	exit
.LBB21_6:                               # %if.end18
                                        #   in Loop: Header=BB21_3 Depth=1
	movl	$0, -16(%rbp)
.LBB21_7:                               # %for.cond19
                                        #   Parent Loop BB21_3 Depth=1
                                        # =>  This Inner Loop Header: Depth=2
	movl	-16(%rbp), %eax
	cmpl	-20(%rbp), %eax
	jge	.LBB21_10
# %bb.8:                                # %for.body22
                                        #   in Loop: Header=BB21_7 Depth=2
	movslq	-12(%rbp), %rax
	imulq	$24, %rax, %rax
	movabsq	$spec_fd, %rcx
	addq	%rax, %rcx
	movq	16(%rcx), %rax
	movslq	-16(%rbp), %rcx
	movb	$0, (%rax,%rcx)
# %bb.9:                                # %for.inc
                                        #   in Loop: Header=BB21_7 Depth=2
	movl	-16(%rbp), %eax
	addl	$1024, %eax             # imm = 0x400
	movl	%eax, -16(%rbp)
	jmp	.LBB21_7
.LBB21_10:                              # %for.end
                                        #   in Loop: Header=BB21_3 Depth=1
	jmp	.LBB21_11
.LBB21_11:                              # %for.inc29
                                        #   in Loop: Header=BB21_3 Depth=1
	movl	-12(%rbp), %eax
	addl	$1, %eax
	movl	%eax, -12(%rbp)
	jmp	.LBB21_3
.LBB21_12:                              # %for.end30
	cmpl	$891335147, -24(%rbp)   # imm = 0x3520B1EB
	jne	.LBB21_14
.LBB21_13:
	xorl	%eax, %eax
	addq	$24, %rsp
	popq	%rbx
	popq	%rbp
	.cfi_def_cfa %rsp, 8
	retq
.LBB21_14:                              # %func_exit
	.cfi_def_cfa %rbp, 16
	callq	detect_breach
	jmp	.LBB21_13
.Lfunc_end21:
	.size	spec_init.9, .Lfunc_end21-spec_init.9
	.cfi_endproc
                                        # -- End function
	.globl	spec_fwrite.10          # -- Begin function spec_fwrite.10
	.p2align	4, 0x90
	.type	spec_fwrite.10,@function
spec_fwrite.10:                         # @spec_fwrite.10
	.cfi_startproc
# %bb.0:                                # %entry
	pushq	%rbp
	.cfi_def_cfa_offset 16
	.cfi_offset %rbp, -16
	movq	%rsp, %rbp
	.cfi_def_cfa_register %rbp
	pushq	%rbx
	subq	$24, %rsp
	.cfi_offset %rbx, -24
	movl	$1811177568, -24(%rbp)  # imm = 0x6BF46060
	movq	%rdi, -32(%rbp)
	movl	%esi, -20(%rbp)
	movl	%edx, -16(%rbp)
	movl	%ecx, -12(%rbp)
	movl	$4, %eax
	cmpl	dbglvl, %eax
	jge	.LBB22_2
# %bb.1:                                # %if.then
	movq	-32(%rbp), %rsi
	movl	-20(%rbp), %edx
	movl	-16(%rbp), %ecx
	movl	-12(%rbp), %r8d
	movabsq	$.L.str.20, %rdi
	movb	$0, %al
	callq	printf
.LBB22_2:                               # %if.end
	cmpl	$3, -12(%rbp)
	jle	.LBB22_4
# %bb.3:                                # %if.then2
	movq	stderr, %rdi
	movl	-12(%rbp), %edx
	movabsq	$.L.str.21, %rsi
	movb	$0, %al
	callq	fprintf
	xorl	%edi, %edi
	callq	exit
.LBB22_4:                               # %if.end4
	movslq	-12(%rbp), %rax
	imulq	$24, %rax, %rax
	movabsq	$spec_fd, %rbx
	movq	%rbx, %rcx
	addq	%rax, %rcx
	movq	16(%rcx), %rdi
	movslq	-12(%rbp), %rax
	imulq	$24, %rax, %rax
	movq	%rbx, %rcx
	addq	%rax, %rcx
	movslq	8(%rcx), %rax
	addq	%rax, %rdi
	movq	-32(%rbp), %rsi
	movl	-20(%rbp), %eax
	imull	-16(%rbp), %eax
	movslq	%eax, %rdx
	callq	memcpy
	movl	-20(%rbp), %eax
	imull	-16(%rbp), %eax
	movslq	-12(%rbp), %rcx
	imulq	$24, %rcx, %rcx
	movq	%rbx, %rdx
	addq	%rcx, %rdx
	addl	4(%rdx), %eax
	movl	%eax, 4(%rdx)
	movl	-20(%rbp), %eax
	imull	-16(%rbp), %eax
	movslq	-12(%rbp), %rcx
	imulq	$24, %rcx, %rcx
	addq	%rcx, %rbx
	addl	8(%rbx), %eax
	movl	%eax, 8(%rbx)
	movl	$4, %eax
	cmpl	dbglvl, %eax
	jge	.LBB22_6
# %bb.5:                                # %if.then20
	movl	-16(%rbp), %esi
	movabsq	$.L.str.11, %rdi
	movb	$0, %al
	callq	printf
.LBB22_6:                               # %if.end22
	movl	-16(%rbp), %ebx
	cmpl	$1811177568, -24(%rbp)  # imm = 0x6BF46060
	jne	.LBB22_8
.LBB22_7:
	movl	%ebx, %eax
	addq	$24, %rsp
	popq	%rbx
	popq	%rbp
	.cfi_def_cfa %rsp, 8
	retq
.LBB22_8:                               # %func_exit
	.cfi_def_cfa %rbp, 16
	callq	detect_breach
	jmp	.LBB22_7
.Lfunc_end22:
	.size	spec_fwrite.10, .Lfunc_end22-spec_fwrite.10
	.cfi_endproc
                                        # -- End function
	.globl	spec_read.11            # -- Begin function spec_read.11
	.p2align	4, 0x90
	.type	spec_read.11,@function
spec_read.11:                           # @spec_read.11
	.cfi_startproc
# %bb.0:                                # %entry
	pushq	%rbp
	.cfi_def_cfa_offset 16
	.cfi_offset %rbp, -16
	movq	%rsp, %rbp
	.cfi_def_cfa_register %rbp
	pushq	%rbx
	subq	$40, %rsp
	.cfi_offset %rbx, -24
	movl	$1748875140, -28(%rbp)  # imm = 0x683DB784
	movl	%edi, -12(%rbp)
	movq	%rsi, -40(%rbp)
	movl	%edx, -20(%rbp)
	movl	$0, -16(%rbp)
	movl	$4, %eax
	cmpl	dbglvl, %eax
	jge	.LBB23_2
# %bb.1:                                # %if.then
	movl	-12(%rbp), %esi
	movq	-40(%rbp), %rdx
	movl	-20(%rbp), %ecx
	movabsq	$.L.str.8, %rdi
	movb	$0, %al
	callq	printf
.LBB23_2:                               # %if.end
	cmpl	$3, -12(%rbp)
	jle	.LBB23_4
# %bb.3:                                # %if.then2
	movq	stderr, %rdi
	movl	-12(%rbp), %edx
	movabsq	$.L.str.9, %rsi
	movb	$0, %al
	callq	fprintf
	xorl	%edi, %edi
	callq	exit
.LBB23_4:                               # %if.end4
	movslq	-12(%rbp), %rax
	imulq	$24, %rax, %rax
	movabsq	$spec_fd, %rcx
	movq	%rcx, %rdx
	addq	%rax, %rdx
	movl	8(%rdx), %eax
	movslq	-12(%rbp), %rdx
	imulq	$24, %rdx, %rdx
	addq	%rdx, %rcx
	cmpl	4(%rcx), %eax
	jl	.LBB23_8
# %bb.5:                                # %if.then8
	movl	$4, %eax
	cmpl	dbglvl, %eax
	jge	.LBB23_7
# %bb.6:                                # %if.then10
	movabsq	$.L.str.10, %rdi
	movb	$0, %al
	callq	printf
.LBB23_7:                               # %if.end12
	movl	$-1, -24(%rbp)
	jmp	.LBB23_14
.LBB23_8:                               # %if.end13
	movslq	-12(%rbp), %rax
	imulq	$24, %rax, %rax
	movabsq	$spec_fd, %rcx
	movq	%rcx, %rdx
	addq	%rax, %rdx
	movl	8(%rdx), %eax
	addl	-20(%rbp), %eax
	movslq	-12(%rbp), %rdx
	imulq	$24, %rdx, %rdx
	addq	%rdx, %rcx
	cmpl	4(%rcx), %eax
	jl	.LBB23_10
# %bb.9:                                # %if.then21
	movslq	-12(%rbp), %rax
	imulq	$24, %rax, %rax
	movabsq	$spec_fd, %rcx
	movq	%rcx, %rdx
	addq	%rax, %rdx
	movl	4(%rdx), %eax
	movslq	-12(%rbp), %rdx
	imulq	$24, %rdx, %rdx
	addq	%rdx, %rcx
	subl	8(%rcx), %eax
	movl	%eax, -16(%rbp)
	jmp	.LBB23_11
.LBB23_10:                              # %if.else
	movl	-20(%rbp), %eax
	movl	%eax, -16(%rbp)
.LBB23_11:                              # %if.end28
	movq	-40(%rbp), %rdi
	movslq	-12(%rbp), %rax
	imulq	$24, %rax, %rax
	movabsq	$spec_fd, %rbx
	movq	%rbx, %rcx
	addq	%rax, %rcx
	movq	16(%rcx), %rsi
	movslq	-12(%rbp), %rax
	imulq	$24, %rax, %rax
	movq	%rbx, %rcx
	addq	%rax, %rcx
	movslq	8(%rcx), %rax
	addq	%rax, %rsi
	movslq	-16(%rbp), %rdx
	callq	memcpy
	movl	-16(%rbp), %eax
	movslq	-12(%rbp), %rcx
	imulq	$24, %rcx, %rcx
	addq	%rcx, %rbx
	addl	8(%rbx), %eax
	movl	%eax, 8(%rbx)
	movl	$4, %eax
	cmpl	dbglvl, %eax
	jge	.LBB23_13
# %bb.12:                               # %if.then43
	movl	-16(%rbp), %esi
	movabsq	$.L.str.11, %rdi
	movb	$0, %al
	callq	printf
.LBB23_13:                              # %if.end45
	movl	-16(%rbp), %eax
	movl	%eax, -24(%rbp)
.LBB23_14:                              # %return
	movl	-24(%rbp), %ebx
	cmpl	$1748875140, -28(%rbp)  # imm = 0x683DB784
	jne	.LBB23_16
.LBB23_15:
	movl	%ebx, %eax
	addq	$40, %rsp
	popq	%rbx
	popq	%rbp
	.cfi_def_cfa %rsp, 8
	retq
.LBB23_16:                              # %func_exit
	.cfi_def_cfa %rbp, 16
	callq	detect_breach
	jmp	.LBB23_15
.Lfunc_end23:
	.size	spec_read.11, .Lfunc_end23-spec_read.11
	.cfi_endproc
                                        # -- End function
	.globl	spec_fread.12           # -- Begin function spec_fread.12
	.p2align	4, 0x90
	.type	spec_fread.12,@function
spec_fread.12:                          # @spec_fread.12
	.cfi_startproc
# %bb.0:                                # %entry
	pushq	%rbp
	.cfi_def_cfa_offset 16
	.cfi_offset %rbp, -16
	movq	%rsp, %rbp
	.cfi_def_cfa_register %rbp
	pushq	%rbx
	subq	$40, %rsp
	.cfi_offset %rbx, -24
	movl	$560756096, -32(%rbp)   # imm = 0x216C7580
	movq	%rdi, -40(%rbp)
	movl	%esi, -20(%rbp)
	movl	%edx, -24(%rbp)
	movl	%ecx, -12(%rbp)
	movl	$0, -16(%rbp)
	movl	$4, %eax
	cmpl	dbglvl, %eax
	jge	.LBB24_2
# %bb.1:                                # %if.then
	movq	-40(%rbp), %rsi
	movl	-20(%rbp), %edx
	movl	-24(%rbp), %ecx
	movl	-12(%rbp), %r8d
	movabsq	$.L.str.12, %rdi
	movb	$0, %al
	callq	printf
.LBB24_2:                               # %if.end
	cmpl	$3, -12(%rbp)
	jle	.LBB24_4
# %bb.3:                                # %if.then2
	movq	stderr, %rdi
	movl	-12(%rbp), %edx
	movabsq	$.L.str.13, %rsi
	movb	$0, %al
	callq	fprintf
	xorl	%edi, %edi
	callq	exit
.LBB24_4:                               # %if.end4
	movslq	-12(%rbp), %rax
	imulq	$24, %rax, %rax
	movabsq	$spec_fd, %rcx
	movq	%rcx, %rdx
	addq	%rax, %rdx
	movl	8(%rdx), %eax
	movslq	-12(%rbp), %rdx
	imulq	$24, %rdx, %rdx
	addq	%rdx, %rcx
	cmpl	4(%rcx), %eax
	jl	.LBB24_8
# %bb.5:                                # %if.then8
	movl	$4, %eax
	cmpl	dbglvl, %eax
	jge	.LBB24_7
# %bb.6:                                # %if.then10
	movabsq	$.L.str.10, %rdi
	movb	$0, %al
	callq	printf
.LBB24_7:                               # %if.end12
	movl	$-1, -28(%rbp)
	jmp	.LBB24_14
.LBB24_8:                               # %if.end13
	movslq	-12(%rbp), %rax
	imulq	$24, %rax, %rax
	movabsq	$spec_fd, %rcx
	movq	%rcx, %rdx
	addq	%rax, %rdx
	movl	8(%rdx), %eax
	movl	-20(%rbp), %edx
	imull	-24(%rbp), %edx
	addl	%edx, %eax
	movslq	-12(%rbp), %rdx
	imulq	$24, %rdx, %rdx
	addq	%rdx, %rcx
	cmpl	4(%rcx), %eax
	jl	.LBB24_10
# %bb.9:                                # %if.then21
	movslq	-12(%rbp), %rax
	imulq	$24, %rax, %rax
	movabsq	$spec_fd, %rcx
	movq	%rcx, %rdx
	addq	%rax, %rdx
	movl	4(%rdx), %eax
	movslq	-12(%rbp), %rdx
	imulq	$24, %rdx, %rdx
	addq	%rdx, %rcx
	subl	8(%rcx), %eax
	cltd
	idivl	-20(%rbp)
	movl	%eax, -16(%rbp)
	jmp	.LBB24_11
.LBB24_10:                              # %if.else
	movl	-24(%rbp), %eax
	movl	%eax, -16(%rbp)
.LBB24_11:                              # %if.end28
	movq	-40(%rbp), %rdi
	movslq	-12(%rbp), %rax
	imulq	$24, %rax, %rax
	movabsq	$spec_fd, %rbx
	movq	%rbx, %rcx
	addq	%rax, %rcx
	movq	16(%rcx), %rsi
	movslq	-12(%rbp), %rax
	imulq	$24, %rax, %rax
	movq	%rbx, %rcx
	addq	%rax, %rcx
	movslq	8(%rcx), %rax
	addq	%rax, %rsi
	movslq	-16(%rbp), %rdx
	callq	memcpy
	movl	-16(%rbp), %eax
	imull	-20(%rbp), %eax
	movslq	-12(%rbp), %rcx
	imulq	$24, %rcx, %rcx
	addq	%rcx, %rbx
	addl	8(%rbx), %eax
	movl	%eax, 8(%rbx)
	movl	$4, %eax
	cmpl	dbglvl, %eax
	jge	.LBB24_13
# %bb.12:                               # %if.then44
	movl	-16(%rbp), %esi
	imull	-20(%rbp), %esi
	movabsq	$.L.str.11, %rdi
	movb	$0, %al
	callq	printf
.LBB24_13:                              # %if.end47
	movl	-16(%rbp), %eax
	movl	%eax, -28(%rbp)
.LBB24_14:                              # %return
	movl	-28(%rbp), %ebx
	cmpl	$560756096, -32(%rbp)   # imm = 0x216C7580
	jne	.LBB24_16
.LBB24_15:
	movl	%ebx, %eax
	addq	$40, %rsp
	popq	%rbx
	popq	%rbp
	.cfi_def_cfa %rsp, 8
	retq
.LBB24_16:                              # %func_exit
	.cfi_def_cfa %rbp, 16
	callq	detect_breach
	jmp	.LBB24_15
.Lfunc_end24:
	.size	spec_fread.12, .Lfunc_end24-spec_fread.12
	.cfi_endproc
                                        # -- End function
	.globl	spec_fwrite.13          # -- Begin function spec_fwrite.13
	.p2align	4, 0x90
	.type	spec_fwrite.13,@function
spec_fwrite.13:                         # @spec_fwrite.13
	.cfi_startproc
# %bb.0:                                # %entry
	pushq	%rbp
	.cfi_def_cfa_offset 16
	.cfi_offset %rbp, -16
	movq	%rsp, %rbp
	.cfi_def_cfa_register %rbp
	pushq	%rbx
	subq	$24, %rsp
	.cfi_offset %rbx, -24
	movl	$1962284701, -24(%rbp)  # imm = 0x74F6169D
	movq	%rdi, -32(%rbp)
	movl	%esi, -20(%rbp)
	movl	%edx, -16(%rbp)
	movl	%ecx, -12(%rbp)
	movl	$4, %eax
	cmpl	dbglvl, %eax
	jge	.LBB25_2
# %bb.1:                                # %if.then
	movq	-32(%rbp), %rsi
	movl	-20(%rbp), %edx
	movl	-16(%rbp), %ecx
	movl	-12(%rbp), %r8d
	movabsq	$.L.str.20, %rdi
	movb	$0, %al
	callq	printf
.LBB25_2:                               # %if.end
	cmpl	$3, -12(%rbp)
	jle	.LBB25_4
# %bb.3:                                # %if.then2
	movq	stderr, %rdi
	movl	-12(%rbp), %edx
	movabsq	$.L.str.21, %rsi
	movb	$0, %al
	callq	fprintf
	xorl	%edi, %edi
	callq	exit
.LBB25_4:                               # %if.end4
	movslq	-12(%rbp), %rax
	imulq	$24, %rax, %rax
	movabsq	$spec_fd, %rbx
	movq	%rbx, %rcx
	addq	%rax, %rcx
	movq	16(%rcx), %rdi
	movslq	-12(%rbp), %rax
	imulq	$24, %rax, %rax
	movq	%rbx, %rcx
	addq	%rax, %rcx
	movslq	8(%rcx), %rax
	addq	%rax, %rdi
	movq	-32(%rbp), %rsi
	movl	-20(%rbp), %eax
	imull	-16(%rbp), %eax
	movslq	%eax, %rdx
	callq	memcpy
	movl	-20(%rbp), %eax
	imull	-16(%rbp), %eax
	movslq	-12(%rbp), %rcx
	imulq	$24, %rcx, %rcx
	movq	%rbx, %rdx
	addq	%rcx, %rdx
	addl	4(%rdx), %eax
	movl	%eax, 4(%rdx)
	movl	-20(%rbp), %eax
	imull	-16(%rbp), %eax
	movslq	-12(%rbp), %rcx
	imulq	$24, %rcx, %rcx
	addq	%rcx, %rbx
	addl	8(%rbx), %eax
	movl	%eax, 8(%rbx)
	movl	$4, %eax
	cmpl	dbglvl, %eax
	jge	.LBB25_6
# %bb.5:                                # %if.then20
	movl	-16(%rbp), %esi
	movabsq	$.L.str.11, %rdi
	movb	$0, %al
	callq	printf
.LBB25_6:                               # %if.end22
	movl	-16(%rbp), %ebx
	cmpl	$1962284701, -24(%rbp)  # imm = 0x74F6169D
	jne	.LBB25_8
.LBB25_7:
	movl	%ebx, %eax
	addq	$24, %rsp
	popq	%rbx
	popq	%rbp
	.cfi_def_cfa %rsp, 8
	retq
.LBB25_8:                               # %func_exit
	.cfi_def_cfa %rbp, 16
	callq	detect_breach
	jmp	.LBB25_7
.Lfunc_end25:
	.size	spec_fwrite.13, .Lfunc_end25-spec_fwrite.13
	.cfi_endproc
                                        # -- End function
	.globl	spec_write.14           # -- Begin function spec_write.14
	.p2align	4, 0x90
	.type	spec_write.14,@function
spec_write.14:                          # @spec_write.14
	.cfi_startproc
# %bb.0:                                # %entry
	pushq	%rbp
	.cfi_def_cfa_offset 16
	.cfi_offset %rbp, -16
	movq	%rsp, %rbp
	.cfi_def_cfa_register %rbp
	pushq	%rbx
	subq	$24, %rsp
	.cfi_offset %rbx, -24
	movl	$1699478, -20(%rbp)     # imm = 0x19EE96
	movl	%edi, -12(%rbp)
	movq	%rsi, -32(%rbp)
	movl	%edx, -16(%rbp)
	movl	$4, %eax
	cmpl	dbglvl, %eax
	jge	.LBB26_2
# %bb.1:                                # %if.then
	movl	-12(%rbp), %esi
	movq	-32(%rbp), %rdx
	movl	-16(%rbp), %ecx
	movabsq	$.L.str.18, %rdi
	movb	$0, %al
	callq	printf
.LBB26_2:                               # %if.end
	cmpl	$3, -12(%rbp)
	jle	.LBB26_4
# %bb.3:                                # %if.then2
	movq	stderr, %rdi
	movl	-12(%rbp), %edx
	movabsq	$.L.str.19, %rsi
	movb	$0, %al
	callq	fprintf
	xorl	%edi, %edi
	callq	exit
.LBB26_4:                               # %if.end4
	movslq	-12(%rbp), %rax
	imulq	$24, %rax, %rax
	movabsq	$spec_fd, %rbx
	movq	%rbx, %rcx
	addq	%rax, %rcx
	movq	16(%rcx), %rdi
	movslq	-12(%rbp), %rax
	imulq	$24, %rax, %rax
	movq	%rbx, %rcx
	addq	%rax, %rcx
	movslq	8(%rcx), %rax
	addq	%rax, %rdi
	movq	-32(%rbp), %rsi
	movslq	-16(%rbp), %rdx
	callq	memcpy
	movl	-16(%rbp), %eax
	movslq	-12(%rbp), %rcx
	imulq	$24, %rcx, %rcx
	movq	%rbx, %rdx
	addq	%rcx, %rdx
	addl	4(%rdx), %eax
	movl	%eax, 4(%rdx)
	movl	-16(%rbp), %eax
	movslq	-12(%rbp), %rcx
	imulq	$24, %rcx, %rcx
	addq	%rcx, %rbx
	addl	8(%rbx), %eax
	movl	%eax, 8(%rbx)
	movl	$4, %eax
	cmpl	dbglvl, %eax
	jge	.LBB26_6
# %bb.5:                                # %if.then18
	movl	-16(%rbp), %esi
	movabsq	$.L.str.11, %rdi
	movb	$0, %al
	callq	printf
.LBB26_6:                               # %if.end20
	movl	-16(%rbp), %ebx
	cmpl	$1699478, -20(%rbp)     # imm = 0x19EE96
	jne	.LBB26_8
.LBB26_7:
	movl	%ebx, %eax
	addq	$24, %rsp
	popq	%rbx
	popq	%rbp
	.cfi_def_cfa %rsp, 8
	retq
.LBB26_8:                               # %func_exit
	.cfi_def_cfa %rbp, 16
	callq	detect_breach
	jmp	.LBB26_7
.Lfunc_end26:
	.size	spec_write.14, .Lfunc_end26-spec_write.14
	.cfi_endproc
                                        # -- End function
	.globl	spec_putc.15            # -- Begin function spec_putc.15
	.p2align	4, 0x90
	.type	spec_putc.15,@function
spec_putc.15:                           # @spec_putc.15
	.cfi_startproc
# %bb.0:                                # %entry
	pushq	%rbp
	.cfi_def_cfa_offset 16
	.cfi_offset %rbp, -16
	movq	%rsp, %rbp
	.cfi_def_cfa_register %rbp
	pushq	%rbx
	subq	$24, %rsp
	.cfi_offset %rbx, -24
	movl	$618322679, -20(%rbp)   # imm = 0x24DADAF7
	movb	%dil, -9(%rbp)
	movl	%esi, -16(%rbp)
	movl	$4, %eax
	cmpl	dbglvl, %eax
	jge	.LBB27_2
# %bb.1:                                # %if.then
	movzbl	-9(%rbp), %esi
	movl	-16(%rbp), %edx
	movabsq	$.L.str.22, %rdi
	movb	$0, %al
	callq	printf
.LBB27_2:                               # %if.end
	cmpl	$3, -16(%rbp)
	jle	.LBB27_4
# %bb.3:                                # %if.then3
	movq	stderr, %rdi
	movl	-16(%rbp), %edx
	movabsq	$.L.str.19, %rsi
	movb	$0, %al
	callq	fprintf
	xorl	%edi, %edi
	callq	exit
.LBB27_4:                               # %if.end5
	movb	-9(%rbp), %al
	movslq	-16(%rbp), %rcx
	imulq	$24, %rcx, %rcx
	movabsq	$spec_fd, %rdx
	movq	%rdx, %rsi
	addq	%rcx, %rsi
	movq	16(%rsi), %rcx
	movslq	-16(%rbp), %rsi
	imulq	$24, %rsi, %rsi
	movq	%rdx, %rdi
	addq	%rsi, %rdi
	movl	8(%rdi), %ebx
	movl	%ebx, %esi
	addl	$1, %esi
	movl	%esi, 8(%rdi)
	movslq	%ebx, %rsi
	movb	%al, (%rcx,%rsi)
	movslq	-16(%rbp), %rax
	imulq	$24, %rax, %rax
	addq	%rax, %rdx
	movl	4(%rdx), %eax
	addl	$1, %eax
	movl	%eax, 4(%rdx)
	movzbl	-9(%rbp), %ebx
	cmpl	$618322679, -20(%rbp)   # imm = 0x24DADAF7
	jne	.LBB27_6
.LBB27_5:
	movl	%ebx, %eax
	addq	$24, %rsp
	popq	%rbx
	popq	%rbp
	.cfi_def_cfa %rsp, 8
	retq
.LBB27_6:                               # %func_exit
	.cfi_def_cfa %rbp, 16
	callq	detect_breach
	jmp	.LBB27_5
.Lfunc_end27:
	.size	spec_putc.15, .Lfunc_end27-spec_putc.15
	.cfi_endproc
                                        # -- End function
	.section	.rodata.cst8,"aM",@progbits,8
	.p2align	3               # -- Begin function spec_random_load.16
.LCPI28_0:
	.quad	4629700416936869888     # double 32
.LCPI28_1:
	.quad	4643211215818981376     # double 256
	.text
	.globl	spec_random_load.16
	.p2align	4, 0x90
	.type	spec_random_load.16,@function
spec_random_load.16:                    # @spec_random_load.16
	.cfi_startproc
# %bb.0:                                # %entry
	pushq	%rbp
	.cfi_def_cfa_offset 16
	.cfi_offset %rbp, -16
	movq	%rsp, %rbp
	.cfi_def_cfa_register %rbp
	pushq	%rbx
	subq	$4194328, %rsp          # imm = 0x400018
	.cfi_offset %rbx, -24
	movl	$1691145343, -24(%rbp)  # imm = 0x64CCD47F
	movl	%edi, -20(%rbp)
	movl	$4, %eax
	cmpl	dbglvl, %eax
	jge	.LBB28_2
# %bb.1:                                # %if.then
	movabsq	$.L.str.2, %rdi
	movb	$0, %al
	callq	printf
.LBB28_2:                               # %if.end
	movl	$0, -12(%rbp)
.LBB28_3:                               # %for.cond
                                        # =>This Loop Header: Depth=1
                                        #     Child Loop BB28_7 Depth 2
	cmpl	$32, -12(%rbp)
	jge	.LBB28_12
# %bb.4:                                # %for.body
                                        #   in Loop: Header=BB28_3 Depth=1
	movl	$5, %eax
	cmpl	dbglvl, %eax
	jge	.LBB28_6
# %bb.5:                                # %if.then3
                                        #   in Loop: Header=BB28_3 Depth=1
	movl	-12(%rbp), %esi
	movabsq	$.L.str.3, %rdi
	movb	$0, %al
	callq	printf
.LBB28_6:                               # %if.end5
                                        #   in Loop: Header=BB28_3 Depth=1
	movl	$0, -16(%rbp)
.LBB28_7:                               # %for.cond6
                                        #   Parent Loop BB28_3 Depth=1
                                        # =>  This Inner Loop Header: Depth=2
	cmpl	$131072, -16(%rbp)      # imm = 0x20000
	jge	.LBB28_10
# %bb.8:                                # %for.body8
                                        #   in Loop: Header=BB28_7 Depth=2
	callq	ran
	vmovsd	.LCPI28_1(%rip), %xmm1  # xmm1 = mem[0],zero
	vmulsd	%xmm1, %xmm0, %xmm0
	vcvttsd2si	%xmm0, %eax
	movslq	-12(%rbp), %rcx
	shlq	$17, %rcx
	leaq	-4194336(%rbp), %rdx
	addq	%rcx, %rdx
	movslq	-16(%rbp), %rcx
	movb	%al, (%rdx,%rcx)
# %bb.9:                                # %for.inc
                                        #   in Loop: Header=BB28_7 Depth=2
	movl	-16(%rbp), %eax
	addl	$1, %eax
	movl	%eax, -16(%rbp)
	jmp	.LBB28_7
.LBB28_10:                              # %for.end
                                        #   in Loop: Header=BB28_3 Depth=1
	jmp	.LBB28_11
.LBB28_11:                              # %for.inc13
                                        #   in Loop: Header=BB28_3 Depth=1
	movl	-12(%rbp), %eax
	addl	$1, %eax
	movl	%eax, -12(%rbp)
	jmp	.LBB28_3
.LBB28_12:                              # %for.end15
	movl	$4, %eax
	cmpl	dbglvl, %eax
	jge	.LBB28_14
# %bb.13:                               # %if.then18
	movabsq	$.L.str.4, %rdi
	movb	$0, %al
	callq	printf
.LBB28_14:                              # %if.end20
	movl	$0, -12(%rbp)
.LBB28_15:                              # %for.cond21
                                        # =>This Inner Loop Header: Depth=1
	movl	-12(%rbp), %eax
	movslq	-20(%rbp), %rcx
	imulq	$24, %rcx, %rcx
	movabsq	$spec_fd, %rdx
	addq	%rcx, %rdx
	cmpl	(%rdx), %eax
	jge	.LBB28_18
# %bb.16:                               # %for.body26
                                        #   in Loop: Header=BB28_15 Depth=1
	movslq	-20(%rbp), %rax
	imulq	$24, %rax, %rax
	movabsq	$spec_fd, %rcx
	addq	%rax, %rcx
	movq	16(%rcx), %rbx
	movslq	-12(%rbp), %rax
	addq	%rax, %rbx
	callq	ran
	vmovsd	.LCPI28_0(%rip), %xmm1  # xmm1 = mem[0],zero
	vmulsd	%xmm1, %xmm0, %xmm0
	vcvttsd2si	%xmm0, %eax
	cltq
	shlq	$17, %rax
	leaq	-4194336(%rbp), %rsi
	addq	%rax, %rsi
	movq	%rbx, %rdi
	movl	$131072, %edx           # imm = 0x20000
	callq	memcpy
# %bb.17:                               # %for.inc34
                                        #   in Loop: Header=BB28_15 Depth=1
	movl	-12(%rbp), %eax
	addl	$131072, %eax           # imm = 0x20000
	movl	%eax, -12(%rbp)
	jmp	.LBB28_15
.LBB28_18:                              # %for.end35
	movslq	-20(%rbp), %rax
	imulq	$24, %rax, %rax
	movabsq	$spec_fd, %rcx
	addq	%rax, %rcx
	movl	$1048576, 4(%rcx)       # imm = 0x100000
	cmpl	$1691145343, -24(%rbp)  # imm = 0x64CCD47F
	jne	.LBB28_20
.LBB28_19:
	xorl	%eax, %eax
	addq	$4194328, %rsp          # imm = 0x400018
	popq	%rbx
	popq	%rbp
	.cfi_def_cfa %rsp, 8
	retq
.LBB28_20:                              # %func_exit
	.cfi_def_cfa %rbp, 16
	callq	detect_breach
	jmp	.LBB28_19
.Lfunc_end28:
	.size	spec_random_load.16, .Lfunc_end28-spec_random_load.16
	.cfi_endproc
                                        # -- End function
	.globl	spec_fwrite.17          # -- Begin function spec_fwrite.17
	.p2align	4, 0x90
	.type	spec_fwrite.17,@function
spec_fwrite.17:                         # @spec_fwrite.17
	.cfi_startproc
# %bb.0:                                # %entry
	pushq	%rbp
	.cfi_def_cfa_offset 16
	.cfi_offset %rbp, -16
	movq	%rsp, %rbp
	.cfi_def_cfa_register %rbp
	pushq	%rbx
	subq	$24, %rsp
	.cfi_offset %rbx, -24
	movl	$1804346347, -24(%rbp)  # imm = 0x6B8C23EB
	movq	%rdi, -32(%rbp)
	movl	%esi, -20(%rbp)
	movl	%edx, -16(%rbp)
	movl	%ecx, -12(%rbp)
	movl	$4, %eax
	cmpl	dbglvl, %eax
	jge	.LBB29_2
# %bb.1:                                # %if.then
	movq	-32(%rbp), %rsi
	movl	-20(%rbp), %edx
	movl	-16(%rbp), %ecx
	movl	-12(%rbp), %r8d
	movabsq	$.L.str.20, %rdi
	movb	$0, %al
	callq	printf
.LBB29_2:                               # %if.end
	cmpl	$3, -12(%rbp)
	jle	.LBB29_4
# %bb.3:                                # %if.then2
	movq	stderr, %rdi
	movl	-12(%rbp), %edx
	movabsq	$.L.str.21, %rsi
	movb	$0, %al
	callq	fprintf
	xorl	%edi, %edi
	callq	exit
.LBB29_4:                               # %if.end4
	movslq	-12(%rbp), %rax
	imulq	$24, %rax, %rax
	movabsq	$spec_fd, %rbx
	movq	%rbx, %rcx
	addq	%rax, %rcx
	movq	16(%rcx), %rdi
	movslq	-12(%rbp), %rax
	imulq	$24, %rax, %rax
	movq	%rbx, %rcx
	addq	%rax, %rcx
	movslq	8(%rcx), %rax
	addq	%rax, %rdi
	movq	-32(%rbp), %rsi
	movl	-20(%rbp), %eax
	imull	-16(%rbp), %eax
	movslq	%eax, %rdx
	callq	memcpy
	movl	-20(%rbp), %eax
	imull	-16(%rbp), %eax
	movslq	-12(%rbp), %rcx
	imulq	$24, %rcx, %rcx
	movq	%rbx, %rdx
	addq	%rcx, %rdx
	addl	4(%rdx), %eax
	movl	%eax, 4(%rdx)
	movl	-20(%rbp), %eax
	imull	-16(%rbp), %eax
	movslq	-12(%rbp), %rcx
	imulq	$24, %rcx, %rcx
	addq	%rcx, %rbx
	addl	8(%rbx), %eax
	movl	%eax, 8(%rbx)
	movl	$4, %eax
	cmpl	dbglvl, %eax
	jge	.LBB29_6
# %bb.5:                                # %if.then20
	movl	-16(%rbp), %esi
	movabsq	$.L.str.11, %rdi
	movb	$0, %al
	callq	printf
.LBB29_6:                               # %if.end22
	movl	-16(%rbp), %ebx
	cmpl	$1804346347, -24(%rbp)  # imm = 0x6B8C23EB
	jne	.LBB29_8
.LBB29_7:
	movl	%ebx, %eax
	addq	$24, %rsp
	popq	%rbx
	popq	%rbp
	.cfi_def_cfa %rsp, 8
	retq
.LBB29_8:                               # %func_exit
	.cfi_def_cfa %rbp, 16
	callq	detect_breach
	jmp	.LBB29_7
.Lfunc_end29:
	.size	spec_fwrite.17, .Lfunc_end29-spec_fwrite.17
	.cfi_endproc
                                        # -- End function
	.globl	spec_putc.18            # -- Begin function spec_putc.18
	.p2align	4, 0x90
	.type	spec_putc.18,@function
spec_putc.18:                           # @spec_putc.18
	.cfi_startproc
# %bb.0:                                # %entry
	pushq	%rbp
	.cfi_def_cfa_offset 16
	.cfi_offset %rbp, -16
	movq	%rsp, %rbp
	.cfi_def_cfa_register %rbp
	pushq	%rbx
	subq	$24, %rsp
	.cfi_offset %rbx, -24
	movl	$1789614374, -20(%rbp)  # imm = 0x6AAB5926
	movb	%dil, -9(%rbp)
	movl	%esi, -16(%rbp)
	movl	$4, %eax
	cmpl	dbglvl, %eax
	jge	.LBB30_2
# %bb.1:                                # %if.then
	movzbl	-9(%rbp), %esi
	movl	-16(%rbp), %edx
	movabsq	$.L.str.22, %rdi
	movb	$0, %al
	callq	printf
.LBB30_2:                               # %if.end
	cmpl	$3, -16(%rbp)
	jle	.LBB30_4
# %bb.3:                                # %if.then3
	movq	stderr, %rdi
	movl	-16(%rbp), %edx
	movabsq	$.L.str.19, %rsi
	movb	$0, %al
	callq	fprintf
	xorl	%edi, %edi
	callq	exit
.LBB30_4:                               # %if.end5
	movb	-9(%rbp), %al
	movslq	-16(%rbp), %rcx
	imulq	$24, %rcx, %rcx
	movabsq	$spec_fd, %rdx
	movq	%rdx, %rsi
	addq	%rcx, %rsi
	movq	16(%rsi), %rcx
	movslq	-16(%rbp), %rsi
	imulq	$24, %rsi, %rsi
	movq	%rdx, %rdi
	addq	%rsi, %rdi
	movl	8(%rdi), %ebx
	movl	%ebx, %esi
	addl	$1, %esi
	movl	%esi, 8(%rdi)
	movslq	%ebx, %rsi
	movb	%al, (%rcx,%rsi)
	movslq	-16(%rbp), %rax
	imulq	$24, %rax, %rax
	addq	%rax, %rdx
	movl	4(%rdx), %eax
	addl	$1, %eax
	movl	%eax, 4(%rdx)
	movzbl	-9(%rbp), %ebx
	cmpl	$1789614374, -20(%rbp)  # imm = 0x6AAB5926
	jne	.LBB30_6
.LBB30_5:
	movl	%ebx, %eax
	addq	$24, %rsp
	popq	%rbx
	popq	%rbp
	.cfi_def_cfa %rsp, 8
	retq
.LBB30_6:                               # %func_exit
	.cfi_def_cfa %rbp, 16
	callq	detect_breach
	jmp	.LBB30_5
.Lfunc_end30:
	.size	spec_putc.18, .Lfunc_end30-spec_putc.18
	.cfi_endproc
                                        # -- End function
	.globl	spec_load.19            # -- Begin function spec_load.19
	.p2align	4, 0x90
	.type	spec_load.19,@function
spec_load.19:                           # @spec_load.19
	.cfi_startproc
# %bb.0:                                # %entry
	pushq	%rbp
	.cfi_def_cfa_offset 16
	.cfi_offset %rbp, -16
	movq	%rsp, %rbp
	.cfi_def_cfa_register %rbp
	pushq	%r14
	pushq	%rbx
	subq	$48, %rsp
	.cfi_offset %rbx, -32
	.cfi_offset %r14, -24
	movl	$216293604, -52(%rbp)   # imm = 0xCE460E4
	movl	%edi, -20(%rbp)
	movq	%rsi, -48(%rbp)
	movl	%edx, -40(%rbp)
	movq	-48(%rbp), %rdi
	xorl	%esi, %esi
	movb	$0, %al
	callq	open
	movl	%eax, -36(%rbp)
	cmpl	$0, -36(%rbp)
	jge	.LBB31_2
# %bb.1:                                # %if.then
	movq	stderr, %rbx
	movq	-48(%rbp), %r14
	callq	__errno_location
	movl	(%rax), %edi
	callq	strerror
	movq	%rbx, %rdi
	movabsq	$.L.str.5, %rsi
	movq	%r14, %rdx
	movq	%rax, %rcx
	movb	$0, %al
	callq	fprintf
	xorl	%edi, %edi
	callq	exit
.LBB31_2:                               # %if.end
	movslq	-20(%rbp), %rax
	imulq	$24, %rax, %rax
	movabsq	$spec_fd, %rcx
	movq	%rcx, %rdx
	addq	%rax, %rdx
	movl	$0, 4(%rdx)
	movslq	-20(%rbp), %rax
	imulq	$24, %rax, %rax
	addq	%rax, %rcx
	movl	$0, 8(%rcx)
	movl	$0, -28(%rbp)
.LBB31_3:                               # %for.cond
                                        # =>This Inner Loop Header: Depth=1
	movl	-28(%rbp), %eax
	cmpl	-40(%rbp), %eax
	jge	.LBB31_10
# %bb.4:                                # %for.body
                                        #   in Loop: Header=BB31_3 Depth=1
	movl	-36(%rbp), %edi
	movslq	-20(%rbp), %rax
	imulq	$24, %rax, %rax
	movabsq	$spec_fd, %rcx
	addq	%rax, %rcx
	movq	16(%rcx), %rsi
	movslq	-28(%rbp), %rax
	addq	%rax, %rsi
	movl	$131072, %edx           # imm = 0x20000
	callq	read
	movl	%eax, -32(%rbp)
	cmpl	$0, -32(%rbp)
	jne	.LBB31_6
# %bb.5:                                # %if.then12
	jmp	.LBB31_11
.LBB31_6:                               # %if.end13
                                        #   in Loop: Header=BB31_3 Depth=1
	cmpl	$0, -32(%rbp)
	jge	.LBB31_8
# %bb.7:                                # %if.then16
	movq	stderr, %rbx
	movq	-48(%rbp), %r14
	callq	__errno_location
	movl	(%rax), %edi
	callq	strerror
	movq	%rbx, %rdi
	movabsq	$.L.str.6, %rsi
	movq	%r14, %rdx
	movq	%rax, %rcx
	movb	$0, %al
	callq	fprintf
	xorl	%edi, %edi
	callq	exit
.LBB31_8:                               # %if.end20
                                        #   in Loop: Header=BB31_3 Depth=1
	movl	-32(%rbp), %eax
	movslq	-20(%rbp), %rcx
	imulq	$24, %rcx, %rcx
	movabsq	$spec_fd, %rdx
	addq	%rcx, %rdx
	addl	4(%rdx), %eax
	movl	%eax, 4(%rdx)
# %bb.9:                                # %for.inc
                                        #   in Loop: Header=BB31_3 Depth=1
	movl	-32(%rbp), %eax
	addl	-28(%rbp), %eax
	movl	%eax, -28(%rbp)
	jmp	.LBB31_3
.LBB31_10:                              # %for.end.loopexit
	jmp	.LBB31_11
.LBB31_11:                              # %for.end
	movl	-36(%rbp), %edi
	callq	close
.LBB31_12:                              # %while.cond
                                        # =>This Inner Loop Header: Depth=1
	movslq	-20(%rbp), %rax
	imulq	$24, %rax, %rax
	movabsq	$spec_fd, %rcx
	addq	%rax, %rcx
	movl	4(%rcx), %eax
	cmpl	-40(%rbp), %eax
	jge	.LBB31_18
# %bb.13:                               # %while.body
                                        #   in Loop: Header=BB31_12 Depth=1
	movl	-40(%rbp), %eax
	movslq	-20(%rbp), %rcx
	imulq	$24, %rcx, %rcx
	movabsq	$spec_fd, %rdx
	movq	%rdx, %rsi
	addq	%rcx, %rsi
	subl	4(%rsi), %eax
	movl	%eax, -24(%rbp)
	movl	-24(%rbp), %eax
	movslq	-20(%rbp), %rcx
	imulq	$24, %rcx, %rcx
	addq	%rcx, %rdx
	cmpl	4(%rdx), %eax
	jle	.LBB31_15
# %bb.14:                               # %if.then39
                                        #   in Loop: Header=BB31_12 Depth=1
	movslq	-20(%rbp), %rax
	imulq	$24, %rax, %rax
	movabsq	$spec_fd, %rcx
	addq	%rax, %rcx
	movl	4(%rcx), %eax
	movl	%eax, -24(%rbp)
.LBB31_15:                              # %if.end43
                                        #   in Loop: Header=BB31_12 Depth=1
	movl	$3, %eax
	cmpl	dbglvl, %eax
	jge	.LBB31_17
# %bb.16:                               # %if.then46
                                        #   in Loop: Header=BB31_12 Depth=1
	movl	-24(%rbp), %esi
	movabsq	$.L.str.7, %rdi
	movb	$0, %al
	callq	printf
.LBB31_17:                              # %if.end48
                                        #   in Loop: Header=BB31_12 Depth=1
	movslq	-20(%rbp), %rax
	imulq	$24, %rax, %rax
	movabsq	$spec_fd, %rbx
	movq	%rbx, %rcx
	addq	%rax, %rcx
	movq	16(%rcx), %rdi
	movslq	-20(%rbp), %rax
	imulq	$24, %rax, %rax
	movq	%rbx, %rcx
	addq	%rax, %rcx
	movslq	4(%rcx), %rax
	addq	%rax, %rdi
	movslq	-20(%rbp), %rax
	imulq	$24, %rax, %rax
	movq	%rbx, %rcx
	addq	%rax, %rcx
	movq	16(%rcx), %rsi
	movslq	-24(%rbp), %rdx
	callq	memcpy
	movl	-24(%rbp), %eax
	movslq	-20(%rbp), %rcx
	imulq	$24, %rcx, %rcx
	addq	%rcx, %rbx
	addl	4(%rbx), %eax
	movl	%eax, 4(%rbx)
	jmp	.LBB31_12
.LBB31_18:                              # %while.end
	cmpl	$216293604, -52(%rbp)   # imm = 0xCE460E4
	jne	.LBB31_20
.LBB31_19:
	xorl	%eax, %eax
	addq	$48, %rsp
	popq	%rbx
	popq	%r14
	popq	%rbp
	.cfi_def_cfa %rsp, 8
	retq
.LBB31_20:                              # %func_exit
	.cfi_def_cfa %rbp, 16
	callq	detect_breach
	jmp	.LBB31_19
.Lfunc_end31:
	.size	spec_load.19, .Lfunc_end31-spec_load.19
	.cfi_endproc
                                        # -- End function
	.globl	spec_fread.20           # -- Begin function spec_fread.20
	.p2align	4, 0x90
	.type	spec_fread.20,@function
spec_fread.20:                          # @spec_fread.20
	.cfi_startproc
# %bb.0:                                # %entry
	pushq	%rbp
	.cfi_def_cfa_offset 16
	.cfi_offset %rbp, -16
	movq	%rsp, %rbp
	.cfi_def_cfa_register %rbp
	pushq	%rbx
	subq	$40, %rsp
	.cfi_offset %rbx, -24
	movl	$1350945839, -32(%rbp)  # imm = 0x5085CC2F
	movq	%rdi, -40(%rbp)
	movl	%esi, -20(%rbp)
	movl	%edx, -24(%rbp)
	movl	%ecx, -12(%rbp)
	movl	$0, -16(%rbp)
	movl	$4, %eax
	cmpl	dbglvl, %eax
	jge	.LBB32_2
# %bb.1:                                # %if.then
	movq	-40(%rbp), %rsi
	movl	-20(%rbp), %edx
	movl	-24(%rbp), %ecx
	movl	-12(%rbp), %r8d
	movabsq	$.L.str.12, %rdi
	movb	$0, %al
	callq	printf
.LBB32_2:                               # %if.end
	cmpl	$3, -12(%rbp)
	jle	.LBB32_4
# %bb.3:                                # %if.then2
	movq	stderr, %rdi
	movl	-12(%rbp), %edx
	movabsq	$.L.str.13, %rsi
	movb	$0, %al
	callq	fprintf
	xorl	%edi, %edi
	callq	exit
.LBB32_4:                               # %if.end4
	movslq	-12(%rbp), %rax
	imulq	$24, %rax, %rax
	movabsq	$spec_fd, %rcx
	movq	%rcx, %rdx
	addq	%rax, %rdx
	movl	8(%rdx), %eax
	movslq	-12(%rbp), %rdx
	imulq	$24, %rdx, %rdx
	addq	%rdx, %rcx
	cmpl	4(%rcx), %eax
	jl	.LBB32_8
# %bb.5:                                # %if.then8
	movl	$4, %eax
	cmpl	dbglvl, %eax
	jge	.LBB32_7
# %bb.6:                                # %if.then10
	movabsq	$.L.str.10, %rdi
	movb	$0, %al
	callq	printf
.LBB32_7:                               # %if.end12
	movl	$-1, -28(%rbp)
	jmp	.LBB32_14
.LBB32_8:                               # %if.end13
	movslq	-12(%rbp), %rax
	imulq	$24, %rax, %rax
	movabsq	$spec_fd, %rcx
	movq	%rcx, %rdx
	addq	%rax, %rdx
	movl	8(%rdx), %eax
	movl	-20(%rbp), %edx
	imull	-24(%rbp), %edx
	addl	%edx, %eax
	movslq	-12(%rbp), %rdx
	imulq	$24, %rdx, %rdx
	addq	%rdx, %rcx
	cmpl	4(%rcx), %eax
	jl	.LBB32_10
# %bb.9:                                # %if.then21
	movslq	-12(%rbp), %rax
	imulq	$24, %rax, %rax
	movabsq	$spec_fd, %rcx
	movq	%rcx, %rdx
	addq	%rax, %rdx
	movl	4(%rdx), %eax
	movslq	-12(%rbp), %rdx
	imulq	$24, %rdx, %rdx
	addq	%rdx, %rcx
	subl	8(%rcx), %eax
	cltd
	idivl	-20(%rbp)
	movl	%eax, -16(%rbp)
	jmp	.LBB32_11
.LBB32_10:                              # %if.else
	movl	-24(%rbp), %eax
	movl	%eax, -16(%rbp)
.LBB32_11:                              # %if.end28
	movq	-40(%rbp), %rdi
	movslq	-12(%rbp), %rax
	imulq	$24, %rax, %rax
	movabsq	$spec_fd, %rbx
	movq	%rbx, %rcx
	addq	%rax, %rcx
	movq	16(%rcx), %rsi
	movslq	-12(%rbp), %rax
	imulq	$24, %rax, %rax
	movq	%rbx, %rcx
	addq	%rax, %rcx
	movslq	8(%rcx), %rax
	addq	%rax, %rsi
	movslq	-16(%rbp), %rdx
	callq	memcpy
	movl	-16(%rbp), %eax
	imull	-20(%rbp), %eax
	movslq	-12(%rbp), %rcx
	imulq	$24, %rcx, %rcx
	addq	%rcx, %rbx
	addl	8(%rbx), %eax
	movl	%eax, 8(%rbx)
	movl	$4, %eax
	cmpl	dbglvl, %eax
	jge	.LBB32_13
# %bb.12:                               # %if.then44
	movl	-16(%rbp), %esi
	imull	-20(%rbp), %esi
	movabsq	$.L.str.11, %rdi
	movb	$0, %al
	callq	printf
.LBB32_13:                              # %if.end47
	movl	-16(%rbp), %eax
	movl	%eax, -28(%rbp)
.LBB32_14:                              # %return
	movl	-28(%rbp), %ebx
	cmpl	$1350945839, -32(%rbp)  # imm = 0x5085CC2F
	jne	.LBB32_16
.LBB32_15:
	movl	%ebx, %eax
	addq	$40, %rsp
	popq	%rbx
	popq	%rbp
	.cfi_def_cfa %rsp, 8
	retq
.LBB32_16:                              # %func_exit
	.cfi_def_cfa %rbp, 16
	callq	detect_breach
	jmp	.LBB32_15
.Lfunc_end32:
	.size	spec_fread.20, .Lfunc_end32-spec_fread.20
	.cfi_endproc
                                        # -- End function
	.globl	spec_getc.21            # -- Begin function spec_getc.21
	.p2align	4, 0x90
	.type	spec_getc.21,@function
spec_getc.21:                           # @spec_getc.21
	.cfi_startproc
# %bb.0:                                # %entry
	pushq	%rbp
	.cfi_def_cfa_offset 16
	.cfi_offset %rbp, -16
	movq	%rsp, %rbp
	.cfi_def_cfa_register %rbp
	pushq	%rbx
	subq	$24, %rsp
	.cfi_offset %rbx, -24
	movl	$643736745, -24(%rbp)   # imm = 0x265EA4A9
	movl	%edi, -12(%rbp)
	movl	$0, -16(%rbp)
	movl	$4, %eax
	cmpl	dbglvl, %eax
	jge	.LBB33_2
# %bb.1:                                # %if.then
	movl	-12(%rbp), %esi
	movabsq	$.L.str.14, %rdi
	movb	$0, %al
	callq	printf
.LBB33_2:                               # %if.end
	cmpl	$3, -12(%rbp)
	jle	.LBB33_4
# %bb.3:                                # %if.then2
	movq	stderr, %rdi
	movl	-12(%rbp), %edx
	movabsq	$.L.str.9, %rsi
	movb	$0, %al
	callq	fprintf
	xorl	%edi, %edi
	callq	exit
.LBB33_4:                               # %if.end4
	movslq	-12(%rbp), %rax
	imulq	$24, %rax, %rax
	movabsq	$spec_fd, %rcx
	movq	%rcx, %rdx
	addq	%rax, %rdx
	movl	8(%rdx), %eax
	movslq	-12(%rbp), %rdx
	imulq	$24, %rdx, %rdx
	addq	%rdx, %rcx
	cmpl	4(%rcx), %eax
	jl	.LBB33_8
# %bb.5:                                # %if.then8
	movl	$4, %eax
	cmpl	dbglvl, %eax
	jge	.LBB33_7
# %bb.6:                                # %if.then10
	movabsq	$.L.str.10, %rdi
	movb	$0, %al
	callq	printf
.LBB33_7:                               # %if.end12
	movl	$-1, -20(%rbp)
	jmp	.LBB33_11
.LBB33_8:                               # %if.end13
	movslq	-12(%rbp), %rax
	imulq	$24, %rax, %rax
	movabsq	$spec_fd, %rcx
	movq	%rcx, %rdx
	addq	%rax, %rdx
	movq	16(%rdx), %rax
	movslq	-12(%rbp), %rdx
	imulq	$24, %rdx, %rdx
	addq	%rdx, %rcx
	movl	8(%rcx), %edx
	movl	%edx, %esi
	addl	$1, %esi
	movl	%esi, 8(%rcx)
	movslq	%edx, %rcx
	movzbl	(%rax,%rcx), %eax
	movl	%eax, -16(%rbp)
	movl	$4, %eax
	cmpl	dbglvl, %eax
	jge	.LBB33_10
# %bb.9:                                # %if.then23
	movl	-16(%rbp), %esi
	movabsq	$.L.str.11, %rdi
	movb	$0, %al
	callq	printf
.LBB33_10:                              # %if.end25
	movl	-16(%rbp), %eax
	movl	%eax, -20(%rbp)
.LBB33_11:                              # %return
	movl	-20(%rbp), %ebx
	cmpl	$643736745, -24(%rbp)   # imm = 0x265EA4A9
	jne	.LBB33_13
.LBB33_12:
	movl	%ebx, %eax
	addq	$24, %rsp
	popq	%rbx
	popq	%rbp
	.cfi_def_cfa %rsp, 8
	retq
.LBB33_13:                              # %func_exit
	.cfi_def_cfa %rbp, 16
	callq	detect_breach
	jmp	.LBB33_12
.Lfunc_end33:
	.size	spec_getc.21, .Lfunc_end33-spec_getc.21
	.cfi_endproc
                                        # -- End function
	.globl	spec_getc.22            # -- Begin function spec_getc.22
	.p2align	4, 0x90
	.type	spec_getc.22,@function
spec_getc.22:                           # @spec_getc.22
	.cfi_startproc
# %bb.0:                                # %entry
	pushq	%rbp
	.cfi_def_cfa_offset 16
	.cfi_offset %rbp, -16
	movq	%rsp, %rbp
	.cfi_def_cfa_register %rbp
	pushq	%rbx
	subq	$24, %rsp
	.cfi_offset %rbx, -24
	movl	$1830832976, -24(%rbp)  # imm = 0x6D204B50
	movl	%edi, -12(%rbp)
	movl	$0, -16(%rbp)
	movl	$4, %eax
	cmpl	dbglvl, %eax
	jge	.LBB34_2
# %bb.1:                                # %if.then
	movl	-12(%rbp), %esi
	movabsq	$.L.str.14, %rdi
	movb	$0, %al
	callq	printf
.LBB34_2:                               # %if.end
	cmpl	$3, -12(%rbp)
	jle	.LBB34_4
# %bb.3:                                # %if.then2
	movq	stderr, %rdi
	movl	-12(%rbp), %edx
	movabsq	$.L.str.9, %rsi
	movb	$0, %al
	callq	fprintf
	xorl	%edi, %edi
	callq	exit
.LBB34_4:                               # %if.end4
	movslq	-12(%rbp), %rax
	imulq	$24, %rax, %rax
	movabsq	$spec_fd, %rcx
	movq	%rcx, %rdx
	addq	%rax, %rdx
	movl	8(%rdx), %eax
	movslq	-12(%rbp), %rdx
	imulq	$24, %rdx, %rdx
	addq	%rdx, %rcx
	cmpl	4(%rcx), %eax
	jl	.LBB34_8
# %bb.5:                                # %if.then8
	movl	$4, %eax
	cmpl	dbglvl, %eax
	jge	.LBB34_7
# %bb.6:                                # %if.then10
	movabsq	$.L.str.10, %rdi
	movb	$0, %al
	callq	printf
.LBB34_7:                               # %if.end12
	movl	$-1, -20(%rbp)
	jmp	.LBB34_11
.LBB34_8:                               # %if.end13
	movslq	-12(%rbp), %rax
	imulq	$24, %rax, %rax
	movabsq	$spec_fd, %rcx
	movq	%rcx, %rdx
	addq	%rax, %rdx
	movq	16(%rdx), %rax
	movslq	-12(%rbp), %rdx
	imulq	$24, %rdx, %rdx
	addq	%rdx, %rcx
	movl	8(%rcx), %edx
	movl	%edx, %esi
	addl	$1, %esi
	movl	%esi, 8(%rcx)
	movslq	%edx, %rcx
	movzbl	(%rax,%rcx), %eax
	movl	%eax, -16(%rbp)
	movl	$4, %eax
	cmpl	dbglvl, %eax
	jge	.LBB34_10
# %bb.9:                                # %if.then23
	movl	-16(%rbp), %esi
	movabsq	$.L.str.11, %rdi
	movb	$0, %al
	callq	printf
.LBB34_10:                              # %if.end25
	movl	-16(%rbp), %eax
	movl	%eax, -20(%rbp)
.LBB34_11:                              # %return
	movl	-20(%rbp), %ebx
	cmpl	$1830832976, -24(%rbp)  # imm = 0x6D204B50
	jne	.LBB34_13
.LBB34_12:
	movl	%ebx, %eax
	addq	$24, %rsp
	popq	%rbx
	popq	%rbp
	.cfi_def_cfa %rsp, 8
	retq
.LBB34_13:                              # %func_exit
	.cfi_def_cfa %rbp, 16
	callq	detect_breach
	jmp	.LBB34_12
.Lfunc_end34:
	.size	spec_getc.22, .Lfunc_end34-spec_getc.22
	.cfi_endproc
                                        # -- End function
	.globl	spec_init.23            # -- Begin function spec_init.23
	.p2align	4, 0x90
	.type	spec_init.23,@function
spec_init.23:                           # @spec_init.23
	.cfi_startproc
# %bb.0:                                # %entry
	pushq	%rbp
	.cfi_def_cfa_offset 16
	.cfi_offset %rbp, -16
	movq	%rsp, %rbp
	.cfi_def_cfa_register %rbp
	pushq	%rbx
	subq	$24, %rsp
	.cfi_offset %rbx, -24
	movl	$1732387291, -24(%rbp)  # imm = 0x674221DB
	movl	$3, %eax
	cmpl	dbglvl, %eax
	jge	.LBB35_2
# %bb.1:                                # %if.then
	movabsq	$.L.str, %rdi
	movb	$0, %al
	callq	printf
.LBB35_2:                               # %if.end
	movl	$0, -12(%rbp)
.LBB35_3:                               # %for.cond
                                        # =>This Loop Header: Depth=1
                                        #     Child Loop BB35_7 Depth 2
	cmpl	$3, -12(%rbp)
	jge	.LBB35_12
# %bb.4:                                # %for.body
                                        #   in Loop: Header=BB35_3 Depth=1
	movslq	-12(%rbp), %rax
	imulq	$24, %rax, %rax
	movabsq	$spec_fd, %rbx
	movq	%rbx, %rcx
	addq	%rax, %rcx
	movl	(%rcx), %eax
	movl	%eax, -20(%rbp)
	movslq	-12(%rbp), %rax
	imulq	$24, %rax, %rax
	movq	%rbx, %rdi
	addq	%rax, %rdi
	xorl	%esi, %esi
	movl	$24, %edx
	callq	memset
	movl	-20(%rbp), %eax
	movslq	-12(%rbp), %rcx
	imulq	$24, %rcx, %rcx
	addq	%rcx, %rbx
	movl	%eax, (%rbx)
	movl	-20(%rbp), %eax
	addl	$1048576, %eax          # imm = 0x100000
	movslq	%eax, %rdi
	callq	malloc
	movslq	-12(%rbp), %rcx
	imulq	$24, %rcx, %rcx
	movabsq	$spec_fd, %rdx
	movq	%rdx, %rsi
	addq	%rcx, %rsi
	movq	%rax, 16(%rsi)
	movslq	-12(%rbp), %rax
	imulq	$24, %rax, %rax
	addq	%rax, %rdx
	cmpq	$0, 16(%rdx)
	jne	.LBB35_6
# %bb.5:                                # %if.then16
	movabsq	$.L.str.1, %rdi
	movb	$0, %al
	callq	printf
	xorl	%edi, %edi
	callq	exit
.LBB35_6:                               # %if.end18
                                        #   in Loop: Header=BB35_3 Depth=1
	movl	$0, -16(%rbp)
.LBB35_7:                               # %for.cond19
                                        #   Parent Loop BB35_3 Depth=1
                                        # =>  This Inner Loop Header: Depth=2
	movl	-16(%rbp), %eax
	cmpl	-20(%rbp), %eax
	jge	.LBB35_10
# %bb.8:                                # %for.body22
                                        #   in Loop: Header=BB35_7 Depth=2
	movslq	-12(%rbp), %rax
	imulq	$24, %rax, %rax
	movabsq	$spec_fd, %rcx
	addq	%rax, %rcx
	movq	16(%rcx), %rax
	movslq	-16(%rbp), %rcx
	movb	$0, (%rax,%rcx)
# %bb.9:                                # %for.inc
                                        #   in Loop: Header=BB35_7 Depth=2
	movl	-16(%rbp), %eax
	addl	$1024, %eax             # imm = 0x400
	movl	%eax, -16(%rbp)
	jmp	.LBB35_7
.LBB35_10:                              # %for.end
                                        #   in Loop: Header=BB35_3 Depth=1
	jmp	.LBB35_11
.LBB35_11:                              # %for.inc29
                                        #   in Loop: Header=BB35_3 Depth=1
	movl	-12(%rbp), %eax
	addl	$1, %eax
	movl	%eax, -12(%rbp)
	jmp	.LBB35_3
.LBB35_12:                              # %for.end30
	cmpl	$1732387291, -24(%rbp)  # imm = 0x674221DB
	jne	.LBB35_14
.LBB35_13:
	xorl	%eax, %eax
	addq	$24, %rsp
	popq	%rbx
	popq	%rbp
	.cfi_def_cfa %rsp, 8
	retq
.LBB35_14:                              # %func_exit
	.cfi_def_cfa %rbp, 16
	callq	detect_breach
	jmp	.LBB35_13
.Lfunc_end35:
	.size	spec_init.23, .Lfunc_end35-spec_init.23
	.cfi_endproc
                                        # -- End function
	.section	.rodata.cst8,"aM",@progbits,8
	.p2align	3               # -- Begin function spec_random_load.24
.LCPI36_0:
	.quad	4629700416936869888     # double 32
.LCPI36_1:
	.quad	4643211215818981376     # double 256
	.text
	.globl	spec_random_load.24
	.p2align	4, 0x90
	.type	spec_random_load.24,@function
spec_random_load.24:                    # @spec_random_load.24
	.cfi_startproc
# %bb.0:                                # %entry
	pushq	%rbp
	.cfi_def_cfa_offset 16
	.cfi_offset %rbp, -16
	movq	%rsp, %rbp
	.cfi_def_cfa_register %rbp
	pushq	%rbx
	subq	$4194328, %rsp          # imm = 0x400018
	.cfi_offset %rbx, -24
	movl	$965118931, -24(%rbp)   # imm = 0x39868BD3
	movl	%edi, -20(%rbp)
	movl	$4, %eax
	cmpl	dbglvl, %eax
	jge	.LBB36_2
# %bb.1:                                # %if.then
	movabsq	$.L.str.2, %rdi
	movb	$0, %al
	callq	printf
.LBB36_2:                               # %if.end
	movl	$0, -12(%rbp)
.LBB36_3:                               # %for.cond
                                        # =>This Loop Header: Depth=1
                                        #     Child Loop BB36_7 Depth 2
	cmpl	$32, -12(%rbp)
	jge	.LBB36_12
# %bb.4:                                # %for.body
                                        #   in Loop: Header=BB36_3 Depth=1
	movl	$5, %eax
	cmpl	dbglvl, %eax
	jge	.LBB36_6
# %bb.5:                                # %if.then3
                                        #   in Loop: Header=BB36_3 Depth=1
	movl	-12(%rbp), %esi
	movabsq	$.L.str.3, %rdi
	movb	$0, %al
	callq	printf
.LBB36_6:                               # %if.end5
                                        #   in Loop: Header=BB36_3 Depth=1
	movl	$0, -16(%rbp)
.LBB36_7:                               # %for.cond6
                                        #   Parent Loop BB36_3 Depth=1
                                        # =>  This Inner Loop Header: Depth=2
	cmpl	$131072, -16(%rbp)      # imm = 0x20000
	jge	.LBB36_10
# %bb.8:                                # %for.body8
                                        #   in Loop: Header=BB36_7 Depth=2
	callq	ran
	vmovsd	.LCPI36_1(%rip), %xmm1  # xmm1 = mem[0],zero
	vmulsd	%xmm1, %xmm0, %xmm0
	vcvttsd2si	%xmm0, %eax
	movslq	-12(%rbp), %rcx
	shlq	$17, %rcx
	leaq	-4194336(%rbp), %rdx
	addq	%rcx, %rdx
	movslq	-16(%rbp), %rcx
	movb	%al, (%rdx,%rcx)
# %bb.9:                                # %for.inc
                                        #   in Loop: Header=BB36_7 Depth=2
	movl	-16(%rbp), %eax
	addl	$1, %eax
	movl	%eax, -16(%rbp)
	jmp	.LBB36_7
.LBB36_10:                              # %for.end
                                        #   in Loop: Header=BB36_3 Depth=1
	jmp	.LBB36_11
.LBB36_11:                              # %for.inc13
                                        #   in Loop: Header=BB36_3 Depth=1
	movl	-12(%rbp), %eax
	addl	$1, %eax
	movl	%eax, -12(%rbp)
	jmp	.LBB36_3
.LBB36_12:                              # %for.end15
	movl	$4, %eax
	cmpl	dbglvl, %eax
	jge	.LBB36_14
# %bb.13:                               # %if.then18
	movabsq	$.L.str.4, %rdi
	movb	$0, %al
	callq	printf
.LBB36_14:                              # %if.end20
	movl	$0, -12(%rbp)
.LBB36_15:                              # %for.cond21
                                        # =>This Inner Loop Header: Depth=1
	movl	-12(%rbp), %eax
	movslq	-20(%rbp), %rcx
	imulq	$24, %rcx, %rcx
	movabsq	$spec_fd, %rdx
	addq	%rcx, %rdx
	cmpl	(%rdx), %eax
	jge	.LBB36_18
# %bb.16:                               # %for.body26
                                        #   in Loop: Header=BB36_15 Depth=1
	movslq	-20(%rbp), %rax
	imulq	$24, %rax, %rax
	movabsq	$spec_fd, %rcx
	addq	%rax, %rcx
	movq	16(%rcx), %rbx
	movslq	-12(%rbp), %rax
	addq	%rax, %rbx
	callq	ran
	vmovsd	.LCPI36_0(%rip), %xmm1  # xmm1 = mem[0],zero
	vmulsd	%xmm1, %xmm0, %xmm0
	vcvttsd2si	%xmm0, %eax
	cltq
	shlq	$17, %rax
	leaq	-4194336(%rbp), %rsi
	addq	%rax, %rsi
	movq	%rbx, %rdi
	movl	$131072, %edx           # imm = 0x20000
	callq	memcpy
# %bb.17:                               # %for.inc34
                                        #   in Loop: Header=BB36_15 Depth=1
	movl	-12(%rbp), %eax
	addl	$131072, %eax           # imm = 0x20000
	movl	%eax, -12(%rbp)
	jmp	.LBB36_15
.LBB36_18:                              # %for.end35
	movslq	-20(%rbp), %rax
	imulq	$24, %rax, %rax
	movabsq	$spec_fd, %rcx
	addq	%rax, %rcx
	movl	$1048576, 4(%rcx)       # imm = 0x100000
	cmpl	$965118931, -24(%rbp)   # imm = 0x39868BD3
	jne	.LBB36_20
.LBB36_19:
	xorl	%eax, %eax
	addq	$4194328, %rsp          # imm = 0x400018
	popq	%rbx
	popq	%rbp
	.cfi_def_cfa %rsp, 8
	retq
.LBB36_20:                              # %func_exit
	.cfi_def_cfa %rbp, 16
	callq	detect_breach
	jmp	.LBB36_19
.Lfunc_end36:
	.size	spec_random_load.24, .Lfunc_end36-spec_random_load.24
	.cfi_endproc
                                        # -- End function
	.globl	spec_write.25           # -- Begin function spec_write.25
	.p2align	4, 0x90
	.type	spec_write.25,@function
spec_write.25:                          # @spec_write.25
	.cfi_startproc
# %bb.0:                                # %entry
	pushq	%rbp
	.cfi_def_cfa_offset 16
	.cfi_offset %rbp, -16
	movq	%rsp, %rbp
	.cfi_def_cfa_register %rbp
	pushq	%rbx
	subq	$24, %rsp
	.cfi_offset %rbx, -24
	movl	$749257984, -20(%rbp)   # imm = 0x2CA8C500
	movl	%edi, -12(%rbp)
	movq	%rsi, -32(%rbp)
	movl	%edx, -16(%rbp)
	movl	$4, %eax
	cmpl	dbglvl, %eax
	jge	.LBB37_2
# %bb.1:                                # %if.then
	movl	-12(%rbp), %esi
	movq	-32(%rbp), %rdx
	movl	-16(%rbp), %ecx
	movabsq	$.L.str.18, %rdi
	movb	$0, %al
	callq	printf
.LBB37_2:                               # %if.end
	cmpl	$3, -12(%rbp)
	jle	.LBB37_4
# %bb.3:                                # %if.then2
	movq	stderr, %rdi
	movl	-12(%rbp), %edx
	movabsq	$.L.str.19, %rsi
	movb	$0, %al
	callq	fprintf
	xorl	%edi, %edi
	callq	exit
.LBB37_4:                               # %if.end4
	movslq	-12(%rbp), %rax
	imulq	$24, %rax, %rax
	movabsq	$spec_fd, %rbx
	movq	%rbx, %rcx
	addq	%rax, %rcx
	movq	16(%rcx), %rdi
	movslq	-12(%rbp), %rax
	imulq	$24, %rax, %rax
	movq	%rbx, %rcx
	addq	%rax, %rcx
	movslq	8(%rcx), %rax
	addq	%rax, %rdi
	movq	-32(%rbp), %rsi
	movslq	-16(%rbp), %rdx
	callq	memcpy
	movl	-16(%rbp), %eax
	movslq	-12(%rbp), %rcx
	imulq	$24, %rcx, %rcx
	movq	%rbx, %rdx
	addq	%rcx, %rdx
	addl	4(%rdx), %eax
	movl	%eax, 4(%rdx)
	movl	-16(%rbp), %eax
	movslq	-12(%rbp), %rcx
	imulq	$24, %rcx, %rcx
	addq	%rcx, %rbx
	addl	8(%rbx), %eax
	movl	%eax, 8(%rbx)
	movl	$4, %eax
	cmpl	dbglvl, %eax
	jge	.LBB37_6
# %bb.5:                                # %if.then18
	movl	-16(%rbp), %esi
	movabsq	$.L.str.11, %rdi
	movb	$0, %al
	callq	printf
.LBB37_6:                               # %if.end20
	movl	-16(%rbp), %ebx
	cmpl	$749257984, -20(%rbp)   # imm = 0x2CA8C500
	jne	.LBB37_8
.LBB37_7:
	movl	%ebx, %eax
	addq	$24, %rsp
	popq	%rbx
	popq	%rbp
	.cfi_def_cfa %rsp, 8
	retq
.LBB37_8:                               # %func_exit
	.cfi_def_cfa %rbp, 16
	callq	detect_breach
	jmp	.LBB37_7
.Lfunc_end37:
	.size	spec_write.25, .Lfunc_end37-spec_write.25
	.cfi_endproc
                                        # -- End function
	.section	.rodata.cst4,"aM",@progbits,4
	.p2align	2               # -- Begin function ran.26
.LCPI38_0:
	.long	1325400064              # float 2.14748365E+9
	.text
	.globl	ran.26
	.p2align	4, 0x90
	.type	ran.26,@function
ran.26:                                 # @ran.26
	.cfi_startproc
# %bb.0:                                # %entry
	pushq	%rbp
	.cfi_def_cfa_offset 16
	.cfi_offset %rbp, -16
	movq	%rsp, %rbp
	.cfi_def_cfa_register %rbp
	subq	$48, %rsp
	movl	$2094478039, -12(%rbp)  # imm = 0x7CD732D7
	movq	seedi, %rax
	cqto
	movl	$127773, %ecx           # imm = 0x1F31D
	idivq	%rcx
	movq	%rax, -40(%rbp)
	movq	seedi, %rax
	cqto
	idivq	%rcx
	movq	%rdx, -32(%rbp)
	imulq	$16807, -32(%rbp), %rax # imm = 0x41A7
	imulq	$2836, -40(%rbp), %rcx  # imm = 0xB14
	subq	%rcx, %rax
	movq	%rax, -8(%rbp)
	cmpq	$0, -8(%rbp)
	jle	.LBB38_2
# %bb.1:                                # %if.then
	movq	-8(%rbp), %rax
	movq	%rax, seedi
	jmp	.LBB38_3
.LBB38_2:                               # %if.else
	movq	-8(%rbp), %rax
	addq	$2147483647, %rax       # imm = 0x7FFFFFFF
	movq	%rax, seedi
.LBB38_3:                               # %if.end
	vmovss	.LCPI38_0(%rip), %xmm0  # xmm0 = mem[0],zero,zero,zero
	vcvtsi2ssq	seedi, %xmm0, %xmm1
	vdivss	%xmm0, %xmm1, %xmm0
	vcvtss2sd	%xmm0, %xmm0, %xmm0
	cmpl	$2094478039, -12(%rbp)  # imm = 0x7CD732D7
	jne	.LBB38_5
.LBB38_4:
	addq	$48, %rsp
	popq	%rbp
	.cfi_def_cfa %rsp, 8
	retq
.LBB38_5:                               # %func_exit
	.cfi_def_cfa %rbp, 16
	vmovsd	%xmm0, -24(%rbp)        # 8-byte Spill
	callq	detect_breach
	vmovsd	-24(%rbp), %xmm0        # 8-byte Reload
                                        # xmm0 = mem[0],zero
	jmp	.LBB38_4
.Lfunc_end38:
	.size	ran.26, .Lfunc_end38-ran.26
	.cfi_endproc
                                        # -- End function
	.globl	spec_init.27            # -- Begin function spec_init.27
	.p2align	4, 0x90
	.type	spec_init.27,@function
spec_init.27:                           # @spec_init.27
	.cfi_startproc
# %bb.0:                                # %entry
	pushq	%rbp
	.cfi_def_cfa_offset 16
	.cfi_offset %rbp, -16
	movq	%rsp, %rbp
	.cfi_def_cfa_register %rbp
	pushq	%rbx
	subq	$24, %rsp
	.cfi_offset %rbx, -24
	movl	$2032096340, -24(%rbp)  # imm = 0x791F5454
	movl	$3, %eax
	cmpl	dbglvl, %eax
	jge	.LBB39_2
# %bb.1:                                # %if.then
	movabsq	$.L.str, %rdi
	movb	$0, %al
	callq	printf
.LBB39_2:                               # %if.end
	movl	$0, -12(%rbp)
.LBB39_3:                               # %for.cond
                                        # =>This Loop Header: Depth=1
                                        #     Child Loop BB39_7 Depth 2
	cmpl	$3, -12(%rbp)
	jge	.LBB39_12
# %bb.4:                                # %for.body
                                        #   in Loop: Header=BB39_3 Depth=1
	movslq	-12(%rbp), %rax
	imulq	$24, %rax, %rax
	movabsq	$spec_fd, %rbx
	movq	%rbx, %rcx
	addq	%rax, %rcx
	movl	(%rcx), %eax
	movl	%eax, -20(%rbp)
	movslq	-12(%rbp), %rax
	imulq	$24, %rax, %rax
	movq	%rbx, %rdi
	addq	%rax, %rdi
	xorl	%esi, %esi
	movl	$24, %edx
	callq	memset
	movl	-20(%rbp), %eax
	movslq	-12(%rbp), %rcx
	imulq	$24, %rcx, %rcx
	addq	%rcx, %rbx
	movl	%eax, (%rbx)
	movl	-20(%rbp), %eax
	addl	$1048576, %eax          # imm = 0x100000
	movslq	%eax, %rdi
	callq	malloc
	movslq	-12(%rbp), %rcx
	imulq	$24, %rcx, %rcx
	movabsq	$spec_fd, %rdx
	movq	%rdx, %rsi
	addq	%rcx, %rsi
	movq	%rax, 16(%rsi)
	movslq	-12(%rbp), %rax
	imulq	$24, %rax, %rax
	addq	%rax, %rdx
	cmpq	$0, 16(%rdx)
	jne	.LBB39_6
# %bb.5:                                # %if.then16
	movabsq	$.L.str.1, %rdi
	movb	$0, %al
	callq	printf
	xorl	%edi, %edi
	callq	exit
.LBB39_6:                               # %if.end18
                                        #   in Loop: Header=BB39_3 Depth=1
	movl	$0, -16(%rbp)
.LBB39_7:                               # %for.cond19
                                        #   Parent Loop BB39_3 Depth=1
                                        # =>  This Inner Loop Header: Depth=2
	movl	-16(%rbp), %eax
	cmpl	-20(%rbp), %eax
	jge	.LBB39_10
# %bb.8:                                # %for.body22
                                        #   in Loop: Header=BB39_7 Depth=2
	movslq	-12(%rbp), %rax
	imulq	$24, %rax, %rax
	movabsq	$spec_fd, %rcx
	addq	%rax, %rcx
	movq	16(%rcx), %rax
	movslq	-16(%rbp), %rcx
	movb	$0, (%rax,%rcx)
# %bb.9:                                # %for.inc
                                        #   in Loop: Header=BB39_7 Depth=2
	movl	-16(%rbp), %eax
	addl	$1024, %eax             # imm = 0x400
	movl	%eax, -16(%rbp)
	jmp	.LBB39_7
.LBB39_10:                              # %for.end
                                        #   in Loop: Header=BB39_3 Depth=1
	jmp	.LBB39_11
.LBB39_11:                              # %for.inc29
                                        #   in Loop: Header=BB39_3 Depth=1
	movl	-12(%rbp), %eax
	addl	$1, %eax
	movl	%eax, -12(%rbp)
	jmp	.LBB39_3
.LBB39_12:                              # %for.end30
	cmpl	$2032096340, -24(%rbp)  # imm = 0x791F5454
	jne	.LBB39_14
.LBB39_13:
	xorl	%eax, %eax
	addq	$24, %rsp
	popq	%rbx
	popq	%rbp
	.cfi_def_cfa %rsp, 8
	retq
.LBB39_14:                              # %func_exit
	.cfi_def_cfa %rbp, 16
	callq	detect_breach
	jmp	.LBB39_13
.Lfunc_end39:
	.size	spec_init.27, .Lfunc_end39-spec_init.27
	.cfi_endproc
                                        # -- End function
	.globl	spec_load.28            # -- Begin function spec_load.28
	.p2align	4, 0x90
	.type	spec_load.28,@function
spec_load.28:                           # @spec_load.28
	.cfi_startproc
# %bb.0:                                # %entry
	pushq	%rbp
	.cfi_def_cfa_offset 16
	.cfi_offset %rbp, -16
	movq	%rsp, %rbp
	.cfi_def_cfa_register %rbp
	pushq	%r14
	pushq	%rbx
	subq	$48, %rsp
	.cfi_offset %rbx, -32
	.cfi_offset %r14, -24
	movl	$1434682695, -52(%rbp)  # imm = 0x55838547
	movl	%edi, -20(%rbp)
	movq	%rsi, -48(%rbp)
	movl	%edx, -40(%rbp)
	movq	-48(%rbp), %rdi
	xorl	%esi, %esi
	movb	$0, %al
	callq	open
	movl	%eax, -36(%rbp)
	cmpl	$0, -36(%rbp)
	jge	.LBB40_2
# %bb.1:                                # %if.then
	movq	stderr, %rbx
	movq	-48(%rbp), %r14
	callq	__errno_location
	movl	(%rax), %edi
	callq	strerror
	movq	%rbx, %rdi
	movabsq	$.L.str.5, %rsi
	movq	%r14, %rdx
	movq	%rax, %rcx
	movb	$0, %al
	callq	fprintf
	xorl	%edi, %edi
	callq	exit
.LBB40_2:                               # %if.end
	movslq	-20(%rbp), %rax
	imulq	$24, %rax, %rax
	movabsq	$spec_fd, %rcx
	movq	%rcx, %rdx
	addq	%rax, %rdx
	movl	$0, 4(%rdx)
	movslq	-20(%rbp), %rax
	imulq	$24, %rax, %rax
	addq	%rax, %rcx
	movl	$0, 8(%rcx)
	movl	$0, -32(%rbp)
.LBB40_3:                               # %for.cond
                                        # =>This Inner Loop Header: Depth=1
	movl	-32(%rbp), %eax
	cmpl	-40(%rbp), %eax
	jge	.LBB40_10
# %bb.4:                                # %for.body
                                        #   in Loop: Header=BB40_3 Depth=1
	movl	-36(%rbp), %edi
	movslq	-20(%rbp), %rax
	imulq	$24, %rax, %rax
	movabsq	$spec_fd, %rcx
	addq	%rax, %rcx
	movq	16(%rcx), %rsi
	movslq	-32(%rbp), %rax
	addq	%rax, %rsi
	movl	$131072, %edx           # imm = 0x20000
	callq	read
	movl	%eax, -28(%rbp)
	cmpl	$0, -28(%rbp)
	jne	.LBB40_6
# %bb.5:                                # %if.then12
	jmp	.LBB40_11
.LBB40_6:                               # %if.end13
                                        #   in Loop: Header=BB40_3 Depth=1
	cmpl	$0, -28(%rbp)
	jge	.LBB40_8
# %bb.7:                                # %if.then16
	movq	stderr, %rbx
	movq	-48(%rbp), %r14
	callq	__errno_location
	movl	(%rax), %edi
	callq	strerror
	movq	%rbx, %rdi
	movabsq	$.L.str.6, %rsi
	movq	%r14, %rdx
	movq	%rax, %rcx
	movb	$0, %al
	callq	fprintf
	xorl	%edi, %edi
	callq	exit
.LBB40_8:                               # %if.end20
                                        #   in Loop: Header=BB40_3 Depth=1
	movl	-28(%rbp), %eax
	movslq	-20(%rbp), %rcx
	imulq	$24, %rcx, %rcx
	movabsq	$spec_fd, %rdx
	addq	%rcx, %rdx
	addl	4(%rdx), %eax
	movl	%eax, 4(%rdx)
# %bb.9:                                # %for.inc
                                        #   in Loop: Header=BB40_3 Depth=1
	movl	-28(%rbp), %eax
	addl	-32(%rbp), %eax
	movl	%eax, -32(%rbp)
	jmp	.LBB40_3
.LBB40_10:                              # %for.end.loopexit
	jmp	.LBB40_11
.LBB40_11:                              # %for.end
	movl	-36(%rbp), %edi
	callq	close
.LBB40_12:                              # %while.cond
                                        # =>This Inner Loop Header: Depth=1
	movslq	-20(%rbp), %rax
	imulq	$24, %rax, %rax
	movabsq	$spec_fd, %rcx
	addq	%rax, %rcx
	movl	4(%rcx), %eax
	cmpl	-40(%rbp), %eax
	jge	.LBB40_18
# %bb.13:                               # %while.body
                                        #   in Loop: Header=BB40_12 Depth=1
	movl	-40(%rbp), %eax
	movslq	-20(%rbp), %rcx
	imulq	$24, %rcx, %rcx
	movabsq	$spec_fd, %rdx
	movq	%rdx, %rsi
	addq	%rcx, %rsi
	subl	4(%rsi), %eax
	movl	%eax, -24(%rbp)
	movl	-24(%rbp), %eax
	movslq	-20(%rbp), %rcx
	imulq	$24, %rcx, %rcx
	addq	%rcx, %rdx
	cmpl	4(%rdx), %eax
	jle	.LBB40_15
# %bb.14:                               # %if.then39
                                        #   in Loop: Header=BB40_12 Depth=1
	movslq	-20(%rbp), %rax
	imulq	$24, %rax, %rax
	movabsq	$spec_fd, %rcx
	addq	%rax, %rcx
	movl	4(%rcx), %eax
	movl	%eax, -24(%rbp)
.LBB40_15:                              # %if.end43
                                        #   in Loop: Header=BB40_12 Depth=1
	movl	$3, %eax
	cmpl	dbglvl, %eax
	jge	.LBB40_17
# %bb.16:                               # %if.then46
                                        #   in Loop: Header=BB40_12 Depth=1
	movl	-24(%rbp), %esi
	movabsq	$.L.str.7, %rdi
	movb	$0, %al
	callq	printf
.LBB40_17:                              # %if.end48
                                        #   in Loop: Header=BB40_12 Depth=1
	movslq	-20(%rbp), %rax
	imulq	$24, %rax, %rax
	movabsq	$spec_fd, %rbx
	movq	%rbx, %rcx
	addq	%rax, %rcx
	movq	16(%rcx), %rdi
	movslq	-20(%rbp), %rax
	imulq	$24, %rax, %rax
	movq	%rbx, %rcx
	addq	%rax, %rcx
	movslq	4(%rcx), %rax
	addq	%rax, %rdi
	movslq	-20(%rbp), %rax
	imulq	$24, %rax, %rax
	movq	%rbx, %rcx
	addq	%rax, %rcx
	movq	16(%rcx), %rsi
	movslq	-24(%rbp), %rdx
	callq	memcpy
	movl	-24(%rbp), %eax
	movslq	-20(%rbp), %rcx
	imulq	$24, %rcx, %rcx
	addq	%rcx, %rbx
	addl	4(%rbx), %eax
	movl	%eax, 4(%rbx)
	jmp	.LBB40_12
.LBB40_18:                              # %while.end
	cmpl	$1434682695, -52(%rbp)  # imm = 0x55838547
	jne	.LBB40_20
.LBB40_19:
	xorl	%eax, %eax
	addq	$48, %rsp
	popq	%rbx
	popq	%r14
	popq	%rbp
	.cfi_def_cfa %rsp, 8
	retq
.LBB40_20:                              # %func_exit
	.cfi_def_cfa %rbp, 16
	callq	detect_breach
	jmp	.LBB40_19
.Lfunc_end40:
	.size	spec_load.28, .Lfunc_end40-spec_load.28
	.cfi_endproc
                                        # -- End function
	.globl	spec_read.29            # -- Begin function spec_read.29
	.p2align	4, 0x90
	.type	spec_read.29,@function
spec_read.29:                           # @spec_read.29
	.cfi_startproc
# %bb.0:                                # %entry
	pushq	%rbp
	.cfi_def_cfa_offset 16
	.cfi_offset %rbp, -16
	movq	%rsp, %rbp
	.cfi_def_cfa_register %rbp
	pushq	%rbx
	subq	$40, %rsp
	.cfi_offset %rbx, -24
	movl	$97084442, -28(%rbp)    # imm = 0x5C9641A
	movl	%edi, -12(%rbp)
	movq	%rsi, -40(%rbp)
	movl	%edx, -20(%rbp)
	movl	$0, -16(%rbp)
	movl	$4, %eax
	cmpl	dbglvl, %eax
	jge	.LBB41_2
# %bb.1:                                # %if.then
	movl	-12(%rbp), %esi
	movq	-40(%rbp), %rdx
	movl	-20(%rbp), %ecx
	movabsq	$.L.str.8, %rdi
	movb	$0, %al
	callq	printf
.LBB41_2:                               # %if.end
	cmpl	$3, -12(%rbp)
	jle	.LBB41_4
# %bb.3:                                # %if.then2
	movq	stderr, %rdi
	movl	-12(%rbp), %edx
	movabsq	$.L.str.9, %rsi
	movb	$0, %al
	callq	fprintf
	xorl	%edi, %edi
	callq	exit
.LBB41_4:                               # %if.end4
	movslq	-12(%rbp), %rax
	imulq	$24, %rax, %rax
	movabsq	$spec_fd, %rcx
	movq	%rcx, %rdx
	addq	%rax, %rdx
	movl	8(%rdx), %eax
	movslq	-12(%rbp), %rdx
	imulq	$24, %rdx, %rdx
	addq	%rdx, %rcx
	cmpl	4(%rcx), %eax
	jl	.LBB41_8
# %bb.5:                                # %if.then8
	movl	$4, %eax
	cmpl	dbglvl, %eax
	jge	.LBB41_7
# %bb.6:                                # %if.then10
	movabsq	$.L.str.10, %rdi
	movb	$0, %al
	callq	printf
.LBB41_7:                               # %if.end12
	movl	$-1, -24(%rbp)
	jmp	.LBB41_14
.LBB41_8:                               # %if.end13
	movslq	-12(%rbp), %rax
	imulq	$24, %rax, %rax
	movabsq	$spec_fd, %rcx
	movq	%rcx, %rdx
	addq	%rax, %rdx
	movl	8(%rdx), %eax
	addl	-20(%rbp), %eax
	movslq	-12(%rbp), %rdx
	imulq	$24, %rdx, %rdx
	addq	%rdx, %rcx
	cmpl	4(%rcx), %eax
	jl	.LBB41_10
# %bb.9:                                # %if.then21
	movslq	-12(%rbp), %rax
	imulq	$24, %rax, %rax
	movabsq	$spec_fd, %rcx
	movq	%rcx, %rdx
	addq	%rax, %rdx
	movl	4(%rdx), %eax
	movslq	-12(%rbp), %rdx
	imulq	$24, %rdx, %rdx
	addq	%rdx, %rcx
	subl	8(%rcx), %eax
	movl	%eax, -16(%rbp)
	jmp	.LBB41_11
.LBB41_10:                              # %if.else
	movl	-20(%rbp), %eax
	movl	%eax, -16(%rbp)
.LBB41_11:                              # %if.end28
	movq	-40(%rbp), %rdi
	movslq	-12(%rbp), %rax
	imulq	$24, %rax, %rax
	movabsq	$spec_fd, %rbx
	movq	%rbx, %rcx
	addq	%rax, %rcx
	movq	16(%rcx), %rsi
	movslq	-12(%rbp), %rax
	imulq	$24, %rax, %rax
	movq	%rbx, %rcx
	addq	%rax, %rcx
	movslq	8(%rcx), %rax
	addq	%rax, %rsi
	movslq	-16(%rbp), %rdx
	callq	memcpy
	movl	-16(%rbp), %eax
	movslq	-12(%rbp), %rcx
	imulq	$24, %rcx, %rcx
	addq	%rcx, %rbx
	addl	8(%rbx), %eax
	movl	%eax, 8(%rbx)
	movl	$4, %eax
	cmpl	dbglvl, %eax
	jge	.LBB41_13
# %bb.12:                               # %if.then43
	movl	-16(%rbp), %esi
	movabsq	$.L.str.11, %rdi
	movb	$0, %al
	callq	printf
.LBB41_13:                              # %if.end45
	movl	-16(%rbp), %eax
	movl	%eax, -24(%rbp)
.LBB41_14:                              # %return
	movl	-24(%rbp), %ebx
	cmpl	$97084442, -28(%rbp)    # imm = 0x5C9641A
	jne	.LBB41_16
.LBB41_15:
	movl	%ebx, %eax
	addq	$40, %rsp
	popq	%rbx
	popq	%rbp
	.cfi_def_cfa %rsp, 8
	retq
.LBB41_16:                              # %func_exit
	.cfi_def_cfa %rbp, 16
	callq	detect_breach
	jmp	.LBB41_15
.Lfunc_end41:
	.size	spec_read.29, .Lfunc_end41-spec_read.29
	.cfi_endproc
                                        # -- End function
	.globl	spec_write.30           # -- Begin function spec_write.30
	.p2align	4, 0x90
	.type	spec_write.30,@function
spec_write.30:                          # @spec_write.30
	.cfi_startproc
# %bb.0:                                # %entry
	pushq	%rbp
	.cfi_def_cfa_offset 16
	.cfi_offset %rbp, -16
	movq	%rsp, %rbp
	.cfi_def_cfa_register %rbp
	pushq	%rbx
	subq	$24, %rsp
	.cfi_offset %rbx, -24
	movl	$1120113928, -20(%rbp)  # imm = 0x42C39508
	movl	%edi, -12(%rbp)
	movq	%rsi, -32(%rbp)
	movl	%edx, -16(%rbp)
	movl	$4, %eax
	cmpl	dbglvl, %eax
	jge	.LBB42_2
# %bb.1:                                # %if.then
	movl	-12(%rbp), %esi
	movq	-32(%rbp), %rdx
	movl	-16(%rbp), %ecx
	movabsq	$.L.str.18, %rdi
	movb	$0, %al
	callq	printf
.LBB42_2:                               # %if.end
	cmpl	$3, -12(%rbp)
	jle	.LBB42_4
# %bb.3:                                # %if.then2
	movq	stderr, %rdi
	movl	-12(%rbp), %edx
	movabsq	$.L.str.19, %rsi
	movb	$0, %al
	callq	fprintf
	xorl	%edi, %edi
	callq	exit
.LBB42_4:                               # %if.end4
	movslq	-12(%rbp), %rax
	imulq	$24, %rax, %rax
	movabsq	$spec_fd, %rbx
	movq	%rbx, %rcx
	addq	%rax, %rcx
	movq	16(%rcx), %rdi
	movslq	-12(%rbp), %rax
	imulq	$24, %rax, %rax
	movq	%rbx, %rcx
	addq	%rax, %rcx
	movslq	8(%rcx), %rax
	addq	%rax, %rdi
	movq	-32(%rbp), %rsi
	movslq	-16(%rbp), %rdx
	callq	memcpy
	movl	-16(%rbp), %eax
	movslq	-12(%rbp), %rcx
	imulq	$24, %rcx, %rcx
	movq	%rbx, %rdx
	addq	%rcx, %rdx
	addl	4(%rdx), %eax
	movl	%eax, 4(%rdx)
	movl	-16(%rbp), %eax
	movslq	-12(%rbp), %rcx
	imulq	$24, %rcx, %rcx
	addq	%rcx, %rbx
	addl	8(%rbx), %eax
	movl	%eax, 8(%rbx)
	movl	$4, %eax
	cmpl	dbglvl, %eax
	jge	.LBB42_6
# %bb.5:                                # %if.then18
	movl	-16(%rbp), %esi
	movabsq	$.L.str.11, %rdi
	movb	$0, %al
	callq	printf
.LBB42_6:                               # %if.end20
	movl	-16(%rbp), %ebx
	cmpl	$1120113928, -20(%rbp)  # imm = 0x42C39508
	jne	.LBB42_8
.LBB42_7:
	movl	%ebx, %eax
	addq	$24, %rsp
	popq	%rbx
	popq	%rbp
	.cfi_def_cfa %rsp, 8
	retq
.LBB42_8:                               # %func_exit
	.cfi_def_cfa %rbp, 16
	callq	detect_breach
	jmp	.LBB42_7
.Lfunc_end42:
	.size	spec_write.30, .Lfunc_end42-spec_write.30
	.cfi_endproc
                                        # -- End function
	.globl	spec_fread.31           # -- Begin function spec_fread.31
	.p2align	4, 0x90
	.type	spec_fread.31,@function
spec_fread.31:                          # @spec_fread.31
	.cfi_startproc
# %bb.0:                                # %entry
	pushq	%rbp
	.cfi_def_cfa_offset 16
	.cfi_offset %rbp, -16
	movq	%rsp, %rbp
	.cfi_def_cfa_register %rbp
	pushq	%rbx
	subq	$40, %rsp
	.cfi_offset %rbx, -24
	movl	$1935627961, -32(%rbp)  # imm = 0x735F56B9
	movq	%rdi, -40(%rbp)
	movl	%esi, -20(%rbp)
	movl	%edx, -24(%rbp)
	movl	%ecx, -12(%rbp)
	movl	$0, -16(%rbp)
	movl	$4, %eax
	cmpl	dbglvl, %eax
	jge	.LBB43_2
# %bb.1:                                # %if.then
	movq	-40(%rbp), %rsi
	movl	-20(%rbp), %edx
	movl	-24(%rbp), %ecx
	movl	-12(%rbp), %r8d
	movabsq	$.L.str.12, %rdi
	movb	$0, %al
	callq	printf
.LBB43_2:                               # %if.end
	cmpl	$3, -12(%rbp)
	jle	.LBB43_4
# %bb.3:                                # %if.then2
	movq	stderr, %rdi
	movl	-12(%rbp), %edx
	movabsq	$.L.str.13, %rsi
	movb	$0, %al
	callq	fprintf
	xorl	%edi, %edi
	callq	exit
.LBB43_4:                               # %if.end4
	movslq	-12(%rbp), %rax
	imulq	$24, %rax, %rax
	movabsq	$spec_fd, %rcx
	movq	%rcx, %rdx
	addq	%rax, %rdx
	movl	8(%rdx), %eax
	movslq	-12(%rbp), %rdx
	imulq	$24, %rdx, %rdx
	addq	%rdx, %rcx
	cmpl	4(%rcx), %eax
	jl	.LBB43_8
# %bb.5:                                # %if.then8
	movl	$4, %eax
	cmpl	dbglvl, %eax
	jge	.LBB43_7
# %bb.6:                                # %if.then10
	movabsq	$.L.str.10, %rdi
	movb	$0, %al
	callq	printf
.LBB43_7:                               # %if.end12
	movl	$-1, -28(%rbp)
	jmp	.LBB43_14
.LBB43_8:                               # %if.end13
	movslq	-12(%rbp), %rax
	imulq	$24, %rax, %rax
	movabsq	$spec_fd, %rcx
	movq	%rcx, %rdx
	addq	%rax, %rdx
	movl	8(%rdx), %eax
	movl	-20(%rbp), %edx
	imull	-24(%rbp), %edx
	addl	%edx, %eax
	movslq	-12(%rbp), %rdx
	imulq	$24, %rdx, %rdx
	addq	%rdx, %rcx
	cmpl	4(%rcx), %eax
	jl	.LBB43_10
# %bb.9:                                # %if.then21
	movslq	-12(%rbp), %rax
	imulq	$24, %rax, %rax
	movabsq	$spec_fd, %rcx
	movq	%rcx, %rdx
	addq	%rax, %rdx
	movl	4(%rdx), %eax
	movslq	-12(%rbp), %rdx
	imulq	$24, %rdx, %rdx
	addq	%rdx, %rcx
	subl	8(%rcx), %eax
	cltd
	idivl	-20(%rbp)
	movl	%eax, -16(%rbp)
	jmp	.LBB43_11
.LBB43_10:                              # %if.else
	movl	-24(%rbp), %eax
	movl	%eax, -16(%rbp)
.LBB43_11:                              # %if.end28
	movq	-40(%rbp), %rdi
	movslq	-12(%rbp), %rax
	imulq	$24, %rax, %rax
	movabsq	$spec_fd, %rbx
	movq	%rbx, %rcx
	addq	%rax, %rcx
	movq	16(%rcx), %rsi
	movslq	-12(%rbp), %rax
	imulq	$24, %rax, %rax
	movq	%rbx, %rcx
	addq	%rax, %rcx
	movslq	8(%rcx), %rax
	addq	%rax, %rsi
	movslq	-16(%rbp), %rdx
	callq	memcpy
	movl	-16(%rbp), %eax
	imull	-20(%rbp), %eax
	movslq	-12(%rbp), %rcx
	imulq	$24, %rcx, %rcx
	addq	%rcx, %rbx
	addl	8(%rbx), %eax
	movl	%eax, 8(%rbx)
	movl	$4, %eax
	cmpl	dbglvl, %eax
	jge	.LBB43_13
# %bb.12:                               # %if.then44
	movl	-16(%rbp), %esi
	imull	-20(%rbp), %esi
	movabsq	$.L.str.11, %rdi
	movb	$0, %al
	callq	printf
.LBB43_13:                              # %if.end47
	movl	-16(%rbp), %eax
	movl	%eax, -28(%rbp)
.LBB43_14:                              # %return
	movl	-28(%rbp), %ebx
	cmpl	$1935627961, -32(%rbp)  # imm = 0x735F56B9
	jne	.LBB43_16
.LBB43_15:
	movl	%ebx, %eax
	addq	$40, %rsp
	popq	%rbx
	popq	%rbp
	.cfi_def_cfa %rsp, 8
	retq
.LBB43_16:                              # %func_exit
	.cfi_def_cfa %rbp, 16
	callq	detect_breach
	jmp	.LBB43_15
.Lfunc_end43:
	.size	spec_fread.31, .Lfunc_end43-spec_fread.31
	.cfi_endproc
                                        # -- End function
	.globl	spec_read.32            # -- Begin function spec_read.32
	.p2align	4, 0x90
	.type	spec_read.32,@function
spec_read.32:                           # @spec_read.32
	.cfi_startproc
# %bb.0:                                # %entry
	pushq	%rbp
	.cfi_def_cfa_offset 16
	.cfi_offset %rbp, -16
	movq	%rsp, %rbp
	.cfi_def_cfa_register %rbp
	pushq	%rbx
	subq	$40, %rsp
	.cfi_offset %rbx, -24
	movl	$1196776230, -28(%rbp)  # imm = 0x47555B26
	movl	%edi, -12(%rbp)
	movq	%rsi, -40(%rbp)
	movl	%edx, -20(%rbp)
	movl	$0, -16(%rbp)
	movl	$4, %eax
	cmpl	dbglvl, %eax
	jge	.LBB44_2
# %bb.1:                                # %if.then
	movl	-12(%rbp), %esi
	movq	-40(%rbp), %rdx
	movl	-20(%rbp), %ecx
	movabsq	$.L.str.8, %rdi
	movb	$0, %al
	callq	printf
.LBB44_2:                               # %if.end
	cmpl	$3, -12(%rbp)
	jle	.LBB44_4
# %bb.3:                                # %if.then2
	movq	stderr, %rdi
	movl	-12(%rbp), %edx
	movabsq	$.L.str.9, %rsi
	movb	$0, %al
	callq	fprintf
	xorl	%edi, %edi
	callq	exit
.LBB44_4:                               # %if.end4
	movslq	-12(%rbp), %rax
	imulq	$24, %rax, %rax
	movabsq	$spec_fd, %rcx
	movq	%rcx, %rdx
	addq	%rax, %rdx
	movl	8(%rdx), %eax
	movslq	-12(%rbp), %rdx
	imulq	$24, %rdx, %rdx
	addq	%rdx, %rcx
	cmpl	4(%rcx), %eax
	jl	.LBB44_8
# %bb.5:                                # %if.then8
	movl	$4, %eax
	cmpl	dbglvl, %eax
	jge	.LBB44_7
# %bb.6:                                # %if.then10
	movabsq	$.L.str.10, %rdi
	movb	$0, %al
	callq	printf
.LBB44_7:                               # %if.end12
	movl	$-1, -24(%rbp)
	jmp	.LBB44_14
.LBB44_8:                               # %if.end13
	movslq	-12(%rbp), %rax
	imulq	$24, %rax, %rax
	movabsq	$spec_fd, %rcx
	movq	%rcx, %rdx
	addq	%rax, %rdx
	movl	8(%rdx), %eax
	addl	-20(%rbp), %eax
	movslq	-12(%rbp), %rdx
	imulq	$24, %rdx, %rdx
	addq	%rdx, %rcx
	cmpl	4(%rcx), %eax
	jl	.LBB44_10
# %bb.9:                                # %if.then21
	movslq	-12(%rbp), %rax
	imulq	$24, %rax, %rax
	movabsq	$spec_fd, %rcx
	movq	%rcx, %rdx
	addq	%rax, %rdx
	movl	4(%rdx), %eax
	movslq	-12(%rbp), %rdx
	imulq	$24, %rdx, %rdx
	addq	%rdx, %rcx
	subl	8(%rcx), %eax
	movl	%eax, -16(%rbp)
	jmp	.LBB44_11
.LBB44_10:                              # %if.else
	movl	-20(%rbp), %eax
	movl	%eax, -16(%rbp)
.LBB44_11:                              # %if.end28
	movq	-40(%rbp), %rdi
	movslq	-12(%rbp), %rax
	imulq	$24, %rax, %rax
	movabsq	$spec_fd, %rbx
	movq	%rbx, %rcx
	addq	%rax, %rcx
	movq	16(%rcx), %rsi
	movslq	-12(%rbp), %rax
	imulq	$24, %rax, %rax
	movq	%rbx, %rcx
	addq	%rax, %rcx
	movslq	8(%rcx), %rax
	addq	%rax, %rsi
	movslq	-16(%rbp), %rdx
	callq	memcpy
	movl	-16(%rbp), %eax
	movslq	-12(%rbp), %rcx
	imulq	$24, %rcx, %rcx
	addq	%rcx, %rbx
	addl	8(%rbx), %eax
	movl	%eax, 8(%rbx)
	movl	$4, %eax
	cmpl	dbglvl, %eax
	jge	.LBB44_13
# %bb.12:                               # %if.then43
	movl	-16(%rbp), %esi
	movabsq	$.L.str.11, %rdi
	movb	$0, %al
	callq	printf
.LBB44_13:                              # %if.end45
	movl	-16(%rbp), %eax
	movl	%eax, -24(%rbp)
.LBB44_14:                              # %return
	movl	-24(%rbp), %ebx
	cmpl	$1196776230, -28(%rbp)  # imm = 0x47555B26
	jne	.LBB44_16
.LBB44_15:
	movl	%ebx, %eax
	addq	$40, %rsp
	popq	%rbx
	popq	%rbp
	.cfi_def_cfa %rsp, 8
	retq
.LBB44_16:                              # %func_exit
	.cfi_def_cfa %rbp, 16
	callq	detect_breach
	jmp	.LBB44_15
.Lfunc_end44:
	.size	spec_read.32, .Lfunc_end44-spec_read.32
	.cfi_endproc
                                        # -- End function
	.section	.rodata.cst4,"aM",@progbits,4
	.p2align	2               # -- Begin function ran.33
.LCPI45_0:
	.long	1325400064              # float 2.14748365E+9
	.text
	.globl	ran.33
	.p2align	4, 0x90
	.type	ran.33,@function
ran.33:                                 # @ran.33
	.cfi_startproc
# %bb.0:                                # %entry
	pushq	%rbp
	.cfi_def_cfa_offset 16
	.cfi_offset %rbp, -16
	movq	%rsp, %rbp
	.cfi_def_cfa_register %rbp
	subq	$48, %rsp
	movl	$1564206537, -12(%rbp)  # imm = 0x5D3BE5C9
	movq	seedi, %rax
	cqto
	movl	$127773, %ecx           # imm = 0x1F31D
	idivq	%rcx
	movq	%rax, -40(%rbp)
	movq	seedi, %rax
	cqto
	idivq	%rcx
	movq	%rdx, -32(%rbp)
	imulq	$16807, -32(%rbp), %rax # imm = 0x41A7
	imulq	$2836, -40(%rbp), %rcx  # imm = 0xB14
	subq	%rcx, %rax
	movq	%rax, -8(%rbp)
	cmpq	$0, -8(%rbp)
	jle	.LBB45_2
# %bb.1:                                # %if.then
	movq	-8(%rbp), %rax
	movq	%rax, seedi
	jmp	.LBB45_3
.LBB45_2:                               # %if.else
	movq	-8(%rbp), %rax
	addq	$2147483647, %rax       # imm = 0x7FFFFFFF
	movq	%rax, seedi
.LBB45_3:                               # %if.end
	vmovss	.LCPI45_0(%rip), %xmm0  # xmm0 = mem[0],zero,zero,zero
	vcvtsi2ssq	seedi, %xmm0, %xmm1
	vdivss	%xmm0, %xmm1, %xmm0
	vcvtss2sd	%xmm0, %xmm0, %xmm0
	cmpl	$1564206537, -12(%rbp)  # imm = 0x5D3BE5C9
	jne	.LBB45_5
.LBB45_4:
	addq	$48, %rsp
	popq	%rbp
	.cfi_def_cfa %rsp, 8
	retq
.LBB45_5:                               # %func_exit
	.cfi_def_cfa %rbp, 16
	vmovsd	%xmm0, -24(%rbp)        # 8-byte Spill
	callq	detect_breach
	vmovsd	-24(%rbp), %xmm0        # 8-byte Reload
                                        # xmm0 = mem[0],zero
	jmp	.LBB45_4
.Lfunc_end45:
	.size	ran.33, .Lfunc_end45-ran.33
	.cfi_endproc
                                        # -- End function
	.section	.rodata.cst4,"aM",@progbits,4
	.p2align	2               # -- Begin function ran.34
.LCPI46_0:
	.long	1325400064              # float 2.14748365E+9
	.text
	.globl	ran.34
	.p2align	4, 0x90
	.type	ran.34,@function
ran.34:                                 # @ran.34
	.cfi_startproc
# %bb.0:                                # %entry
	pushq	%rbp
	.cfi_def_cfa_offset 16
	.cfi_offset %rbp, -16
	movq	%rsp, %rbp
	.cfi_def_cfa_register %rbp
	subq	$48, %rsp
	movl	$123710339, -12(%rbp)   # imm = 0x75FAB83
	movq	seedi, %rax
	cqto
	movl	$127773, %ecx           # imm = 0x1F31D
	idivq	%rcx
	movq	%rax, -32(%rbp)
	movq	seedi, %rax
	cqto
	idivq	%rcx
	movq	%rdx, -40(%rbp)
	imulq	$16807, -40(%rbp), %rax # imm = 0x41A7
	imulq	$2836, -32(%rbp), %rcx  # imm = 0xB14
	subq	%rcx, %rax
	movq	%rax, -8(%rbp)
	cmpq	$0, -8(%rbp)
	jle	.LBB46_2
# %bb.1:                                # %if.then
	movq	-8(%rbp), %rax
	movq	%rax, seedi
	jmp	.LBB46_3
.LBB46_2:                               # %if.else
	movq	-8(%rbp), %rax
	addq	$2147483647, %rax       # imm = 0x7FFFFFFF
	movq	%rax, seedi
.LBB46_3:                               # %if.end
	vmovss	.LCPI46_0(%rip), %xmm0  # xmm0 = mem[0],zero,zero,zero
	vcvtsi2ssq	seedi, %xmm0, %xmm1
	vdivss	%xmm0, %xmm1, %xmm0
	vcvtss2sd	%xmm0, %xmm0, %xmm0
	cmpl	$123710339, -12(%rbp)   # imm = 0x75FAB83
	jne	.LBB46_5
.LBB46_4:
	addq	$48, %rsp
	popq	%rbp
	.cfi_def_cfa %rsp, 8
	retq
.LBB46_5:                               # %func_exit
	.cfi_def_cfa %rbp, 16
	vmovsd	%xmm0, -24(%rbp)        # 8-byte Spill
	callq	detect_breach
	vmovsd	-24(%rbp), %xmm0        # 8-byte Reload
                                        # xmm0 = mem[0],zero
	jmp	.LBB46_4
.Lfunc_end46:
	.size	ran.34, .Lfunc_end46-ran.34
	.cfi_endproc
                                        # -- End function
	.globl	spec_ungetc.35          # -- Begin function spec_ungetc.35
	.p2align	4, 0x90
	.type	spec_ungetc.35,@function
spec_ungetc.35:                         # @spec_ungetc.35
	.cfi_startproc
# %bb.0:                                # %entry
	pushq	%rbp
	.cfi_def_cfa_offset 16
	.cfi_offset %rbp, -16
	movq	%rsp, %rbp
	.cfi_def_cfa_register %rbp
	pushq	%rbx
	subq	$24, %rsp
	.cfi_offset %rbx, -24
	movl	$1992685016, -24(%rbp)  # imm = 0x76C5F5D8
	movb	%dil, -9(%rbp)
	movl	%esi, -16(%rbp)
	movl	$0, -20(%rbp)
	movl	$4, %eax
	cmpl	dbglvl, %eax
	jge	.LBB47_2
# %bb.1:                                # %if.then
	movl	-16(%rbp), %esi
	movabsq	$.L.str.15, %rdi
	movb	$0, %al
	callq	printf
.LBB47_2:                               # %if.end
	cmpl	$3, -16(%rbp)
	jle	.LBB47_4
# %bb.3:                                # %if.then2
	movq	stderr, %rdi
	movl	-16(%rbp), %edx
	movabsq	$.L.str.9, %rsi
	movb	$0, %al
	callq	fprintf
	xorl	%edi, %edi
	callq	exit
.LBB47_4:                               # %if.end4
	movslq	-16(%rbp), %rax
	imulq	$24, %rax, %rax
	movabsq	$spec_fd, %rcx
	addq	%rax, %rcx
	cmpl	$0, 8(%rcx)
	jg	.LBB47_6
# %bb.5:                                # %if.then6
	movq	stderr, %rdi
	movslq	-16(%rbp), %rax
	imulq	$24, %rax, %rax
	movabsq	$spec_fd, %rcx
	addq	%rax, %rcx
	movl	8(%rcx), %edx
	movabsq	$.L.str.16, %rsi
	movb	$0, %al
	callq	fprintf
	xorl	%edi, %edi
	callq	exit
.LBB47_6:                               # %if.end11
	movslq	-16(%rbp), %rax
	imulq	$24, %rax, %rax
	movabsq	$spec_fd, %rcx
	movq	%rcx, %rdx
	addq	%rax, %rdx
	movq	16(%rdx), %rax
	movslq	-16(%rbp), %rdx
	imulq	$24, %rdx, %rdx
	addq	%rdx, %rcx
	movl	8(%rcx), %edx
	addl	$-1, %edx
	movl	%edx, 8(%rcx)
	movslq	%edx, %rcx
	movzbl	(%rax,%rcx), %eax
	movzbl	-9(%rbp), %ecx
	cmpl	%ecx, %eax
	je	.LBB47_8
# %bb.7:                                # %if.then22
	movq	stderr, %rdi
	movabsq	$.L.str.17, %rsi
	movb	$0, %al
	callq	fprintf
	xorl	%edi, %edi
	callq	exit
.LBB47_8:                               # %if.end24
	movl	$4, %eax
	cmpl	dbglvl, %eax
	jge	.LBB47_10
# %bb.9:                                # %if.then27
	movl	-20(%rbp), %esi
	movabsq	$.L.str.11, %rdi
	movb	$0, %al
	callq	printf
.LBB47_10:                              # %if.end29
	movzbl	-9(%rbp), %ebx
	cmpl	$1992685016, -24(%rbp)  # imm = 0x76C5F5D8
	jne	.LBB47_12
.LBB47_11:
	movl	%ebx, %eax
	addq	$24, %rsp
	popq	%rbx
	popq	%rbp
	.cfi_def_cfa %rsp, 8
	retq
.LBB47_12:                              # %func_exit
	.cfi_def_cfa %rbp, 16
	callq	detect_breach
	jmp	.LBB47_11
.Lfunc_end47:
	.size	spec_ungetc.35, .Lfunc_end47-spec_ungetc.35
	.cfi_endproc
                                        # -- End function
	.section	.rodata.cst8,"aM",@progbits,8
	.p2align	3               # -- Begin function spec_random_load.36
.LCPI48_0:
	.quad	4629700416936869888     # double 32
.LCPI48_1:
	.quad	4643211215818981376     # double 256
	.text
	.globl	spec_random_load.36
	.p2align	4, 0x90
	.type	spec_random_load.36,@function
spec_random_load.36:                    # @spec_random_load.36
	.cfi_startproc
# %bb.0:                                # %entry
	pushq	%rbp
	.cfi_def_cfa_offset 16
	.cfi_offset %rbp, -16
	movq	%rsp, %rbp
	.cfi_def_cfa_register %rbp
	pushq	%rbx
	subq	$4194328, %rsp          # imm = 0x400018
	.cfi_offset %rbx, -24
	movl	$1703223295, -24(%rbp)  # imm = 0x65851FFF
	movl	%edi, -20(%rbp)
	movl	$4, %eax
	cmpl	dbglvl, %eax
	jge	.LBB48_2
# %bb.1:                                # %if.then
	movabsq	$.L.str.2, %rdi
	movb	$0, %al
	callq	printf
.LBB48_2:                               # %if.end
	movl	$0, -12(%rbp)
.LBB48_3:                               # %for.cond
                                        # =>This Loop Header: Depth=1
                                        #     Child Loop BB48_7 Depth 2
	cmpl	$32, -12(%rbp)
	jge	.LBB48_12
# %bb.4:                                # %for.body
                                        #   in Loop: Header=BB48_3 Depth=1
	movl	$5, %eax
	cmpl	dbglvl, %eax
	jge	.LBB48_6
# %bb.5:                                # %if.then3
                                        #   in Loop: Header=BB48_3 Depth=1
	movl	-12(%rbp), %esi
	movabsq	$.L.str.3, %rdi
	movb	$0, %al
	callq	printf
.LBB48_6:                               # %if.end5
                                        #   in Loop: Header=BB48_3 Depth=1
	movl	$0, -16(%rbp)
.LBB48_7:                               # %for.cond6
                                        #   Parent Loop BB48_3 Depth=1
                                        # =>  This Inner Loop Header: Depth=2
	cmpl	$131072, -16(%rbp)      # imm = 0x20000
	jge	.LBB48_10
# %bb.8:                                # %for.body8
                                        #   in Loop: Header=BB48_7 Depth=2
	callq	ran
	vmovsd	.LCPI48_1(%rip), %xmm1  # xmm1 = mem[0],zero
	vmulsd	%xmm1, %xmm0, %xmm0
	vcvttsd2si	%xmm0, %eax
	movslq	-12(%rbp), %rcx
	shlq	$17, %rcx
	leaq	-4194336(%rbp), %rdx
	addq	%rcx, %rdx
	movslq	-16(%rbp), %rcx
	movb	%al, (%rdx,%rcx)
# %bb.9:                                # %for.inc
                                        #   in Loop: Header=BB48_7 Depth=2
	movl	-16(%rbp), %eax
	addl	$1, %eax
	movl	%eax, -16(%rbp)
	jmp	.LBB48_7
.LBB48_10:                              # %for.end
                                        #   in Loop: Header=BB48_3 Depth=1
	jmp	.LBB48_11
.LBB48_11:                              # %for.inc13
                                        #   in Loop: Header=BB48_3 Depth=1
	movl	-12(%rbp), %eax
	addl	$1, %eax
	movl	%eax, -12(%rbp)
	jmp	.LBB48_3
.LBB48_12:                              # %for.end15
	movl	$4, %eax
	cmpl	dbglvl, %eax
	jge	.LBB48_14
# %bb.13:                               # %if.then18
	movabsq	$.L.str.4, %rdi
	movb	$0, %al
	callq	printf
.LBB48_14:                              # %if.end20
	movl	$0, -12(%rbp)
.LBB48_15:                              # %for.cond21
                                        # =>This Inner Loop Header: Depth=1
	movl	-12(%rbp), %eax
	movslq	-20(%rbp), %rcx
	imulq	$24, %rcx, %rcx
	movabsq	$spec_fd, %rdx
	addq	%rcx, %rdx
	cmpl	(%rdx), %eax
	jge	.LBB48_18
# %bb.16:                               # %for.body26
                                        #   in Loop: Header=BB48_15 Depth=1
	movslq	-20(%rbp), %rax
	imulq	$24, %rax, %rax
	movabsq	$spec_fd, %rcx
	addq	%rax, %rcx
	movq	16(%rcx), %rbx
	movslq	-12(%rbp), %rax
	addq	%rax, %rbx
	callq	ran
	vmovsd	.LCPI48_0(%rip), %xmm1  # xmm1 = mem[0],zero
	vmulsd	%xmm1, %xmm0, %xmm0
	vcvttsd2si	%xmm0, %eax
	cltq
	shlq	$17, %rax
	leaq	-4194336(%rbp), %rsi
	addq	%rax, %rsi
	movq	%rbx, %rdi
	movl	$131072, %edx           # imm = 0x20000
	callq	memcpy
# %bb.17:                               # %for.inc34
                                        #   in Loop: Header=BB48_15 Depth=1
	movl	-12(%rbp), %eax
	addl	$131072, %eax           # imm = 0x20000
	movl	%eax, -12(%rbp)
	jmp	.LBB48_15
.LBB48_18:                              # %for.end35
	movslq	-20(%rbp), %rax
	imulq	$24, %rax, %rax
	movabsq	$spec_fd, %rcx
	addq	%rax, %rcx
	movl	$1048576, 4(%rcx)       # imm = 0x100000
	cmpl	$1703223295, -24(%rbp)  # imm = 0x65851FFF
	jne	.LBB48_20
.LBB48_19:
	xorl	%eax, %eax
	addq	$4194328, %rsp          # imm = 0x400018
	popq	%rbx
	popq	%rbp
	.cfi_def_cfa %rsp, 8
	retq
.LBB48_20:                              # %func_exit
	.cfi_def_cfa %rbp, 16
	callq	detect_breach
	jmp	.LBB48_19
.Lfunc_end48:
	.size	spec_random_load.36, .Lfunc_end48-spec_random_load.36
	.cfi_endproc
                                        # -- End function
	.globl	spec_fread.37           # -- Begin function spec_fread.37
	.p2align	4, 0x90
	.type	spec_fread.37,@function
spec_fread.37:                          # @spec_fread.37
	.cfi_startproc
# %bb.0:                                # %entry
	pushq	%rbp
	.cfi_def_cfa_offset 16
	.cfi_offset %rbp, -16
	movq	%rsp, %rbp
	.cfi_def_cfa_register %rbp
	pushq	%rbx
	subq	$40, %rsp
	.cfi_offset %rbx, -24
	movl	$42124028, -32(%rbp)    # imm = 0x282C2FC
	movq	%rdi, -40(%rbp)
	movl	%esi, -20(%rbp)
	movl	%edx, -24(%rbp)
	movl	%ecx, -12(%rbp)
	movl	$0, -16(%rbp)
	movl	$4, %eax
	cmpl	dbglvl, %eax
	jge	.LBB49_2
# %bb.1:                                # %if.then
	movq	-40(%rbp), %rsi
	movl	-20(%rbp), %edx
	movl	-24(%rbp), %ecx
	movl	-12(%rbp), %r8d
	movabsq	$.L.str.12, %rdi
	movb	$0, %al
	callq	printf
.LBB49_2:                               # %if.end
	cmpl	$3, -12(%rbp)
	jle	.LBB49_4
# %bb.3:                                # %if.then2
	movq	stderr, %rdi
	movl	-12(%rbp), %edx
	movabsq	$.L.str.13, %rsi
	movb	$0, %al
	callq	fprintf
	xorl	%edi, %edi
	callq	exit
.LBB49_4:                               # %if.end4
	movslq	-12(%rbp), %rax
	imulq	$24, %rax, %rax
	movabsq	$spec_fd, %rcx
	movq	%rcx, %rdx
	addq	%rax, %rdx
	movl	8(%rdx), %eax
	movslq	-12(%rbp), %rdx
	imulq	$24, %rdx, %rdx
	addq	%rdx, %rcx
	cmpl	4(%rcx), %eax
	jl	.LBB49_8
# %bb.5:                                # %if.then8
	movl	$4, %eax
	cmpl	dbglvl, %eax
	jge	.LBB49_7
# %bb.6:                                # %if.then10
	movabsq	$.L.str.10, %rdi
	movb	$0, %al
	callq	printf
.LBB49_7:                               # %if.end12
	movl	$-1, -28(%rbp)
	jmp	.LBB49_14
.LBB49_8:                               # %if.end13
	movslq	-12(%rbp), %rax
	imulq	$24, %rax, %rax
	movabsq	$spec_fd, %rcx
	movq	%rcx, %rdx
	addq	%rax, %rdx
	movl	8(%rdx), %eax
	movl	-20(%rbp), %edx
	imull	-24(%rbp), %edx
	addl	%edx, %eax
	movslq	-12(%rbp), %rdx
	imulq	$24, %rdx, %rdx
	addq	%rdx, %rcx
	cmpl	4(%rcx), %eax
	jl	.LBB49_10
# %bb.9:                                # %if.then21
	movslq	-12(%rbp), %rax
	imulq	$24, %rax, %rax
	movabsq	$spec_fd, %rcx
	movq	%rcx, %rdx
	addq	%rax, %rdx
	movl	4(%rdx), %eax
	movslq	-12(%rbp), %rdx
	imulq	$24, %rdx, %rdx
	addq	%rdx, %rcx
	subl	8(%rcx), %eax
	cltd
	idivl	-20(%rbp)
	movl	%eax, -16(%rbp)
	jmp	.LBB49_11
.LBB49_10:                              # %if.else
	movl	-24(%rbp), %eax
	movl	%eax, -16(%rbp)
.LBB49_11:                              # %if.end28
	movq	-40(%rbp), %rdi
	movslq	-12(%rbp), %rax
	imulq	$24, %rax, %rax
	movabsq	$spec_fd, %rbx
	movq	%rbx, %rcx
	addq	%rax, %rcx
	movq	16(%rcx), %rsi
	movslq	-12(%rbp), %rax
	imulq	$24, %rax, %rax
	movq	%rbx, %rcx
	addq	%rax, %rcx
	movslq	8(%rcx), %rax
	addq	%rax, %rsi
	movslq	-16(%rbp), %rdx
	callq	memcpy
	movl	-16(%rbp), %eax
	imull	-20(%rbp), %eax
	movslq	-12(%rbp), %rcx
	imulq	$24, %rcx, %rcx
	addq	%rcx, %rbx
	addl	8(%rbx), %eax
	movl	%eax, 8(%rbx)
	movl	$4, %eax
	cmpl	dbglvl, %eax
	jge	.LBB49_13
# %bb.12:                               # %if.then44
	movl	-16(%rbp), %esi
	imull	-20(%rbp), %esi
	movabsq	$.L.str.11, %rdi
	movb	$0, %al
	callq	printf
.LBB49_13:                              # %if.end47
	movl	-16(%rbp), %eax
	movl	%eax, -28(%rbp)
.LBB49_14:                              # %return
	movl	-28(%rbp), %ebx
	cmpl	$42124028, -32(%rbp)    # imm = 0x282C2FC
	jne	.LBB49_16
.LBB49_15:
	movl	%ebx, %eax
	addq	$40, %rsp
	popq	%rbx
	popq	%rbp
	.cfi_def_cfa %rsp, 8
	retq
.LBB49_16:                              # %func_exit
	.cfi_def_cfa %rbp, 16
	callq	detect_breach
	jmp	.LBB49_15
.Lfunc_end49:
	.size	spec_fread.37, .Lfunc_end49-spec_fread.37
	.cfi_endproc
                                        # -- End function
	.section	.rodata.cst8,"aM",@progbits,8
	.p2align	3               # -- Begin function spec_random_load.38
.LCPI50_0:
	.quad	4629700416936869888     # double 32
.LCPI50_1:
	.quad	4643211215818981376     # double 256
	.text
	.globl	spec_random_load.38
	.p2align	4, 0x90
	.type	spec_random_load.38,@function
spec_random_load.38:                    # @spec_random_load.38
	.cfi_startproc
# %bb.0:                                # %entry
	pushq	%rbp
	.cfi_def_cfa_offset 16
	.cfi_offset %rbp, -16
	movq	%rsp, %rbp
	.cfi_def_cfa_register %rbp
	pushq	%rbx
	subq	$4194328, %rsp          # imm = 0x400018
	.cfi_offset %rbx, -24
	movl	$741719665, -24(%rbp)   # imm = 0x2C35BE71
	movl	%edi, -20(%rbp)
	movl	$4, %eax
	cmpl	dbglvl, %eax
	jge	.LBB50_2
# %bb.1:                                # %if.then
	movabsq	$.L.str.2, %rdi
	movb	$0, %al
	callq	printf
.LBB50_2:                               # %if.end
	movl	$0, -12(%rbp)
.LBB50_3:                               # %for.cond
                                        # =>This Loop Header: Depth=1
                                        #     Child Loop BB50_7 Depth 2
	cmpl	$32, -12(%rbp)
	jge	.LBB50_12
# %bb.4:                                # %for.body
                                        #   in Loop: Header=BB50_3 Depth=1
	movl	$5, %eax
	cmpl	dbglvl, %eax
	jge	.LBB50_6
# %bb.5:                                # %if.then3
                                        #   in Loop: Header=BB50_3 Depth=1
	movl	-12(%rbp), %esi
	movabsq	$.L.str.3, %rdi
	movb	$0, %al
	callq	printf
.LBB50_6:                               # %if.end5
                                        #   in Loop: Header=BB50_3 Depth=1
	movl	$0, -16(%rbp)
.LBB50_7:                               # %for.cond6
                                        #   Parent Loop BB50_3 Depth=1
                                        # =>  This Inner Loop Header: Depth=2
	cmpl	$131072, -16(%rbp)      # imm = 0x20000
	jge	.LBB50_10
# %bb.8:                                # %for.body8
                                        #   in Loop: Header=BB50_7 Depth=2
	callq	ran
	vmovsd	.LCPI50_1(%rip), %xmm1  # xmm1 = mem[0],zero
	vmulsd	%xmm1, %xmm0, %xmm0
	vcvttsd2si	%xmm0, %eax
	movslq	-12(%rbp), %rcx
	shlq	$17, %rcx
	leaq	-4194336(%rbp), %rdx
	addq	%rcx, %rdx
	movslq	-16(%rbp), %rcx
	movb	%al, (%rdx,%rcx)
# %bb.9:                                # %for.inc
                                        #   in Loop: Header=BB50_7 Depth=2
	movl	-16(%rbp), %eax
	addl	$1, %eax
	movl	%eax, -16(%rbp)
	jmp	.LBB50_7
.LBB50_10:                              # %for.end
                                        #   in Loop: Header=BB50_3 Depth=1
	jmp	.LBB50_11
.LBB50_11:                              # %for.inc13
                                        #   in Loop: Header=BB50_3 Depth=1
	movl	-12(%rbp), %eax
	addl	$1, %eax
	movl	%eax, -12(%rbp)
	jmp	.LBB50_3
.LBB50_12:                              # %for.end15
	movl	$4, %eax
	cmpl	dbglvl, %eax
	jge	.LBB50_14
# %bb.13:                               # %if.then18
	movabsq	$.L.str.4, %rdi
	movb	$0, %al
	callq	printf
.LBB50_14:                              # %if.end20
	movl	$0, -12(%rbp)
.LBB50_15:                              # %for.cond21
                                        # =>This Inner Loop Header: Depth=1
	movl	-12(%rbp), %eax
	movslq	-20(%rbp), %rcx
	imulq	$24, %rcx, %rcx
	movabsq	$spec_fd, %rdx
	addq	%rcx, %rdx
	cmpl	(%rdx), %eax
	jge	.LBB50_18
# %bb.16:                               # %for.body26
                                        #   in Loop: Header=BB50_15 Depth=1
	movslq	-20(%rbp), %rax
	imulq	$24, %rax, %rax
	movabsq	$spec_fd, %rcx
	addq	%rax, %rcx
	movq	16(%rcx), %rbx
	movslq	-12(%rbp), %rax
	addq	%rax, %rbx
	callq	ran
	vmovsd	.LCPI50_0(%rip), %xmm1  # xmm1 = mem[0],zero
	vmulsd	%xmm1, %xmm0, %xmm0
	vcvttsd2si	%xmm0, %eax
	cltq
	shlq	$17, %rax
	leaq	-4194336(%rbp), %rsi
	addq	%rax, %rsi
	movq	%rbx, %rdi
	movl	$131072, %edx           # imm = 0x20000
	callq	memcpy
# %bb.17:                               # %for.inc34
                                        #   in Loop: Header=BB50_15 Depth=1
	movl	-12(%rbp), %eax
	addl	$131072, %eax           # imm = 0x20000
	movl	%eax, -12(%rbp)
	jmp	.LBB50_15
.LBB50_18:                              # %for.end35
	movslq	-20(%rbp), %rax
	imulq	$24, %rax, %rax
	movabsq	$spec_fd, %rcx
	addq	%rax, %rcx
	movl	$1048576, 4(%rcx)       # imm = 0x100000
	cmpl	$741719665, -24(%rbp)   # imm = 0x2C35BE71
	jne	.LBB50_20
.LBB50_19:
	xorl	%eax, %eax
	addq	$4194328, %rsp          # imm = 0x400018
	popq	%rbx
	popq	%rbp
	.cfi_def_cfa %rsp, 8
	retq
.LBB50_20:                              # %func_exit
	.cfi_def_cfa %rbp, 16
	callq	detect_breach
	jmp	.LBB50_19
.Lfunc_end50:
	.size	spec_random_load.38, .Lfunc_end50-spec_random_load.38
	.cfi_endproc
                                        # -- End function
	.globl	spec_ungetc.39          # -- Begin function spec_ungetc.39
	.p2align	4, 0x90
	.type	spec_ungetc.39,@function
spec_ungetc.39:                         # @spec_ungetc.39
	.cfi_startproc
# %bb.0:                                # %entry
	pushq	%rbp
	.cfi_def_cfa_offset 16
	.cfi_offset %rbp, -16
	movq	%rsp, %rbp
	.cfi_def_cfa_register %rbp
	pushq	%rbx
	subq	$24, %rsp
	.cfi_offset %rbx, -24
	movl	$1359098892, -20(%rbp)  # imm = 0x5102340C
	movb	%dil, -9(%rbp)
	movl	%esi, -16(%rbp)
	movl	$0, -24(%rbp)
	movl	$4, %eax
	cmpl	dbglvl, %eax
	jge	.LBB51_2
# %bb.1:                                # %if.then
	movl	-16(%rbp), %esi
	movabsq	$.L.str.15, %rdi
	movb	$0, %al
	callq	printf
.LBB51_2:                               # %if.end
	cmpl	$3, -16(%rbp)
	jle	.LBB51_4
# %bb.3:                                # %if.then2
	movq	stderr, %rdi
	movl	-16(%rbp), %edx
	movabsq	$.L.str.9, %rsi
	movb	$0, %al
	callq	fprintf
	xorl	%edi, %edi
	callq	exit
.LBB51_4:                               # %if.end4
	movslq	-16(%rbp), %rax
	imulq	$24, %rax, %rax
	movabsq	$spec_fd, %rcx
	addq	%rax, %rcx
	cmpl	$0, 8(%rcx)
	jg	.LBB51_6
# %bb.5:                                # %if.then6
	movq	stderr, %rdi
	movslq	-16(%rbp), %rax
	imulq	$24, %rax, %rax
	movabsq	$spec_fd, %rcx
	addq	%rax, %rcx
	movl	8(%rcx), %edx
	movabsq	$.L.str.16, %rsi
	movb	$0, %al
	callq	fprintf
	xorl	%edi, %edi
	callq	exit
.LBB51_6:                               # %if.end11
	movslq	-16(%rbp), %rax
	imulq	$24, %rax, %rax
	movabsq	$spec_fd, %rcx
	movq	%rcx, %rdx
	addq	%rax, %rdx
	movq	16(%rdx), %rax
	movslq	-16(%rbp), %rdx
	imulq	$24, %rdx, %rdx
	addq	%rdx, %rcx
	movl	8(%rcx), %edx
	addl	$-1, %edx
	movl	%edx, 8(%rcx)
	movslq	%edx, %rcx
	movzbl	(%rax,%rcx), %eax
	movzbl	-9(%rbp), %ecx
	cmpl	%ecx, %eax
	je	.LBB51_8
# %bb.7:                                # %if.then22
	movq	stderr, %rdi
	movabsq	$.L.str.17, %rsi
	movb	$0, %al
	callq	fprintf
	xorl	%edi, %edi
	callq	exit
.LBB51_8:                               # %if.end24
	movl	$4, %eax
	cmpl	dbglvl, %eax
	jge	.LBB51_10
# %bb.9:                                # %if.then27
	movl	-24(%rbp), %esi
	movabsq	$.L.str.11, %rdi
	movb	$0, %al
	callq	printf
.LBB51_10:                              # %if.end29
	movzbl	-9(%rbp), %ebx
	cmpl	$1359098892, -20(%rbp)  # imm = 0x5102340C
	jne	.LBB51_12
.LBB51_11:
	movl	%ebx, %eax
	addq	$24, %rsp
	popq	%rbx
	popq	%rbp
	.cfi_def_cfa %rsp, 8
	retq
.LBB51_12:                              # %func_exit
	.cfi_def_cfa %rbp, 16
	callq	detect_breach
	jmp	.LBB51_11
.Lfunc_end51:
	.size	spec_ungetc.39, .Lfunc_end51-spec_ungetc.39
	.cfi_endproc
                                        # -- End function
	.globl	spec_load.40            # -- Begin function spec_load.40
	.p2align	4, 0x90
	.type	spec_load.40,@function
spec_load.40:                           # @spec_load.40
	.cfi_startproc
# %bb.0:                                # %entry
	pushq	%rbp
	.cfi_def_cfa_offset 16
	.cfi_offset %rbp, -16
	movq	%rsp, %rbp
	.cfi_def_cfa_register %rbp
	pushq	%r14
	pushq	%rbx
	subq	$48, %rsp
	.cfi_offset %rbx, -32
	.cfi_offset %r14, -24
	movl	$284674779, -52(%rbp)   # imm = 0x10F7CADB
	movl	%edi, -20(%rbp)
	movq	%rsi, -48(%rbp)
	movl	%edx, -36(%rbp)
	movq	-48(%rbp), %rdi
	xorl	%esi, %esi
	movb	$0, %al
	callq	open
	movl	%eax, -40(%rbp)
	cmpl	$0, -40(%rbp)
	jge	.LBB52_2
# %bb.1:                                # %if.then
	movq	stderr, %rbx
	movq	-48(%rbp), %r14
	callq	__errno_location
	movl	(%rax), %edi
	callq	strerror
	movq	%rbx, %rdi
	movabsq	$.L.str.5, %rsi
	movq	%r14, %rdx
	movq	%rax, %rcx
	movb	$0, %al
	callq	fprintf
	xorl	%edi, %edi
	callq	exit
.LBB52_2:                               # %if.end
	movslq	-20(%rbp), %rax
	imulq	$24, %rax, %rax
	movabsq	$spec_fd, %rcx
	movq	%rcx, %rdx
	addq	%rax, %rdx
	movl	$0, 4(%rdx)
	movslq	-20(%rbp), %rax
	imulq	$24, %rax, %rax
	addq	%rax, %rcx
	movl	$0, 8(%rcx)
	movl	$0, -32(%rbp)
.LBB52_3:                               # %for.cond
                                        # =>This Inner Loop Header: Depth=1
	movl	-32(%rbp), %eax
	cmpl	-36(%rbp), %eax
	jge	.LBB52_10
# %bb.4:                                # %for.body
                                        #   in Loop: Header=BB52_3 Depth=1
	movl	-40(%rbp), %edi
	movslq	-20(%rbp), %rax
	imulq	$24, %rax, %rax
	movabsq	$spec_fd, %rcx
	addq	%rax, %rcx
	movq	16(%rcx), %rsi
	movslq	-32(%rbp), %rax
	addq	%rax, %rsi
	movl	$131072, %edx           # imm = 0x20000
	callq	read
	movl	%eax, -28(%rbp)
	cmpl	$0, -28(%rbp)
	jne	.LBB52_6
# %bb.5:                                # %if.then12
	jmp	.LBB52_11
.LBB52_6:                               # %if.end13
                                        #   in Loop: Header=BB52_3 Depth=1
	cmpl	$0, -28(%rbp)
	jge	.LBB52_8
# %bb.7:                                # %if.then16
	movq	stderr, %rbx
	movq	-48(%rbp), %r14
	callq	__errno_location
	movl	(%rax), %edi
	callq	strerror
	movq	%rbx, %rdi
	movabsq	$.L.str.6, %rsi
	movq	%r14, %rdx
	movq	%rax, %rcx
	movb	$0, %al
	callq	fprintf
	xorl	%edi, %edi
	callq	exit
.LBB52_8:                               # %if.end20
                                        #   in Loop: Header=BB52_3 Depth=1
	movl	-28(%rbp), %eax
	movslq	-20(%rbp), %rcx
	imulq	$24, %rcx, %rcx
	movabsq	$spec_fd, %rdx
	addq	%rcx, %rdx
	addl	4(%rdx), %eax
	movl	%eax, 4(%rdx)
# %bb.9:                                # %for.inc
                                        #   in Loop: Header=BB52_3 Depth=1
	movl	-28(%rbp), %eax
	addl	-32(%rbp), %eax
	movl	%eax, -32(%rbp)
	jmp	.LBB52_3
.LBB52_10:                              # %for.end.loopexit
	jmp	.LBB52_11
.LBB52_11:                              # %for.end
	movl	-40(%rbp), %edi
	callq	close
.LBB52_12:                              # %while.cond
                                        # =>This Inner Loop Header: Depth=1
	movslq	-20(%rbp), %rax
	imulq	$24, %rax, %rax
	movabsq	$spec_fd, %rcx
	addq	%rax, %rcx
	movl	4(%rcx), %eax
	cmpl	-36(%rbp), %eax
	jge	.LBB52_18
# %bb.13:                               # %while.body
                                        #   in Loop: Header=BB52_12 Depth=1
	movl	-36(%rbp), %eax
	movslq	-20(%rbp), %rcx
	imulq	$24, %rcx, %rcx
	movabsq	$spec_fd, %rdx
	movq	%rdx, %rsi
	addq	%rcx, %rsi
	subl	4(%rsi), %eax
	movl	%eax, -24(%rbp)
	movl	-24(%rbp), %eax
	movslq	-20(%rbp), %rcx
	imulq	$24, %rcx, %rcx
	addq	%rcx, %rdx
	cmpl	4(%rdx), %eax
	jle	.LBB52_15
# %bb.14:                               # %if.then39
                                        #   in Loop: Header=BB52_12 Depth=1
	movslq	-20(%rbp), %rax
	imulq	$24, %rax, %rax
	movabsq	$spec_fd, %rcx
	addq	%rax, %rcx
	movl	4(%rcx), %eax
	movl	%eax, -24(%rbp)
.LBB52_15:                              # %if.end43
                                        #   in Loop: Header=BB52_12 Depth=1
	movl	$3, %eax
	cmpl	dbglvl, %eax
	jge	.LBB52_17
# %bb.16:                               # %if.then46
                                        #   in Loop: Header=BB52_12 Depth=1
	movl	-24(%rbp), %esi
	movabsq	$.L.str.7, %rdi
	movb	$0, %al
	callq	printf
.LBB52_17:                              # %if.end48
                                        #   in Loop: Header=BB52_12 Depth=1
	movslq	-20(%rbp), %rax
	imulq	$24, %rax, %rax
	movabsq	$spec_fd, %rbx
	movq	%rbx, %rcx
	addq	%rax, %rcx
	movq	16(%rcx), %rdi
	movslq	-20(%rbp), %rax
	imulq	$24, %rax, %rax
	movq	%rbx, %rcx
	addq	%rax, %rcx
	movslq	4(%rcx), %rax
	addq	%rax, %rdi
	movslq	-20(%rbp), %rax
	imulq	$24, %rax, %rax
	movq	%rbx, %rcx
	addq	%rax, %rcx
	movq	16(%rcx), %rsi
	movslq	-24(%rbp), %rdx
	callq	memcpy
	movl	-24(%rbp), %eax
	movslq	-20(%rbp), %rcx
	imulq	$24, %rcx, %rcx
	addq	%rcx, %rbx
	addl	4(%rbx), %eax
	movl	%eax, 4(%rbx)
	jmp	.LBB52_12
.LBB52_18:                              # %while.end
	cmpl	$284674779, -52(%rbp)   # imm = 0x10F7CADB
	jne	.LBB52_20
.LBB52_19:
	xorl	%eax, %eax
	addq	$48, %rsp
	popq	%rbx
	popq	%r14
	popq	%rbp
	.cfi_def_cfa %rsp, 8
	retq
.LBB52_20:                              # %func_exit
	.cfi_def_cfa %rbp, 16
	callq	detect_breach
	jmp	.LBB52_19
.Lfunc_end52:
	.size	spec_load.40, .Lfunc_end52-spec_load.40
	.cfi_endproc
                                        # -- End function
	.globl	spec_ungetc.41          # -- Begin function spec_ungetc.41
	.p2align	4, 0x90
	.type	spec_ungetc.41,@function
spec_ungetc.41:                         # @spec_ungetc.41
	.cfi_startproc
# %bb.0:                                # %entry
	pushq	%rbp
	.cfi_def_cfa_offset 16
	.cfi_offset %rbp, -16
	movq	%rsp, %rbp
	.cfi_def_cfa_register %rbp
	pushq	%rbx
	subq	$24, %rsp
	.cfi_offset %rbx, -24
	movl	$543442606, -24(%rbp)   # imm = 0x206446AE
	movb	%dil, -9(%rbp)
	movl	%esi, -16(%rbp)
	movl	$0, -20(%rbp)
	movl	$4, %eax
	cmpl	dbglvl, %eax
	jge	.LBB53_2
# %bb.1:                                # %if.then
	movl	-16(%rbp), %esi
	movabsq	$.L.str.15, %rdi
	movb	$0, %al
	callq	printf
.LBB53_2:                               # %if.end
	cmpl	$3, -16(%rbp)
	jle	.LBB53_4
# %bb.3:                                # %if.then2
	movq	stderr, %rdi
	movl	-16(%rbp), %edx
	movabsq	$.L.str.9, %rsi
	movb	$0, %al
	callq	fprintf
	xorl	%edi, %edi
	callq	exit
.LBB53_4:                               # %if.end4
	movslq	-16(%rbp), %rax
	imulq	$24, %rax, %rax
	movabsq	$spec_fd, %rcx
	addq	%rax, %rcx
	cmpl	$0, 8(%rcx)
	jg	.LBB53_6
# %bb.5:                                # %if.then6
	movq	stderr, %rdi
	movslq	-16(%rbp), %rax
	imulq	$24, %rax, %rax
	movabsq	$spec_fd, %rcx
	addq	%rax, %rcx
	movl	8(%rcx), %edx
	movabsq	$.L.str.16, %rsi
	movb	$0, %al
	callq	fprintf
	xorl	%edi, %edi
	callq	exit
.LBB53_6:                               # %if.end11
	movslq	-16(%rbp), %rax
	imulq	$24, %rax, %rax
	movabsq	$spec_fd, %rcx
	movq	%rcx, %rdx
	addq	%rax, %rdx
	movq	16(%rdx), %rax
	movslq	-16(%rbp), %rdx
	imulq	$24, %rdx, %rdx
	addq	%rdx, %rcx
	movl	8(%rcx), %edx
	addl	$-1, %edx
	movl	%edx, 8(%rcx)
	movslq	%edx, %rcx
	movzbl	(%rax,%rcx), %eax
	movzbl	-9(%rbp), %ecx
	cmpl	%ecx, %eax
	je	.LBB53_8
# %bb.7:                                # %if.then22
	movq	stderr, %rdi
	movabsq	$.L.str.17, %rsi
	movb	$0, %al
	callq	fprintf
	xorl	%edi, %edi
	callq	exit
.LBB53_8:                               # %if.end24
	movl	$4, %eax
	cmpl	dbglvl, %eax
	jge	.LBB53_10
# %bb.9:                                # %if.then27
	movl	-20(%rbp), %esi
	movabsq	$.L.str.11, %rdi
	movb	$0, %al
	callq	printf
.LBB53_10:                              # %if.end29
	movzbl	-9(%rbp), %ebx
	cmpl	$543442606, -24(%rbp)   # imm = 0x206446AE
	jne	.LBB53_12
.LBB53_11:
	movl	%ebx, %eax
	addq	$24, %rsp
	popq	%rbx
	popq	%rbp
	.cfi_def_cfa %rsp, 8
	retq
.LBB53_12:                              # %func_exit
	.cfi_def_cfa %rbp, 16
	callq	detect_breach
	jmp	.LBB53_11
.Lfunc_end53:
	.size	spec_ungetc.41, .Lfunc_end53-spec_ungetc.41
	.cfi_endproc
                                        # -- End function
	.globl	spec_ungetc.42          # -- Begin function spec_ungetc.42
	.p2align	4, 0x90
	.type	spec_ungetc.42,@function
spec_ungetc.42:                         # @spec_ungetc.42
	.cfi_startproc
# %bb.0:                                # %entry
	pushq	%rbp
	.cfi_def_cfa_offset 16
	.cfi_offset %rbp, -16
	movq	%rsp, %rbp
	.cfi_def_cfa_register %rbp
	pushq	%rbx
	subq	$24, %rsp
	.cfi_offset %rbx, -24
	movl	$1766921262, -24(%rbp)  # imm = 0x6951142E
	movb	%dil, -9(%rbp)
	movl	%esi, -16(%rbp)
	movl	$0, -20(%rbp)
	movl	$4, %eax
	cmpl	dbglvl, %eax
	jge	.LBB54_2
# %bb.1:                                # %if.then
	movl	-16(%rbp), %esi
	movabsq	$.L.str.15, %rdi
	movb	$0, %al
	callq	printf
.LBB54_2:                               # %if.end
	cmpl	$3, -16(%rbp)
	jle	.LBB54_4
# %bb.3:                                # %if.then2
	movq	stderr, %rdi
	movl	-16(%rbp), %edx
	movabsq	$.L.str.9, %rsi
	movb	$0, %al
	callq	fprintf
	xorl	%edi, %edi
	callq	exit
.LBB54_4:                               # %if.end4
	movslq	-16(%rbp), %rax
	imulq	$24, %rax, %rax
	movabsq	$spec_fd, %rcx
	addq	%rax, %rcx
	cmpl	$0, 8(%rcx)
	jg	.LBB54_6
# %bb.5:                                # %if.then6
	movq	stderr, %rdi
	movslq	-16(%rbp), %rax
	imulq	$24, %rax, %rax
	movabsq	$spec_fd, %rcx
	addq	%rax, %rcx
	movl	8(%rcx), %edx
	movabsq	$.L.str.16, %rsi
	movb	$0, %al
	callq	fprintf
	xorl	%edi, %edi
	callq	exit
.LBB54_6:                               # %if.end11
	movslq	-16(%rbp), %rax
	imulq	$24, %rax, %rax
	movabsq	$spec_fd, %rcx
	movq	%rcx, %rdx
	addq	%rax, %rdx
	movq	16(%rdx), %rax
	movslq	-16(%rbp), %rdx
	imulq	$24, %rdx, %rdx
	addq	%rdx, %rcx
	movl	8(%rcx), %edx
	addl	$-1, %edx
	movl	%edx, 8(%rcx)
	movslq	%edx, %rcx
	movzbl	(%rax,%rcx), %eax
	movzbl	-9(%rbp), %ecx
	cmpl	%ecx, %eax
	je	.LBB54_8
# %bb.7:                                # %if.then22
	movq	stderr, %rdi
	movabsq	$.L.str.17, %rsi
	movb	$0, %al
	callq	fprintf
	xorl	%edi, %edi
	callq	exit
.LBB54_8:                               # %if.end24
	movl	$4, %eax
	cmpl	dbglvl, %eax
	jge	.LBB54_10
# %bb.9:                                # %if.then27
	movl	-20(%rbp), %esi
	movabsq	$.L.str.11, %rdi
	movb	$0, %al
	callq	printf
.LBB54_10:                              # %if.end29
	movzbl	-9(%rbp), %ebx
	cmpl	$1766921262, -24(%rbp)  # imm = 0x6951142E
	jne	.LBB54_12
.LBB54_11:
	movl	%ebx, %eax
	addq	$24, %rsp
	popq	%rbx
	popq	%rbp
	.cfi_def_cfa %rsp, 8
	retq
.LBB54_12:                              # %func_exit
	.cfi_def_cfa %rbp, 16
	callq	detect_breach
	jmp	.LBB54_11
.Lfunc_end54:
	.size	spec_ungetc.42, .Lfunc_end54-spec_ungetc.42
	.cfi_endproc
                                        # -- End function
	.type	seedi,@object           # @seedi
	.comm	seedi,8,8
	.type	dbglvl,@object          # @dbglvl
	.data
	.globl	dbglvl
	.p2align	2
dbglvl:
	.long	4                       # 0x4
	.size	dbglvl, 4

	.type	.L.str,@object          # @.str
	.section	.rodata.str1.1,"aMS",@progbits,1
.L.str:
	.asciz	"spec_init\n"
	.size	.L.str, 11

	.type	spec_fd,@object         # @spec_fd
	.comm	spec_fd,72,16
	.type	.L.str.1,@object        # @.str.1
.L.str.1:
	.asciz	"spec_init: Error mallocing memory!\n"
	.size	.L.str.1, 36

	.type	.L.str.2,@object        # @.str.2
.L.str.2:
	.asciz	"Creating Chunks\n"
	.size	.L.str.2, 17

	.type	.L.str.3,@object        # @.str.3
.L.str.3:
	.asciz	"Creating Chunk %d\n"
	.size	.L.str.3, 19

	.type	.L.str.4,@object        # @.str.4
.L.str.4:
	.asciz	"Filling input file\n"
	.size	.L.str.4, 20

	.type	.L.str.5,@object        # @.str.5
.L.str.5:
	.asciz	"Can't open file %s: %s\n"
	.size	.L.str.5, 24

	.type	.L.str.6,@object        # @.str.6
.L.str.6:
	.asciz	"Error reading from %s: %s\n"
	.size	.L.str.6, 27

	.type	.L.str.7,@object        # @.str.7
.L.str.7:
	.asciz	"Duplicating %d bytes\n"
	.size	.L.str.7, 22

	.type	.L.str.8,@object        # @.str.8
.L.str.8:
	.asciz	"spec_read: %d, %p, %d = "
	.size	.L.str.8, 25

	.type	.L.str.9,@object        # @.str.9
.L.str.9:
	.asciz	"spec_read: fd=%d, > MAX_SPEC_FD!\n"
	.size	.L.str.9, 34

	.type	.L.str.10,@object       # @.str.10
.L.str.10:
	.asciz	"EOF\n"
	.size	.L.str.10, 5

	.type	.L.str.11,@object       # @.str.11
.L.str.11:
	.asciz	"%d\n"
	.size	.L.str.11, 4

	.type	.L.str.12,@object       # @.str.12
.L.str.12:
	.asciz	"spec_fread: %p, (%d x %d) fd %d ="
	.size	.L.str.12, 34

	.type	.L.str.13,@object       # @.str.13
.L.str.13:
	.asciz	"spec_fread: fd=%d, > MAX_SPEC_FD!\n"
	.size	.L.str.13, 35

	.type	.L.str.14,@object       # @.str.14
.L.str.14:
	.asciz	"spec_getc: %d = "
	.size	.L.str.14, 17

	.type	.L.str.15,@object       # @.str.15
.L.str.15:
	.asciz	"spec_ungetc: %d = "
	.size	.L.str.15, 19

	.type	.L.str.16,@object       # @.str.16
.L.str.16:
	.asciz	"spec_ungetc: pos %d <= 0\n"
	.size	.L.str.16, 26

	.type	.L.str.17,@object       # @.str.17
.L.str.17:
	.asciz	"spec_ungetc: can't unget something that wasn't what was in the buffer!\n"
	.size	.L.str.17, 72

	.type	.L.str.18,@object       # @.str.18
.L.str.18:
	.asciz	"spec_write: %d, %p, %d = "
	.size	.L.str.18, 26

	.type	.L.str.19,@object       # @.str.19
.L.str.19:
	.asciz	"spec_write: fd=%d, > MAX_SPEC_FD!\n"
	.size	.L.str.19, 35

	.type	.L.str.20,@object       # @.str.20
.L.str.20:
	.asciz	"spec_fwrite: %p, %d, %d, %d = "
	.size	.L.str.20, 31

	.type	.L.str.21,@object       # @.str.21
.L.str.21:
	.asciz	"spec_fwrite: fd=%d, > MAX_SPEC_FD!\n"
	.size	.L.str.21, 36

	.type	.L.str.22,@object       # @.str.22
.L.str.22:
	.asciz	"spec_putc: %d, %d = "
	.size	.L.str.22, 21


	.ident	"clang version 9.0.1 (git@github.com:llvm/llvm-project.git 9b2d207cf4b43cfc1a2b6940b3c06e50a1bd127f)"
	.section	".note.GNU-stack","",@progbits
